                	; ============================================================================
                	; bootrom.s
                	;        __
                	;   \\__/ o\    (C) 2014  Robert Finch, Stratford
                	;    \  __ /    All rights reserved.
                	;     \/_//     robfinch<remove>@finitron.ca
                	;       ||
                	;  
                	;
                	; This source file is free software: you can redistribute it and/or modify 
                	; it under the terms of the GNU Lesser General Public License as published 
                	; by the Free Software Foundation, either version 3 of the License, or     
                	; (at your option) any later version.                                      
                	;                                                                          
                	; This source file is distributed in the hope that it will be useful,      
                	; but WITHOUT ANY WARRANTY; without even the implied warranty of           
                	; MERCHANTABILITY or FITNESS FOR A PARTICULAR PURPOSE.  See the            
                	; GNU General Public License for more details.                             
                	;                                                                          
                	; You should have received a copy of the GNU General Public License        
                	; along with this program.  If not, see <http://www.gnu.org/licenses/>.    
                	;                                                                          
                	; ============================================================================
                	;
                	TXTCOLS		EQU		84
                	TXTROWS		EQU		31
                	
                	CR	EQU	0x0D		;ASCII equates
                	LF	EQU	0x0A
                	TAB	EQU	0x09
                	CTRLC	EQU	0x03
                	CTRLH	EQU	0x08
                	CTRLI	EQU	0x09
                	CTRLJ	EQU	0x0A
                	CTRLK	EQU	0x0B
                	CTRLM   EQU 0x0D
                	CTRLS	EQU	0x13
                	CTRLX	EQU	0x18
                	XON		EQU	0x11
                	XOFF	EQU	0x13
                	
                	E_Ok        EQU     $00
                	E_BadMbx    EQU     $05
                	E_Timeout   EQU     $10
                	
                	SC_LSHIFT	EQU		$12
                	SC_RSHIFT	EQU		$59
                	SC_KEYUP	EQU		$F0
                	SC_EXTEND	EQU		$E0
                	SC_CTRL		EQU		$14
                	SC_ALT		EQU		$11
                	SC_DEL		EQU		$71		; extend
                	SC_LCTRL	EQU		$58
                	SC_NUMLOCK	EQU		$77
                	SC_SCROLLLOCK	EQU	$7E
                	SC_CAPSLOCK	EQU		$58
                	SC_TAB      EQU     $0D
                	
                	; Boot sector info (62 byte structure) */
                	BSI_JMP		= 0x00
                	BSI_OEMName	= 0x03
                	BSI_bps		= 0x0B
                	BSI_SecPerCluster	= 0x0D
                	BSI_ResSectors	= 0x0E
                	BSI_FATS	= 0x10
                	BSI_RootDirEnts	= 0x11
                	BSI_Sectors	= 0x13
                	BSI_Media	= 0x15
                	BSI_SecPerFAT	= 0x16
                	BSI_SecPerTrack	= 0x18
                	BSI_Heads	= 0x1A
                	BSI_HiddenSecs	= 0x1C
                	BSI_HugeSecs	= 0x1E
                	
                	BSI_DriveNum	= 0x24
                	BSI_Rsvd1		= 0x25
                	BSI_BootSig		= 0x26
                	BSI_VolID		= 0x27
                	BSI_VolLabel	= 0x2B
                	BSI_FileSysType = 0x36
                	
                	TCB_BIOS_Stack  = $280
                	
                	DBG_STACK   EQU     $7000
                	CPU0_DBG_STACK  EQU     $7CF000
                	CPU0_IRQ_STACK  EQU     $32000
                	CPU0_BIOS_STACK  EQU     $6800
                	MON_STACK   EQU     $6000
                	; CPU1 Ram allocations must be to the dram area.
                	CPU1_SYS_STACK      EQU  $31000
                	CPU1_BIOS_STACK     EQU  $31800
                	CPU0_SYS_STACK      EQU  $5000
                	
                	LEDS	equ		$FFDC0600
                	
                	BIOS_FREE      EQU       0
                	BIOS_DONE      EQU       1
                	BIOS_INSERVICE EQU       2
                	
                	MAX_BIOS_CALL  EQU       100
                	E_BadFuncno    EQU       1
                	BIOS_E_Timeout EQU       2
                	E_Unsupported  EQU       3
                	
                	; The following offsets in the I/O segment
                	TEXTSCR	equ		$FFD00000
                	TEXTREG		EQU		$A0000
                	TEXT_COLS	EQU		0x00
                	TEXT_ROWS	EQU		0x04
                	TEXT_CURPOS	EQU		0x2C
                	TEXT_CURCTL	EQU		0x20
                	
                	BMP_CLUT	EQU		$C5800
                	
                	PIC			EQU		0xFFDC0FC0
                	PIC_IE		EQU		0xFFDC0FC4
                	PIC_ES		EQU		0xFFDC0FD0
                	PIC_RSTE	EQU		0xFFDC0FD4
                	
                	KEYBD		EQU		0xFFDC0000
                	KEYBDCLR	EQU		0xFFDC0004
                	
                	SPIMASTER	EQU		0xFFDC0500
                	SPI_MASTER_VERSION_REG	EQU	0x00
                	SPI_MASTER_CONTROL_REG	EQU	0x04
                	SPI_TRANS_TYPE_REG	EQU		0x08
                	SPI_TRANS_CTRL_REG	EQU		0x0C
                	SPI_TRANS_STATUS_REG	EQU	0x10
                	SPI_TRANS_ERROR_REG		EQU	0x14
                	SPI_DIRECT_ACCESS_DATA_REG		EQU	0x18
                	SPI_SD_SECT_7_0_REG		EQU	0x1C
                	SPI_SD_SECT_15_8_REG	EQU	0x20
                	SPI_SD_SECT_23_16_REG	EQU	0x24
                	SPI_SD_SECT_31_24_REG	EQU	0x28
                	SPI_RX_FIFO_DATA_REG	EQU	0x40
                	SPI_RX_FIFO_DATA_COUNT_MSB	EQU	0x48
                	SPI_RX_FIFO_DATA_COUNT_LSB  EQU 0x4C
                	SPI_RX_FIFO_CTRL_REG		EQU	0x50
                	SPI_TX_FIFO_DATA_REG	EQU	0x80
                	SPI_TX_FIFO_CTRL_REG	EQU	0x90
                	SPI_RESP_BYTE1			EQU	0xC0
                	SPI_RESP_BYTE2			EQU	0xC4
                	SPI_RESP_BYTE3			EQU	0xC8
                	SPI_RESP_BYTE4			EQU	0xCC
                	
                	SPI_INIT_SD			EQU		0x01
                	SPI_TRANS_START		EQU		0x01
                	SPI_TRANS_BUSY		EQU		0x01
                	SPI_INIT_NO_ERROR	EQU		0x00
                	SPI_READ_NO_ERROR	EQU		0x00
                	SPI_WRITE_NO_ERROR	EQU		0x00
                	RW_READ_SD_BLOCK	EQU		0x02
                	RW_WRITE_SD_BLOCK	EQU		0x03
                	
                	I2C_MASTER		EQU		0xFFDC0E00
                	I2C_PRESCALE_LO	EQU		0x00
                	I2C_PRESCALE_HI	EQU		0x01
                	I2C_CONTROL		EQU		0x02
                	I2C_TX			EQU		0x03
                	I2C_RX			EQU		0x03
                	I2C_CMD			EQU		0x04
                	I2C_STAT		EQU		0x04
                	
                	SD_MASTER		EQU		0xFFDC0B00
                	
                	RANDOM_NUM      EQU     0xFFDC0C00
                	
                	UART            EQU     0xFFDC0A00
                	UART_TX         EQU     0
                	UART_RX         EQU     0
                	UART_LS         EQU     1
                	UART_MS         EQU     2
                	UART_IS         EQU     3
                	UART_IE         EQU     4
                	UART_FF         EQU     5
                	UART_MC         EQU     6
                	UART_CTRL       EQU     7
                	UART_CM0        EQU     8
                	UART_CM1        EQU     9
                	UART_CM2        EQU     10
                	UART_CM3        EQU     11
                	UART_SPR        EQU     15
                	
                	; BIOS request structure
                	BIOS_op        EQU     $00
                	BIOS_arg1      EQU     $08
                	BIOS_arg2      EQU     $10
                	BIOS_arg3      EQU     $18
                	BIOS_arg4      EQU     $20
                	BIOS_arg5      EQU     $28
                	BIOS_resp      EQU     $30
                	BIOS_stat      EQU     $38
                	
                	; ============================================================================
                	;        __
                	;   \\__/ o\    (C) 2014,2015  Robert Finch, Stratford
                	;    \  __ /    All rights reserved.
                	;     \/_//     robfinch<remove>@finitron.ca
                	;       ||
                	;  
                	;
                	; This source file is free software: you can redistribute it and/or modify 
                	; it under the terms of the GNU Lesser General Public License as published 
                	; by the Free Software Foundation, either version 3 of the License, or     
                	; (at your option) any later version.                                      
                	;                                                                          
                	; This source file is distributed in the hope that it will be useful,      
                	; but WITHOUT ANY WARRANTY; without even the implied warranty of           
                	; MERCHANTABILITY or FITNESS FOR A PARTICULAR PURPOSE.  See the            
                	; GNU General Public License for more details.                             
                	;                                                                          
                	; You should have received a copy of the GNU General Public License        
                	; along with this program.  If not, see <http://www.gnu.org/licenses/>.    
                	;
                	; DeviceDriver.inc
                	; - Device driver structures and constants                                                                         
                	; ============================================================================
                	
                	;	.global			; global constants
                	
                	; Device Control Block
                	;
                	DCB_Name			EQU		0		; string: first byte is length, 11 chars max
                	DCB_Type			EQU		0x0C
                	DCB_nBPB			EQU		0x10
                	DCB_LastErc			EQU		0x18		; last error code
                	DCB_StartBlock		EQU		0x20		; starting block number (partitioned devices)
                	DCB_nBlocks			EQU		0x28		; number of blocks on device
                	DCB_pCmdProc		EQU		0x30		; pointer to command processor routine
                	DCB_ReentCount		EQU		0x38		; re-entrancy count (1 to 255)
                	DCB_fSingleUser		EQU		0x39
                	DCB_hJob			EQU		0x40		; handle to associated job
                	DCB_Mbx				EQU		0x48
                	DCB_pSema			EQU		0x50		; pointer to device semaphore
                	DCB_Resv1			EQU		0x58		; reserved
                	DCB_Resv2			EQU		0x60		; reserved
                	DCB_Size			EQU		0x68
                	
                	; Device command opcodes
                	;
                	DVC_Nop				EQU		0
                	DVC_Setup			EQU		1
                	DVC_Initialize		EQU		2
                	DVC_Status			EQU		3
                	DVC_MediaCheck		EQU		4
                	DVC_BuildBPB		EQU		5
                	DVC_Open			EQU		6
                	DVC_Close			EQU		7
                	DVC_GetChar			EQU		8
                	DVC_PeekChar		EQU		9
                	DVC_GetCharDirect	EQU		10
                	DVC_PeekCharDirect	EQU		11
                	DVC_InputStatus		EQU		12
                	DVC_PutChar			EQU		13
                	DVC_SetPosition		EQU		15
                	DVC_ReadBlock		EQU		16
                	DVC_WriteBlock		EQU		17
                	DVC_VerifyBlock		EQU		18
                	DVC_OutputStatus	EQU		19
                	DVC_FlushInput		EQU		20
                	DVC_FlushOutput		EQU		21
                	DVC_IRQ				EQU		22
                	DVC_IsRemoveable	EQU		23
                	DVC_IOCTRL_READ		EQU		24
                	DVC_IOCTRL_WRITE	EQU		25
                	DVC_OutputUntilBusy	EQU		26
                	
                	MAX_DEV_OP			EQU		31
                	
                	
                	DRSP_DONE			EQU		1
                	
                	;Standard Devices are:
                	
                	;#		Device					Standard name
                	
                	;0		NULL device 			NUL		(OS built-in)
                	;1		Keyboard (sequential)	KBD		(OS built-in)
                	;2		Video (sequential)		VID		(OS built-in)
                	;3		Printer (parallel 1)	LPT
                	;4		Printer (parallel 2)	LPT2
                	;5		RS-232 1				COM1	(OS built-in)
                	;6		RS-232 2				COM2
                	;7		RS-232 3				COM3
                	;8		RS-232 4				COM4
                	;9
                	;10		Floppy					FD0
                	;11		Floppy					FD1
                	;12		Hard disk				HD0
                	;13		Hard disk				HD1
                	;14
                	;15
                	;16		SDCard					CARD1 	(OS built-in)
                	;17
                	;18
                	;19
                	;20
                	;21
                	;22
                	;23
                	;24
                	;25
                	;26
                	;27
                	;28		Audio					PSG1	(OS built-in)
                	;29
                	;30
                	;31
                	
                	NR_DCB			EQU		32
                	NR_DCB			EQU		32
                	;include "FMTK_Equates.inc"
                	
                		code
                		org		$00010000
010000 3A 15 00 00 		bra     start
010004 00 00 00 00 		align   
                	
010008 34 62 01 00 		dw		ClearScreen_	; $8000
01000C 00 00 00 00 
010010 3C 61 01 00 		dw		HomeCursor_		; $8008
010014 00 00 00 00 
010018 18 69 01 00 		dw		DisplayString_	; $8010
01001C 00 00 00 00 
010020 78 1E 01 00 		dw		KeybdGetCharNoWait; $8018
010024 00 00 00 00 
010028 F8 62 01 00 		dw		ClearBmpScreen_	; $8020
01002C 00 00 00 00 
010030 30 65 01 00 		dw		DisplayChar_		; $8028
010034 00 00 00 00 
010038 C2 00 00 00 		dw		SDInit			; $8030
01003C 00 00 00 80 
010040 C3 00 00 00 		dw		SDReadMultiple	; $8038
010044 00 00 00 80 
010048 C4 00 00 00 		dw		SDWriteMultiple	; $8040
01004C 00 00 00 80 
010050 C5 00 00 00 		dw		SDReadPart		; $8048
010054 00 00 00 80 
010058 C6 00 00 00 		dw		SDDiskSize		; $8050
01005C 00 00 00 80 
010060 B8 0A 01 00 		dw		DisplayWord		; $8058
010064 00 00 00 00 
010068 CC 0A 01 00 		dw		DisplayHalf		; $8060
01006C 00 00 00 00 
010070 E0 0A 01 00 		dw		DisplayCharHex	; $8068
010074 00 00 00 00 
010078 F4 0A 01 00 		dw		DisplayByte		; $8070
01007C 00 00 00 00 
                	BIOS_FuncTable:
010080 34 62       	    dc      ClearScreen_
010082 3C 61       	    dc      HomeCursor_
010084 18 69       	    dc      DisplayString_
010086 78 1E       	    dc      KeybdGetCharNoWait
010088 00 00       	    dc      0
01008A 98 12       	    dc      OutChar
01008C 00 00       	    dc      0
01008E 00 00       	    dc      0
010090 00 00       	    dc      0
010092 00 00       	    dc      0
010094 00 00       	    dc      0
010096 B8 0A       	    dc      DisplayWord
010098 CC 0A       	    dc      DisplayHalf
01009A E0 0A       	    dc      DisplayCharHex
01009C F4 0A       	    dc      DisplayByte
01009E 38 0B       	    dc      DisplayString16
0100A0 00 00       	    dc      0
0100A2 00 00       	    dc      0
0100A4 00 00       	    dc      0
                	    
0100A6 00 00       	    align   
                	
                	message "start"
                	start:
0100A8 FC C2 00 00 	    sw      r0,FMTK_Inited_
0100AC 63 00 20 28 
0100B0 02 10 00 6C 	    cpuid   r1,r0,#0
0100B4 BD 00 30 00 	    beq     r1,CPU0_Start
                	;==============================================================================
                	; Starup for CPU #1
                	;==============================================================================
                	CPU1_Start:
                	    ; First thing to do is set the stack pointer. The stack for task #1 is
                	    ; used.
0100B8 FC C4 00 00 	    ldi     sp,#stacks_+8192+8192-8
0100BC 0A E0 F1 1F 
                	;    ldi     tr,#tcbs+TCB_Size
                	;	sw      sp,TCB_ISP[tr]
                	;	sw      sp,TCB_r30[tr]
                	;	ldi     r1,#BIOS_STACKS_Array+4096+4088  ; so we can call the BIOS during startup
                	;	sw      r1,TCB_BIOS_Stack[tr]
                	;	ldi     r1,#SYS_STACKS_Array+4096+4088  ; so we can call the BIOS during startup
                	;	sw      r1,TCB_SYS_Stack[tr]
                	;	sb      r0,TCB_hJCB[tr]             ; JCB#0 is the system JCB
0100C0 B9 65 00 00 	    bsr     SetupIntVectors1
0100C4 39 43 06 00 		bsr		InitPIC_
0100C8 B9 A6 01 00 		bsr     UnlockBIOS1
                		; Wait for CPU #0 to complete FMTK initialization before proceeding.
                	.0001:
0100CC 3F 00 00 00 	    nop
0100D0 3F 00 00 00 	    nop
0100D4 FC C2 00 00 		lw      r1,FMTK_Inited_
0100D8 46 10 20 28 
0100DC 7C 34 12 00 		cmpu    r1,r1,#$12345678
0100E0 96 10 F0 AC 
0100E4 BD 10 F4 FF 		bne     r1,.0001
0100E8 39 D7 07 00 		bsr     FMTKInitialize_       ;  Initialize for CPU #1
                	.0003:
0100EC 02 00 00 6E 	    cli
0100F0 7C 03 00 00 	    inc     $30000
0100F4 64 10 00 00 
0100F8 7C C2 00 00 	    lw      r1,StartCPU1Flag
0100FC 46 10 80 07 
010100 7C 34 12 00 	    cmp     r1,r1,#$12345678
010104 86 10 F0 AC 
010108 BD 10 F2 FF 	    bne     r1,.0003
01010C 7C C2 00 00 	    jmp     (StartCPU1Addr)
010110 3E 00 90 07 
                	
                	;==============================================================================
                	; Starup for CPU #0
                	;==============================================================================
                	CPU0_Start:
                	    ; First thing to do is set the stack pointer. The stack for task #0 is
                	    ; used.
010114 7C C4 00 00 		ldi     sp,#stacks_+8192-8
010118 0A E0 F1 DF 
01011C 0A 10 02 00 	    ldi     r1,#1                 ; indicate we booted
010120 7C DC FF 00 	    sc      r1,LEDS
010124 61 10 00 0C 
                	
010128 7C 03 00 00 	    ldi     r1,#$30000
01012C 0A 10 00 00 
                	.zap_loop:
010130 E3 00 00 00 	    sw      r0,[r1]
010134 94 10 10 00 	    addui   r1,r1,#8
010138 7C 00 02 00 	    cmpu    r2,r1,#$2000000
01013C 96 20 00 00 
010140 3D 41 F8 FF 	    blt     r2,.zap_loop
                	
                		; Copy initialized data to data area. This must be done ro support the
                		; linked in 'C' modules. The special symbols begin_init_data and
                		; end_init_data identify where the initialization data is.
010144 FC 01 00 00 		lea     r1,begin_init_data
010148 47 10 20 E6 
01014C 7C C1 00 00 		lea     r2,$C10000
010150 47 20 00 00 
                	.cpy_loop:
010154 C6 30 00 00 		lw      r3,[r1]
010158 63 31 00 00 		sw      r3,[r2]
01015C 94 10 10 00 		addui   r1,r1,#8
010160 14 21 10 00 		addui   r2,r2,#8
010164 7C 02 00 00 		cmpu    r3,r1,#end_init_data
010168 96 30 E0 52 
01016C BD 41 F4 FF 		blt     r3,.cpy_loop
010170 0A 10 14 00 	    ldi     r1,#10
010174 7C DC FF 00 	    sc      r1,LEDS
010178 61 10 00 0C 
                	
                	    ; This has to be done before FMTKInitialize is called or other vectors
                	    ; which are set because it first initializes all vectors to the
                	    ; uninitialized IRQ vector.
01017C 39 30 00 00 		bsr		SetupIntVectors
010180 0A 10 18 00 	    ldi     r1,#12
010184 7C DC FF 00 	    sc      r1,LEDS
010188 61 10 00 0C 
                	
01018C B9 C2 07 00 		bsr     FMTKInitialize_
010190 0A 10 1E 00 	    ldi     r1,#15
010194 7C DC FF 00 	    sc      r1,LEDS
010198 61 10 00 0C 
                	
01019C 0A 10 28 00 	    ldi     r1,#20
0101A0 7C DC FF 00 	    sc      r1,LEDS
0101A4 61 10 00 0C 
0101A8 7C C2 00 00 		sw		r0,Milliseconds
0101AC 63 00 10 02 
0101B0 0A 10 FE FF 		ldi     r1,#-1
0101B4 7C C2 00 00 		sw      r1,API_sema
0101B8 63 10 50 07 
0101BC B9 7F 01 00 		bsr     UnlockBIOS
0101C0 B9 F6 00 00 		bsr     UnlockVideoBIOS
0101C4 FC 26 00 00 		ldi		r1,#%000000100_110101110_0000000000
0101C8 0A 10 00 70 
0101CC 7C C2 00 00 		sb		r1,KeybdEcho
0101D0 60 10 7C 02 
0101D4 7C C2 00 00 		sb		r0,KeybdBad
0101D8 60 00 7E 02 
0101DC 7C 01 00 00 		ldi		r1,#VBDisplayChar
0101E0 0A 10 F0 14 
0101E4 7C C2 00 00 		sw		r1,OutputVec
0101E8 63 10 20 02 
0101EC 39 09 0C 00 		bsr		ClearScreen_
0101F0 B9 E9 0B 00 		bsr		HomeCursor_
0101F4 0A 10 22 00 	    ldi     r1,#17
0101F8 7C DC FF 00 	    sc      r1,LEDS
0101FC 61 10 00 0C 
010200 7C 01 00 00 		pea     msgStart
010204 65 E0 95 20 
010208 B9 EE 0C 00 		bsr     DisplayStringCRLF_
01020C 14 EF 11 00 		addui   sp,sp,#8
010210 B9 5E 01 00 		bsr     ROMChecksum
010214 0A 10 26 00 	    ldi     r1,#19
010218 7C DC FF 00 	    sc      r1,LEDS
01021C 61 10 00 0C 
010220 39 5E 19 00 		bsr     dbg_init_
010224 0A 10 2A 00 	    ldi     r1,#21
010228 7C DC FF 00 	    sc      r1,LEDS
01022C 61 10 00 0C 
                	    ; Keyboard init seems to always have a bad return, but the keyboard works
                	    ; anyways so we skip over it.
                	;	bsr		KeybdInit
                	    ; set data breakpoint at FreeTCB address
                	;    ldi     r1,#$C00108
                	;    mtspr   dbad0,r1
                	;    ldi     r1,#$D0001
                	;    mtspr   dbctrl,r1
                	
                	    ; Setup a breakpoint somewhere in the instruction space so that we can test
                	    ; the debugger. The debugger can then be invoked by jumping to the
                	    ; breakpoint address.
010230 7C 01 00 00 	     lea     r1,sprite_main
010234 47 10 C0 5F 
010238 82 00 64 3C 	     mtspr   dbad0,r1
01023C 7C 08 00 00 	     ldi     r1,#$80001
010240 0A 10 02 00 
010244 82 00 6C 3C 	     mtspr   dbctrl,r1
                	
                	;    bsr     ramtest
010248 7C 01 00 00 	    ldi     r1,#UserTickRout     ; set user tick vector
01024C 0A 10 C0 1F 
010250 7C C0 00 00 	    sw      r1,$C00000
010254 63 10 00 00 
010258 B9 10 06 00 		bsr		InitPIC_
01025C 0A 10 2C 00 	    ldi     r1,#22
010260 7C DC FF 00 	    sc      r1,LEDS
010264 61 10 00 0C 
010268 39 4A 00 00 		bsr     InitUart
01026C 0A 10 2E 00 	    ldi     r1,#23
010270 7C DC FF 00 	    sc      r1,LEDS
010274 61 10 00 0C 
010278 B9 F5 02 00 		bsr     RTCCReadbuf          ; read the real-time clock
01027C 0A 10 30 00 	    ldi     r1,#24
010280 7C DC FF 00 	    sc      r1,LEDS
010284 61 10 00 0C 
010288 39 92 05 00 		bsr     set_time_serial_     ; set the system time serial
                	
                		; Startup BIOS call task so that CPU#1 may make BIOS calls
01028C 0A 10 0E 00 		ldi     r1,#%000_111         ; task priority
010290 0A 20 00 00 		ldi     r2,#0                ; cpu affinity
010294 7C 01 00 00 		ldi     r3,#BIOSCallTask|1   ; start address (start in kernel mode)
010298 0A 30 62 1E 
01029C 0A 40 00 00 		ldi     r4,#0                ; start parameter
0102A0 FC C2 00 00 		ldi     r5,#jcbs_             ; owning job
0102A4 0A 50 00 30 
                	;	sys     #FMTK_CALL
                	;	dh      1                    ; start task function
0102A8 0A 10 32 00 	    ldi     r1,#25
0102AC 7C DC FF 00 	    sc      r1,LEDS
0102B0 61 10 00 0C 
0102B4 39 17 0B 00 	    bsr     DumpTaskList_
0102B8 0A 10 34 00 	    ldi     r1,#26
0102BC 7C DC FF 00 	    sc      r1,LEDS
0102C0 61 10 00 0C 
0102C4 3A B8 01 00 		bra		Monitor
                	
                	;==============================================================================
                	;==============================================================================
                	
                	SerialStartMsg:
0102C8 E7 EF 01 00 	    push    lr
0102CC 7C 01 00 00 		ldi     r1,#SerialPutChar
0102D0 0A 10 E8 0A 
0102D4 7C C2 00 00 		sw      r1,OutputVec
0102D8 63 10 20 02 
0102DC 7C 01 00 00 		ldi     r1,#msgStart
0102E0 0A 10 94 20 
0102E4 39 D3 0C 00 		bsr     DisplayStringCRLF_
0102E8 7C 01 00 00 		ldi		r1,#DisplayChar_
0102EC 0A 10 60 CA 
0102F0 7C C2 00 00 		sw		r1,OutputVec
0102F4 63 10 20 02 
0102F8 3B FF 11 00 	    rts
 
                	SetupIntVectors:
0102FC 02 00 14 3C 		mtspr   vbr,r0               ; place vector table at $0000
010300 3F 00 00 00 		nop
010304 3F 00 00 00 		nop
010308 02 20 14 3E 		mfspr   r2,vbr
                	    ; Fill the interrupt vector table with calls to the uninitialized 
                	    ; interrupt routine.
01030C 7C 01 00 00 		ldi     r1,#UninitIRQ
010310 0A 10 B8 56 
010314 0A 30 FE 03 		ldi     r3,#511
                	.0001:
010318 6B 11 C6 00 		sw      r1,[r2+r3*8]
01031C 95 31 02 00 		subui   r3,r3,#1
010320 BD 31 FC FF 		bge     r3,.0001
010324 7C 01 00 00 		ldi     r1,#BIOSCall
010328 0A 10 B8 1D 
01032C 63 11 A0 00 		sw      r1,10*8[r2]
010330 7C 01 00 00 		ldi     r1,#VideoBIOSCall
010334 0A 10 20 13 
010338 63 11 A0 19 		sw      r1,410*8[r2]
01033C 7C 01 00 00 		ldi		r1,#Tick1024Rout
010340 0A 10 20 20 
010344 63 11 20 1C 		sw		r1,450*8[r2]
                	;	ldi		r1,#TickRout         ; This vector will be taken over by FMTK
                	;	sw		r1,451*8[r2]
010348 7C 01 00 00 		ldi     r1,#SerialIRQ
01034C 0A 10 70 0F 
010350 63 11 80 1C 		sw      r1,456*8[r2]
010354 7C 00 00 00 		ldi     r1,#ServiceRequestIRQ
010358 7C 00 00 00 
01035C 0A 10 F8 01 
010360 63 11 90 1C 		sw      r1,457*8[r2]
010364 7C 01 00 00 		ldi		r1,#KeybdIRQ_
010368 0A 10 A0 D3 
01036C 63 11 F0 1C 		sw		r1,463*8[r2]
010370 7C 01 00 00 		ldi     r1,#BoundsIRQ
010374 0A 10 08 57 
010378 63 11 70 1E 		sw      r1,487*8[r2]
01037C 7C 01 00 00 	    ldi     r1,#SSM_ISR          ; set ISR vector for single step routine
010380 0A 10 28 58 
010384 63 11 F0 1E 	    sw      r1,495*8[r2]
010388 7C 01 00 00 	    ldi     r1,#BPT_ISR          ; set ISR vector for breakpoint routine
01038C 0A 10 30 58 
010390 63 11 00 1F 	    sw      r1,496*8[r2]
010394 7C 01 00 00 		ldi		r1,#exf_rout
010398 0A 10 B0 53 
01039C 63 11 10 1F 		sw		r1,497*8[r2]
0103A0 7C 01 00 00 		ldi		r1,#dwf_rout
0103A4 0A 10 20 54 
0103A8 63 11 20 1F 		sw		r1,498*8[r2]
0103AC 7C 01 00 00 		ldi		r1,#drf_rout
0103B0 0A 10 E8 53 
0103B4 63 11 30 1F 		sw		r1,499*8[r2]
0103B8 7C 01 00 00 		ldi		r1,#priv_rout
0103BC 0A 10 58 54 
0103C0 63 11 50 1F 		sw		r1,501*8[r2]
0103C4 7C 01 00 00 		ldi		r1,#berr_rout
0103C8 0A 10 58 57 
0103CC 63 11 C0 1F 		sw		r1,508*8[r2]
0103D0 7C 01 00 00 		ldi		r1,#berr_rout
0103D4 0A 10 58 57 
0103D8 63 11 D0 1F 		sw		r1,509*8[r2]
0103DC 7C 01 00 00 		ldi		r1,#nmi_rout
0103E0 0A 10 20 53 
0103E4 63 11 E0 1F 		sw		r1,510*8[r2]
                		; now we RTI rather than RTL In case the code was restarted from an IRQ
                	    ; routine in which case an internal hardware flag disabling interrupte
                	    ; remains set. An RTI will clear this flag.
0103E8 37 FF 01 00 	    rtl
;	mtspr   isp,sp
                	;	ori     lr,lr,#1      ; stay in kernel mode
                	;	mtspr   ipc,lr
                	;	and     lr,lr,#-4
                	;	rti
                	 
                	; Setup interrupt vector table for processor #1
                	SetupIntVectors1:
0103EC 02 00 14 3C 		mtspr   vbr,r0               ; place vector table at $0000
0103F0 3F 00 00 00 		nop
0103F4 3F 00 00 00 		nop
0103F8 02 20 14 3E 		mfspr   r2,vbr
0103FC 7C 01 00 00 		ldi     r1,#UninitIRQ
010400 0A 10 B8 56 
010404 0A 30 FE 03 		ldi     r3,#511
                	.0001:
010408 6B 11 C6 00 		sw      r1,[r2+r3*8]
01040C 95 31 02 00 		subui   r3,r3,#1
010410 BD 31 FC FF 		bge     r3,.0001
010414 7C 01 00 00 		ldi     r1,#BIOSCall1
010418 0A 10 30 1C 
01041C 63 11 A0 00 		sw      r1,10*8[r2]
010420 7C 01 00 00 		ldi		r1,#TickRout         ; This vector will be taken over by FMTK
010424 0A 10 58 1F 
010428 63 11 30 1C 		sw		r1,451*8[r2]
01042C 7C 00 00 00 		ldi     r1,#ServiceRequestIRQ
010430 7C 00 00 00 
010434 0A 10 F8 01 
010438 63 11 90 1C 		sw      r1,457*8[r2]
01043C 7C 01 00 00 		ldi     r1,#BoundsIRQ
010440 0A 10 08 57 
010444 63 11 70 1E 		sw      r1,487*8[r2]
010448 7C 01 00 00 	    ldi     r1,#SSM_ISR          ; set ISR vector for single step routine
01044C 0A 10 28 58 
010450 63 11 F0 1E 	    sw      r1,495*8[r2]
010454 7C 01 00 00 	    ldi     r1,#BPT_ISR          ; set ISR vector for instruction breakpoint routine
010458 0A 10 30 58 
01045C 63 11 00 1F 	    sw      r1,496*8[r2]
010460 7C 01 00 00 		ldi		r1,#exf_rout
010464 0A 10 B0 53 
010468 63 11 10 1F 		sw		r1,497*8[r2]
01046C 7C 01 00 00 		ldi		r1,#dwf_rout
010470 0A 10 20 54 
010474 63 11 20 1F 		sw		r1,498*8[r2]
010478 7C 01 00 00 		ldi		r1,#drf_rout
01047C 0A 10 E8 53 
010480 63 11 30 1F 		sw		r1,499*8[r2]
010484 7C 01 00 00 		ldi		r1,#priv_rout
010488 0A 10 58 54 
01048C 63 11 50 1F 		sw		r1,501*8[r2]
010490 7C 01 00 00 		ldi		r1,#berr_rout
010494 0A 10 58 57 
010498 63 11 C0 1F 		sw		r1,508*8[r2]
01049C 7C 01 00 00 		ldi		r1,#berr_rout
0104A0 0A 10 58 57 
0104A4 63 11 D0 1F 		sw		r1,509*8[r2]
0104A8 7C 01 00 00 		ldi		r1,#nmi_rout1
0104AC 0A 10 70 53 
0104B0 63 11 E0 1F 		sw		r1,510*8[r2]
                		; now we RTI to clear a hardware flag that disables interrupts. In case the
                		; processor was reset from an IRQ routine.
0104B4 37 FF 01 00 		rtl
;	mtspr   isp,sp
                	;	ori     lr,lr,#1      ; stay in kernel mode
                	;	mtspr   ipc,lr
                	;	and     lr,lr,#-4
                	;	rti
                	 
                	;------------------------------------------------------------------------------
                	; Initialize the interrupt controller.
                	;------------------------------------------------------------------------------
                	; These routines now written in 'C'.
                	;InitPIC:
                	;	ldi		r1,#$000C		; timer interrupt(s) are edge sensitive
                	;	sh		r1,PIC_ES
                	;	ldi		r1,#$000F		; enable keyboard reset, timer interrupts
                	;	sh		r1,PIC_IE
                	;	rtl
                	;
                	; For CPU #1 the only interrupt to be serviced is the 30Hz time slice.
                	;
                	;InitPIC1:
                	;	ldi		r1,#$000C		; timer interrupt(s) are edge sensitive
                	;	sh		r1,PIC_ES
                	;	ldi		r1,#$000B		; enable keyboard reset, timer interrupts
                	;	sh		r1,PIC_IE
                	;	rtl
                	;
                	
                	;==============================================================================
                	; Serial port
                	;==============================================================================
                		code
                	;------------------------------------------------------------------------------
                	; Initialize UART
                	;------------------------------------------------------------------------------
                	
                	InitUart:
0104B8 7C DC FF 00 	    ldi     r2,#UART
0104BC 0A 20 00 14 
                	;    ldi     r1,#$025BF7BA   ; constant for clock multiplier with 16.667MHz clock for 9600 baud
0104C0 FC 27 0E 00 	    ldi     r1,#$0E27CE61   ; constant for clock multiplier with 16.667MHz clock for 57600 baud
0104C4 0A 10 C2 9C 
0104C8 82 10 10 72 	    lsr     r1,r1,#8          ; drop the LSB (not used)
0104CC 60 11 12 00 	    sb      r1,UART_CM1[r2]
0104D0 82 10 10 72 	    lsr     r1,r1,#8
0104D4 60 11 14 00 	    sb      r1,UART_CM2[r2]
0104D8 82 10 10 72 	    lsr     r1,r1,#8
0104DC 60 11 16 00 	    sb      r1,UART_CM3[r2]
0104E0 60 01 0E 00 	    sb      r0,UART_CTRL[r2]           ; no hardware flow control
0104E4 7C C2 00 00 		sc		r0,Uart_rxhead			; reset buffer indexes
0104E8 61 00 1C 03 
0104EC 7C C2 00 00 		sc		r0,Uart_rxtail
0104F0 61 00 20 03 
0104F4 0A 10 E0 03 		ldi		r1,#0x1f0
0104F8 7C C2 00 00 		sc		r1,Uart_foff		; set threshold for XOFF
0104FC 61 10 2C 03 
010500 0A 10 20 00 		ldi		r1,#0x010
010504 7C C2 00 00 		sc		r1,Uart_fon			; set threshold for XON
010508 61 10 30 03 
01050C 0A 10 02 00 		ldi		r1,#1
010510 60 11 08 00 		sb		r1,UART_IE[r2]		; enable receive interrupt only
010514 7C C2 00 00 		sb		r0,Uart_rxrts		; no RTS/CTS signals available
010518 60 00 26 03 
01051C 7C C2 00 00 		sb		r0,Uart_txrts		; no RTS/CTS signals available
010520 60 00 34 03 
010524 7C C2 00 00 		sb		r0,Uart_txdtr		; no DTR signals available
010528 60 00 36 03 
01052C 7C C2 00 00 		sb		r0,Uart_rxdtr		; no DTR signals available
010530 60 00 28 03 
010534 0A 10 02 00 		ldi		r1,#1
010538 7C C2 00 00 		sb		r1,Uart_txxon		; for now
01053C 60 10 38 03 
010540 0A 10 02 00 		ldi		r1,#1
                	;	sb		r1,SERIAL_SEMA
010544 37 FF 01 00 	    rtl

                	;---------------------------------------------------------------------------------
                	; Get character directly from serial port. Blocks until a character is available.
                	;---------------------------------------------------------------------------------
                	;
                	SerialGetCharDirect:
                	sgc1:
010548 7C DC FF 00 		lb		r1,UART+UART_LS	; uart status
01054C 40 10 02 14 
010550 8C 10 02 00 		and		r1,r1,#1		; is there a char available ?
010554 BD 00 FA FF 		beq		r1,sgc1
010558 7C DC FF 00 		lb		r1,UART+UART_RX
01055C 40 10 00 14 
010560 37 FF 01 00 		rtl

                	;------------------------------------------------
                	; Check for a character at the serial port
                	; returns r1 = 1 if char available, 0 otherwise
                	;------------------------------------------------
                	;
                	SerialCheckForCharDirect:
010564 7C DC FF 00 		lb		r1,UART+UART_LS			; uart status
010568 40 10 02 14 
01056C 8C 10 02 00 		and		r1,r1,#rxfull			; is there a char available ?
010570 37 FF 01 00 		rtl

                	;-----------------------------------------
                	; Put character to serial port
                	; r1 = char to put
                	;-----------------------------------------
                	;
                	SerialPutChar:
010574 67 E1 01 00 	    push    r2
010578 E7 E1 01 00 	    push    r3
01057C 67 E2 01 00 		push	r4
010580 E7 E2 01 00 		push	r5
010584 67 E3 01 00 	    push    r6
010588 7C DC FF 00 	    ldi     r6,#UART
01058C 0A 60 00 14 
010590 40 23 0C 00 		lb		r2,UART_MC[r6]
010594 0D 21 06 00 		or		r2,r2,#3		; assert DTR / RTS
010598 60 23 0C 00 		sb		r2,UART_MC[r6]
01059C 7C C2 00 00 		lb		r2,Uart_txrts
0105A0 40 20 34 03 
0105A4 3D 01 1E 00 		beq		r2,spcb1
0105A8 7C C2 00 00 		lw		r4,Milliseconds
0105AC 46 40 10 02 
0105B0 0A 30 00 08 		ldi		r3,#1024		; delay count (1 s)
                	spcb3:
0105B4 40 23 04 00 		lb		r2,UART_MS[r6]
0105B8 0C 21 20 00 		and		r2,r2,#$10		; is CTS asserted ?
0105BC 3D 11 12 00 		bne		r2,spcb1
0105C0 7C C2 00 00 		lw		r5,Milliseconds
0105C4 46 50 10 02 
0105C8 02 22 0A 0C 		cmp		r2,r4,r5
0105CC 3D 01 F4 FF 		beq		r2,spcb3
0105D0 82 42 00 1A 		mov		r4,r5
0105D4 95 31 02 00 		subui   r3,r3,#1
0105D8 BD 11 EE FF 		bne		r3,spcb3
0105DC 3A 15 00 00 		bra		spcabort
                	spcb1:
0105E0 7C C2 00 00 		lb		r2,Uart_txdtr
0105E4 40 20 36 03 
0105E8 3D 01 1E 00 		beq		r2,spcb2
0105EC 7C C2 00 00 		lw		r4,Milliseconds
0105F0 46 40 10 02 
0105F4 0A 30 00 08 		ldi		r3,#1024		; delay count
                	spcb4:
0105F8 40 23 04 00 		lb		r2,UART_MS[r6]
0105FC 0C 21 40 00 		and		r2,r2,#$20		; is DSR asserted ?
010600 3D 11 12 00 		bne		r2,spcb2
010604 7C C2 00 00 		lw		r5,Milliseconds
010608 46 50 10 02 
01060C 02 22 0A 0C 		cmp		r2,r4,r5
010610 3D 01 F4 FF 		beq		r2,spcb4
010614 82 42 00 1A 		mov		r4,r5
010618 95 31 02 00 		subui   r3,r3,#1
01061C BD 11 EE FF 		bne		r3,spcb4
010620 BA 0C 00 00 		bra		spcabort
                	spcb2:	
010624 7C C2 00 00 		lb		r2,Uart_txxon
010628 40 20 38 03 
01062C 3D 01 0E 00 		beq		r2,spcb5
                	spcb6:
010630 7C C2 00 00 		lb		r2,Uart_txxonoff
010634 40 20 1A 03 
010638 3D 01 08 00 		beq		r2,spcb5
01063C 40 43 04 00 		lb		r4,UART_MS[r6]
010640 0C 42 00 01 		and		r4,r4,#0x80			; DCD ?
010644 3D 12 F6 FF 		bne		r4,spcb6
                	spcb5:
010648 7C C2 00 00 		lw		r4,Milliseconds
01064C 46 40 10 02 
010650 0A 30 00 08 		ldi		r3,#1024			; wait up to 1s
                	spcb8:
010654 40 23 02 00 		lb		r2,UART_LS[r6]
010658 0C 21 40 00 		and		r2,r2,#0x20			; tx not full ?
01065C 3D 11 12 00 		bne		r2,spcb7
010660 7C C2 00 00 		lw		r5,Milliseconds
010664 46 50 10 02 
010668 02 22 0A 0C 		cmp		r2,r4,r5
01066C 3D 01 F4 FF 		beq		r2,spcb8
010670 82 42 00 1A 		mov		r4,r5
010674 95 31 02 00 		subui   r3,r3,#1
010678 BD 11 EE FF 		bne		r3,spcb8
01067C 3A 01 00 00 		bra		spcabort
                	spcb7:
010680 60 13 00 00 		sb		r1,UART_TX[r6]
                	spcabort:
010684 57 6F 10 00 	    pop     r6
010688 57 5F 10 00 		pop		r5
01068C 57 4F 10 00 		pop		r4
010690 57 3F 10 00 		pop     r3
010694 57 2F 10 00 		pop     r2
010698 37 FF 01 00 		rtl

                	
                	;-------------------------------------------------
                	; Compute number of characters in recieve buffer.
                	; r4 = number of chars
                	;-------------------------------------------------
                	CharsInRxBuf:
01069C 7C C2 00 00 		lcu		r4,Uart_rxhead
0106A0 43 40 1C 03 
0106A4 7C C2 00 00 		lcu		r3,Uart_rxtail
0106A8 43 30 20 03 
0106AC 02 42 06 2A 		subu	r4,r4,r3
0106B0 3D 22 0C 00 		bgt		r4,cirxb1
0106B4 0A 40 00 04 		ldi		r4,#0x200
0106B8 02 42 06 28 		addu	r4,r4,r3
0106BC 7C C2 00 00 		lcu		r3,Uart_rxhead
0106C0 43 30 1C 03 
0106C4 02 42 06 2A 		subu	r4,r4,r3
                	cirxb1:
0106C8 37 FF 01 00 		rtl

                	;----------------------------------------------
                	; Get character from rx fifo
                	; If the fifo is empty enough then send an XON
                	;----------------------------------------------
                	;
                	SerialGetChar:
0106CC 67 E1 01 00 	    push    r2
0106D0 E7 E1 01 00 	    push    r3
0106D4 67 E2 01 00 		push	r4
0106D8 E7 E2 01 00 	    push    r5
0106DC 7C DC FF 00 	    ldi     r5,#UART
0106E0 0A 50 00 14 
0106E4 7C C2 00 00 		lcu		r3,Uart_rxhead
0106E8 43 30 1C 03 
0106EC 7C C2 00 00 		lcu		r2,Uart_rxtail
0106F0 43 20 20 03 
0106F4 02 31 06 0C 		cmp		r3,r2,r3
0106F8 BD 01 54 00 		beq		r3,sgcfifo1		    ; is there a char available ?
0106FC 7C C2 00 00 		lbu		r1,Uart_rxfifo[r2]	; get the char from the fifo into r1
010700 41 11 3A 03 
010704 14 21 02 00 		addui   r2,r2,#1    		; increment the fifo pointer
010708 0C 21 FE 03 		and		r2,r2,#$1ff
01070C 7C C2 00 00 		sc		r2,Uart_rxtail
010710 61 20 20 03 
010714 7C C2 00 00 		lb		r2,Uart_rxflow		; using flow control ?
010718 40 20 24 03 
01071C 3D 01 38 00 		beq		r2,sgcfifo2
010720 7C C2 00 00 		lcu		r3,Uart_fon		; enough space in Rx buffer ?
010724 43 30 30 03 
010728 E7 EF 01 00 		push    lr
01072C 39 EE FF FF 		bsr		CharsInRxBuf
010730 57 FF 11 00 		pop     lr
010734 02 42 06 0C 		cmp		r4,r4,r3
010738 3D 22 2A 00 		bgt		r4,sgcfifo2
01073C 7C C2 00 00 		sb		r0,Uart_rxflow		; flow off
010740 60 00 24 03 
010744 7C C2 00 00 		lb		r4,Uart_rxrts
010748 40 40 26 03 
01074C 3D 02 08 00 		beq		r4,sgcfifo3
010750 C0 42 0C 00 		lb		r4,UART_MC[r5]		; set rts bit in MC
010754 0D 42 04 00 		or		r4,r4,#2
010758 E0 42 0C 00 		sb		r4,UART_MC[r5]
                	sgcfifo3:
01075C 7C C2 00 00 		lb		r4,Uart_rxdtr
010760 40 40 28 03 
010764 3D 02 08 00 		beq		r4,sgcfifo4
010768 C0 42 0C 00 		lb		r4,UART_MC[r5]		; set DTR
01076C 0D 42 02 00 		or		r4,r4,#1
010770 E0 42 0C 00 		sb		r4,UART_MC[r5]
                	sgcfifo4:
010774 7C C2 00 00 		lb		r4,Uart_rxxon
010778 40 40 2A 03 
01077C 3D 02 08 00 		beq		r4,sgcfifo5
010780 0A 40 22 00 		ldi		r4,#XON
010784 7C DC FF 00 		sb		r4,UART[r5]
010788 E0 42 00 14 
                	sgcfifo5:
                	sgcfifo2:					; return with char in r1
01078C 57 5F 10 00 	    pop     r5
010790 57 4F 10 00 		pop		r4
010794 57 3F 10 00 		pop     r3
010798 57 2F 10 00 		pop     r2
01079C 37 FF 01 00 		rtl
sgcfifo1:
0107A0 0A 10 FE FF 		ldi		r1,#-1				; no char available
0107A4 57 5F 10 00 		pop     r5
0107A8 57 4F 10 00 		pop		r4
0107AC 57 3F 10 00 		pop     r3
0107B0 57 2F 10 00 		pop     r2
0107B4 3B FF 11 00 		rts

                	
                	;-----------------------------------------
                	; Serial port IRQ
                	;-----------------------------------------
                	;
                	SerialIRQ:
0107B8 7C 03 00 00 	    ldi     sp,#CPU0_IRQ_STACK
0107BC 0A E0 01 40 
0107C0 E7 E0 01 00 		push    r1
0107C4 67 E1 01 00 		push    r2
0107C8 E7 E1 01 00 		push    r3
0107CC 67 E2 01 00 		push	r4
                	
0107D0 7C DC FF 00 	    ldi     r2,#UART
0107D4 0A 20 00 14 
0107D8 40 11 06 00 	    lb      r1,UART_IS[r2]  ; get interrupt status
0107DC BD 20 10 00 		bgt		r1,sirq1		; no interrupt
0107E0 8C 10 FE 00 		and		r1,r1,#0x7f  	; switch on interrupt type
0107E4 86 30 08 00 		cmp		r3,r1,#4
0107E8 BD 01 1E 00 		beq		r3,srxirq
0107EC 86 30 18 00 		cmp		r3,r1,#$0C
0107F0 BD 01 18 00 		beq		r3,stxirq
0107F4 86 30 20 00 		cmp		r3,r1,#$10
0107F8 BD 01 0C 00 		beq		r3,smsirq
                		; unknown IRQ type
                	sirq1:
0107FC 57 4F 10 00 		pop		r4
010800 57 3F 10 00 		pop     r3
010804 57 2F 10 00 		pop     r2
010808 57 1F 10 00 		pop     r1
01080C 02 E0 3F 6E 		rti
                	
                	; Get the modem status and record it
                	smsirq:
010810 41 11 04 00 	    lbu     r1,UART_MS[r2]
010814 7C C2 00 00 		sb      r1,Uart_ms
010818 60 10 18 03 
01081C 3A FC FF FF 		bra		sirq1
                	
                	stxirq:
010820 BA FB FF FF 		bra		sirq1
                	
                	; Get a character from the uart and store it in the rx fifo
                	srxirq:
                	srxirq1:
010824 41 11 00 00 	    lbu     r1,UART_RX[r2]      ; get the char (clears interrupt)
010828 7C C2 00 00 	    lbu     r3,Uart_txxon
01082C 41 30 38 03 
010830 BD 01 18 00 		beq		r3,srxirq3
010834 86 40 26 00 		cmp		r4,r1,#XOFF
010838 3D 12 0A 00 		bne		r4,srxirq2
01083C 0A 10 02 00 		ldi     r1,#1
010840 7C C2 00 00 		sb		r1,Uart_txxonoff
010844 60 10 1A 03 
010848 3A 08 00 00 		bra		srxirq5
                	srxirq2:
01084C 86 40 22 00 		cmp		r4,r1,#XON
010850 3D 12 08 00 		bne		r4,srxirq3
010854 7C C2 00 00 		sb		r0,Uart_txxonoff
010858 60 00 1A 03 
01085C BA 05 00 00 		bra		srxirq5
                	srxirq3:
010860 7C C2 00 00 		sb		r0,Uart_txxonoff
010864 60 00 1A 03 
010868 7C C2 00 00 		lcu		r4,Uart_rxhead
01086C 43 40 1C 03 
010870 7C C2 00 00 		sb		r1,Uart_rxfifo[r4]  ; store in buffer
010874 60 12 3A 03 
010878 14 42 02 00 		addui   r4,r4,#1
01087C 0C 42 FE 03 		and		r4,r4,#$1ff
010880 7C C2 00 00 		sc		r4,Uart_rxhead
010884 61 40 1C 03 
                	srxirq5:
010888 40 11 02 00 	    lb      r1,UART_LS[r2]      ; check for another ready character
01088C 8C 10 02 00 		and		r1,r1,#1            ; check rxfull bit
010890 BD 10 CA FF 		bne		r1,srxirq1          ; loop back for another character
010894 7C C2 00 00 		lb		r1,Uart_rxflow		; are we using flow controls?
010898 40 10 24 03 
01089C BD 10 38 00 		bne		r1,srxirq8
0108A0 E7 EF 01 00 		push    lr
0108A4 39 BF FF FF 		bsr		CharsInRxBuf
0108A8 57 FF 11 00 		pop     lr
0108AC 7C C2 00 00 		lb		r1,Uart_foff
0108B0 40 10 2C 03 
0108B4 02 12 02 0C 		cmp		r1,r4,r1
0108B8 BD 40 2A 00 		blt		r1,srxirq8
0108BC 0A 10 02 00 		ldi		r1,#1
0108C0 7C C2 00 00 		sb		r1,Uart_rxflow
0108C4 60 10 24 03 
0108C8 7C C2 00 00 		lb		r1,Uart_rxrts
0108CC 40 10 26 03 
0108D0 BD 00 08 00 		beq		r1,srxirq6
0108D4 40 11 0C 00 		lb		r1,UART_MC[r2]
0108D8 8C 10 FA 01 		and		r1,r1,#$FD		; turn off RTS
0108DC 60 11 0C 00 		sb		r1,UART_MC[r2]
                	srxirq6:
0108E0 7C C2 00 00 		lb		r1,Uart_rxdtr
0108E4 40 10 28 03 
0108E8 BD 00 08 00 		beq		r1,srxirq7
0108EC 40 11 0C 00 		lb		r1,UART_MC[r2]
0108F0 8C 10 FC 01 		and		r1,r1,#$FE		; turn off DTR
0108F4 60 11 0C 00 		sb		r1,UART_MC[r2]
                	srxirq7:
0108F8 7C C2 00 00 		lb		r1,Uart_rxxon
0108FC 40 10 2A 03 
010900 BD 00 06 00 		beq		r1,srxirq8
010904 0A 10 26 00 		ldi		r1,#XOFF
010908 60 11 00 00 		sb		r1,UART_TX[r2]
                	srxirq8:
01090C 3A DE FF FF 		bra		sirq1
                	
                	
                	;------------------------------------------------------------------------------
                	; Video BIOS
                	; Video Exception #410
                	;
                	; Function in R6
                	; 0x02 = Set Cursor Position	r1 = row, r2 = col 
                	; 0x03 = Get Cursor position	returns r1 = row, r2 = col
                	; 0x06 = Scroll screen up
                	; 0x09 = Display character+attribute, r1=char, r2=attrib, r3=#times
                	; 0x0A = Display character at cursor position, r1 = char, r2 = # times
                	; 0x0B = Set background color, r1 = color
                	; 0x0C = Display Pixel r1 = x, r2 = y, r3 = color
                	; 0x0D = Get pixel  r1 = x, r2 = y
                	; 0x0E = Teletype output, r1 = char
                	; 0x14 = Display String	r1 = pointer to string
                	; 0x15 = Display number r1 = number, r2 = # digits
                	; 0x16 = Display String + CRLF   r1 = pointer to string
                	; 0x17 = Display Word r1 as hex = word
                	; 0x18 = Display Half word as hex r1 = half word
                	; 0x19 = Display Charr char in hex r1 = char
                	; 0x1A = Display Byte in hex r1 = byte
                	; 0x1B = Display String -wide characters r1=pointer to string
                	; 0x1C = Display hexidecimal number, r1 = number, r2 = # of digits
                	; 0x20 = Convert ascii to screen
                	; 0x21 = Convert screen to ascii
                	; 0x22 = Set normal attribute
                	; 0x23 = Get normal attribute
                	;------------------------------------------------------------------------------
                	
                	MAX_VIDEO_BIOS_CALL = 0x23
                	TCB_BIOS_Stack      EQU   $280
                	
                	    code
                	    align   2                	
                	VideoBIOS_FuncTable:
010910 00 00       	    dc      0            ; 0x00
010912 00 00       	    dc      0
010914 54 0A       	    dc      VBSetCursorPos ; 0x02
010916 6C 0A       	    dc      VBGetCursorPos ; 0x03
010918 00 00       	    dc      0
01091A 00 00       	    dc      0
01091C 48 0C       	    dc      VBScrollUp     ; 0x06
01091E 00 00       	    dc      0
010920 00 00       	    dc      0
010922 F4 09       	    dc      DispCharAttr ; 0x09
010924 00 00       	    dc      0
010926 3F 01       	    dc      SetBkColor   ; 0x0B
010928 40 01       	    dc      SetPixel     ; 0x0C
01092A 41 01       	    dc      GetPixel     ; 0x0D
01092C 78 0A       	    dc      VBDisplayChar  ; 0x0E
01092E 00 00       	    dc      0
010930 00 00       	    dc      0
010932 00 00       	    dc      0
010934 00 00       	    dc      0
010936 00 00       	    dc      0
010938 42 01       	    dc      VBDisplayString  ; 0x14
01093A 98 0B       	    dc      PRTNUM         ; 0x15
01093C 7C 69       	    dc      DisplayStringCRLF_    ; 0x16
01093E B8 0A       	    dc      DisplayWord    ; 0x17
010940 CC 0A       	    dc      DisplayHalf    ; 0x18
010942 E0 0A       	    dc      DisplayCharHex ; 0x19
010944 F4 0A       	    dc      DisplayByte    ; 0x1A
010946 44 01       	    dc      VBDisplayString16  ; 0x1B
010948 00 00       	    dc      0
01094A 00 00       	    dc      0
01094C 00 00       	    dc      0
01094E 00 00       	    dc      0
010950 8C 0A       	    dc      VBAsciiToScreen    ; 0x20
010952 2C 0C       	    dc      VBScreenToAscii    ; 0x21
010954 A0 0A       	    dc      VBSetCurrAttr      ; 0x22
010956 B4 0A       	    dc      VBGetCurrAttr      ; 0x23
                	    
                	    
                	                    
                	    align   4                	
                	;------------------------------------------------------------------------------
                	;------------------------------------------------------------------------------
                	
                	LockVideoBIOS:
010958 E7 EF 01 00 	    push    lr
01095C E7 E0 01 00 	    push    r1
010960 7C C2 00 00 	    ldi     r1,#VideoBIOS_sema
010964 0A 10 00 02 
010968 39 EF 1A 00 	    bsr     LockSema
01096C 57 1F 10 00 	    pop     r1
010970 3B FF 11 00 	    rts
UnlockVideoBIOS:
010974 E7 EF 01 00 	    push    lr
010978 E7 E0 01 00 	    push    r1
01097C 7C C2 00 00 	    lea     r1,VideoBIOS_sema
010980 47 10 00 02 
010984 B9 F4 1A 00 	    bsr     UnlockSema
010988 57 1F 10 00 	    pop     r1
01098C 3B FF 11 00 	    rts

                	;------------------------------------------------------------------------------
                	;------------------------------------------------------------------------------
                	
                	VideoBIOSCall:
010990 46 EC 01 05 	    lw      sp,TCB_BIOS_Stack[tr]
010994 E7 EF 01 00 	    push    lr
010998 39 F8 FF FF 	    bsr     LockVideoBIOS
01099C 67 E5 01 00 	    push    r10
0109A0 02 A0 12 3E 	    mfspr   r10,epc             ; update the return address
0109A4 14 A5 08 00 	    addui   r10,r10,#4
0109A8 02 05 12 3C 	    mtspr   epc,r10
0109AC 06 A3 46 00 	    cmp     r10,r6,#MAX_VIDEO_BIOS_CALL
0109B0 3D 25 1A 00 	    bgt     r10,.0003
0109B4 7C 01 00 00 	    lea     r10,VideoBIOS_FuncTable
0109B8 47 A0 20 12 
0109BC 4B A5 4C 00 	    lcu     r10,[r10+r6*2]
0109C0 3D 05 16 00 	    beq     r10,.0005
0109C4 7C 01 00 00 	    or      r10,r10,#VideoBIOSCall & 0xFFFFFFFFFFFF0000    ; recover high order bits
0109C8 0D A5 00 00 
0109CC 3C F5 01 00 	    jsr     [r10]
                	.0004:
0109D0 3F 00 00 00 	    nop
0109D4 39 F4 FF FF 	    bsr     UnlockVideoBIOS
0109D8 57 AF 10 00 	    pop     r10
0109DC 57 FF 11 00 	    pop     lr
0109E0 02 E0 3D 6E 	    rte
                	.0003:
0109E4 0A 20 02 00 	    ldi     r2,#E_BadFuncno
0109E8 3A FD FF FF 	    bra     .0004
                	.0005:
0109EC 0A 20 06 00 	    ldi     r2,#E_Unsupported
0109F0 3A FC FF FF 	    bra     .0004
                	
                	;------------------------------------------------------------------------------
                	; Display a character with a specific attribute.
                	;------------------------------------------------------------------------------
                	
                	DispCharAttr:
0109F4 E7 EF 01 00 	    push    lr
0109F8 E7 E1 01 00 	    push    r3
0109FC 67 E2 01 00 	    push    r4
010A00 E7 E2 01 00 	    push    r5
010A04 82 40 00 1A 	    mov     r4,r1
010A08 B9 35 05 00 	    bsr     GetJCBPtr_
010A0C 82 50 00 1A 	    mov     r5,r1
010A10 7C 00 00 00 	    lh      r3,JCB_NormAttr[r5]
010A14 7C 00 00 00 
010A18 C4 32 A2 02 
010A1C E7 E1 01 00 	    push    r3
010A20 7C 00 00 00 	    sh      r2,JCB_NormAttr[r5]
010A24 7C 00 00 00 
010A28 E2 22 A2 02 
010A2C 02 12 00 1A 	    mov     r1,r4
010A30 39 0D 01 00 	    bsr     OutChar
010A34 57 3F 10 00 	    pop     r3
010A38 7C 00 00 00 	    sh      r3,JCB_NormAttr[r5]    ; restore normal attribute
010A3C 7C 00 00 00 
010A40 E2 32 A2 02 
010A44 57 5F 10 00 	    pop     r5
010A48 57 4F 10 00 	    pop     r4
010A4C 57 3F 10 00 	    pop     r3
010A50 3B FF 11 00 	    rts

                	VBSetCursorPos:
010A54 E7 EF 01 00 	    push    lr
010A58 67 E1 01 00 	    push    r2
010A5C E7 E0 01 00 	    push    r1
010A60 B9 74 0A 00 	    bsr     SetCursorPos_
010A64 14 EF 21 00 	    addui   sp,sp,#16
010A68 3B FF 11 00 	    rts

                	VBGetCursorPos:
010A6C E7 EF 01 00 	    push    lr
010A70 B9 8A 0A 00 	    bsr     GetCursorPos_
010A74 3B FF 11 00 	    rts

                	VBDisplayChar:
010A78 E7 EF 01 00 	    push    lr
010A7C E7 E0 01 00 	    push    r1
010A80 39 56 0B 00 	    bsr     DisplayChar_
010A84 14 EF 11 00 	    addui   sp,sp,#8
010A88 3B FF 11 00 	    rts

                	VBAsciiToScreen:
010A8C E7 EF 01 00 	    push    lr
010A90 E7 E0 01 00 	    push    r1
010A94 B9 A4 0A 00 	    bsr     AsciiToScreen_
010A98 14 EF 11 00 	    addui   sp,sp,#8
010A9C 3B FF 11 00 	    rts

                	VBSetCurrAttr:
010AA0 E7 EF 01 00 	    push    lr
010AA4 E7 E0 01 00 	    push    r1
010AA8 39 5B 0A 00 	    bsr     SetCurrAttr_
010AAC 14 EF 11 00 	    addui   sp,sp,#8
010AB0 3B FF 11 00 	    rts

                	VBGetCurrAttr:
010AB4 BA 50 0A 00 	    bra     GetCurrAttr_
                	
                	;------------------------------------------------------------------------------
                	; Display the word in r1
                	;------------------------------------------------------------------------------
                	
                	DisplayWord:
010AB8 E7 EF 01 00 	    push    lr
010ABC 82 10 40 74 		rol	    r1,r1,#32
010AC0 B9 01 00 00 		bsr		DisplayHalf
010AC4 82 10 40 74 		rol	    r1,r1,#32
010AC8 57 FF 11 00 	    pop     lr
                	
                	;------------------------------------------------------------------------------
                	; Display the half-word in r1
                	;------------------------------------------------------------------------------
                	
                	DisplayHalf:
010ACC E7 EF 01 00 	    push    lr
010AD0 82 10 20 76 		ror		r1,r1,#16
010AD4 B9 01 00 00 		bsr		DisplayCharHex
010AD8 82 10 20 74 		rol		r1,r1,#16
010ADC 57 FF 11 00 	    pop     lr
                	
                	;------------------------------------------------------------------------------
                	; Display the char in r1
                	;------------------------------------------------------------------------------
                	
                	DisplayCharHex:
010AE0 E7 EF 01 00 	    push    lr
010AE4 82 10 10 76 		ror		r1,r1,#8
010AE8 B9 01 00 00 		bsr		DisplayByte
010AEC 82 10 10 74 		rol		r1,r1,#8
010AF0 57 FF 11 00 	    pop     lr
                	
                	;------------------------------------------------------------------------------
                	; Display the byte in r1
                	;------------------------------------------------------------------------------
                	
                	DisplayByte:
010AF4 E7 EF 01 00 	    push    lr
010AF8 82 10 08 76 		ror		r1,r1,#4
010AFC B9 01 00 00 		bsr		DisplayNybble
010B00 82 10 08 74 		rol		r1,r1,#4
010B04 57 FF 11 00 		pop     lr
                	 
                	;------------------------------------------------------------------------------
                	; Display nybble in r1
                	;------------------------------------------------------------------------------
                	
                	DisplayNybble:
010B08 E7 EF 01 00 	    push    lr
010B0C E7 E0 01 00 		push	r1
010B10 67 E1 01 00 		push    r2
010B14 8C 10 1E 00 		and		r1,r1,#$0F
010B18 94 10 60 00 		addui	r1,r1,#'0'
010B1C 96 20 74 00 		cmpu	r2,r1,#'9'+1
010B20 3D 41 04 00 		blt		r2,.0001
010B24 94 10 0E 00 		addui	r1,r1,#7
                	.0001:
010B28 39 EE 00 00 		bsr		OutChar
010B2C 57 2F 10 00 		pop     r2
010B30 57 1F 10 00 		pop		r1
010B34 3B FF 11 00 		rts

                	;------------------------------------------------------------------------------
                	; Display a string pointer to string in r1 using 16 bit characters.
                	;------------------------------------------------------------------------------
                	
                	DisplayString16:
010B38 E7 EF 01 00 	    push    lr
010B3C E7 E0 01 00 		push	r1
010B40 67 E1 01 00 		push    r2
010B44 0A 20 6E 00 		ldi     r2,#55
010B48 7C DC FF 00 		sb      r2,LEDS
010B4C 60 20 00 0C 
010B50 82 20 00 1A 		mov		r2,r1
                	.dm2:
010B54 43 11 00 00 		lcu		r1,[r2]
010B58 14 21 04 00 		addui   r2,r2,#2	; increment text pointer
010B5C BD 00 0E 00 		beq		r1,.dm1
010B60 8C 10 FE 01 		and     r1,r1,#$FF
010B64 B9 E6 00 00 		bsr		OutChar
010B68 0A 10 70 00 		ldi     r1,#56
010B6C 7C DC FF 00 		sb      r1,LEDS
010B70 60 10 00 0C 
010B74 3A FC FF FF 		bra		.dm2
                	.dm1:
010B78 57 2F 10 00 		pop		r2
010B7C 57 1F 10 00 	    pop     r1
010B80 3B FF 11 00 		rts

                	DispCharQ:
010B84 E7 EF 01 00 	    push    lr
010B88 39 86 0A 00 		bsr		AsciiToScreen_
010B8C E1 11 00 00 		sc		r1,[r3]
010B90 84 31 08 00 		add		r3,r3,#4
010B94 3B FF 11 00 	    rts

                	;------------------------------------------------------------------------------
                	; 'PRTNUM' prints the 64 bit number in r1, leading blanks are added if
                	; needed to pad the number of spaces to the number in r2.
                	; However, if the number of digits is larger than the no. in
                	; r2, all digits are printed anyway. Negative sign is also
                	; printed and counted in, positive sign is not.
                	;
                	; r1 = number to print
                	; r2 = number of digits
                	; Register Usage
                	;	r5 = number of padding spaces
                	;------------------------------------------------------------------------------
                	PRTNUM:
010B98 E7 EF 01 00 	    push    lr
010B9C E7 E1 01 00 		push	r3
010BA0 E7 E2 01 00 		push	r5
010BA4 67 E3 01 00 		push	r6
010BA8 E7 E3 01 00 		push	r7
010BAC 7C C2 00 00 		ldi		r7,#NUMWKA	; r7 = pointer to numeric work area
010BB0 0A 70 88 02 
010BB4 82 60 00 1A 		mov		r6,r1		; save number for later
010BB8 02 51 00 1A 		mov		r5,r2		; r5 = min number of chars
010BBC BD 30 06 00 		bge		r1,PN2			; is it negative? if not
010BC0 02 10 02 2A 		subu	r1,r0,r1	; else make it positive
010BC4 95 52 02 00 		subui   r5,r5,#1	; one less for width count
                	PN2:
                	;	ldi		r3,#10
                	PN1:
010BC8 89 20 14 00 		mod		r2,r1,#10	; r2 = r1 mod 10
010BCC 88 10 14 00 		div		r1,r1,#10	; r1 /= 10 divide by 10
010BD0 04 21 60 00 		add		r2,r2,#'0'	; convert remainder to ascii
010BD4 E0 23 00 00 		sb		r2,[r7]		; and store in buffer
010BD8 94 73 02 00 		addui   r7,r7,#1
010BDC 95 52 02 00 		subui   r5,r5,#1	; decrement width
010BE0 BD 10 F4 FF 		bne		r1,PN1
                	PN6:
010BE4 BD 52 08 00 		ble		r5,PN4		; test pad count, skip padding if not needed
                	PN3:
010BE8 39 32 00 00 		bsr     DisplaySpace	; display the required leading spaces
010BEC 95 52 02 00 		subui   r5,r5,#1
010BF0 BD 12 FC FF 		bne		r5,PN3
                	PN4:
010BF4 3D 33 06 00 		bge		r6,PN5		; is number negative?
010BF8 0A 10 5A 00 		ldi		r1,#'-'		; if so, display the sign
010BFC B9 D3 00 00 		bsr		OutChar
                	PN5:
010C00 95 73 02 00 	    subui   r7,r7,#1
010C04 C0 13 00 00 		lb		r1,[r7]		; now unstack the digits and display
010C08 39 D2 00 00 		bsr		OutChar
010C0C 7C C2 00 00 		cmp		r1,r7,#NUMWKA
010C10 86 13 88 02 
010C14 BD 20 F6 FF 		bgt		r1,PN5
                	PNRET:
010C18 57 7F 10 00 		pop		r7
010C1C 57 6F 10 00 		pop		r6
010C20 57 5F 10 00 		pop		r5
010C24 57 3F 10 00 		pop		r3
010C28 3B FF 11 00 		rts

                	;------------------------------------------------------------------------------
                	; Returns:
                	; r1 = pointer to screen from JCB. This may be either the real screen or
                	;      the virtual screen buffer.
                	;------------------------------------------------------------------------------
                	
                	
                	
                	;------------------------------------------------------------------------------
                	; Display a character on-screen.
                	;------------------------------------------------------------------------------
                	
                	;------------------------------------------------------------------------------
                	; Convert screen display character to ascii.
                	;------------------------------------------------------------------------------
                	
                	VBScreenToAscii:
010C2C E7 EF 01 00 	    push    lr
010C30 E7 E0 01 00 	    push    r1
010C34 39 84 0A 00 	    bsr     ScreenToAscii_
010C38 14 EF 11 00 	    addui   sp,sp,#8
010C3C 3B FF 11 00 	    rts

                	CursorOff:
010C40 37 FF 01 00 		rtl
CursorOn:
010C44 37 FF 01 00 		rtl

                	;------------------------------------------------------------------------------
                	;------------------------------------------------------------------------------
                	
                	VBScrollUp:
                	    ; Compiler temporaries have to be saved. These are regs 3-11 which the
                	    ; compiled code might use.
010C48 E7 EF 01 00 	    push    lr
010C4C E7 E0 01 00 		push	r1
010C50 67 E1 01 00 	    push    r2
010C54 E7 E1 01 00 	    push    r3
010C58 67 E2 01 00 	    push    r4          ; r4 is used by BlankLine
010C5C E7 E2 01 00 	    push    r5
010C60 67 E3 01 00 		push	r6
010C64 E7 E3 01 00 		push    r7
010C68 39 61 0A 00 		bsr     GetTextRows_
010C6C 82 20 00 1A 		mov     r2,r1
010C70 39 57 0A 00 		bsr     GetTextCols_
010C74 82 70 04 70 		asl     r7,r1,#2
010C78 15 21 02 00 		subui	r2,r2,#1
010C7C 82 60 04 2E 		mulu	r6,r1,r2
010C80 67 E3 01 00 		push    r6
010C84 E7 E3 01 00 		push    r7
010C88 39 0D 0A 00 		bsr     GetScreenLocation_
010C8C 57 7F 10 00 		pop     r7
010C90 57 6F 10 00 		pop     r6
010C94 82 20 0E 28 		addu    r2,r1,r7
010C98 0A 30 00 00 		ldi		r3,#0
                	.0001:
010C9C 4C 51 86 00 		lh	    r5,[r2+r3*4]
010CA0 EA 50 86 00 		sh	    r5,[r1+r3*4]
010CA4 94 31 02 00 		addui	r3,r3,#1
010CA8 15 63 02 00 		subui   r6,r6,#1
010CAC 3D 13 F8 FF 		bne	    r6,.0001
010CB0 39 58 0A 00 		bsr     GetTextRows_
010CB4 95 10 02 00 		subui	r1,r1,#1
010CB8 E7 E0 01 00 		push    r1
010CBC 39 D2 0A 00 		bsr		BlankLine_
010CC0 14 EF 11 00 		addui   sp,sp,#8
010CC4 57 7F 10 00 		pop     r7
010CC8 57 6F 10 00 		pop		r6
010CCC 57 5F 10 00 		pop		r5
010CD0 57 4F 10 00 		pop     r4
010CD4 57 3F 10 00 	    pop     r3
010CD8 57 2F 10 00 	    pop     r2
010CDC 57 1F 10 00 	    pop     r1
010CE0 57 FF 11 00 		pop     lr
010CE4 37 FF 01 00 		rtl
	rtl

010CE8 37 FF 01 00 
                	
                	DispStartMsg:
010CEC E7 EF 01 00 	    push    lr
010CF0 7C 01 00 00 		ldi		r1,#msgStart
010CF4 0A 10 94 20 
010CF8 39 84 0B 00 		bsr		DisplayString_
010CFC 3B FF 11 00 	    rts

                	   
                	BranchToSelf2:
010D00 3A 00 00 00 	    bra      BranchToSelf2
                	
                	;------------------------------------------------------------------------------
                	; Checksum the ROM. The ROM also has a 64 bit parity check connected to the
                	; processor's NMI input.
                	;------------------------------------------------------------------------------
                	
                	ROMChecksum:
010D04 E7 EF 01 00 	    push     lr
010D08 7C 01 00 00 	    ldi      r2,#$10000
010D0C 0A 20 00 00 
010D10 0A 40 00 00 	    ldi      r4,#0
010D14 0A 30 00 00 	    ldi      r3,#0
010D18 0A 50 00 00 	    ldi      r5,#0
                	.0001:
010D1C 4D 31 08 00 	    lhu      r3,[r2+r4]
010D20 82 52 06 28 	    addu     r5,r5,r3
010D24 14 42 08 00 	    addui    r4,r4,#4
010D28 7C 02 00 00 	    cmp      r3,r4,#$20000
010D2C 06 32 00 00 
010D30 BD 41 F6 FF 	    blt      r3,.0001
010D34 7C 01 00 00 	    pea      msgROMChecksum
010D38 65 E0 A9 1A 
010D3C B9 7B 0B 00 	    bsr      DisplayString_
010D40 14 EF 11 00 	    addui    sp,sp,#8
010D44 82 12 00 1A 	    mov      r1,r5
010D48 B9 B0 FF FF 	    bsr      DisplayHalf
010D4C B9 6F 0B 00 	    bsr      CRLF_
010D50 3B FF 11 00 	    rts

                	msgROMChecksum:
010D54 0D 00 0A 00 	    dc    CR,LF,"ROM Checksum: ",0
010D58 52 00 4F 00 
010D5C 4D 00 20 00 
010D60 43 00 68 00 
010D64 65 00 63 00 
010D68 6B 00 73 00 
010D6C 75 00 6D 00 
010D70 3A 00 20 00 
010D74 00 00       
                	
010D76 00 00       	    align 
                	 
                	;------------------------------------------------------------------------------
                	; Display a space on the output device.
                	;------------------------------------------------------------------------------
                	
                	DisplaySpace:
010D78 E7 EF 01 00 	    push     lr
010D7C E7 E0 01 00 	    push     r1
010D80 0A 10 40 00 	    ldi      r1,#' '
010D84 B9 A2 00 00 	    bsr      OutChar
010D88 57 1F 10 00 	    pop      r1
010D8C 3B FF 11 00 	    rts

                	;------------------------------------------------------------------------------
                	;------------------------------------------------------------------------------
                	
                	LockBIOS:
010D90 E7 EF 01 00 	    push    lr
010D94 E7 E0 01 00 	    push    r1
010D98 67 E1 01 00 	    push    r2
010D9C 0A 20 FE FF 	    ldi     r2,#-1       ; try forever
010DA0 7C C2 00 00 	    lea     r1,BIOS_sema
010DA4 47 10 60 07 
010DA8 39 85 1A 00 	    bsr     _LockSema    ; call library routine
010DAC 57 2F 10 00 	    pop     r2
010DB0 57 1F 10 00 	    pop     r1
010DB4 3B FF 11 00 	    rts
UnlockBIOS:
010DB8 E7 EF 01 00 	    push    lr
010DBC E7 E0 01 00 	    push    r1
010DC0 7C C2 00 00 	    lea     r1,BIOS_sema
010DC4 47 10 60 07 
010DC8 39 8E 1A 00 	    bsr     _UnlockSema
010DCC 57 1F 10 00 	    pop     r1
010DD0 3B FF 11 00 	    rts

                	LockBIOS1:
010DD4 E7 EF 01 00 	    push    lr
010DD8 E7 E0 01 00 	    push    r1
010DDC 67 E1 01 00 	    push    r2
010DE0 0A 20 FE FF 	    ldi     r2,#-1
010DE4 7C 0D 01 00 	    lea     r1,BIOS1_sema_
010DE8 47 10 A0 E0 
010DEC B9 7C 1A 00 	    bsr     _LockSema
010DF0 57 2F 10 00 	    pop     r2
010DF4 57 1F 10 00 	    pop     r1
010DF8 3B FF 11 00 	    rts
UnlockBIOS1:
010DFC E7 EF 01 00 	    push    lr
010E00 E7 E0 01 00 	    push    r1
010E04 7C 0D 01 00 	    lea     r1,BIOS1_sema_
010E08 47 10 A0 E0 
010E0C B9 85 1A 00 	    bsr     _UnlockSema
010E10 57 1F 10 00 	    pop     r1
010E14 3B FF 11 00 	    rts

                	
                	;------------------------------------------------------------------------------
                	; Perform a BIOS call from CPU #1
                	; This routine sets up a structure variable in memory for the primary CPU
                	; to process.
                	;------------------------------------------------------------------------------
                	
                	BIOSCall1:
010E18 46 EC 01 05 	    lw      sp,TCB_BIOS_Stack[tr]
010E1C E7 EF 01 00 	    push    lr
010E20 67 E5 01 00 	    push    r10
010E24 E7 E5 01 00 	    push    r11
010E28 02 A0 12 3E 	    mfspr   r10,epc             ;
010E2C 14 A5 08 00 	    addui   r10,r10,#4
010E30 02 05 12 3C 	    mtspr   epc,r10
010E34 06 A3 C8 00 	    cmp     r10,r6,#MAX_BIOS_CALL
010E38 3D 25 48 00 	    bgt     r10,.0003
010E3C 39 F3 FF FF 	    bsr     LockBIOS1
010E40 7C C2 00 00 	    lea     r10,API_AREA
010E44 47 A0 A0 08 
010E48 63 65 00 00 	    sw      r6,BIOS_op[r10]
010E4C 63 15 10 00 	    sw      r1,BIOS_arg1[r10]
010E50 63 25 20 00 	    sw      r2,BIOS_arg2[r10]
010E54 63 35 30 00 	    sw      r3,BIOS_arg3[r10]
010E58 63 45 40 00 	    sw      r4,BIOS_arg4[r10]
010E5C 63 55 50 00 	    sw      r5,BIOS_arg5[r10]
010E60 63 05 60 00 	    sw      r0,BIOS_resp[r10]
010E64 63 05 70 00 	    sw      r0,BIOS_stat[r10]
010E68 7C C2 00 00 	    lw      r1,BIOS_MbxHandle
010E6C 46 10 70 07 
010E70 0A 20 00 00 	    ldi     r2,#BIOS_op          ;
010E74 7C 00 00 00 	    lw      r3,BIOS_RespMbx      ; response mailbox handle
010E78 7C 00 00 00 
010E7C 46 30 F6 02 
010E80 38 0F 08 00 	    sys     #FMTK_CALL
010E84 09 00 00 00 	    dh      9                    ; SendMsg
010E88 7C 00 00 00 	    lw      r1,BIOS_RespMbx
010E8C 7C 00 00 00 
010E90 46 10 F6 02 
010E94 0A 20 FE FF 	    ldi     r2,#-1
010E98 38 0F 08 00 	    sys     #FMTK_CALL
010E9C 0A 00 00 00 	    dh      10                   ; WaitMsg
010EA0 86 70 20 00 	    cmp     r7,r1,#E_Timeout
010EA4 BD 13 06 00 	    bne     r7,.0004
010EA8 0A 20 04 00 	    ldi     r2,#BIOS_E_Timeout
010EAC 3A 01 00 00 	    bra     .0002
                	.0004:
010EB0 02 11 00 1A 	    mov     r1,r2
                	.0002:
010EB4 39 E9 FF FF 	    bsr     UnlockBIOS1
010EB8 57 BF 10 00 	    pop     r11
010EBC 57 AF 10 00 	    pop     r10
010EC0 57 FF 11 00 	    pop     lr
010EC4 02 E0 3D 6E 	    rte
                	.0003:
010EC8 0A 20 02 00 	    ldi     r2,#E_BadFuncno
010ECC 57 BF 10 00 	    pop     r11
010ED0 57 AF 10 00 	    pop     r10
010ED4 57 FF 11 00 	    pop     lr
010ED8 02 E0 3D 6E 	    rte
                	
                	;------------------------------------------------------------------------------
                	; BIOSCall
                	;
                	; Peform a BIOS function for CPU #0
                	;
                	; Parameters:
                	; r1 = first function argument
                	; r2 = second function argument
                	; r3 = third function argument
                	; r4 = fourth function argument
                	; r5 = fifth function argument
                	; r6 = function
                	;
                	; Returns:
                	; r1 = response from BIOS routine
                	;------------------------------------------------------------------------------
                	
                	BIOSCall:
010EDC 46 EC 01 05 	    lw      sp,TCB_BIOS_Stack[tr]
010EE0 E7 EF 01 00 	    push    lr
010EE4 67 E5 01 00 	    push    r10
010EE8 39 D5 FF FF 	    bsr     LockBIOS
010EEC 02 A0 12 3E 	    mfspr   r10,epc             ; update the return address
010EF0 14 A5 08 00 	    addui   r10,r10,#4
010EF4 02 05 12 3C 	    mtspr   epc,r10
010EF8 06 A3 C8 00 	    cmp     r10,r6,#MAX_BIOS_CALL
010EFC 3D 25 16 00 	    bgt     r10,.0003
010F00 7C 01 00 00 	    ldi     r10,#BIOS_FuncTable
010F04 0A A0 00 01 
010F08 4B A5 4C 00 	    lcu     r10,[r10+r6*2]
010F0C 7C 01 00 00 	    or      r10,r10,#BIOSCall & 0xFFFFFFFFFFFF0000
010F10 0D A5 00 00 
010F14 3C F5 01 00 	    jsr     [r10]
                	.0004:
010F18 39 D4 FF FF 	    bsr     UnlockBIOS
010F1C 57 AF 10 00 	    pop     r10
010F20 57 FF 11 00 	    pop     lr
010F24 02 E0 3D 6E 	    rte
                	.0003:
010F28 0A 20 02 00 	    ldi     r2,#E_BadFuncno
010F2C BA FD FF FF 	    bra     .0004
                	
                	;------------------------------------------------------------------------------
                	; This task is a BIOS service task.
                	;------------------------------------------------------------------------------
                	
                	BIOSCallTask:
                	    ; Get a mailbox for BIOS calls
                	.0002:
010F30 7C C2 00 00 	    ldi     r1,#BIOS_MbxHandle
010F34 0A 10 70 07 
010F38 38 0F 08 00 	    sys     #FMTK_CALL            ; call FMTK AllocMbx function
010F3C 06 00 00 00 	    dh      6
                	.0001:
010F40 7C C2 00 00 	    lw      r1,BIOS_MbxHandle
010F44 46 10 70 07 
010F48 0A 20 FE FF 	    ldi     r2,#-1                ; infinite timeout
010F4C 38 0F 08 00 	    sys     #FMTK_CALL
010F50 0A 00 00 00 	    dh      10                    ; call FMTK Waitmsg Function
010F54 86 B0 0A 00 	    cmp     r11,r1,#E_BadMbx
010F58 BD 05 EC FF 	    beq     r11,.0002
010F5C 86 B0 00 00 	    cmp     r11,r1,#E_Ok          ; ignore bad reponses
010F60 BD 15 F0 FF 	    bne     r11,.0001
010F64 02 B1 00 1A 	    mov     r11,r2
010F68 82 C1 00 1A 	    mov     r12,r3
010F6C 7C C2 00 00 	    lea     r11,API_AREA          ; for now
010F70 47 B0 A0 08 
010F74 C6 65 00 00 	    lw      r6,BIOS_op[r11]
010F78 C6 15 10 00 	    lw      r1,BIOS_arg1[r11]
010F7C C6 25 20 00 	    lw      r2,BIOS_arg2[r11]
010F80 C6 35 30 00 	    lw      r3,BIOS_arg3[r11]
010F84 C6 45 40 00 	    lw      r4,BIOS_arg4[r11]
010F88 C6 55 50 00 	    lw      r5,BIOS_arg5[r11]
                	;    sys     #BIOS_CALL
010F8C 3D 06 DA FF 	    beq     r12,.0001
010F90 E3 15 60 00 	    sw      r1,BIOS_resp[r11]
010F94 82 20 00 1A 	    mov     r2,r1                ; r2 = return value from BIOS
010F98 02 16 00 1A 	    mov     r1,r12               ; r1 = mailbox to respond to
010F9C 0A 30 00 00 	    ldi     r3,#0                ; r3 = not used
010FA0 38 0F 08 00 	    sys     #FMTK_CALL
010FA4 08 00 00 00 	    dh      8                    ; PostMsg
010FA8 3A F3 FF FF 	    bra     .0001        
                	
                	;------------------------------------------------------------------------------
                	; 60 Hz interrupt routine.
                	; Both cpu's will execute this interrupt.
                	;------------------------------------------------------------------------------
                	
                	TickRout:
010FAC FC C2 00 00 	    ldi     sp,#irq_stack_       ; set stack pointer to interrupt processing stack
010FB0 0A E0 11 08 
010FB4 E7 EF 01 00 	    push    lr
010FB8 E7 E0 01 00 	    push    r1
010FBC 0A 10 06 00 		ldi		r1,#3				; reset the edge sense circuit
010FC0 7C DC FF 00 		sh		r1,PIC_RSTE
010FC4 62 10 A8 1F 
010FC8 02 10 00 6C 		cpuid   r1,r0,#0
010FCC BD 10 04 00 		bne     r1,.0001
010FD0 39 02 00 00 		bsr     UserTickRout
                	.0001:
010FD4 57 1F 10 00 		pop     r1
010FD8 57 FF 11 00 		pop     lr
010FDC 02 E0 3F 6E 		rti
                	
                	UserTickRout:
010FE0 E7 E0 01 00 	    push    r1
010FE4 7C D0 FF 00 		lh	    r1,TEXTSCR+220
010FE8 44 10 B8 01 
010FEC 94 10 02 00 		addui	r1,r1,#1
010FF0 7C D0 FF 00 		sh	    r1,TEXTSCR+220
010FF4 62 10 B8 01 
010FF8 7C 03 00 00 		lw      r1,$30000
010FFC 46 10 00 00 
011000 7C D0 FF 00 		sh      r1,TEXTSCR+224
011004 62 10 C0 01 
011008 57 1F 10 00 		pop     r1
01100C 37 FF 01 00 	    rtl

                	;------------------------------------------------------------------------------
                	; 1024Hz interupt routine. This must be fast. Allows the system time to be
                	; gotten by right shifting by 10 bits.
                	;------------------------------------------------------------------------------
                	
                	Tick1024Rout:
011010 FC C2 00 00 	    ldi     sp,#irq_stack_  ; set stack pointer to interrupt processing stack
011014 0A E0 11 08 
011018 E7 E0 01 00 		push	r1
01101C 0A 10 04 00 		ldi		r1,#2				; reset the edge sense circuit
011020 7C DC FF 00 		sh		r1,PIC_RSTE
011024 62 10 A8 1F 
011028 7C C2 00 00 		inc     Milliseconds
01102C 64 10 10 02 
011030 57 1F 10 00 		pop		r1
011034 02 E0 3F 6E 		rti                         ; restore stack pointer and return
                	
                	;------------------------------------------------------------------------------
                	; GetSystemTime
                	;
                	; Returns 
                	;    r1 = the system time in seconds.
                	;------------------------------------------------------------------------------
                	
                	GetSystemTime:
011038 7C C2 00 00 	    lw      r1,Milliseconds
01103C 46 10 10 02 
011040 82 10 14 72 	    lsr     r1,r1,#10
011044 37 FF 01 00 	    rtl

                	
011048 00 00       		dc	0
                	msgStart:
01104A 46 00 49 00 		dc	"FISA64 test system starting.",0
01104E 53 00 41 00 
011052 36 00 34 00 
011056 20 00 74 00 
01105A 65 00 73 00 
01105E 74 00 20 00 
011062 73 00 79 00 
011066 73 00 74 00 
01106A 65 00 6D 00 
01106E 20 00 73 00 
011072 74 00 61 00 
011076 72 00 74 00 
01107A 69 00 6E 00 
01107E 67 00 2E 00 
011082 00 00       
                	
                	
                	; ============================================================================
                	; Monitor Task
                	; ============================================================================
                	    align   4                	
                	Monitor:
011084 7C 01 00 00 		pea		msgMonitorStarted
011088 65 E0 E5 30 
01108C 39 1E 0B 00 		bsr		DisplayStringCRLF_
011090 14 EF 11 00 		addui   sp,sp,#8
011094 7C C2 00 00 		sb		r0,KeybdEcho
011098 60 00 7C 02 
01109C FC C2 00 00 		ldi     r1,#jcbs_
0110A0 0A 10 00 30 
                	;	sb      r0,JCB_KeybdEcho[r1]
                	mon1:
                	;	ldi		sp,#TCBs+TCB_Size-8		; reload the stack pointer, it may have been trashed
0110A4 7C 00 00 00 		ldi		sp,#MON_STACK
0110A8 0A E0 01 C0 
0110AC 02 00 00 6E 		cli
                	.PromptLn:
0110B0 39 03 0B 00 		bsr		CRLF_
0110B4 0A 10 48 00 		ldi		r1,#'$'
0110B8 39 3C 00 00 		bsr		OutChar
                	.Prompt3:
0110BC 39 FA 0B 00 		bsr		KeybdGetBufferedCharNoWait_		; KeybdGetCharDirectNB
0110C0 BD 40 FE FF 		blt	    r1,.Prompt3
0110C4 86 20 1A 00 		cmp		r2,r1,#CR
0110C8 3D 01 06 00 		beq		r2,.Prompt1
0110CC B9 39 00 00 		bsr		OutChar
0110D0 BA FD FF FF 		bra		.Prompt3
                	.Prompt1:
0110D4 67 E0 01 00 		push    r0
0110D8 39 B2 09 00 		bsr     SetCursorCol_
0110DC 14 EF 11 00 		addui   sp,sp,#8
0110E0 39 17 0A 00 		bsr		CalcScreenLocation_
0110E4 82 30 00 1A 		mov		r3,r1
0110E8 39 0E 00 00 		bsr		MonGetch
0110EC 86 20 48 00 		cmp		r2,r1,#'$'
0110F0 3D 11 04 00 		bne		r2,.Prompt2
0110F4 B9 0C 00 00 		bsr		MonGetch
                	.Prompt2:
0110F8 86 20 7E 00 		cmp		r2,r1,#'?'
0110FC 3D 01 24 00 		beq		r2,.doHelp
011100 86 20 86 00 		cmp		r2,r1,#'C'
011104 3D 01 C8 03 		beq		r2,doCLS
011108 86 20 8C 00 		cmp		r2,r1,#'F'
01110C 3D 01 72 00 		beq		r2,doFillmem
011110 86 20 A6 00 		cmp		r2,r1,#'S'
011114 3D 01 B0 00 		beq		r2,doSDBoot
011118 86 20 CE 00 		cmp		r2,r1,#'g'
01111C 3D 01 3C 78 		beq		r2,doRand
011120 86 20 CA 00 		cmp		r2,r1,#'e'
011124 3D 01 38 78 		beq		r2,eval
011128 86 20 94 00 		cmp		r2,r1,#'J'
01112C 3D 01 BA 00 		beq		r2,doJump
011130 86 20 88 00 		cmp		r2,r1,#'D'
011134 3D 01 BA 01 		beq		r2,doDate
011138 86 20 A8 00 		cmp     r2,r1,#'T'
01113C 3D 01 52 00 		beq     r2,doDumpTL
011140 BA EC FF FF 		bra     mon1
                	
                	.doHelp:
011144 7C 01 00 00 		pea		msgHelp
011148 65 E0 D9 2D 
01114C B9 F9 0A 00 		bsr		DisplayString_
011150 14 EF 11 00 		addui   sp,sp,#8
011154 3A EA FF FF 		bra     mon1
                	
                	MonGetch:
011158 E7 EF 01 00 	    push    lr
01115C C5 11 00 00 		lhu	    r1,[r3]
011160 8C 10 FE 03 		andi	r1,r1,#$1FF
011164 84 31 08 00 		add		r3,r3,#4
011168 E7 E1 01 00 		push    r3
01116C E7 E0 01 00 		push    r1
011170 B9 DC 09 00 		bsr		ScreenToAscii_
011174 14 EF 11 00 		addui   sp,sp,#8
011178 57 3F 10 00 		pop     r3
01117C 57 FF 11 00 		pop     lr
011180 37 FF 01 00 		rtl

                	;------------------------------------------------------------------------------
                	; Ignore blanks in the input
                	; r3 = text pointer
                	; r1 destroyed
                	;------------------------------------------------------------------------------
                	
                	ignBlanks:
011184 E7 EF 01 00 	    push    lr
011188 67 E1 01 00 	    push    r2
                	ignBlanks1:
01118C B9 F9 FF FF 		bsr		MonGetch
011190 86 20 40 00 		cmp		r2,r1,#' '
011194 3D 01 FC FF 		beq		r2,ignBlanks1
011198 85 31 08 00 		sub		r3,r3,#4
01119C 57 2F 10 00 		pop     r2
0111A0 3B FF 11 00 		rts

                	;------------------------------------------------------------------------------
                	;------------------------------------------------------------------------------
                	
                	GetTwoParams:
0111A4 E7 EF 01 00 	    push    lr
0111A8 B9 FB FF FF 		bsr		ignBlanks
0111AC B9 8E 00 00 		bsr		GetHexNumber	; get start address of dump
0111B0 82 20 00 1A 		mov		r2,r1
0111B4 39 FA FF FF 		bsr		ignBlanks
0111B8 39 8D 00 00 		bsr		GetHexNumber	; get end address of dump
0111BC 3B FF 11 00 		rts

                	;------------------------------------------------------------------------------
                	; Get a range, the end must be greater or equal to the start.
                	;------------------------------------------------------------------------------
                	
                	GetRange:
0111C0 E7 EF 01 00 	    push    lr
0111C4 67 E2 01 00 	    push    r4
0111C8 B9 FB FF FF 		bsr		GetTwoParams
0111CC 02 41 02 2C 		cmpu	r4,r2,r1
0111D0 3D 22 7E 02 		bgt		r4,DisplayErr
0111D4 57 4F 10 00 		pop     r4
0111D8 57 FF 11 00 		pop     lr
0111DC 37 FF 01 00 		rtl

                	doDumpTL:
0111E0 E7 E1 01 00 	    push    r3
0111E4 39 31 09 00 	    bsr     DumpTaskList_
0111E8 57 3F 10 00 	    pop     r3
0111EC 3A D7 FF FF 	    bra     mon1
                	
                	;------------------------------------------------------------------------------
                	; Fill memory
                	;
                	; FB FFD80000 FFD8FFFF r	; fill sprite memory with random bytes
                	;------------------------------------------------------------------------------
                	
                	doFillmem:
0111F0 39 4A FF FF 		bsr		CursorOff
0111F4 B9 EC FF FF 		bsr		MonGetch		; skip over 'B' of "FB"
0111F8 86 20 84 00 		cmp		r2,r1,#'B'
0111FC 3D 01 04 00 		beq		r2,.0004
011200 95 31 08 00 		subui	r3,r3,#4		; backup text pointer
                	.0004:
011204 B9 F7 FF FF 		bsr		GetRange
011208 E7 E0 01 00 		push	r1
01120C 67 E1 01 00 	    push    r2
011210 B9 EE FF FF 		bsr		ignBlanks
011214 B9 E8 FF FF 		bsr		MonGetch		; check for random fill
011218 86 20 E4 00 		cmp		r2,r1,#'r'
01121C 3D 01 18 00 		beq		r2,.0001
011220 95 31 08 00 		subui   r3,r3,#4
011224 B9 7F 00 00 		bsr		GetHexNumber
011228 82 30 00 1A 		mov		r3,r1
01122C 57 2F 10 00 		pop		r2
011230 57 1F 10 00 	    pop     r1
                	.0002:
011234 B9 6E 00 00 		bsr		CheckKeys
011238 60 31 00 00 		sb		r3,[r2]
01123C 14 21 02 00 		addui	r2,r2,#1
011240 02 51 02 2C 		cmpu	r5,r2,r1
011244 BD 42 F8 FF 		blt		r5,.0002
011248 BA CB FF FF 		bra		mon1
                	.0001:
01124C 57 2F 10 00 		pop		r2
011250 57 1F 10 00 	    pop     r1
                	.0003:
011254 B9 6A 00 00 		bsr		CheckKeys
011258 7C DC FF 00 		lw	    r3,RANDOM_NUM
01125C 46 30 00 18 
011260 60 31 00 00 		sb		r3,[r2]
011264 14 21 02 00 		addui	r2,r2,#1
011268 02 51 02 2C 		cmpu	r5,r2,r1
01126C BD 42 F4 FF 		blt		r5,.0003
011270 BA C6 FF FF 		bra		mon1
                	
                	;------------------------------------------------------------------------------
                	;------------------------------------------------------------------------------
                	
                	doSDBoot:
                	;	sub		r3,r3,#4
011274 B9 C9 DD FF 		bsr		SDInit
011278 BD 10 16 FF 		bne	    r1,mon1
01127C 39 C9 DD FF 		bsr		SDReadPart
011280 BD 10 12 FF 		bne	    r1,mon1
011284 39 E4 DD FF 		bsr		SDReadBoot
011288 BD 10 0E FF 		bne	    r1,mon1
01128C 39 E3 DD FF 		bsr		loadBootFile
011290 7C 00 00 00 		jmp		mon1
011294 3C 00 52 88 
                	
                	OutChar:
011298 7C C2 00 00 	    jmp     (OutputVec)
01129C 3E 00 20 02 
                	
                	;------------------------------------------------------------------------------
                	; Jump to subroutine
                	;
                	; J 10000     ; restart system
                	;------------------------------------------------------------------------------
                	
                	doJump:
0112A0 39 D7 FF FF 		bsr		MonGetch		; skip over 'S'
0112A4 39 DC FF FF 		bsr		ignBlanks
0112A8 39 6F 00 00 		bsr		GetHexNumber
0112AC 7C C2 00 00 		sw      r1,jmp_vector
0112B0 63 10 40 02 
0112B4 7C C2 00 00 	    lw      r31,MON_r31
0112B8 46 F0 F1 01 
0112BC 7C C2 00 00 	    lw      r30,MON_r30
0112C0 46 E0 E1 01 
0112C4 7C C2 00 00 	    lw      r29,MON_r29
0112C8 46 D0 D1 01 
0112CC 7C C2 00 00 	    lw      r28,MON_r28
0112D0 46 C0 C1 01 
0112D4 7C C2 00 00 	    lw      r27,MON_r27
0112D8 46 B0 B1 01 
0112DC 7C C2 00 00 	    lw      r26,MON_r26
0112E0 46 A0 A1 01 
0112E4 7C C2 00 00 	    lw      r25,MON_r25
0112E8 46 90 91 01 
                	;   lw      r24,MON_r24    ; r24 is the task register - no need to load
0112EC 7C C2 00 00 	    lw      r23,MON_r23
0112F0 46 70 71 01 
0112F4 7C C2 00 00 	    lw      r22,MON_r22
0112F8 46 60 61 01 
0112FC 7C C2 00 00 	    lw      r21,MON_r21
011300 46 50 51 01 
011304 7C C2 00 00 	    lw      r20,MON_r20
011308 46 40 41 01 
01130C 7C C2 00 00 	    lw      r19,MON_r19
011310 46 30 31 01 
011314 7C C2 00 00 	    lw      r18,MON_r18
011318 46 20 21 01 
01131C 7C C2 00 00 	    lw      r17,MON_r17
011320 46 10 11 01 
011324 7C C2 00 00 	    lw      r16,MON_r16
011328 46 00 01 01 
01132C 7C C2 00 00 	    lw      r15,MON_r15
011330 46 F0 F0 00 
011334 7C C2 00 00 	    lw      r14,MON_r14
011338 46 E0 E0 00 
01133C 7C C2 00 00 	    lw      r13,MON_r13
011340 46 D0 D0 00 
011344 7C C2 00 00 	    lw      r12,MON_r12
011348 46 C0 C0 00 
01134C 7C C2 00 00 	    lw      r11,MON_r11
011350 46 B0 B0 00 
011354 7C C2 00 00 	    lw      r10,MON_r10
011358 46 A0 A0 00 
01135C 7C C2 00 00 	    lw      r9,MON_r9
011360 46 90 90 00 
011364 7C C2 00 00 	    lw      r8,MON_r8
011368 46 80 80 00 
01136C 7C C2 00 00 	    lw      r7,MON_r7
011370 46 70 70 00 
011374 7C C2 00 00 	    lw      r6,MON_r6
011378 46 60 60 00 
01137C 7C C2 00 00 	    lw      r5,MON_r5
011380 46 50 50 00 
011384 7C C2 00 00 	    lw      r4,MON_r4
011388 46 40 40 00 
01138C 7C C2 00 00 	    lw      r3,MON_r3
011390 46 30 30 00 
011394 7C C2 00 00 	    lw      r2,MON_r2
011398 46 20 20 00 
01139C 7C C2 00 00 	    lw      r1,MON_r1
0113A0 46 10 10 00 
0113A4 7C C2 00 00 	    jsr		(jmp_vector)
0113A8 3E F0 41 02 
0113AC 7C C2 00 00 	    sw      r1,MON_r1
0113B0 63 10 10 00 
0113B4 7C C2 00 00 	    sw      r2,MON_r2
0113B8 63 20 20 00 
0113BC 7C C2 00 00 	    sw      r3,MON_r3
0113C0 63 30 30 00 
0113C4 7C C2 00 00 	    sw      r4,MON_r4
0113C8 63 40 40 00 
0113CC 7C C2 00 00 	    sw      r5,MON_r5
0113D0 63 50 50 00 
0113D4 7C C2 00 00 	    sw      r6,MON_r6
0113D8 63 60 60 00 
0113DC 7C C2 00 00 	    sw      r7,MON_r7
0113E0 63 70 70 00 
0113E4 7C C2 00 00 	    sw      r8,MON_r8
0113E8 63 80 80 00 
0113EC 7C C2 00 00 	    sw      r9,MON_r9
0113F0 63 90 90 00 
0113F4 7C C2 00 00 	    sw      r10,MON_r10
0113F8 63 A0 A0 00 
0113FC 7C C2 00 00 	    sw      r11,MON_r11
011400 63 B0 B0 00 
011404 7C C2 00 00 	    sw      r12,MON_r12
011408 63 C0 C0 00 
01140C 7C C2 00 00 	    sw      r13,MON_r13
011410 63 D0 D0 00 
011414 7C C2 00 00 	    sw      r14,MON_r14
011418 63 E0 E0 00 
01141C 7C C2 00 00 	    sw      r15,MON_r15
011420 63 F0 F0 00 
011424 7C C2 00 00 	    sw      r16,MON_r16
011428 63 00 01 01 
01142C 7C C2 00 00 	    sw      r17,MON_r17
011430 63 10 11 01 
011434 7C C2 00 00 	    sw      r18,MON_r18
011438 63 20 21 01 
01143C 7C C2 00 00 	    sw      r19,MON_r19
011440 63 30 31 01 
011444 7C C2 00 00 	    sw      r20,MON_r20
011448 63 40 41 01 
01144C 7C C2 00 00 	    sw      r21,MON_r21
011450 63 50 51 01 
011454 7C C2 00 00 	    sw      r22,MON_r22
011458 63 60 61 01 
01145C 7C C2 00 00 	    sw      r23,MON_r23
011460 63 70 71 01 
011464 7C C2 00 00 	    sw      r24,MON_r24
011468 63 80 81 01 
01146C 7C C2 00 00 	    sw      r25,MON_r25
011470 63 90 91 01 
011474 7C C2 00 00 	    sw      r26,MON_r26
011478 63 A0 A1 01 
01147C 7C C2 00 00 	    sw      r27,MON_r27
011480 63 B0 B1 01 
011484 7C C2 00 00 	    sw      r28,MON_r28
011488 63 C0 C1 01 
01148C 7C C2 00 00 	    sw      r29,MON_r29
011490 63 D0 D1 01 
011494 7C C2 00 00 	    sw      r30,MON_r30
011498 63 E0 E1 01 
01149C 7C C2 00 00 	    sw      r31,MON_r31
0114A0 63 F0 F1 01 
0114A4 3A 80 FF FF 		bra		mon1
                	
                	;------------------------------------------------------------------------------
                	;------------------------------------------------------------------------------
                	
                	doDate:
0114A8 39 96 FF FF 		bsr		MonGetch		; skip over 'T'
0114AC 86 50 84 00 		cmp     r5,r1,#'B'
0114B0 BD 02 6E 00 		beq     r5,doDebug
0114B4 86 50 82 00 		cmp		r5,r1,#'A'		; look for DAY
0114B8 BD 02 48 00 		beq		r5,doDay
0114BC 86 50 A8 00 		cmp     r5,r1,#'T'
0114C0 BD 12 52 00 		bne     r5,doDisassem
0114C4 39 98 FF FF 		bsr		ignBlanks
0114C8 39 92 FF FF 		bsr		MonGetch
0114CC 86 50 7E 00 		cmp		r5,r1,#'?'
0114D0 BD 02 1A 00 		beq		r5,.0001
0114D4 95 31 08 00 		subui	r3,r3,#4
0114D8 39 29 00 00 		bsr		GetHexNumber
0114DC 7C C2 00 00 		sb		r1,RTCC_BUF+5	; update month
0114E0 60 10 EA 07 
0114E4 B9 27 00 00 		bsr		GetHexNumber
0114E8 7C C2 00 00 		sb		r1,RTCC_BUF+4	; update day
0114EC 60 10 E8 07 
0114F0 39 26 00 00 		bsr		GetHexNumber
0114F4 7C C2 00 00 		sb		r1,RTCC_BUF+6	; update year
0114F8 60 10 EC 07 
0114FC B9 AA 00 00 		bsr		RTCCWritebuf
011500 BA 74 FF FF 		bra		mon1
                	.0001:
011504 39 A4 00 00 		bsr		RTCCReadbuf
011508 39 78 0A 00 		bsr		CRLF_
01150C 7C C2 00 00 		lbu		r1,RTCC_BUF+5
011510 41 10 EA 07 
011514 39 BC FE FF 		bsr		DisplayByte
011518 0A 10 5E 00 		ldi		r1,#'/'
01151C B9 AF FF FF 		bsr		OutChar
011520 7C C2 00 00 		lbu		r1,RTCC_BUF+4
011524 41 10 E8 07 
011528 B9 B9 FE FF 		bsr		DisplayByte
01152C 0A 10 5E 00 		ldi		r1,#'/'
011530 39 AD FF FF 		bsr		OutChar
011534 7C C2 00 00 		lbu		r1,RTCC_BUF+6
011538 41 10 EC 07 
01153C 39 B7 FE FF 		bsr		DisplayByte
011540 39 71 0A 00 		bsr		CRLF_
011544 3A 6C FF FF 		bra		mon1
                	
                	doDay:
011548 B9 87 FF FF 		bsr		ignBlanks
01154C B9 1A 00 00 		bsr		GetHexNumber
011550 82 30 00 1A 		mov		r3,r1			; value to write
011554 0A 10 DE 00 		ldi		r1,#$6F			; device $6F
011558 0A 20 06 00 		ldi		r2,#$03			; register 3
01155C 39 87 00 00 		bsr		I2C_WRITE
011560 BA 68 FF FF 		bra		mon1
                	
                	doDisassem:
011564 95 31 08 00 	    subui   r3,r3,#4
011568 B9 83 FF FF 	    bsr     ignBlanks
01156C B9 16 00 00 	    bsr     GetHexNumber
011570 95 10 40 00 	    subu    r1,r1,#32
011574 E7 E0 01 00 	    push    r1
011578 94 10 40 00 	    addu    r1,r1,#32
01157C E7 E0 01 00 	    push    r1
011580 39 65 12 00 	    bsr     disassem20_
011584 14 EF 21 00 	    addui   sp,sp,#16
011588 BA 63 FF FF 	    bra     mon1
                	
                	doDebug:
01158C 39 7F FF FF 	   bsr   ignBlanks
011590 39 12 00 00 	   bsr   GetHexNumber
011594 65 E0 01 00 	   push  #0
011598 E7 E0 01 00 	   push  r1
01159C B9 96 16 00 	   bsr   debugger_
0115A0 14 EF 21 00 	   addui sp,sp,#16
0115A4 3A 60 FF FF 	   bra   mon1
                	
                	;------------------------------------------------------------------------------
                	; CheckKeys:
                	;	Checks for a CTRLC or a scroll lock during long running dumps.
                	;------------------------------------------------------------------------------
                	
                	CheckKeys:
0115A8 E7 EF 01 00 	    push    lr
0115AC 39 02 00 00 		bsr	    CTRLCCheck
0115B0 B9 07 00 00 		bsr     CheckScrollLock
0115B4 57 FF 11 00 		pop     lr
0115B8 37 FF 01 00 		rtl

                	;------------------------------------------------------------------------------
                	; CTRLCCheck
                	;	Checks to see if CTRL-C is pressed. If so then the current routine is
                	; aborted and control is returned to the monitor.
                	;------------------------------------------------------------------------------
                	
                	CTRLCCheck:
0115BC E7 EF 01 00 	    push    lr
0115C0 E7 E0 01 00 		push	r1
0115C4 67 E1 01 00 		push    r2
0115C8 39 16 01 00 		bsr		KeybdGetCharNoWait
0115CC 86 20 06 00 		cmp		r2,r1,#CTRLC
0115D0 3D 01 0A 00 		beq		r2,.0001
0115D4 57 2F 10 00 		pop     r2
0115D8 57 1F 10 00 		pop		r1
0115DC 57 FF 11 00 		pop     lr
0115E0 37 FF 01 00 		rtl
.0001:
0115E4 14 EF 31 00 		addui	sp,sp,#24
0115E8 BA 57 FF FF 		bra     mon1
                	
                	;------------------------------------------------------------------------------
                	; CheckScrollLock:
                	;	Check for a scroll lock by the user. If scroll lock is active then tasks
                	; are rescheduled while the scroll lock state is tested in a loop.
                	;------------------------------------------------------------------------------
                	
                	CheckScrollLock:
0115EC E7 EF 01 00 	    push    lr
0115F0 E7 E0 01 00 		push	r1
0115F4 67 E1 01 00 		push    r2
                	.0002:
0115F8 7C C2 00 00 		lcu		r1,KeybdLocks
0115FC 43 10 80 02 
011600 7C 00 00 00 		and		r2,r1,#$4000		; is scroll lock active ?
011604 8C 20 00 80 
011608 3D 01 04 00 		beq		r2,.0001
                	;	brk		#2*16				; reschedule tasks
01160C BA FD FF FF 		bra     .0002
                	.0001:
011610 57 2F 10 00 	    pop     r2
011614 57 1F 10 00 		pop		r1
011618 57 FF 11 00 		pop     lr
01161C 37 FF 01 00 		rtl

                	;------------------------------------------------------------------------------
                	; Get a hexidecimal number. Maximum of eight digits.
                	; R3 = text pointer (updated)
                	; R1 = hex number
                	;------------------------------------------------------------------------------
                	;
                	GetHexNumber:
011620 E7 EF 01 00 	    push    lr
011624 67 E1 01 00 		push	r2
011628 67 E2 01 00 	    push    r4
01162C 0A 20 00 00 		ldi		r2,#0
011630 0A 40 20 00 		ldi		r4,#16
                	.gthxn2:
011634 B9 64 FF FF 		bsr		MonGetch
011638 39 05 00 00 		bsr		AsciiToHexNybble
01163C BD 40 0A 00 		bmi		r1,.gthxn1
011640 02 21 08 70 		asl		r2,r2,#4
011644 02 21 02 1A 		or		r2,r2,r1
011648 15 42 02 00 		subui   r4,r4,#1
01164C 3D 12 F4 FF 	    bne	    r4,.gthxn2
                	.gthxn1:
011650 02 11 00 1A 		mov		r1,r2
011654 57 4F 10 00 		pop		r4
011658 57 2F 10 00 	    pop     r2
01165C 3B FF 11 00 	    rts

                	;------------------------------------------------------------------------------
                	; Convert ASCII character in the range '0' to '9', 'a' to 'f' or 'A' to 'F'
                	; to a hex nybble.
                	;------------------------------------------------------------------------------
                	;
                	AsciiToHexNybble:
011660 67 E1 01 00 	    push    r2
011664 96 20 60 00 		cmpu	r2,r1,#'0'
011668 3D 41 2C 00 		blt		r2,.gthx3
01166C 96 20 74 00 		cmpu	r2,r1,#'9'+1
011670 3D 31 08 00 		bge		r2,.gthx5
011674 95 10 60 00 		subui	r1,r1,#'0'
011678 57 2F 10 00 		pop     r2
01167C 37 FF 01 00 		rtl
.gthx5:
011680 96 20 82 00 		cmpu	r2,r1,#'A'
011684 3D 41 1E 00 		blt		r2,.gthx3
011688 96 20 8E 00 		cmpu	r2,r1,#'F'+1
01168C 3D 31 0A 00 		bge		r2,.gthx6
011690 95 10 82 00 		subui	r1,r1,#'A'
011694 94 10 14 00 		addui	r1,r1,#10
011698 57 2F 10 00 		pop     r2
01169C 37 FF 01 00 		rtl
.gthx6:
0116A0 96 20 C2 00 		cmpu	r2,r1,#'a'
0116A4 3D 41 0E 00 		blt		r2,.gthx3
0116A8 96 20 F6 00 		cmpu	r2,r1,#'z'+1
0116AC 3D 31 0A 00 		bge		r2,.gthx3
0116B0 95 10 C2 00 		subui	r1,r1,#'a'
0116B4 94 10 14 00 		addui	r1,r1,#10
0116B8 57 2F 10 00 		pop     r2
0116BC 37 FF 01 00 		rtl
.gthx3:
0116C0 57 2F 10 00 	    pop     r2
0116C4 0A 10 FE FF 		ldi		r1,#-1		; not a hex number
0116C8 37 FF 01 00 		rtl

                	DisplayErr:
0116CC 7C 01 00 00 		ldi		r1,#msgErr
0116D0 0A 10 B8 2D 
0116D4 B9 48 0A 00 		bsr		DisplayString_
0116D8 BA 39 FF FF 		bra mon1
                	
                	msgErr:
0116DC 2A 00 2A 00 		dc	"**Err",CR,LF,0
0116E0 45 00 72 00 
0116E4 72 00 0D 00 
0116E8 0A 00 00 00 
                	
                	msgHelp:
0116EC 3F 00 20 00 		dc		"? = Display Help",CR,LF
0116F0 3D 00 20 00 
0116F4 44 00 69 00 
0116F8 73 00 70 00 
0116FC 6C 00 61 00 
011700 79 00 20 00 
011704 48 00 65 00 
011708 6C 00 70 00 
01170C 0D 00 0A 00 
011710 43 00 4C 00 		dc		"CLS = clear screen",CR,LF
011714 53 00 20 00 
011718 3D 00 20 00 
01171C 63 00 6C 00 
011720 65 00 61 00 
011724 72 00 20 00 
011728 73 00 63 00 
01172C 72 00 65 00 
011730 65 00 6E 00 
011734 0D 00 0A 00 
011738 44 00 20 00 		dc      "D = disassemble",CR,LF
01173C 3D 00 20 00 
011740 64 00 69 00 
011744 73 00 61 00 
011748 73 00 73 00 
01174C 65 00 6D 00 
011750 62 00 6C 00 
011754 65 00 0D 00 
011758 0A 00       
01175A 44 00 42 00 		dc      "DB = start debugger",CR,LF
01175E 20 00 3D 00 
011762 20 00 73 00 
011766 74 00 61 00 
01176A 72 00 74 00 
01176E 20 00 64 00 
011772 65 00 62 00 
011776 75 00 67 00 
01177A 67 00 65 00 
01177E 72 00 0D 00 
011782 0A 00       
011784 44 00 54 00 		dc		"DT = set/read date",CR,LF
011788 20 00 3D 00 
01178C 20 00 73 00 
011790 65 00 74 00 
011794 2F 00 72 00 
011798 65 00 61 00 
01179C 64 00 20 00 
0117A0 64 00 61 00 
0117A4 74 00 65 00 
0117A8 0D 00 0A 00 
0117AC 46 00 42 00 		dc		"FB = fill memory",CR,LF
0117B0 20 00 3D 00 
0117B4 20 00 66 00 
0117B8 69 00 6C 00 
0117BC 6C 00 20 00 
0117C0 6D 00 65 00 
0117C4 6D 00 6F 00 
0117C8 72 00 79 00 
0117CC 0D 00 0A 00 
0117D0 4D 00 42 00 		dc		"MB = dump memory",CR,LF
0117D4 20 00 3D 00 
0117D8 20 00 64 00 
0117DC 75 00 6D 00 
0117E0 70 00 20 00 
0117E4 6D 00 65 00 
0117E8 6D 00 6F 00 
0117EC 72 00 79 00 
0117F0 0D 00 0A 00 
0117F4 4A 00 53 00 		dc		"JS = jump to code",CR,LF
0117F8 20 00 3D 00 
0117FC 20 00 6A 00 
011800 75 00 6D 00 
011804 70 00 20 00 
011808 74 00 6F 00 
01180C 20 00 63 00 
011810 6F 00 64 00 
011814 65 00 0D 00 
011818 0A 00       
01181A 54 00 20 00 		dc	    "T = Dump task list",CR,LF
01181E 3D 00 20 00 
011822 44 00 75 00 
011826 6D 00 70 00 
01182A 20 00 74 00 
01182E 61 00 73 00 
011832 6B 00 20 00 
011836 6C 00 69 00 
01183A 73 00 74 00 
01183E 0D 00 0A 00 
011842 53 00 20 00 		dc		"S = boot from SD card",CR,LF
011846 3D 00 20 00 
01184A 62 00 6F 00 
01184E 6F 00 74 00 
011852 20 00 66 00 
011856 72 00 6F 00 
01185A 6D 00 20 00 
01185E 53 00 44 00 
011862 20 00 63 00 
011866 61 00 72 00 
01186A 64 00 0D 00 
01186E 0A 00       
011870 00 00       		dc		0
                	
                	msgMonitorStarted
011872 4D 00 6F 00 		dc		"Monitor started.",0
011876 6E 00 69 00 
01187A 74 00 6F 00 
01187E 72 00 20 00 
011882 73 00 74 00 
011886 61 00 72 00 
01188A 74 00 65 00 
01188E 64 00 2E 00 
011892 00 00       
                	
                	doCLS:
011894 39 34 09 00 		bsr		ClearScreen_
011898 B9 14 09 00 		bsr		HomeCursor_
01189C 3A 01 FF FF 		bra     mon1
                	
                	;------------------------------------------------------------------------------
                	; Get a random number from peripheral device.
                	;------------------------------------------------------------------------------
                	
                	GetRandomNumber:
0118A0 7C DC FF 00 	    lw      r1,$FFDC0C00
0118A4 46 10 00 18 
0118A8 37 FF 01 00 	    rtl

                	; ============================================================================
                	; I2C interface to RTCC
                	; ============================================================================
                	
                	I2C_INIT:
0118AC E7 E0 01 00 	    push    r1
0118B0 67 E1 01 00 	    push    r2
0118B4 7C DC FF 00 		ldi		r2,#I2C_MASTER
0118B8 0A 20 00 1C 
0118BC 60 01 04 00 		sb		r0,I2C_CONTROL[r2]		; disable the contoller
0118C0 60 01 02 00 		sb		r0,I2C_PRESCALE_HI[r2]	; set clock divisor for 100kHz
0118C4 0A 10 C6 00 		ldi		r1,#99					; 24=400kHz, 99=100KHz
0118C8 60 11 00 00 		sb		r1,I2C_PRESCALE_LO[r2]
0118CC 0A 10 00 01 		ldi		r1,#$80					; controller enable bit
0118D0 60 11 04 00 		sb		r1,I2C_CONTROL[r2]
0118D4 57 2F 10 00 		pop		r2
0118D8 57 1F 10 00 	    pop     r1
0118DC 37 FF 01 00 		rtl

                	;------------------------------------------------------------------------------
                	; I2C Read
                	;
                	; Parameters:
                	; 	r1 = device ($6F for RTCC)
                	; 	r2 = register to read
                	; Returns
                	; 	r1 = register value $00 to $FF if successful, else r1 = -1 on error
                	;------------------------------------------------------------------------------
                	;
                	I2C_READ:
0118E0 E7 EF 01 00 	    push    lr
0118E4 67 E1 01 00 		push	r2
0118E8 E7 E1 01 00 	    push    r3
0118EC 67 E2 01 00 	    push    r4
0118F0 82 10 02 70 		asl		r1,r1,#1				; clear rw bit for write
                	;	or		r1,r1,#1				; set rw bit for a read
0118F4 82 40 00 1A 		mov		r4,r1					; save device address in r4
0118F8 02 31 00 1A 		mov		r3,r2
                		; transmit device #
0118FC 7C DC FF 00 		ldi		r2,#I2C_MASTER
011900 0A 20 00 1C 
011904 60 11 06 00 		sb		r1,I2C_TX[r2]
011908 0A 10 20 01 		ldi		r1,#$90					; STA($80) and WR($10) bits set
01190C 60 11 08 00 		sb		r1,I2C_CMD[r2]
011910 B9 20 00 00 		bsr		I2C_WAIT_TC				; wait for transmit to complete
                		; transmit register #
011914 40 11 08 00 		lb		r1,I2C_STAT[r2]
011918 8C 10 00 01 		and		r1,r1,#$80				; test RxACK bit
01191C BD 10 30 00 		bne	    r1,I2C_ERR
011920 60 31 06 00 		sb		r3,I2C_TX[r2]			; select register r3
011924 0A 10 20 00 		ldi		r1,#$10					; set WR bit
011928 60 11 08 00 		sb		r1,I2C_CMD[r2]
01192C 39 1D 00 00 		bsr		I2C_WAIT_TC
                	
                		; transmit device #
011930 40 11 08 00 		lb		r1,I2C_STAT[r2]
011934 8C 10 00 01 		and		r1,r1,#$80				; test RxACK bit
011938 BD 10 22 00 		bne	    r1,I2C_ERR
01193C 0D 42 02 00 		or		r4,r4,#1				; set read flag
011940 60 41 06 00 		sb		r4,I2C_TX[r2]
011944 0A 10 20 01 		ldi		r1,#$90					; STA($80) and WR($10) bits set
011948 60 11 08 00 		sb		r1,I2C_CMD[r2]
01194C 39 19 00 00 		bsr		I2C_WAIT_TC				; wait for transmit to complete
                	
                		; receive data byte
011950 40 11 08 00 		lb		r1,I2C_STAT[r2]
011954 8C 10 00 01 		and		r1,r1,#$80				; test RxACK bit
011958 BD 10 12 00 		bne	    r1,I2C_ERR
01195C 0A 10 D0 00 		ldi		r1,#$68					; STO($40), RD($20), and NACK($08)
011960 60 11 08 00 		sb		r1,I2C_CMD[r2]
011964 39 16 00 00 		bsr		I2C_WAIT_TC
011968 41 11 06 00 		lbu		r1,I2C_RX[r2]			; $00 to $FF = byte read, -1=err
01196C 57 4F 10 00 		pop		r4
011970 57 3F 10 00 	    pop     r3
011974 57 2F 10 00 	    pop     r2
011978 3B FF 11 00 		rts

                	I2C_ERR:
01197C 0A 10 FE FF 		ldi		r1,#-1
011980 82 02 00 3C 		mtspr	cr0,r5					; restore TMR
011984 57 4F 10 00 		pop     r4
011988 57 3F 10 00 		pop     r3
01198C 57 2F 10 00 		pop     r2
011990 3B FF 11 00 		rts

                	;------------------------------------------------------------------------------
                	; I2C Write
                	;
                	; Parameters:
                	; 	r1 = device ($6F)
                	; 	r2 = register to write
                	; 	r3 = value for register
                	; Returns
                	; 	r1 = 0 if successful, else r1 = -1 on error
                	;------------------------------------------------------------------------------
                	;
                	I2C_WRITE:
011994 E7 EF 01 00 		push	lr
011998 67 E1 01 00 	    push    r2
01199C E7 E1 01 00 	    push    r3
0119A0 67 E2 01 00 	    push    r4
0119A4 82 10 02 70 		asl		r1,r1,#1				; clear rw bit for write
0119A8 82 41 00 1A 		mov		r4,r3					; save value r4
0119AC 02 31 00 1A 		mov		r3,r2
                		; transmit device #
0119B0 7C DC FF 00 		ldi		r2,#I2C_MASTER			; r2 = I/O base address of controller
0119B4 0A 20 00 1C 
0119B8 60 11 06 00 		sb		r1,I2C_TX[r2]
0119BC 0A 10 20 01 		ldi		r1,#$90					; STA($80) and WR($10) bits set
0119C0 60 11 08 00 		sb		r1,I2C_CMD[r2]
0119C4 39 0A 00 00 		bsr		I2C_WAIT_TC				; wait for transmit to complete
                		; transmit register #
0119C8 40 11 08 00 		lb		r1,I2C_STAT[r2]
0119CC 8C 10 00 01 		and		r1,r1,#$80				; test RxACK bit
0119D0 BD 10 D6 FF 		bne  	r1,I2C_ERR
0119D4 60 31 06 00 		sb		r3,I2C_TX[r2]			; select register r3
0119D8 0A 10 20 00 		ldi		r1,#$10					; set WR bit
0119DC 60 11 08 00 		sb		r1,I2C_CMD[r2]
0119E0 B9 06 00 00 		bsr		I2C_WAIT_TC
                		; transmit value
0119E4 40 11 08 00 		lb		r1,I2C_STAT[r2]
0119E8 8C 10 00 01 		and		r1,r1,#$80				; test RxACK bit
0119EC BD 10 C8 FF 		bne  	r1,I2C_ERR
0119F0 60 41 06 00 		sb		r4,I2C_TX[r2]			; select value in r4
0119F4 0A 10 A0 00 		ldi		r1,#$50					; set STO, WR bit
0119F8 60 11 08 00 		sb		r1,I2C_CMD[r2]
0119FC 39 03 00 00 		bsr		I2C_WAIT_TC
011A00 0A 10 00 00 		ldi		r1,#0					; everything okay
011A04 57 4F 10 00 		pop		r4
011A08 57 3F 10 00 	    pop     r3
011A0C 57 2F 10 00 	    pop     r2
011A10 3B FF 11 00 		rts

                	; Wait for I2C controller transmit complete
                	
                	I2C_WAIT_TC:
                	.0001:
011A14 40 11 08 00 		lb		r1,I2C_STAT[r2]
011A18 8C 10 04 00 		and		r1,r1,#2
011A1C BD 10 FC FF 		bne 	r1,.0001
011A20 37 FF 01 00 		rtl

                	; Read the entire contents of the RTCC including 64 SRAM bytes
                	
                	RTCCReadbuf:
011A24 E7 EF 01 00 	    push    lr
011A28 B9 D0 FF FF 		bsr		I2C_INIT
011A2C 0A 20 00 00 		ldi		r2,#$00
                	.0001:
011A30 0A 10 DE 00 		ldi		r1,#$6F
011A34 B9 D5 FF FF 		bsr		I2C_READ
011A38 7C C2 00 00 		sb		r1,RTCC_BUF[r2]
011A3C 60 11 E0 07 
011A40 04 21 02 00 		add		r2,r2,#1
011A44 16 11 C0 00 		cmpu	r1,r2,#$60
011A48 BD 40 F4 FF 		blt		r1,.0001
011A4C 3B FF 11 00 		rts

                	; Write the entire contents of the RTCC including 64 SRAM bytes
                	
                	RTCCWritebuf:
011A50 E7 EF 01 00 	    push    lr
011A54 39 CB FF FF 		bsr		I2C_INIT
011A58 0A 20 00 00 		ldi		r2,#$00
                	.0001:
011A5C 0A 10 DE 00 		ldi		r1,#$6F
011A60 7C C2 00 00 		lbu		r3,RTCC_BUF[r2]
011A64 41 31 E0 07 
011A68 B9 E5 FF FF 		bsr		I2C_WRITE
011A6C 04 21 02 00 		add		r2,r2,#1
011A70 16 11 C0 00 		cmpu	r1,r2,#$60
011A74 BD 40 F4 FF 		blt		r1,.0001
011A78 3B FF 11 00 		rts

                	RTCCOscOn:
011A7C E7 EF 01 00 	    push    lr
011A80 B9 C5 FF FF 		bsr		I2C_INIT
011A84 0A 10 DE 00 		ldi		r1,#$6F
011A88 0A 20 00 00 		ldi		r2,#$00			; register zero
011A8C B9 CA FF FF 		bsr		I2C_READ		; read register zero
011A90 8D 30 00 01 		or		r3,r1,#$80		; set start osc bit
011A94 0A 10 DE 00 		ldi		r1,#$6F
011A98 B9 DF FF FF 		bsr		I2C_WRITE
011A9C 3B FF 11 00 		rts

                	
                	;------------------------------------------------------------------------------
                	;------------------------------------------------------------------------------
                	; Keyboard processing routines follow.
                	;------------------------------------------------------------------------------
                	;------------------------------------------------------------------------------
                	
                	KEYBD_DELAY		EQU		1000
                	
                	KeybdGetCharDirectNB:
011AA0 E7 EF 01 00 	    push    lr
011AA4 67 E1 01 00 		push	r2
011AA8 02 00 02 6E 		sei
011AAC 7C DC FF 00 		lcu		r1,KEYBD
011AB0 43 10 00 00 
011AB4 FC 00 00 00 		and		r2,r1,#$8000
011AB8 8C 20 00 00 
011ABC 3D 01 26 00 		beq		r2,.0001
011AC0 7C DC FF 00 		lbu		r0,KEYBD+4		; clear keyboard strobe
011AC4 41 00 08 00 
011AC8 02 00 00 6E 		cli
011ACC 8C 20 00 10 		and		r2,r1,#$800	; is it keydown ?
011AD0 3D 11 1C 00 		bne	    r2,.0001
011AD4 8C 10 FE 01 		and		r1,r1,#$FF
011AD8 7C C2 00 00 		lbu		r2,KeybdEcho
011ADC 41 20 7C 02 
011AE0 3D 01 0E 00 		beq		r2,.0002
011AE4 86 20 1A 00 		cmp		r2,r1,#CR
011AE8 3D 11 06 00 		bne		r2,.0003
011AEC B9 DF DC FF 		bsr		CRLF
011AF0 BA 01 00 00 		bra     .0002
                	.0003:
011AF4 7C C2 00 00 		jsr		(OutputVec)
011AF8 3E F0 21 02 
                	.0002:
011AFC 57 2F 10 00 		pop		r2
011B00 57 FF 11 00 		pop     lr
011B04 37 FF 01 00 		rtl
.0001:
011B08 02 00 00 6E 		cli
011B0C 0A 10 FE FF 		ldi		r1,#-1
011B10 57 2F 10 00 		pop		r2
011B14 57 FF 11 00 		pop     lr
011B18 37 FF 01 00 		rtl

                	KeybdGetCharDirect:
011B1C E7 EF 01 00 	    push    lr
011B20 67 E1 01 00 		push	r2
                	.0001:
011B24 7C DC FF 00 		lc		r1,KEYBD
011B28 42 10 00 00 
011B2C FC 00 00 00 		and		r2,r1,#$8000
011B30 8C 20 00 00 
011B34 3D 01 F8 FF 		beq		r2,.0001
011B38 7C DC FF 00 		lbu		r0,KEYBD+4		; clear keyboard strobe
011B3C 41 00 08 00 
011B40 8C 20 00 10 		and		r2,r1,#$800	; is it keydown ?
011B44 3D 11 F0 FF 		bne	    r2,.0001
011B48 8C 10 FE 01 		and		r1,r1,#$FF
011B4C 7C C2 00 00 		lbu		r2,KeybdEcho
011B50 41 20 7C 02 
011B54 3D 01 0E 00 		beq		r2,.gk1
011B58 86 20 1A 00 		cmp		r2,r1,#CR
011B5C 3D 11 06 00 		bne		r2,.gk2
011B60 39 D1 DC FF 		bsr		CRLF
011B64 BA 01 00 00 		bra     .gk1
                	.gk2:
011B68 7C C2 00 00 		jsr		(OutputVec)
011B6C 3E F0 21 02 
                	.gk1:
011B70 57 2F 10 00 		pop		r2
011B74 57 FF 11 00 		pop     lr
011B78 37 FF 01 00 		rtl

                	;KeybdInit:
                	;	mfspr	r1,cr0		; turn off tmr mode
                	;	push	r1
                	;	mtspr	cr0,r0
                	;	ldi		r1,#33
                	;	sb		r1,LEDS
                	;	bsr		WaitForKeybdAck	; grab a byte from the keyboard
                	;	cmp		flg0,r1,#$AA	; did it send a ack ?
                	;	
                	;	ldi		r1,#$ff			; issue keyboard reset
                	;	bsr		SendByteToKeybd
                	;	ldi		r1,#38
                	;	sb		r1,LEDS
                	;	ldi		r1,#4
                	;	jsr		Sleep
                	;	ldi		r1,#KEYBD_DELAY	; delay a bit
                	kbdi5:
                	;	sub		r1,r1,#1
                	;	brnz	r1,kbdi5
                	;	ldi		r1,#34
                	;	sb		r1,LEDS
                	;	ldi		r1,#0xf0		; send scan code select
                	;	bsr		SendByteToKeybd
                	;	ldi		r1,#35
                	;	sb		r1,LEDS
                	;	ldi		r2,#0xFA
                	;	bsr		WaitForKeybdAck
                	;	cmp		fl0,r1,#$FA
                	;	bne		fl0,kbdi2
                	;	ldi		r1,#36
                	;	sb		r1,LEDS
                	;	ldi		r1,#2			; select scan code set#2
                	;	bsr		SendByteToKeybd
                	;	ldi		r1,#39
                	;	sb		r1,LEDS
                	;kbdi2:
                	;	ldi		r1,#45
                	;	sb		r1,LEDS
                	;	pop		r1				; turn back on tmr mode
                	;	mtspr	cr0,r1
                	;	rtl
                	
                	msgBadKeybd:
011B7C 4B 00 65 00 		dc		"Keyboard not responding.",0
011B80 79 00 62 00 
011B84 6F 00 61 00 
011B88 72 00 64 00 
011B8C 20 00 6E 00 
011B90 6F 00 74 00 
011B94 20 00 72 00 
011B98 65 00 73 00 
011B9C 70 00 6F 00 
011BA0 6E 00 64 00 
011BA4 69 00 6E 00 
011BA8 67 00 2E 00 
011BAC 00 00       
                	
                	;SendByteToKeybd:
                	;	push	r2
                	;	sb		r1,KEYBD
                	;	ldi		r1,#40
                	;	sb		r1,LEDS
                	;	mfspr	r3,tick
                	;kbdi4:						; wait for transmit complete
                	;	mfspr	r4,tick
                	;	sub		r4,r4,r3
                	;	cmp		fl0,r4,#KEYBD_DELAY
                	;	bhi		fl0,kbdbad
                	;	ldi		r1,#41
                	;	sb		r1,LEDS
                	;	lbu		r1,KEYBD+1
                	;	and		fl0,r1,#64
                	;	brz		fl0,kbdi4
                	;	bra 	sbtk1
                	;kbdbad:
                	;	ldi		r1,#42
                	;	sb		r1,LEDS
                	;	lbu		r1,KeybdBad
                	;	brnz	r1,sbtk2
                	;	ldi		r1,#1
                	;	sb		r1,KeybdBad
                	;	ldi		r1,#43
                	;	sb		r1,LEDS
                	;	ldi		r1,#msgBadKeybd
                	;	bsr		DisplayStringCRLF
                	;sbtk1:
                	;	ldi		r1,#44
                	;	sb		r1,LEDS
                	;	pop		r2
                	;	rtl
                	;sbtk2:
                	;	bra sbtk1
                	
                	; Wait for keyboard to respond with an ACK (FA)
                	;
                	;WaitForKeybdAck:
                	;	ldi		r1,#64
                	;	sb		r1,LEDS
                	;	mfspr	r3,tick
                	;wkbdack1:
                	;	mfspr	r4,tick
                	;	sub		r4,r4,r3
                	;	cmp		fl0,r4,#KEYBD_DELAY
                	;	bhi		fl0,wkbdbad
                	;	ldi		r1,#65
                	;	sb		r1,LEDS
                	;	lb		r1,KEYBD+1				; check keyboard status for key
                	;	brpl	r1,wkbdack1				; no key available, go back
                	;	lbu		r1,KEYBD				; get the scan code
                	;	sb		r0,KEYBD+1				; clear recieve register
                	;wkbdbad:
                	;	rtl
                	
                	KeybdInit:
011BAE 00 00 E7 EF 	    push    lr
011BB2 01 00       
011BB4 0A 30 0A 00 		ldi		r3,#5
                	.0001:
011BB8 39 46 00 00 		bsr		KeybdRecvByte	; Look for $AA
011BBC BD 40 06 00 		bmi		r1,.0002
011BC0 86 20 54 01 		cmp		r2,r1,#$AA		;
011BC4 3D 01 20 00 		beq		r2,.config
                	.0002:
011BC8 39 D9 00 00 		bsr		Wait10ms
011BCC 0A 10 FE FF 		ldi		r1,#-1			; send reset code to keyboard
011BD0 7C DC FF 00 		sb		r1,KEYBD+1		; write to status reg to clear TX state
011BD4 60 10 02 00 
011BD8 39 D7 00 00 		bsr		Wait10ms
011BDC 0A 10 FE 01 		ldi		r1,#$FF
011BE0 B9 D4 00 00 		bsr		KeybdSendByte	; now write to transmit register
011BE4 B9 48 00 00 		bsr		KeybdWaitTx		; wait until no longer busy
011BE8 39 40 00 00 		bsr		KeybdRecvByte	; look for an ACK ($FA)
011BEC 86 20 F4 01 		cmp		r2,r1,#$FA
011BF0 39 3F 00 00 		bsr		KeybdRecvByte
011BF4 86 20 F8 01 		cmp		r2,r1,#$FC		; reset error ?
011BF8 3D 01 1A 00 		beq		r2,.tryAgain
011BFC 86 20 54 01 		cmp		r2,r1,#$AA		; reset complete okay ?
011C00 3D 11 16 00 		bne		r2,.tryAgain
                	.config:
011C04 0A 10 E0 01 		ldi		r1,#$F0			; send scan code select
011C08 7C DC FF 00 		sc		r1,LEDS
011C0C 61 10 00 0C 
011C10 B9 CE 00 00 		bsr		KeybdSendByte
011C14 B9 42 00 00 		bsr		KeybdWaitTx
011C18 BD 40 0A 00 		bmi		r1,.tryAgain
011C1C B9 39 00 00 		bsr		KeybdRecvByte	; wait for response from keyboard
011C20 BD 40 06 00 		bmi		r1,.tryAgain
011C24 86 20 F4 01 		cmp		r2,r1,#$FA
011C28 3D 01 10 00 		beq		r2,.0004
                	.tryAgain:
011C2C 95 31 02 00 	    subui   r3,r3,#1
011C30 BD 11 C4 FF 		bne	    r3,.0001
                	.keybdErr:
011C34 7C 01 00 00 		ldi		r1,#msgBadKeybd
011C38 0A 10 F8 36 
011C3C 39 B8 DC FF 		bsr		DisplayString
011C40 57 FF 11 00 		pop     lr
011C44 37 FF 01 00 		rtl
.0004:
011C48 0A 10 04 00 		ldi		r1,#2			; select scan code set #2
011C4C 39 C7 00 00 		bsr		KeybdSendByte
011C50 39 3B 00 00 		bsr		KeybdWaitTx
011C54 BD 40 EC FF 		bmi		r1,.tryAgain
011C58 57 FF 11 00 		pop     lr
011C5C 37 FF 01 00 		rtl

                	; Get the keyboard status
                	;
                	KeybdGetStatus_:
011C60 7C DC FF 00 		lb		r1,KEYBD+1
011C64 40 10 02 00 
011C68 37 FF 01 00 		rtl
    push    r2
011C6C 67 E1 01 00 
011C70 7C 00 00 00 	    lbu     r2,TCB_hJCB[tr]
011C74 7C 00 00 00 
011C78 41 2C FE 03 
011C7C 7C 00 00 00 	    cmp     r1,r2,#NR_JCB
011C80 7C 00 00 00 
011C84 06 11 00 04 
011C88 BD 30 3A 00 	    bge     r1,.0001
011C8C 7C 00 00 00 	    mulu    r2,#JCB_Size
011C90 7C 00 00 00 
011C94 97 FF FF FF 
011C98 7C 00 00 00 	    addui   r2,r2,#JCB_Array
011C9C 7C 00 00 00 
011CA0 14 21 06 04 
011CA4 E7 E1 01 00 	    push    r3
011CA8 67 E2 01 00 	    push    r4
011CAC E7 EF 01 00 	    push    lr
011CB0 B9 AA DC FF 	    bsr     LockSYS
011CB4 7C 00 00 00 	    lbu     r1,JCB_KeybdHead[r2]
011CB8 7C 00 00 00 
011CBC 41 11 0A 04 
011CC0 7C 00 00 00 	    lbu     r3,JCB_KeybdTail[r2]
011CC4 7C 00 00 00 
011CC8 41 31 0C 04 
011CCC 39 A7 DC FF 	    bsr     UnlockSYS
011CD0 82 40 06 2C 	    cmpu    r4,r1,r3
011CD4 3D 02 0E 00 	    beq     r4,.0002
011CD8 0A 10 FE FF 	    ldi     r1,#-1
011CDC 57 FF 11 00 	    pop     lr
011CE0 57 4F 10 00 	    pop     r4
011CE4 57 3F 10 00 	    pop     r3
011CE8 57 2F 10 00 	    pop     r2
011CEC 37 FF 01 00 	    rtl
.0002:
011CF0 57 FF 11 00 	    pop     lr
011CF4 57 4F 10 00 	    pop     r4
011CF8 57 3F 10 00 	    pop     r3
                	.0001:
011CFC 0A 10 00 00 	    ldi     r1,#0   ; no scancode available
011D00 57 2F 10 00 	    pop     r2
011D04 37 FF 01 00 	    rtl

                	; Get the scancode from the keyboard port
                	;
                	KeybdGetScancode_:
011D08 7C DC FF 00 		lbu		r1,KEYBD				; get the scan code
011D0C 41 10 00 00 
011D10 7C DC FF 00 		sb		r0,KEYBD+1				; clear receive register
011D14 60 00 02 00 
011D18 37 FF 01 00 		rtl
    push    r2
011D1C 67 E1 01 00 
011D20 7C 00 00 00 	    lbu     r2,TCB_hJCB[tr]
011D24 7C 00 00 00 
011D28 41 2C FE 03 
011D2C 7C 00 00 00 	    cmp     r1,r2,#NR_JCB
011D30 7C 00 00 00 
011D34 06 11 00 04 
011D38 BD 30 4C 00 	    bge     r1,.0001
011D3C 7C 00 00 00 	    mulu    r2,#JCB_Size
011D40 7C 00 00 00 
011D44 97 FF FF FF 
011D48 7C 00 00 00 	    addui   r2,r2,#JCB_Array
011D4C 7C 00 00 00 
011D50 14 21 06 04 
011D54 E7 E1 01 00 	    push    r3
011D58 67 E2 01 00 	    push    r4
011D5C E7 EF 01 00 	    push    lr
011D60 B9 94 DC FF 	    bsr     LockSYS
011D64 7C 00 00 00 	    lbu     r1,JCB_KeybdHead[r2]
011D68 7C 00 00 00 
011D6C 41 11 0A 04 
011D70 7C 00 00 00 	    lbu     r3,JCB_KeybdTail[r2]
011D74 7C 00 00 00 
011D78 41 31 0C 04 
011D7C 82 40 06 2C 	    cmpu    r4,r1,r3
011D80 3D 02 20 00 	    beq     r4,.0002
011D84 7C 00 00 00 	    lea     r4,JCB_KeybdBuffer[r2]
011D88 7C 00 00 00 
011D8C 47 41 18 04 
011D90 49 12 06 00 	    lbu     r1,[r4+r3]
011D94 94 31 02 00 	    addui   r3,r3,#1
011D98 8C 31 3E 00 	    and     r3,r3,#31 ; mod 32
011D9C 7C 00 00 00 	    sb      r3,JCB_KeybdTail[r2]
011DA0 7C 00 00 00 
011DA4 60 31 0C 04 
011DA8 B9 8B DC FF 	    bsr     UnlockSYS
011DAC 57 FF 11 00 	    pop     lr
011DB0 57 4F 10 00 	    pop     r4
011DB4 57 3F 10 00 	    pop     r3
011DB8 57 2F 10 00 	    pop     r2
011DBC 37 FF 01 00 	    rtl
.0002:
011DC0 B9 88 DC FF 	    bsr     UnlockSYS
011DC4 57 FF 11 00 	    pop     lr
011DC8 57 4F 10 00 	    pop     r4
011DCC 57 3F 10 00 	    pop     r3
                	.0001:
011DD0 0A 10 00 00 	    ldi     r1,#0   ; no scancode available
011DD4 57 2F 10 00 	    pop     r2
011DD8 37 FF 01 00 	    rtl

                	KeybdClearRcv_:
011DDC 7C DC FF 00 		sb		r0,KEYBD+1		; clear receive register (acknowledges interrupt)
011DE0 60 00 02 00 
011DE4 37 FF 01 00 	    rtl
 
                	; Recieve a byte from the keyboard, used after a command is sent to the
                	; keyboard in order to wait for a response.
                	;
                	KeybdRecvByte:
011DE8 E7 EF 01 00 	    push    lr
011DEC E7 E1 01 00 		push	r3
011DF0 0A 30 C8 00 		ldi		r3,#100			; wait up to 1s
                	.0003:
011DF4 39 83 DC FF 		bsr		KeybdGetStatus	; wait for response from keyboard
011DF8 BD 40 10 00 		bmi		r1,.0004		; is input buffer full ? yes, branch
011DFC B9 92 00 00 		bsr		Wait10ms		; wait a bit
011E00 95 31 02 00 		subui   r3,r3,#1
011E04 BD 11 F8 FF 		bne     r3,.0003		; go back and try again
011E08 57 3F 10 00 		pop		r3				; timeout
011E0C 0A 10 FE FF 		ldi		r1,#-1			; return -1
011E10 57 FF 11 00 		pop     lr
011E14 37 FF 01 00 		rtl
.0004:
011E18 39 7F DC FF 		bsr		KeybdGetScancode
011E1C 57 3F 10 00 		pop		r3
011E20 57 FF 11 00 		pop     lr
011E24 37 FF 01 00 		rtl

                	
                	; Wait until the keyboard transmit is complete
                	; Returns .CF = 1 if successful, .CF=0 timeout
                	;
                	KeybdWaitTx:
011E28 E7 EF 01 00 	    push    lr
011E2C 67 E1 01 00 		push	r2
011E30 E7 E1 01 00 	    push    r3
011E34 0A 30 C8 00 		ldi		r3,#100			; wait a max of 1s
                	.0001:
011E38 B9 7A DC FF 		bsr		KeybdGetStatus
011E3C 8C 10 80 00 		and		r1,r1,#$40		; check for transmit complete bit
011E40 BD 10 12 00 		bne	    r1,.0002		; branch if bit set
011E44 B9 89 00 00 		bsr		Wait10ms		; delay a little bit
011E48 95 31 02 00 		subui   r3,r3,#1
011E4C BD 11 F6 FF 		bne	    r3,.0001		; go back and try again
011E50 57 3F 10 00 		pop		r3
011E54 57 2F 10 00 	    pop     r2			    ; timed out
011E58 0A 10 FE FF 		ldi		r1,#-1			; return -1
011E5C 57 FF 11 00 		pop     lr
011E60 37 FF 01 00 		rtl
.0002:
011E64 57 3F 10 00 		pop		r3
011E68 57 2F 10 00 	    pop     r2			    ; wait complete, return 
011E6C 0A 10 00 00 		ldi		r1,#0			; return 0
011E70 57 FF 11 00 		pop     lr
011E74 37 FF 01 00 		rtl

                	KeybdGetCharNoWait:
011E78 7C C2 00 00 		sb		r0,KeybdWaitFlag
011E7C 60 00 84 02 
011E80 3A 02 00 00 		bra		KeybdGetChar
                	
                	KeybdGetCharWait:
011E84 0A 10 FE FF 		ldi		r1,#-1
011E88 7C C2 00 00 		sb		r1,KeybdWaitFlag
011E8C 60 10 84 02 
                	
                	;
                	; KeyState2_
                	; 876543210
                	; ||||||||+ = shift
                	; |||||||+- = alt
                	; ||||||+-- = control
                	; |||||+--- = numlock
                	; ||||+---- = capslock
                	; |||+----- = scrolllock
                	; ||+------ =
                	; |+------- = 
                	; +-------- = extended
                	;
                	KeybdGetChar:
011E90 E7 EF 01 00 	    push    lr
011E94 67 E1 01 00 		push	r2
011E98 E7 E1 01 00 	    push    r3
                	.0003:
011E9C B9 B8 FF FF 		bsr		KeybdGetStatus_			; check keyboard status for key available
011EA0 BD 40 10 00 		bmi		r1,.0006				; yes, go process
011EA4 7C C2 00 00 		lb		r1,KeybdWaitFlag		; are we willing to wait for a key ?
011EA8 40 10 84 02 
011EAC BD 40 F8 FF 		bmi		r1,.0003				; yes, branch back
011EB0 0A 10 FE FF 		ldi		r1,#-1					; flag no char available
011EB4 57 3F 10 00 		pop		r3
011EB8 57 2F 10 00 	    pop     r2
011EBC 3B FF 11 00 		rts
.0006:
011EC0 39 C9 FF FF 		bsr		KeybdGetScancode_
                	.0001:
011EC4 0A 20 02 00 		ldi		r2,#1
011EC8 7C DC FF 00 		sb		r2,LEDS
011ECC 60 20 00 0C 
011ED0 86 20 E0 01 		cmp		r2,r1,#SC_KEYUP
011ED4 3D 01 8C 00 		beq		r2,.doKeyup
011ED8 86 20 C0 01 		cmp		r2,r1,#SC_EXTEND
011EDC 3D 01 92 00 		beq		r2,.doExtend
011EE0 86 20 28 00 		cmp		r2,r1,#$14				; code for CTRL
011EE4 3D 01 9E 00 		beq		r2,.doCtrl
011EE8 86 20 24 00 		cmp		r2,r1,#$12				; code for left shift
011EEC 3D 01 14 01 		beq		r2,.doShift
011EF0 86 20 B2 00 		cmp		r2,r1,#$59				; code for right-shift
011EF4 3D 01 10 01 		beq		r2,.doShift
011EF8 86 20 EE 00 		cmp		r2,r1,#SC_NUMLOCK
011EFC 3D 01 3A 01 		beq		r2,.doNumLock
011F00 86 20 B0 00 		cmp		r2,r1,#SC_CAPSLOCK
011F04 3D 01 48 01 		beq		r2,.doCapsLock
011F08 86 20 FC 00 		cmp		r2,r1,#SC_SCROLLLOCK
011F0C 3D 01 56 01 		beq		r2,.doScrollLock
011F10 86 20 22 00 		cmp     r2,r1,#SC_ALT
011F14 3D 01 B4 00 		beq     r2,.doAlt
011F18 7C 00 00 00 		lb		r2,KeyState1_			; check key up/down
011F1C 7C 00 00 00 
011F20 40 20 44 04 
011F24 7C 00 00 00 		sb		r0,KeyState1_			; clear keyup status
011F28 7C 00 00 00 
011F2C 60 00 44 04 
011F30 3D 11 B6 FF 		bne	    r2,.0003				; ignore key up
011F34 86 20 1A 00 		cmp     r2,r1,#SC_TAB
011F38 3D 01 D6 00 		beq     r2,.doTab
                	.0013:
011F3C 7C 00 00 00 		lb		r2,KeyState2_
011F40 7C 00 00 00 
011F44 40 20 4A 04 
011F48 0C 31 00 01 		and		r3,r2,#$80				; is it extended code ?
011F4C BD 01 16 00 		beq		r3,.0010
011F50 0C 31 FE 00 		and		r3,r2,#$7f				; clear extended bit
011F54 7C 00 00 00 		sb		r3,KeyState2_
011F58 7C 00 00 00 
011F5C 60 30 4A 04 
011F60 7C 00 00 00 		sb		r0,KeyState1_			; clear keyup
011F64 7C 00 00 00 
011F68 60 00 44 04 
011F6C 7C 01 00 00 		lbu		r1,keybdExtendedCodes_[r1]
011F70 C1 10 A0 4C 
011F74 BA 0B 00 00 		bra		.0008
                	.0010:
011F78 7C 00 00 00 		lb		r2,KeyState2_
011F7C 7C 00 00 00 
011F80 40 20 4A 04 
011F84 0C 31 08 00 		and		r3,r2,#$04				; is it CTRL code ?
011F88 BD 01 0A 00 		beq		r3,.0009
011F8C 8C 10 FE 00 		and		r1,r1,#$7F
011F90 7C 01 00 00 		lbu		r1,keybdControlCodes_[r1]
011F94 C1 10 A0 4B 
011F98 3A 07 00 00 		bra		.0008
                	.0009:
011F9C 7C 00 00 00 		lb		r2,KeyState2_
011FA0 7C 00 00 00 
011FA4 40 20 4A 04 
011FA8 0C 31 02 00 		and		r3,r2,#$01				; is it shift down ?
011FAC BD 01 08 00 		beq  	r3,.0007
011FB0 7C 01 00 00 		lbu		r1,shiftedScanCodes_[r1]
011FB4 C1 10 A0 49 
011FB8 3A 03 00 00 		bra		.0008
                	.0007:
011FBC 7C 01 00 00 		lbu		r1,unshiftedScanCodes_[r1]
011FC0 C1 10 A0 47 
011FC4 0A 20 04 00 		ldi		r2,#2
011FC8 7C DC FF 00 		sb		r2,LEDS
011FCC 60 20 00 0C 
                	.0008:
011FD0 0A 20 06 00 		ldi		r2,#3
011FD4 7C DC FF 00 		sb		r2,LEDS
011FD8 60 20 00 0C 
011FDC 57 3F 10 00 		pop		r3
011FE0 57 2F 10 00 	    pop     r2
011FE4 57 FF 11 00 	    pop     lr
011FE8 37 FF 01 00 		rtl
.doKeyup:
011FEC 0A 10 FE FF 		ldi		r1,#-1
011FF0 7C 00 00 00 		sb		r1,KeyState1_
011FF4 7C 00 00 00 
011FF8 60 10 44 04 
011FFC 3A D4 FF FF 		bra		.0003
                	.doExtend:
012000 7C 00 00 00 		lbu		r1,KeyState2_
012004 7C 00 00 00 
012008 41 10 4A 04 
01200C 8D 10 00 01 		or		r1,r1,#$80
012010 7C 00 00 00 		sb		r1,KeyState2_
012014 7C 00 00 00 
012018 60 10 4A 04 
01201C 3A D0 FF FF 		bra		.0003
                	.doCtrl:
012020 7C 00 00 00 		lb		r1,KeyState1_
012024 7C 00 00 00 
012028 40 10 44 04 
01202C 7C 00 00 00 		sb		r0,KeyState1_
012030 7C 00 00 00 
012034 60 00 44 04 
012038 BD 30 12 00 		bpl		r1,.0004
01203C 7C 00 00 00 		lb		r1,KeyState2_
012040 7C 00 00 00 
012044 40 10 4A 04 
012048 8C 10 F6 FF 		and		r1,r1,#-5
01204C 7C 00 00 00 		sb		r1,KeyState2_
012050 7C 00 00 00 
012054 60 10 4A 04 
012058 BA C8 FF FF 		bra		.0003
                	.0004:
01205C 7C 00 00 00 		lb		r1,KeyState2_
012060 7C 00 00 00 
012064 40 10 4A 04 
012068 8D 10 08 00 		or		r1,r1,#4
01206C 7C 00 00 00 		sb		r1,KeyState2_
012070 7C 00 00 00 
012074 60 10 4A 04 
012078 BA C4 FF FF 		bra		.0003
                	.doAlt:
01207C 7C 00 00 00 		lb		r1,KeyState1_
012080 7C 00 00 00 
012084 40 10 44 04 
012088 7C 00 00 00 		sb		r0,KeyState1_
01208C 7C 00 00 00 
012090 60 00 44 04 
012094 BD 30 18 00 		bpl		r1,.0011
012098 7C 00 00 00 	    lb      r1,KeyState2_
01209C 7C 00 00 00 
0120A0 40 10 4A 04 
0120A4 7C 00 00 00 		lb		r1,KeyState2_
0120A8 7C 00 00 00 
0120AC 40 10 4A 04 
0120B0 8C 10 FA FF 		and		r1,r1,#-3
0120B4 7C 00 00 00 		sb		r1,KeyState2_
0120B8 7C 00 00 00 
0120BC 60 10 4A 04 
0120C0 BA BB FF FF 		bra		.0003
                	.0011:
0120C4 7C 00 00 00 		lb		r1,KeyState2_
0120C8 7C 00 00 00 
0120CC 40 10 4A 04 
0120D0 8D 10 04 00 		or		r1,r1,#2
0120D4 7C 00 00 00 		sb		r1,KeyState2_
0120D8 7C 00 00 00 
0120DC 60 10 4A 04 
0120E0 BA B7 FF FF 		bra		.0003
                	.doTab:
0120E4 E7 E0 01 00 	    push    r1
0120E8 7C 00 00 00 	    lb      r1,KeyState2_
0120EC 7C 00 00 00 
0120F0 40 10 4A 04 
0120F4 8C 10 02 00 	    and     r1,r1,#1                 ; is ALT down ?
0120F8 BD 00 0A 00 	    beq     r1,.0012
0120FC 7C 0D 01 00 	    inc     iof_switch_
012100 64 10 90 E0 
012104 57 1F 10 00 	    pop     r1
012108 BA B2 FF FF 	    bra     .0003
                	.0012:
01210C 57 1F 10 00 	    pop     r1
012110 BA C5 FF FF 	    bra     .0013
                	.doShift:
012114 7C 00 00 00 		lb		r1,KeyState1_
012118 7C 00 00 00 
01211C 40 10 44 04 
012120 7C 00 00 00 		sb		r0,KeyState1_
012124 7C 00 00 00 
012128 60 00 44 04 
01212C BD 30 12 00 		bpl		r1,.0005
012130 7C 00 00 00 		lb		r1,KeyState2_
012134 7C 00 00 00 
012138 40 10 4A 04 
01213C 8C 10 FC FF 		and		r1,r1,#-2
012140 7C 00 00 00 		sb		r1,KeyState2_
012144 7C 00 00 00 
012148 60 10 4A 04 
01214C 3A AA FF FF 		bra		.0003
                	.0005:
012150 7C 00 00 00 		lb		r1,KeyState2_
012154 7C 00 00 00 
012158 40 10 4A 04 
01215C 8D 10 02 00 		or		r1,r1,#1
012160 7C 00 00 00 		sb		r1,KeyState2_
012164 7C 00 00 00 
012168 60 10 4A 04 
01216C 3A A6 FF FF 		bra		.0003
                	.doNumLock:
012170 7C 00 00 00 		lb		r1,KeyState2_
012174 7C 00 00 00 
012178 40 10 4A 04 
01217C 8E 10 20 00 		eor		r1,r1,#16
012180 7C 00 00 00 		sb		r1,KeyState2_
012184 7C 00 00 00 
012188 60 10 4A 04 
01218C 39 0A 00 00 		bsr		KeybdSetLEDStatus
012190 BA A1 FF FF 		bra		.0003
                	.doCapsLock:
012194 7C 00 00 00 		lb		r1,KeyState2_
012198 7C 00 00 00 
01219C 40 10 4A 04 
0121A0 8E 10 40 00 		eor		r1,r1,#32
0121A4 7C 00 00 00 		sb		r1,KeyState2_
0121A8 7C 00 00 00 
0121AC 60 10 4A 04 
0121B0 B9 05 00 00 		bsr		KeybdSetLEDStatus
0121B4 3A 9D FF FF 		bra		.0003
                	.doScrollLock:
0121B8 7C 00 00 00 		lb		r1,KeyState2_
0121BC 7C 00 00 00 
0121C0 40 10 4A 04 
0121C4 8E 10 80 00 		eor		r1,r1,#64
0121C8 7C 00 00 00 		sb		r1,KeyState2_
0121CC 7C 00 00 00 
0121D0 60 10 4A 04 
0121D4 39 01 00 00 		bsr		KeybdSetLEDStatus
0121D8 BA 98 FF FF 		bra		.0003
                	
                	KeybdSetLEDStatus:
0121DC E7 EF 01 00 	    push    lr
0121E0 67 E1 01 00 		push	r2
0121E4 E7 E1 01 00 	    push    r3
0121E8 7C C2 00 00 		sb		r0,KeybdLEDs
0121EC 60 00 86 02 
0121F0 7C 00 00 00 		lb		r1,KeyState2_
0121F4 7C 00 00 00 
0121F8 40 10 4A 04 
0121FC 8C 20 20 00 		and		r2,r1,#16
012200 3D 01 08 00 		beq		r2,.0002
012204 0A 30 04 00 		ldi		r3,#2
012208 7C C2 00 00 		sb		r3,KeybdLEDs
01220C 60 30 86 02 
                	.0002:
012210 8C 20 40 00 		and		r2,r1,#32
012214 3D 01 0C 00 		beq		r2,.0003
012218 7C C2 00 00 		lb		r3,KeybdLEDs
01221C 40 30 86 02 
012220 8D 31 08 00 		or		r3,r3,#4
012224 7C C2 00 00 		sb		r3,KeybdLEDs
012228 60 30 86 02 
                	.0003:
01222C 8C 20 80 00 		and		r2,r1,#64
012230 3D 01 0C 00 		beq		r2,.0004
012234 7C C2 00 00 		lb		r3,KeybdLEDs
012238 40 30 86 02 
01223C 8D 31 02 00 		or		r3,r3,#1
012240 7C C2 00 00 		sb		r3,KeybdLEDs
012244 60 30 86 02 
                	.0004:
012248 0A 10 DA 01 		ldi		r1,#$ED
01224C 39 07 00 00 		bsr		KeybdSendByte
012250 39 7B FF FF 		bsr		KeybdWaitTx
012254 B9 72 FF FF 		bsr		KeybdRecvByte
012258 BD 40 0E 00 		bmi		r1,.0001
01225C 86 20 F4 01 		cmp		r2,r1,#$FA
012260 7C C2 00 00 		lb		r1,KeybdLEDs
012264 40 10 86 02 
012268 B9 03 00 00 		bsr		KeybdSendByte
01226C B9 77 FF FF 		bsr		KeybdWaitTx
012270 39 6F FF FF 		bsr		KeybdRecvByte
                	.0001:
012274 57 3F 10 00 		pop		r3
012278 57 2F 10 00 	    pop     r2
01227C 57 FF 11 00 	    pop     lr
012280 37 FF 01 00 		rtl

                	KeybdSendByte:
012284 7C DC FF 00 		sb		r1,KEYBD
012288 60 10 00 00 
01228C 37 FF 01 00 		rtl
	
                	Wait10ms:
012290 E7 E1 01 00 		push	r3
012294 67 E2 01 00 	    push    r4
012298 02 30 08 3E 		mfspr	r3,tick					; get orginal count
                	.0001:
01229C 02 40 08 3E 		mfspr	r4,tick
0122A0 02 42 06 0A 		sub		r4,r4,r3
0122A4 3D 42 08 00 		blt  	r4,.0002				; shouldn't be -ve unless counter overflowed
0122A8 FC 03 00 00 		cmpu	r4,r4,#250000			; about 10ms at 25 MHz
0122AC 16 42 20 A1 
0122B0 3D 42 F6 FF 		blt		r4,.0001
                	.0002:
0122B4 57 4F 10 00 		pop		r4
0122B8 57 3F 10 00 	    pop     r3
0122BC 37 FF 01 00 		rtl

                	;------------------------------------------------------------------------------
                	; KeybdIRQ
                	;     Keyboard interrupt processing routine. Must be short.
                	; Grab a scancode from the keyboard and place it into the keyboard buffer
                	; for the job with the I/O focus.
                	;------------------------------------------------------------------------------
                	
                	KeybdIRQ:
0122C0 FC C2 00 00 	    ldi     sp,#irq_stack_
0122C4 0A E0 11 08 
0122C8 E7 EF 01 00 	    push    lr
0122CC E7 E0 01 00 	    push    r1
0122D0 67 E1 01 00 	    push    r2
0122D4 E7 E1 01 00 	    push    r3
0122D8 67 E2 01 00 	    push    r4
0122DC 7C DC FF 00 	    lb      r1,KEYBD+1      ; get the keyboard status
0122E0 40 10 02 00 
0122E4 BD 20 62 00 	    bgt     r1,.0001        ; is there a scancode present ?
0122E8 7C DC FF 00 		lbu		r1,KEYBD		; get the scan code
0122EC 41 10 00 00 
0122F0 7C DC FF 00 		sb		r0,KEYBD+1		; clear receive register (acknowledges interrupt)
0122F4 60 00 02 00 
0122F8 7C 0D 01 00 		lw      r2,IOFocusNdx_   ; get task with I/O focus
0122FC 46 20 40 E0 
012300 3D 01 54 00 		beq     r2,.0001
012304 7C 00 00 00 	    lb      r2,TCB_hJCB[r2] ; get JCB handle
012308 7C 00 00 00 
01230C 40 21 FE 03 
012310 7C 00 00 00 	    cmpu    r3,r3,#NR_JCB   ; make sure valid handle
012314 7C 00 00 00 
012318 96 31 00 04 
01231C BD 31 46 00 	    bge     r3,.0001
012320 7C 00 00 00 	    mulu    r2,r2,#JCB_Size ; and convert it to a pointer
012324 7C 00 00 00 
012328 17 21 04 04 
01232C 7C 00 00 00 	    addui   r2,r2,#JCB_Array
012330 7C 00 00 00 
012334 14 21 06 04 
012338 39 C4 17 00 	    bsr     LockSYS_
01233C 7C 00 00 00 	    lbu     r3,JCB_KeybdHead[r2]  ; get head index of keyboard buffer
012340 7C 00 00 00 
012344 41 31 0A 04 
012348 7C 00 00 00 	    lbu     r4,JCB_KeybdTail[r2]  ; get tail index of keyboard buffer
01234C 7C 00 00 00 
012350 41 41 0C 04 
012354 94 31 02 00 	    addui   r3,r3,#1        ; advance head      
012358 8C 31 3E 00 	    and     r3,r3,#31       ; mod 32
01235C 82 51 08 0C 	    cmp     r5,r3,r4        ; is there room in the buffer ?
012360 BD 02 30 00 	    beq     r5,.0002        ; if not, newest chars will be lost
012364 7C 00 00 00 	    sb      r3,JCB_KeybdHead[r2]
012368 7C 00 00 00 
01236C 60 31 0A 04 
012370 7C 00 00 00 	    lea     r2,JCB_KeybdBuffer[r2]
012374 7C 00 00 00 
012378 47 21 18 04 
01237C 68 11 06 00 	    sb      r1,[r2+r3]      ; save off the scan code
012380 B9 BE 17 00 	    bsr     UnlockSYS_
012384 7C 00 00 00 	    lb      r2,KeyState2_   ; check for ALT-tab
012388 7C 00 00 00 
01238C 40 20 4A 04 
012390 0C 21 02 00 	    and     r2,r2,#1        ; is ALT down ?
012394 3D 01 0A 00 	    beq     r2,.0001        
012398 86 20 1A 00 	    cmp     r2,r1,#SC_TAB
01239C 3D 11 06 00 	    bne     r2,.0001
0123A0 7C 0D 01 00 	    inc     iof_switch_      ; flag an I/O focus switch
0123A4 64 10 90 E0 
                	.0001:
0123A8 57 4F 10 00 	    pop     r4
0123AC 57 3F 10 00 	    pop     r3
0123B0 57 2F 10 00 	    pop     r2
0123B4 57 1F 10 00 		pop     r1
0123B8 57 FF 11 00 		pop     lr
0123BC 02 E0 3F 6E 	    rti
                	.0002:
0123C0 B9 B6 17 00 	    bsr     UnlockSYS_
0123C4 BA FC FF FF 	    bra     .0001
                	KeybdIRQ1:
0123C8 02 E0 3F 6E 	    rti
                	
                	
                		;--------------------------------------------------------------------------
                		; PS2 scan codes to ascii conversion tables.
                		;--------------------------------------------------------------------------
                		;
0123CC 00 00 00 00 		align	1
                	
                	unshiftedScanCodes_:
0123D0 2E A9 2E A5 		.byte	$2e,$a9,$2e,$a5,$a3,$a1,$a2,$ac
0123D4 A3 A1 A2 AC 
0123D8 2E AA A8 A6 		.byte	$2e,$aa,$a8,$a6,$a4,$09,$60,$2e
0123DC A4 09 60 2E 
0123E0 2E 2E 2E 2E 		.byte	$2e,$2e,$2e,$2e,$2e,$71,$31,$2e
0123E4 2E 71 31 2E 
0123E8 2E 2E 7A 73 		.byte	$2e,$2e,$7a,$73,$61,$77,$32,$2e
0123EC 61 77 32 2E 
0123F0 2E 63 78 64 		.byte	$2e,$63,$78,$64,$65,$34,$33,$2e
0123F4 65 34 33 2E 
0123F8 2E 20 76 66 		.byte	$2e,$20,$76,$66,$74,$72,$35,$2e
0123FC 74 72 35 2E 
012400 2E 6E 62 68 		.byte	$2e,$6e,$62,$68,$67,$79,$36,$2e
012404 67 79 36 2E 
012408 2E 2E 6D 6A 		.byte	$2e,$2e,$6d,$6a,$75,$37,$38,$2e
01240C 75 37 38 2E 
012410 2E 2C 6B 69 		.byte	$2e,$2c,$6b,$69,$6f,$30,$39,$2e
012414 6F 30 39 2E 
012418 2E 2E 2F 6C 		.byte	$2e,$2e,$2f,$6c,$3b,$70,$2d,$2e
01241C 3B 70 2D 2E 
012420 2E 2E 27 2E 		.byte	$2e,$2e,$27,$2e,$5b,$3d,$2e,$2e
012424 5B 3D 2E 2E 
012428 AD 2E 0D 5D 		.byte	$ad,$2e,$0d,$5d,$2e,$5c,$2e,$2e
01242C 2E 5C 2E 2E 
012430 2E 2E 2E 2E 		.byte	$2e,$2e,$2e,$2e,$2e,$2e,$08,$2e
012434 2E 2E 08 2E 
012438 2E 95 2E 93 		.byte	$2e,$95,$2e,$93,$94,$2e,$2e,$2e
01243C 94 2E 2E 2E 
012440 98 7F 92 2E 		.byte	$98,$7f,$92,$2e,$91,$90,$1b,$af
012444 91 90 1B AF 
012448 AB 2E 97 2E 		.byte	$ab,$2e,$97,$2e,$2e,$96,$ae,$2e
01244C 2E 96 AE 2E 
                	
012450 2E 2E 2E A7 		.byte	$2e,$2e,$2e,$a7,$2e,$2e,$2e,$2e
012454 2E 2E 2E 2E 
012458 2E 2E 2E 2E 		.byte	$2e,$2e,$2e,$2e,$2e,$2e,$2e,$2e
01245C 2E 2E 2E 2E 
012460 2E 2E 2E 2E 		.byte	$2e,$2e,$2e,$2e,$2e,$2e,$2e,$2e
012464 2E 2E 2E 2E 
012468 2E 2E 2E 2E 		.byte	$2e,$2e,$2e,$2e,$2e,$2e,$2e,$2e
01246C 2E 2E 2E 2E 
012470 2E 2E 2E 2E 		.byte	$2e,$2e,$2e,$2e,$2e,$2e,$2e,$2e
012474 2E 2E 2E 2E 
012478 2E 2E 2E 2E 		.byte	$2e,$2e,$2e,$2e,$2e,$2e,$2e,$2e
01247C 2E 2E 2E 2E 
012480 2E 2E 2E 2E 		.byte	$2e,$2e,$2e,$2e,$2e,$2e,$2e,$2e
012484 2E 2E 2E 2E 
012488 2E 2E 2E 2E 		.byte	$2e,$2e,$2e,$2e,$2e,$2e,$2e,$2e
01248C 2E 2E 2E 2E 
012490 2E 2E 2E 2E 		.byte	$2e,$2e,$2e,$2e,$2e,$2e,$2e,$2e
012494 2E 2E 2E 2E 
012498 2E 2E 2E 2E 		.byte	$2e,$2e,$2e,$2e,$2e,$2e,$2e,$2e
01249C 2E 2E 2E 2E 
0124A0 2E 2E 2E 2E 		.byte	$2e,$2e,$2e,$2e,$2e,$2e,$2e,$2e
0124A4 2E 2E 2E 2E 
0124A8 2E 2E 2E 2E 		.byte	$2e,$2e,$2e,$2e,$2e,$2e,$2e,$2e
0124AC 2E 2E 2E 2E 
0124B0 2E 2E 2E 2E 		.byte	$2e,$2e,$2e,$2e,$2e,$2e,$2e,$2e
0124B4 2E 2E 2E 2E 
0124B8 2E 2E 2E 2E 		.byte	$2e,$2e,$2e,$2e,$2e,$2e,$2e,$2e
0124BC 2E 2E 2E 2E 
0124C0 2E 2E 2E 2E 		.byte	$2e,$2e,$2e,$2e,$2e,$2e,$2e,$2e
0124C4 2E 2E 2E 2E 
0124C8 2E 2E FA 2E 		.byte	$2e,$2e,$fa,$2e,$2e,$2e,$2e,$2e
0124CC 2E 2E 2E 2E 
                	
                	shiftedScanCodes_:
0124D0 2E 2E 2E 2E 		.byte	$2e,$2e,$2e,$2e,$2e,$2e,$2e,$2e
0124D4 2E 2E 2E 2E 
0124D8 2E 2E 2E 2E 		.byte	$2e,$2e,$2e,$2e,$2e,$09,$7e,$2e
0124DC 2E 09 7E 2E 
0124E0 2E 2E 2E 2E 		.byte	$2e,$2e,$2e,$2e,$2e,$51,$21,$2e
0124E4 2E 51 21 2E 
0124E8 2E 2E 5A 53 		.byte	$2e,$2e,$5a,$53,$41,$57,$40,$2e
0124EC 41 57 40 2E 
0124F0 2E 43 58 44 		.byte	$2e,$43,$58,$44,$45,$24,$23,$2e
0124F4 45 24 23 2E 
0124F8 2E 20 56 46 		.byte	$2e,$20,$56,$46,$54,$52,$25,$2e
0124FC 54 52 25 2E 
012500 2E 4E 42 48 		.byte	$2e,$4e,$42,$48,$47,$59,$5e,$2e
012504 47 59 5E 2E 
012508 2E 2E 4D 4A 		.byte	$2e,$2e,$4d,$4a,$55,$26,$2a,$2e
01250C 55 26 2A 2E 
012510 2E 3C 4B 49 		.byte	$2e,$3c,$4b,$49,$4f,$29,$28,$2e
012514 4F 29 28 2E 
012518 2E 3E 3F 4C 		.byte	$2e,$3e,$3f,$4c,$3a,$50,$5f,$2e
01251C 3A 50 5F 2E 
012520 2E 2E 22 2E 		.byte	$2e,$2e,$22,$2e,$7b,$2b,$2e,$2e
012524 7B 2B 2E 2E 
012528 2E 2E 0D 7D 		.byte	$2e,$2e,$0d,$7d,$2e,$7c,$2e,$2e
01252C 2E 7C 2E 2E 
012530 2E 2E 2E 2E 		.byte	$2e,$2e,$2e,$2e,$2e,$2e,$08,$2e
012534 2E 2E 08 2E 
012538 2E 2E 2E 2E 		.byte	$2e,$2e,$2e,$2e,$2e,$2e,$2e,$2e
01253C 2E 2E 2E 2E 
012540 2E 7F 2E 2E 		.byte	$2e,$7f,$2e,$2e,$2e,$2e,$1b,$2e
012544 2E 2E 1B 2E 
012548 2E 2E 2E 2E 		.byte	$2e,$2e,$2e,$2e,$2e,$2e,$2e,$2e
01254C 2E 2E 2E 2E 
                	
012550 2E 2E 2E 2E 		.byte	$2e,$2e,$2e,$2e,$2e,$2e,$2e,$2e
012554 2E 2E 2E 2E 
012558 2E 2E 2E 2E 		.byte	$2e,$2e,$2e,$2e,$2e,$2e,$2e,$2e
01255C 2E 2E 2E 2E 
012560 2E 2E 2E 2E 		.byte	$2e,$2e,$2e,$2e,$2e,$2e,$2e,$2e
012564 2E 2E 2E 2E 
012568 2E 2E 2E 2E 		.byte	$2e,$2e,$2e,$2e,$2e,$2e,$2e,$2e
01256C 2E 2E 2E 2E 
012570 2E 2E 2E 2E 		.byte	$2e,$2e,$2e,$2e,$2e,$2e,$2e,$2e
012574 2E 2E 2E 2E 
012578 2E 2E 2E 2E 		.byte	$2e,$2e,$2e,$2e,$2e,$2e,$2e,$2e
01257C 2E 2E 2E 2E 
012580 2E 2E 2E 2E 		.byte	$2e,$2e,$2e,$2e,$2e,$2e,$2e,$2e
012584 2E 2E 2E 2E 
012588 2E 2E 2E 2E 		.byte	$2e,$2e,$2e,$2e,$2e,$2e,$2e,$2e
01258C 2E 2E 2E 2E 
012590 2E 2E 2E 2E 		.byte	$2e,$2e,$2e,$2e,$2e,$2e,$2e,$2e
012594 2E 2E 2E 2E 
012598 2E 2E 2E 2E 		.byte	$2e,$2e,$2e,$2e,$2e,$2e,$2e,$2e
01259C 2E 2E 2E 2E 
0125A0 2E 2E 2E 2E 		.byte	$2e,$2e,$2e,$2e,$2e,$2e,$2e,$2e
0125A4 2E 2E 2E 2E 
0125A8 2E 2E 2E 2E 		.byte	$2e,$2e,$2e,$2e,$2e,$2e,$2e,$2e
0125AC 2E 2E 2E 2E 
0125B0 2E 2E 2E 2E 		.byte	$2e,$2e,$2e,$2e,$2e,$2e,$2e,$2e
0125B4 2E 2E 2E 2E 
0125B8 2E 2E 2E 2E 		.byte	$2e,$2e,$2e,$2e,$2e,$2e,$2e,$2e
0125BC 2E 2E 2E 2E 
0125C0 2E 2E 2E 2E 		.byte	$2e,$2e,$2e,$2e,$2e,$2e,$2e,$2e
0125C4 2E 2E 2E 2E 
0125C8 2E 2E 2E 2E 		.byte	$2e,$2e,$2e,$2e,$2e,$2e,$2e,$2e
0125CC 2E 2E 2E 2E 
                	
                	; control
                	keybdControlCodes_:
0125D0 2E 2E 2E 2E 		.byte	$2e,$2e,$2e,$2e,$2e,$2e,$2e,$2e
0125D4 2E 2E 2E 2E 
0125D8 2E 2E 2E 2E 		.byte	$2e,$2e,$2e,$2e,$2e,$09,$7e,$2e
0125DC 2E 09 7E 2E 
0125E0 2E 2E 2E 2E 		.byte	$2e,$2e,$2e,$2e,$2e,$11,$21,$2e
0125E4 2E 11 21 2E 
0125E8 2E 2E 1A 13 		.byte	$2e,$2e,$1a,$13,$01,$17,$40,$2e
0125EC 01 17 40 2E 
0125F0 2E 03 18 04 		.byte	$2e,$03,$18,$04,$05,$24,$23,$2e
0125F4 05 24 23 2E 
0125F8 2E 20 16 06 		.byte	$2e,$20,$16,$06,$14,$12,$25,$2e
0125FC 14 12 25 2E 
012600 2E 0E 02 08 		.byte	$2e,$0e,$02,$08,$07,$19,$5e,$2e
012604 07 19 5E 2E 
012608 2E 2E 0D 0A 		.byte	$2e,$2e,$0d,$0a,$15,$26,$2a,$2e
01260C 15 26 2A 2E 
012610 2E 3C 0B 09 		.byte	$2e,$3c,$0b,$09,$0f,$29,$28,$2e
012614 0F 29 28 2E 
012618 2E 3E 3F 0C 		.byte	$2e,$3e,$3f,$0c,$3a,$10,$5f,$2e
01261C 3A 10 5F 2E 
012620 2E 2E 22 2E 		.byte	$2e,$2e,$22,$2e,$7b,$2b,$2e,$2e
012624 7B 2B 2E 2E 
012628 2E 2E 0D 7D 		.byte	$2e,$2e,$0d,$7d,$2e,$7c,$2e,$2e
01262C 2E 7C 2E 2E 
012630 2E 2E 2E 2E 		.byte	$2e,$2e,$2e,$2e,$2e,$2e,$08,$2e
012634 2E 2E 08 2E 
012638 2E 2E 2E 2E 		.byte	$2e,$2e,$2e,$2e,$2e,$2e,$2e,$2e
01263C 2E 2E 2E 2E 
012640 2E 7F 2E 2E 		.byte	$2e,$7f,$2e,$2e,$2e,$2e,$1b,$2e
012644 2E 2E 1B 2E 
012648 2E 2E 2E 2E 		.byte	$2e,$2e,$2e,$2e,$2e,$2e,$2e,$2e
01264C 2E 2E 2E 2E 
                	
                	keybdExtendedCodes_:
012650 2E 2E 2E 2E 		.byte	$2e,$2e,$2e,$2e,$a3,$a1,$a2,$2e
012654 A3 A1 A2 2E 
012658 2E 2E 2E 2E 		.byte	$2e,$2e,$2e,$2e,$2e,$2e,$2e,$2e
01265C 2E 2E 2E 2E 
012660 2E 2E 2E 2E 		.byte	$2e,$2e,$2e,$2e,$2e,$2e,$2e,$2e
012664 2E 2E 2E 2E 
012668 2E 2E 2E 2E 		.byte	$2e,$2e,$2e,$2e,$2e,$2e,$2e,$2e
01266C 2E 2E 2E 2E 
012670 2E 2E 2E 2E 		.byte	$2e,$2e,$2e,$2e,$2e,$2e,$2e,$2e
012674 2E 2E 2E 2E 
012678 2E 2E 2E 2E 		.byte	$2e,$2e,$2e,$2e,$2e,$2e,$2e,$2e
01267C 2E 2E 2E 2E 
012680 2E 2E 2E 2E 		.byte	$2e,$2e,$2e,$2e,$2e,$2e,$2e,$2e
012684 2E 2E 2E 2E 
012688 2E 2E 2E 2E 		.byte	$2e,$2e,$2e,$2e,$2e,$2e,$2e,$2e
01268C 2E 2E 2E 2E 
012690 2E 2E 2E 2E 		.byte	$2e,$2e,$2e,$2e,$2e,$2e,$2e,$2e
012694 2E 2E 2E 2E 
012698 2E 2E 2E 2E 		.byte	$2e,$2e,$2e,$2e,$2e,$2e,$2e,$2e
01269C 2E 2E 2E 2E 
0126A0 2E 2E 2E 2E 		.byte	$2e,$2e,$2e,$2e,$2e,$2e,$2e,$2e
0126A4 2E 2E 2E 2E 
0126A8 2E 2E 2E 2E 		.byte	$2e,$2e,$2e,$2e,$2e,$2e,$2e,$2e
0126AC 2E 2E 2E 2E 
0126B0 2E 2E 2E 2E 		.byte	$2e,$2e,$2e,$2e,$2e,$2e,$2e,$2e
0126B4 2E 2E 2E 2E 
0126B8 2E 95 2E 93 		.byte	$2e,$95,$2e,$93,$94,$2e,$2e,$2e
0126BC 94 2E 2E 2E 
0126C0 98 99 92 2E 		.byte	$98,$99,$92,$2e,$91,$90,$2e,$2e
0126C4 91 90 2E 2E 
0126C8 2E 2E 97 2E 		.byte	$2e,$2e,$97,$2e,$2e,$96,$2e,$2e
0126CC 2E 96 2E 2E 
                	
                	
                	
                	; ============================================================================
                	; SD/MMC Card interface
                	; ============================================================================
                	SD_INIT:
0126D0 E7 EF 01 00 	    push    lr
0126D4 7C DC FF 00 		ldi		r3,#SD_MASTER
0126D8 0A 30 00 16 
0126DC 7C 00 00 00 		ldi		r2,#25000
0126E0 0A 20 50 C3 
0126E4 E1 21 58 00 		sc		r2,0x2c[r3]		; timeout register
                		; Software reset should be held active for several cycles to allow
                		; reset to be detected on the sd_clk domain.
0126E8 0A 20 02 00 		ldi		r2,#1
0126EC E0 21 50 00 		sb		r2,0x28[r3]		; software reset reg
0126F0 0A 20 04 00 		ldi		r2,#2
0126F4 E0 21 98 00 		sb		r2,0x4c[r3]		; prog /6 for clock divider
0126F8 0A 10 C8 00 		ldi		r1,#100			; software reset delay
0126FC 39 47 00 00 		bsr     MicroDelay
012700 E0 01 50 00 		sb		r0,0x28[r3]		; clear software reset
012704 E1 01 08 00 		sc		r0,0x04[r3]		; command 0
012708 E2 01 00 00 		sh		r0,0x00[r3]		; arg 0
01270C 39 28 00 00 		bsr		SD_WAIT_RESP
012710 C4 11 18 00 		lh		r1,0x0C[r3]		; read response register
012714 39 77 FC FF 		bsr		DisplayHalf
012718 3B FF 11 00 		rts

                	SD_CMD8:
01271C E7 EF 01 00 	    push    lr
012720 7C DC FF 00 		ldi		r3,#SD_MASTER
012724 0A 30 00 16 
012728 0A 20 34 10 		ldi		r2,#$81A
01272C E1 21 08 00 		sc		r2,0x04[r3]		; set command register
012730 0A 20 54 03 		ldi		r2,#$1AA
012734 E2 21 00 00 		sh		r2,0x00[r3]		; set command argument x1AA
012738 B9 22 00 00 		bsr		SD_WAIT_RESP
01273C 7C 00 00 00 		sb		r1,SD_2_0
012740 7C 00 00 00 
012744 60 10 8C 04 
012748 C4 11 18 00 		lh		r1,0x0C[r3]		; read response register
01274C 39 70 FC FF 		bsr		DisplayHalf
                		; send command zero
012750 E1 01 08 00 		sc		r0,0x04[r3]
012754 E2 01 00 00 		sh		r0,0x00[r3]
012758 B9 1E 00 00 		bsr		SD_WAIT_RESP
01275C 7C 00 00 00 		lbu		r1,SD_2_0
012760 7C 00 00 00 
012764 41 10 8C 04 
012768 BD 00 12 00 		beq		r1,.0001
01276C 0A 10 64 00 		ldi		r1,#'2'
012770 39 65 FD FF 		bsr		OutChar
012774 0A 10 5C 00 		ldi		r1,#'.'
012778 39 64 FD FF 		bsr		OutChar
01277C 0A 10 60 00 		ldi		r1,#'0'
012780 39 63 FD FF 		bsr		OutChar
012784 B9 28 08 00 		bsr		CRLF_
012788 3B FF 11 00 		rts
.0001:
01278C E1 01 08 00 		sc		r0,0x04[r3]		; send CMD0
012790 E2 01 00 00 		sh		r0,0x00[r3]
                	.0002:
012794 C3 11 10 00 		lcu		r1,0x08[r3]
012798 8C 10 02 00 		and		r1,r1,#1
01279C BD 10 FC FF 		bne  	r1,.0002
0127A0 02 40 00 1A 		mov		r4,r0			; ret_reg = r4 = 0
                	.0004:
0127A4 02 52 00 1A 		mov		r5,r4
0127A8 7C 00 80 00 		and		r4,r4,#$80000000
0127AC 0C 42 00 00 
0127B0 3D 12 20 00 		bne  	r4,.0003
0127B4 0A 10 04 6E 		ldi		r1,#$3702		; CMD55|RSP48
0127B8 E1 11 08 00 		sc		r1,0x04[r3]
0127BC E2 01 00 00 		sh		r0,0x00[r3]
0127C0 B9 11 00 00 		bsr		SD_WAIT_RESP
0127C4 BD 10 38 00 		bne  	r1,.respOk
0127C8 0A 10 04 52 		ldi		r1,#$2902		; ACMD41|RSP48
0127CC E1 11 08 00 		sc		r1,0x04[r3]
0127D0 E2 01 00 00 		sh		r0,0x00[r3]
0127D4 39 0F 00 00 		bsr		SD_WAIT_RESP
0127D8 BD 10 2E 00 		bne  	r1,.respOk
0127DC C4 41 18 00 		lh		r4,0x0c[r3]		; ret_reg = RESP1
0127E0 02 12 00 1A 		mov		r1,r4
0127E4 39 5D FC FF 		bsr		DisplayHalf
0127E8 39 1C 08 00 		bsr		CRLF_
0127EC 3A F7 FF FF 		bra		.0004
                	.0003:
0127F0 FC FF 00 00 		and		r1,r5,#$FFFFFF	; voltage mask
0127F4 8C 12 FE FF 
0127F8 B9 5A FC FF 		bsr		DisplayHalf
0127FC B9 19 08 00 		bsr		CRLF_
                		; GetCID
012800 0A 10 02 04 		ldi		r1,#$201		; CMD2 + RSP146
012804 E1 11 08 00 		sc		r1,0x04[r3]
012808 E2 01 00 00 		sh		r0,0x00[r3]
01280C 39 08 00 00 		bsr		SD_WAIT_RESP
                		; GetRCA
012810 0A 10 34 06 		ldi		r1,#$31A		; CMD3 + CICE + CRCE + RSP48
012814 E1 11 08 00 		sc		r1,0x04[r3]
012818 E2 01 00 00 		sh		r0,0x00[r3]
01281C 39 06 00 00 		bsr		SD_WAIT_RESP
012820 C4 41 18 00 		lh		r4,0x0c[r3]			; r4 = RESP1
012824 7C FF FF 00 		and		r1,r4,#$FFFF0000	; r4 & RCA_MASK
012828 0C 12 00 00 
01282C 39 54 FC FF 		bsr		DisplayHalf
012830 39 13 08 00 		bsr		CRLF_
                	.respOk:
012834 0A 10 9E 00 		ldi		r1,#'O'
012838 39 4C FD FF 		bsr		OutChar
01283C 0A 10 D6 00 		ldi		r1,#'k'
012840 39 4B FD FF 		bsr		OutChar
012844 B9 10 08 00 		bsr		CRLF_
012848 3B FF 11 00 		rts

                	SD_WAIT_RESP:
01284C E7 EF 01 00 	    push    lr
012850 67 E1 01 00 		push	r2
012854 E7 E1 01 00 	    push    r3
012858 7C DC FF 00 		ldi		r2,#SD_MASTER
01285C 0A 20 00 16 
                	.0001:
012860 42 31 68 00 		lc		r3,0x34[r2]		; read error interrupt status reg
012864 42 11 60 00 		lc		r1,0x30[r2]		; read normal interrupt status reg
012868 8C 31 02 00 		and		r3,r3,#1		; get command timeout indicator
01286C BD 11 10 00 		bne  	r3,.0002
012870 8C 10 02 00 		and		r1,r1,#1		; wait for command complete bit to set
012874 BD 00 F6 FF 		beq		r1,.0001
012878 0A 10 02 00 		ldi		r1,#1
01287C 57 3F 10 00 		pop		r3
012880 57 2F 10 00 	    pop     r2
012884 57 FF 11 00 	    pop     lr
012888 37 FF 01 00 		rtl
.0002:
01288C 0A 10 A8 00 		ldi		r1,#'T'
012890 39 41 FD FF 		bsr		OutChar
012894 0A 10 9E 00 		ldi		r1,#'O'
012898 39 40 FD FF 		bsr		OutChar
01289C B9 05 08 00 		bsr		CRLF_
0128A0 0A 10 00 00 		ldi		r1,#0
0128A4 57 3F 10 00 		pop		r3
0128A8 57 2F 10 00 	    pop     r2
0128AC 57 FF 11 00 	    pop     lr
0128B0 37 FF 01 00 		rtl

                	; ============================================================================
                	; ============================================================================
                	
0128B4 7C 01 00 00 	    ldi     r1,#brkpt1           ; set breakpoint address
0128B8 0A 10 F0 51 
0128BC 82 00 64 3C 	    mtspr   dbad0,r1
0128C0 0A 10 00 00 	    ldi     r1,#$0000000000000000   ; enable instruction breakpoint, turn on single step mode
0128C4 82 00 6C 3C 	    mtspr   dbctrl,r1
0128C8 02 00 54 3C 	    mtspr   lotgrp,r0            ; operating system is group #0
0128CC B9 04 00 00 	    bsr     SetupMemtags
0128D0 0A 10 C8 00 	    ldi     r1,#100
0128D4 39 0C 00 00 	    bsr     MicroDelay
0128D8 3F 00 00 00 	    nop
0128DC 3F 00 00 00 	    nop
                	hangprg:
0128E0 3F 00 00 00 	    nop
0128E4 3F 00 00 00 	    nop
0128E8 3F 00 00 00 	    nop
0128EC BA FE FF FF 	    bra     hangprg
                	
                	SetupMemtags:
0128F0 02 00 50 3C 	    mtspr   ea,r0                ; select tag for first 64kB
0128F4 0A 10 0C 00 	    ldi     r1,#$0006            ; system only: readable, writeable, not executable
                	brkpt1:
0128F8 82 00 52 3C 	    mtspr   tag,r1
0128FC 7C 01 00 00 	    ldi     r1,#$10000           ; select tag for second 64kB
012900 0A 10 00 00 
012904 82 00 50 3C 	    mtspr   ea,r1
012908 0A 20 0A 00 	    ldi     r2,#$0005            ; system only: readable, executable, not writeable
01290C 02 01 52 3C 	    mtspr   tag,r2
012910 0A 30 24 00 	    ldi     r3,#20-2             ; number of tags to setup
                	.0001:
012914 7C 01 00 00 	    addui   r1,r1,#$10000
012918 94 10 00 00 
01291C 82 00 50 3C 	    mtspr   ea,r1
012920 0A 20 0C 00 	    ldi     r2,#$0006            ; set them up as data
012924 02 01 52 3C 	    mtspr   tag,r2
012928 95 31 02 00 	    subui   r3,r3,#1
01292C BD 11 F4 FF 	    bne     r3,.0001
012930 37 FF 01 00 	    rtl

                	;------------------------------------------------------------------------------
                	; MicroDelay
                	;     Delay for a short time for at least the specified number of clock cycles
                	;
                	; Parameters:
                	;     r1 = required delay in clock ticks
                	;------------------------------------------------------------------------------
                	;
                	MicroDelay:
012934 67 E1 01 00 	    push    r2
012938 E7 E1 01 00 	    push    r3
01293C 02 30 08 3E 	    mfspr   r3,tick             ; get starting tick
                	.0001:
012940 02 20 08 3E 	    mfspr   r2,tick
012944 02 21 06 2A 	    subu    r2,r2,r3
012948 02 21 02 0C 	    cmp     r2,r2,r1
01294C 3D 41 FA FF 	    blt     r2,.0001
012950 57 3F 10 00 	    pop     r3
012954 57 2F 10 00 	    pop     r2
012958 37 FF 01 00 	    rtl
;
01295C 3F 00 00 00 	    nop
012960 3F 00 00 00 	    nop
                	
                	;------------------------------------------------------------------------------
                	;------------------------------------------------------------------------------
                	
                	LoadFromSerial:
012964 E7 EF 01 00 	    push    lr
012968 7C 00 00 00 	    ldi     r3,#16384
01296C 0A 30 00 80 
012970 7C 03 00 00 	    ldi     r2,#$34000          ; target store address
012974 0A 20 00 80 
                	.0001:
012978 39 7A FB FF 	    bsr     SerialGetCharDirect
01297C 60 11 00 00 	    sb      r1,[r2]
012980 14 21 02 00 	    addui   r2,r2,#1
012984 95 31 02 00 	    subui   r3,r3,#1
012988 BD 11 F8 FF 	    bne     r3,.0001
01298C 3B FF 11 00 	    rts

                	nmi_rout:
012990 FC C2 00 00 	    ldi    sp,#irq_stack_
012994 0A E0 11 08 
012998 E7 E0 01 00 	    push   r1
01299C 7C 01 00 00 	    pea    msgParErr
0129A0 65 E0 79 53 
0129A4 39 FB 07 00 	    bsr    DisplayStringCRLF_
0129A8 14 EF 11 00 	    addui  sp,sp,#8
0129AC 39 9B FE FF 	    bsr    KeybdGetCharWait
0129B0 57 1F 10 00 	    pop    r1
0129B4 02 E0 3F 6E 	    rti
                	
                	nmi_rout1:
0129B8 02 E0 3F 6E 	    rti
                	
                	msgParErr:
0129BC 50 00 61 00 	    dc "Parity error",0
0129C0 72 00 69 00 
0129C4 74 00 79 00 
0129C8 20 00 65 00 
0129CC 72 00 72 00 
0129D0 6F 00 72 00 
0129D4 00 00       
                	    
0129D6 00 00       	    align  
                	
                	;------------------------------------------------------------------------------
                	; Execution fault. Occurs when an attempt is made to execute code from a
                	; page marked as non-executable.
                	;------------------------------------------------------------------------------
                	
                	exf_rout:
0129D8 0A 10 76 01 		ldi		r1,#$bb
0129DC 7C DC FF 00 		sc		r1,LEDS
0129E0 61 10 00 0C 
0129E4 7C 01 00 00 		ldi		r1,#msgexf
0129E8 0A 10 00 55 
0129EC 39 F2 07 00 		bsr		DisplayStringCRLF_
                	.0001:
0129F0 3A 00 00 00 		bra .0001
                	
                	;------------------------------------------------------------------------------
                	; Data read fault. Occurs when an attempt is made to read from a page marked
                	; as non-readble.
                	;------------------------------------------------------------------------------
                	
                	drf_rout:
0129F4 0A 10 76 01 		ldi		r1,#$bb
0129F8 7C DC FF 00 		sc		r1,LEDS
0129FC 61 10 00 0C 
012A00 7C 01 00 00 		ldi		r1,#msgdrf
012A04 0A 10 14 55 
012A08 B9 EE 07 00 		bsr		DisplayStringCRLF_
                	.0001:
012A0C 3A 00 00 00 		bra .0001
                	
                	;------------------------------------------------------------------------------
                	; Data write fault. Occurs when an attempt is made to write to a page marked
                	; as non-writeable.
                	;------------------------------------------------------------------------------
                	
                	dwf_rout:
012A10 0A 10 76 01 		ldi		r1,#$bb
012A14 7C DC FF 00 		sc		r1,LEDS
012A18 61 10 00 0C 
012A1C 7C 01 00 00 		ldi		r1,#msgdwf
012A20 0A 10 28 55 
012A24 39 EB 07 00 		bsr		DisplayStringCRLF_
                	.0001:
012A28 3A 00 00 00 		bra .0001
                	
                	;------------------------------------------------------------------------------
                	; Privilege violation fault. Occurs when the current privilege level isn't
                	; sufficient to allow access.
                	;------------------------------------------------------------------------------
                	
                	priv_rout:
012A2C 7C 00 00 00 	    lw      sp,TCB_SYS_Stack[tr]
012A30 7C 00 00 00 
012A34 46 EC B9 04 
012A38 0A 10 78 01 		ldi		r1,#$bc
012A3C 7C DC FF 00 		sc		r1,LEDS
012A40 61 10 00 0C 
012A44 7C 01 00 00 		pea		msgPriv
012A48 65 E0 3D 55 
012A4C B9 D9 07 00 		bsr		DisplayString_
012A50 14 EF 11 00 		addui   sp,sp,#8
012A54 02 10 12 3E 		mfspr   r1,epc
012A58 B9 0E FC FF 		bsr     DisplayHalf
012A5C B9 CD 07 00 		bsr     CRLF_
012A60 B9 84 FE FF 		bsr		KeybdGetCharWait
012A64 7C 01 00 00 		ldi     r1,#Monitor|1
012A68 0A 10 0A 21 
012A6C 82 00 12 3C 		mtspr   epc,r1
012A70 3F 00 00 00 		nop
012A74 3F 00 00 00 		nop
012A78 02 E0 3D 6E 		rte
                	.0001:
012A7C 3A 00 00 00 		bra .0001
                	
                	;------------------------------------------------------------------------------
                	; Message strings for the faults.
                	;------------------------------------------------------------------------------
                	
                	msgexf:
012A80 65 00 78 00 		dc	"exf ",0
012A84 66 00 20 00 
012A88 00 00       
                	msgdrf:
012A8A 64 00 72 00 		dc	"drf ",0
012A8E 66 00 20 00 
012A92 00 00       
                	msgdwf:
012A94 64 00 77 00 		dc	"dwf ",0
012A98 66 00 20 00 
012A9C 00 00       
                	msgPriv:
012A9E 70 00 72 00 		dc	"priv fault: PC=",0
012AA2 69 00 76 00 
012AA6 20 00 66 00 
012AAA 61 00 75 00 
012AAE 6C 00 74 00 
012AB2 3A 00 20 00 
012AB6 50 00 43 00 
012ABA 3D 00 00 00 
                	msgUninit:
012ABE 75 00 6E 00 		dc	"uninit int.",0
012AC2 69 00 6E 00 
012AC6 69 00 74 00 
012ACA 20 00 69 00 
012ACE 6E 00 74 00 
012AD2 2E 00 00 00 
                	msgBusErr:
012AD6 0D 00 0A 00 	    dc  CR,LF,"Bus error PC=",0
012ADA 42 00 75 00 
012ADE 73 00 20 00 
012AE2 65 00 72 00 
012AE6 72 00 6F 00 
012AEA 72 00 20 00 
012AEE 50 00 43 00 
012AF2 3D 00 00 00 
                	msgEA:
012AF6 20 00 45 00 	    dc  " EA=",0
012AFA 41 00 3D 00 
012AFE 00 00       
                	msgUninitIRQ:
012B00 55 00 6E 00 	    dc  "Uninitialized IRQ: ",0
012B04 69 00 6E 00 
012B08 69 00 74 00 
012B0C 69 00 61 00 
012B10 6C 00 69 00 
012B14 7A 00 65 00 
012B18 64 00 20 00 
012B1C 49 00 52 00 
012B20 51 00 3A 00 
012B24 20 00 00 00 
                	msgBounds:
012B28 41 00 72 00 	    dc  "Array bounds violation: ",0
012B2C 72 00 61 00 
012B30 79 00 20 00 
012B34 62 00 6F 00 
012B38 75 00 6E 00 
012B3C 64 00 73 00 
012B40 20 00 76 00 
012B44 69 00 6F 00 
012B48 6C 00 61 00 
012B4C 74 00 69 00 
012B50 6F 00 6E 00 
012B54 3A 00 20 00 
012B58 00 00       
                	
012B5A 00 00       	    align 
                	
                	UninitIRQ:
012B5C 7C 01 00 00 	    pea   msgUninitIRQ
012B60 65 E0 01 56 
012B64 B9 B6 07 00 	    bsr   DisplayString_
012B68 14 EF 11 00 	    addui sp,sp,#8
012B6C 02 10 18 3E 	    mfspr r1,12          ; vecno
012B70 39 EE FB FF 	    bsr   DisplayCharHex
012B74 B9 AA 07 00 		bsr     CRLF_
012B78 B9 61 FE FF 		bsr		KeybdGetCharWait
012B7C BA A5 FA FF 		bra   start
                	.0001:
012B80 3A 00 00 00 	    bra   .0001
                	
                	    align 4                	
                	BoundsIRQ:
012B84 7C 01 00 00 	    pea   msgBounds
012B88 65 E0 51 56 
012B8C B9 B1 07 00 	    bsr   DisplayString_
012B90 14 EF 11 00 	    addui sp,sp,#8
012B94 02 10 12 3E 	    mfspr r1,epc
012B98 39 E9 FB FF 	    bsr   DisplayCharHex
012B9C B9 A5 07 00 		bsr     CRLF_
012BA0 B9 5C FE FF 		bsr		KeybdGetCharWait
012BA4 BA A0 FA FF 		bra   start
                	.0001:
012BA8 3A 00 00 00 	    bra   .0001
                	
                	;------------------------------------------------------------------------------
                	; Bus error routine.
                	;------------------------------------------------------------------------------
                	
                	berr_rout:
012BAC 7C 00 00 00 	    ldi     sp,#$7800
012BB0 0A E0 01 F0 
012BB4 FC 00 00 00 		ldi		r1,#$bebe
012BB8 0A 10 7C 7D 
012BBC 7C DC FF 00 		sc		r1,LEDS
012BC0 61 10 00 0C 
012BC4 7C 01 00 00 		pea     msgBusErr
012BC8 65 E0 AD 55 
012BCC B9 A9 07 00 		bsr     DisplayString_
012BD0 14 EF 11 00 		addui   sp,sp,#8
012BD4 02 10 10 3E 		mfspr   r1,ipc
012BD8 39 DC FB FF 		bsr		DisplayWord
012BDC 7C 01 00 00 		pea     msgEA
012BE0 65 E0 ED 55 
012BE4 B9 A6 07 00 		bsr     DisplayString_
012BE8 14 EF 11 00 		addui   sp,sp,#8
012BEC 02 10 16 3E 	    mfspr   r1,bear
012BF0 39 D9 FB FF 		bsr     DisplayWord
012BF4 B9 9A 07 00 		bsr     CRLF_
012BF8 B9 51 FE FF 		bsr		KeybdGetCharWait
                	
                		; In order to return an RTI must be used to exit the routine (or interrupts
                		; will permanently disabled). The RTI instruction clears an internal
                		; processor flag used to prevent nested interrupts.
                		; Since this is a serious error the system is just restarted. So the IPC
                		; is set to point to the restart address.
                	
012BFC 7C 01 00 00 		ldi     r1,#start|1
012C00 0A 10 52 01 
012C04 82 00 10 3C 		mtspr   ipc,r1
                		
                		; Allow pipeline time for IPC to update before RTI (there's no results
                		; forwarding on SPR's).
012C08 3F 00 00 00 		nop     
012C0C 3F 00 00 00 		nop
012C10 02 E0 3F 6E 		rti
                	
                	
                	SSM_ISR:
012C14 02 E0 3B 6E 	    rtd
                	
                	; -----------------------------------------------------------------------------
                	; Breakpoint routine.
                	; -----------------------------------------------------------------------------
                	
                	BPT_ISR:
012C18 FC 7C 00 00 	    ldi      sp,#CPU0_DBG_STACK
012C1C 0A E0 01 E0 
012C20 02 00 6C 3C 	    mtspr    dbctrl,r0
012C24 02 10 0E 3E 	    mfspr    r1,dpc
012C28 8C 10 FC FF 	    and      r1,r1,#-2        ; clear LSB
012C2C E7 E0 01 00 	    push     r1
012C30 95 10 40 00 	    subui    r1,r1,#32
012C34 E7 E0 01 00 	    push     r1
012C38 39 8E 0F 00 	    bsr      disassem20_
012C3C 39 49 FE FF 		bsr		 KeybdGetCharWait
012C40 02 E0 3B 6E 	    rtd
                	.0001:
012C44 3A 00 00 00 	    bra     .0001
                	
                		code
012C48 00 00 00 00 		align	1
012C4C 00 00 00 00 
                	
                	get_datetime_:
012C50 15 EF 21 00 		      	subui	sp,sp,#16
012C54 E7 ED 01 00 		      	push 	bp
012C58 02 BF 01 1A 		      	mov  	bp,sp
012C5C 15 EF 11 00 		      	subui	sp,sp,#8
012C60 E7 E5 01 00 		      	push 	r11
012C64 67 E6 01 00 		      	push 	r12
012C68 E7 E6 01 00 		      	push 	r13
012C6C 67 E7 01 00 		      	push 	r14
012C70 E7 E7 01 00 		      	push 	r15
012C74 67 E8 01 00 		      	push 	r16
012C78 E7 E8 01 00 		      	push 	r17
012C7C 0A B0 00 00 		      	ldi  	r11,#RTCC_BUF_
012C80 C6 CD 80 00 		      	lw   	r12,64[bp]
012C84 C6 DD 70 00 		      	lw   	r13,56[bp]
012C88 C6 ED 60 00 		      	lw   	r14,48[bp]
012C8C C6 FD 50 00 		      	lw   	r15,40[bp]
012C90 C6 0D 41 00 		      	lw   	r16,32[bp]
012C94 C6 1D 31 00 		      	lw   	r17,24[bp]
012C98 BD 08 20 00 		      	beq  	r17,set_time_serial_755
012C9C C1 35 0C 00 		      	lbu  	r3,6[r11]
012CA0 82 31 00 20 		      	sxb  	r3,r3
012CA4 E3 3D F0 FF 		      	sw   	r3,-8[bp]
012CA8 0A 40 A0 0F 		      	ldi  	r4,#2000
012CAC C6 7D F0 FF 		      	lw   	r7,-8[bp]
012CB0 8C 63 1E 00 		      	and  	r6,r7,#15
012CB4 C6 9D F0 FF 		      	lw   	r9,-8[bp]
012CB8 8C 84 E0 01 		      	and  	r8,r9,#240
012CBC 02 74 08 78 		      	asri 	r7,r8,#4
012CC0 87 73 14 00 		      	mul  	r7,r7,#10
012CC4 02 53 0E 28 		      	addu 	r5,r6,r7
012CC8 02 32 0A 28 		      	addu 	r3,r4,r5
012CCC E3 3D F0 FF 		      	sw   	r3,-8[bp]
012CD0 C6 3D F0 FF 		      	lw   	r3,-8[bp]
012CD4 E3 38 00 00 		      	sw   	r3,[r17]
                	set_time_serial_755:
012CD8 3D 08 1C 00 		      	beq  	r16,set_time_serial_757
012CDC C1 35 08 00 		      	lbu  	r3,4[r11]
012CE0 82 31 00 20 		      	sxb  	r3,r3
012CE4 E3 3D F0 FF 		      	sw   	r3,-8[bp]
012CE8 C6 5D F0 FF 		      	lw   	r5,-8[bp]
012CEC 8C 42 1E 00 		      	and  	r4,r5,#15
012CF0 C6 7D F0 FF 		      	lw   	r7,-8[bp]
012CF4 8C 63 20 00 		      	and  	r6,r7,#16
012CF8 02 53 08 78 		      	asri 	r5,r6,#4
012CFC 87 52 14 00 		      	mul  	r5,r5,#10
012D00 02 32 0A 28 		      	addu 	r3,r4,r5
012D04 E3 3D F0 FF 		      	sw   	r3,-8[bp]
012D08 C6 3D F0 FF 		      	lw   	r3,-8[bp]
012D0C 63 38 00 00 		      	sw   	r3,[r16]
                	set_time_serial_757:
012D10 BD 07 1C 00 		      	beq  	r15,set_time_serial_759
012D14 C1 35 0A 00 		      	lbu  	r3,5[r11]
012D18 82 31 00 20 		      	sxb  	r3,r3
012D1C E3 3D F0 FF 		      	sw   	r3,-8[bp]
012D20 C6 5D F0 FF 		      	lw   	r5,-8[bp]
012D24 8C 42 1E 00 		      	and  	r4,r5,#15
012D28 C6 7D F0 FF 		      	lw   	r7,-8[bp]
012D2C 8C 63 60 00 		      	and  	r6,r7,#48
012D30 02 53 08 78 		      	asri 	r5,r6,#4
012D34 87 52 14 00 		      	mul  	r5,r5,#10
012D38 02 32 0A 28 		      	addu 	r3,r4,r5
012D3C E3 3D F0 FF 		      	sw   	r3,-8[bp]
012D40 C6 3D F0 FF 		      	lw   	r3,-8[bp]
012D44 E3 37 00 00 		      	sw   	r3,[r15]
                	set_time_serial_759:
012D48 3D 07 22 00 		      	beq  	r14,set_time_serial_761
012D4C C1 35 04 00 		      	lbu  	r3,2[r11]
012D50 82 31 00 20 		      	sxb  	r3,r3
012D54 E3 3D F0 FF 		      	sw   	r3,-8[bp]
012D58 C6 5D F0 FF 		      	lw   	r5,-8[bp]
012D5C 8C 42 1E 00 		      	and  	r4,r5,#15
012D60 C6 7D F0 FF 		      	lw   	r7,-8[bp]
012D64 8C 63 60 00 		      	and  	r6,r7,#48
012D68 02 53 08 78 		      	asri 	r5,r6,#4
012D6C 87 52 14 00 		      	mul  	r5,r5,#10
012D70 02 32 0A 28 		      	addu 	r3,r4,r5
012D74 E3 3D F0 FF 		      	sw   	r3,-8[bp]
012D78 C6 4D F0 FF 		      	lw   	r4,-8[bp]
012D7C 0C 32 7E 00 		      	and  	r3,r4,#63
012D80 E3 3D F0 FF 		      	sw   	r3,-8[bp]
012D84 C6 3D F0 FF 		      	lw   	r3,-8[bp]
012D88 63 37 00 00 		      	sw   	r3,[r14]
                	set_time_serial_761:
012D8C BD 06 1C 00 		      	beq  	r13,set_time_serial_763
012D90 C1 35 02 00 		      	lbu  	r3,1[r11]
012D94 82 31 00 20 		      	sxb  	r3,r3
012D98 E3 3D F0 FF 		      	sw   	r3,-8[bp]
012D9C C6 5D F0 FF 		      	lw   	r5,-8[bp]
012DA0 8C 42 1E 00 		      	and  	r4,r5,#15
012DA4 C6 7D F0 FF 		      	lw   	r7,-8[bp]
012DA8 8C 63 E0 00 		      	and  	r6,r7,#112
012DAC 02 53 08 78 		      	asri 	r5,r6,#4
012DB0 87 52 14 00 		      	mul  	r5,r5,#10
012DB4 02 32 0A 28 		      	addu 	r3,r4,r5
012DB8 E3 3D F0 FF 		      	sw   	r3,-8[bp]
012DBC C6 3D F0 FF 		      	lw   	r3,-8[bp]
012DC0 E3 36 00 00 		      	sw   	r3,[r13]
                	set_time_serial_763:
012DC4 3D 06 1C 00 		      	beq  	r12,set_time_serial_765
012DC8 C1 35 00 00 		      	lbu  	r3,[r11]
012DCC 82 31 00 20 		      	sxb  	r3,r3
012DD0 E3 3D F0 FF 		      	sw   	r3,-8[bp]
012DD4 C6 5D F0 FF 		      	lw   	r5,-8[bp]
012DD8 8C 42 1E 00 		      	and  	r4,r5,#15
012DDC C6 7D F0 FF 		      	lw   	r7,-8[bp]
012DE0 8C 63 E0 00 		      	and  	r6,r7,#112
012DE4 02 53 08 78 		      	asri 	r5,r6,#4
012DE8 87 52 14 00 		      	mul  	r5,r5,#10
012DEC 02 32 0A 28 		      	addu 	r3,r4,r5
012DF0 E3 3D F0 FF 		      	sw   	r3,-8[bp]
012DF4 C6 3D F0 FF 		      	lw   	r3,-8[bp]
012DF8 63 36 00 00 		      	sw   	r3,[r12]
                	set_time_serial_765:
                	set_time_serial_767:
012DFC 57 1F 11 00 		      	pop  	r17
012E00 57 0F 11 00 		      	pop  	r16
012E04 57 FF 10 00 		      	pop  	r15
012E08 57 EF 10 00 		      	pop  	r14
012E0C 57 DF 10 00 		      	pop  	r13
012E10 57 CF 10 00 		      	pop  	r12
012E14 57 BF 10 00 		      	pop  	r11
012E18 82 ED 01 1A 		      	mov  	sp,bp
012E1C 57 BF 11 00 		      	pop  	bp
012E20 37 FF 21 00 		      	rtl  	#16
                	ToJul_:
012E24 15 EF 21 00 		      	subui	sp,sp,#16
012E28 E7 ED 01 00 		      	push 	bp
012E2C 02 BF 01 1A 		      	mov  	bp,sp
012E30 15 EF 41 00 		      	subui	sp,sp,#32
012E34 C6 3D 30 00 		      	lw   	r3,24[bp]
012E38 E3 3D E0 FF 		      	sw   	r3,-16[bp]
012E3C C6 3D 40 00 		      	lw   	r3,32[bp]
012E40 E3 3D D0 FF 		      	sw   	r3,-24[bp]
012E44 C6 3D 50 00 		      	lw   	r3,40[bp]
012E48 E3 3D C0 FF 		      	sw   	r3,-32[bp]
012E4C FC FF FF FF 		      	ldi  	r4,#-32075
012E50 0A 40 6A 05 
012E54 E6 ED C1 FF 		      	push 	-32[bp]
012E58 7C 6B 00 00 		      	ldi  	r3,#7012800
012E5C 0A 30 80 03 
012E60 67 E2 01 00 		      	push 	r4
012E64 E7 E2 01 00 		      	push 	r5
012E68 E6 ED E1 FF 		      	push 	-16[bp]
012E6C E7 E3 01 00 		      	push 	r7
012E70 C6 7D D0 FF 		      	lw   	r7,-24[bp]
012E74 95 63 1C 00 		      	subu 	r6,r7,#14
012E78 08 63 18 00 		      	divs 	r6,r6,#12
012E7C 82 42 0C 28 		      	addu 	r4,r5,r6
012E80 07 42 6A 0B 		      	mul  	r4,r4,#1461
012E84 82 A1 08 28 		      	addu 	r10,r3,r4
012E88 02 95 04 78 		      	asri 	r9,r10,#2
012E8C 02 74 12 28 		      	addu 	r7,r8,r9
012E90 0A 90 44 FA 		      	ldi  	r9,#-734
012E94 C6 3D D0 FF 		      	lw   	r3,-24[bp]
012E98 C6 5D D0 FF 		      	lw   	r5,-24[bp]
012E9C 95 42 1C 00 		      	subu 	r4,r5,#14
012EA0 08 42 18 00 		      	divs 	r4,r4,#12
012EA4 07 42 18 00 		      	mul  	r4,r4,#12
012EA8 82 A1 08 2A 		      	subu 	r10,r3,r4
012EAC 07 A5 DE 02 		      	mul  	r10,r10,#367
012EB0 82 84 14 28 		      	addu 	r8,r9,r10
012EB4 08 84 18 00 		      	divs 	r8,r8,#12
012EB8 82 63 10 28 		      	addu 	r6,r7,r8
012EBC 57 7F 10 00 		      	pop  	r7
012EC0 0A 90 48 26 		      	ldi  	r9,#4900
012EC4 C6 3D E0 FF 		      	lw   	r3,-16[bp]
012EC8 C6 5D D0 FF 		      	lw   	r5,-24[bp]
012ECC 95 42 1C 00 		      	subu 	r4,r5,#14
012ED0 08 42 18 00 		      	divs 	r4,r4,#12
012ED4 82 A1 08 28 		      	addu 	r10,r3,r4
012ED8 82 84 14 28 		      	addu 	r8,r9,r10
012EDC 08 84 C8 00 		      	divs 	r8,r8,#100
012EE0 07 84 06 00 		      	mul  	r8,r8,#3
012EE4 02 74 04 78 		      	asri 	r7,r8,#2
012EE8 02 53 0E 2A 		      	subu 	r5,r6,r7
012EEC 57 6F 10 00 		      	pop  	r6
012EF0 02 32 0A 28 		      	addu 	r3,r4,r5
012EF4 57 5F 10 00 		      	pop  	r5
012EF8 57 4F 10 00 		      	pop  	r4
012EFC E3 3D F0 FF 		      	sw   	r3,-8[bp]
012F00 57 3F 10 00 		      	pop  	r3
012F04 C6 3D F0 FF 		      	lw   	r3,-8[bp]
012F08 82 11 00 1A 		      	mov  	r1,r3
                	set_time_serial_770:
012F0C 82 ED 01 1A 		      	mov  	sp,bp
012F10 57 BF 11 00 		      	pop  	bp
012F14 37 FF 21 00 		      	rtl  	#16
                	set_time_serial_:
012F18 E7 EF 01 00 		      	push 	lr
012F1C 67 EE 01 00 		      	push 	xlr
012F20 E7 ED 01 00 		      	push 	bp
012F24 7C 01 00 00 		      	ldi  	xlr,#set_time_serial_772
012F28 0A C0 A1 5F 
012F2C 02 BF 01 1A 		      	mov  	bp,sp
012F30 15 EF 91 00 		      	subui	sp,sp,#72
012F34 E5 ED 81 FF 		      	pea  	-64[bp]
012F38 E5 ED 91 FF 		      	pea  	-56[bp]
012F3C E5 ED A1 FF 		      	pea  	-48[bp]
012F40 E5 ED B1 FF 		      	pea  	-40[bp]
012F44 E5 ED C1 FF 		      	pea  	-32[bp]
012F48 E5 ED D1 FF 		      	pea  	-24[bp]
012F4C B9 A0 FF FF 		      	bsr  	get_datetime_
012F50 14 EF 61 00 		      	addui	sp,sp,#48
012F54 C6 7D 80 FF 		      	lw   	r7,-64[bp]
012F58 82 63 14 70 		      	asli 	r6,r7,#10
012F5C C6 7D 90 FF 		      	lw   	r7,-56[bp]
012F60 FC 00 00 00 		      	mul  	r7,r7,#61440
012F64 87 73 00 E0 
012F68 02 53 0E 28 		      	addu 	r5,r6,r7
012F6C C6 6D A0 FF 		      	lw   	r6,-48[bp]
012F70 7C 38 00 00 		      	mul  	r6,r6,#3686400
012F74 07 63 00 80 
012F78 82 42 0C 28 		      	addu 	r4,r5,r6
012F7C E7 E1 01 00 		      	push 	r3
012F80 67 E2 01 00 		      	push 	r4
012F84 E6 ED B1 FF 		      	push 	-40[bp]
012F88 E6 ED C1 FF 		      	push 	-32[bp]
012F8C E6 ED D1 FF 		      	push 	-24[bp]
012F90 B9 D2 FF FF 		      	bsr  	ToJul_
012F94 14 EF 31 00 		      	addui	sp,sp,#24
012F98 57 4F 10 00 		      	pop  	r4
012F9C 57 3F 10 00 		      	pop  	r3
012FA0 82 50 00 1A 		      	mov  	r5,r1
012FA4 7C 46 05 00 		      	mul  	r5,r5,#88473600
012FA8 87 52 00 00 
012FAC 02 32 0A 28 		      	addu 	r3,r4,r5
012FB0 63 30 00 00 		      	sw   	r3,Milliseconds_
012FB4 C6 3D E0 FF 		      	lw   	r3,-16[bp]
012FB8 82 11 00 1A 		      	mov  	r1,r3
                	set_time_serial_773:
012FBC 82 ED 01 1A 		      	mov  	sp,bp
012FC0 57 BF 11 00 		      	pop  	bp
012FC4 57 CF 11 00 		      	pop  	xlr
012FC8 57 FF 11 00 		      	pop  	lr
012FCC 37 FF 01 00 		      	rtl  	#0
                	set_time_serial_772:
012FD0 C6 FD 11 00 		      	lw   	lr,8[bp]
012FD4 E3 FD 21 00 		      	sw   	lr,16[bp]
012FD8 BA FC FF FF 		      	bra  	set_time_serial_773
                		code
012FDC 00 00 00 00 		align	1
                	
                	public code sprite_main:
012FE0 E7 EF 01 00 		      	     	          push  lr
012FE4 FC C2 00 00 	          lea   sp,demo_stack+4088
012FE8 47 E0 01 00 
012FEC 39 01 00 00 	          bsr   sprite_demo
012FF0 3B FF 11 00 	          rts
      
                	endpublic
                	
                	sprite_demo:
012FF4 E7 EF 01 00 		      	push 	lr
012FF8 67 EE 01 00 		      	push 	xlr
012FFC E7 ED 01 00 		      	push 	bp
013000 7C 01 00 00 		      	ldi  	xlr,#sprite_demo_3
013004 0A C0 61 64 
013008 02 BF 01 1A 		      	mov  	bp,sp
01300C 15 EF 31 00 		      	subui	sp,sp,#24
013010 E7 E5 01 00 		      	push 	r11
013014 67 E6 01 00 		      	push 	r12
013018 E7 E6 01 00 		      	push 	r13
01301C FC C2 00 00 		      	ldi  	r11,#sprites
013020 0A B0 10 00 
013024 7C DC FF 00 		      	ldi  	r12,#4292611072
013028 0A C0 00 18 
01302C 7C D8 FF 00 		      	ldi  	r13,#4292345856
013030 0A D0 00 00 
013034 E3 0D F0 FF 		      	sw   	r0,-8[bp]
                	sprite_demo_4:
013038 C6 3D F0 FF 		      	lw   	r3,-8[bp]
01303C 86 31 40 00 		      	cmp  	r3,r3,#32
013040 BD 31 18 00 		      	bge  	r3,sprite_demo_5
013044 C6 3D F0 FF 		      	lw   	r3,-8[bp]
013048 82 31 04 70 		      	asli 	r3,r3,#2
01304C 82 31 04 70 		      	asli 	r3,r3,#2
013050 7C C1 00 00 		      	lw   	r4,pSpriteController
013054 46 40 00 00 
013058 82 31 08 28 		      	addu 	r3,r3,r4
01305C FC 00 00 00 		      	ldi  	r4,#56292
013060 0A 40 C8 B7 
013064 E2 41 08 00 		      	sh   	r4,4[r3]
                	sprite_demo_6:
013068 E4 1D F0 FF 		      	inc  	-8[bp],#1
01306C BA F9 FF FF 		      	bra  	sprite_demo_4
                	sprite_demo_5:
013070 E3 0D F0 FF 		      	sw   	r0,-8[bp]
                	sprite_demo_7:
013074 C6 3D F0 FF 		      	lw   	r3,-8[bp]
013078 7C 00 00 00 		      	cmp  	r3,r3,#16384
01307C 86 31 00 80 
013080 BD 31 0E 00 		      	bge  	r3,sprite_demo_8
013084 C6 3D F0 FF 		      	lw   	r3,-8[bp]
013088 82 31 04 70 		      	asli 	r3,r3,#2
01308C 45 46 00 00 		      	lhu  	r4,[r12]
013090 EA 46 06 00 		      	sh   	r4,0[r13+r3]
                	sprite_demo_9:
013094 E4 1D F0 FF 		      	inc  	-8[bp],#1
013098 BA FB FF FF 		      	bra  	sprite_demo_7
                	sprite_demo_8:
01309C E3 0D F0 FF 		      	sw   	r0,-8[bp]
                	sprite_demo_10:
0130A0 C6 3D F0 FF 		      	lw   	r3,-8[bp]
0130A4 86 31 40 00 		      	cmp  	r3,r3,#32
0130A8 BD 31 3C 00 		      	bge  	r3,sprite_demo_11
0130AC 46 36 00 00 		      	lw   	r3,[r12]
0130B0 89 31 A8 0A 		      	mod  	r3,r3,#1364
0130B4 94 31 B4 01 		      	addu 	r3,r3,#218
0130B8 C6 4D F0 FF 		      	lw   	r4,-8[bp]
0130BC 02 42 0A 70 		      	asli 	r4,r4,#5
0130C0 EB 35 08 00 		      	sw   	r3,0[r11+r4]
0130C4 46 36 00 00 		      	lw   	r3,[r12]
0130C8 89 31 00 06 		      	mod  	r3,r3,#768
0130CC 94 31 36 00 		      	addu 	r3,r3,#27
0130D0 C6 4D F0 FF 		      	lw   	r4,-8[bp]
0130D4 02 42 0A 70 		      	asli 	r4,r4,#5
0130D8 02 42 16 28 		      	addu 	r4,r4,r11
0130DC 63 32 10 00 		      	sw   	r3,8[r4]
0130E0 46 36 00 00 		      	lw   	r3,[r12]
0130E4 8C 31 0E 00 		      	and  	r3,r3,#7
0130E8 95 31 08 00 		      	subu 	r3,r3,#4
0130EC C6 4D F0 FF 		      	lw   	r4,-8[bp]
0130F0 02 42 0A 70 		      	asli 	r4,r4,#5
0130F4 02 42 16 28 		      	addu 	r4,r4,r11
0130F8 63 32 20 00 		      	sw   	r3,16[r4]
0130FC 46 36 00 00 		      	lw   	r3,[r12]
013100 8C 31 0E 00 		      	and  	r3,r3,#7
013104 95 31 08 00 		      	subu 	r3,r3,#4
013108 C6 4D F0 FF 		      	lw   	r4,-8[bp]
01310C 02 42 0A 70 		      	asli 	r4,r4,#5
013110 02 42 16 28 		      	addu 	r4,r4,r11
013114 63 32 30 00 		      	sw   	r3,24[r4]
                	sprite_demo_12:
013118 E4 1D F0 FF 		      	inc  	-8[bp],#1
01311C BA F0 FF FF 		      	bra  	sprite_demo_10
                	sprite_demo_11:
                	sprite_demo_13:
013120 0A 30 02 00 		      	ldi  	r3,#1
013124 BD 01 84 00 		      	beq  	r3,sprite_demo_14
013128 E3 0D F0 FF 		      	sw   	r0,-8[bp]
                	sprite_demo_15:
01312C C6 3D F0 FF 		      	lw   	r3,-8[bp]
013130 86 31 40 00 		      	cmp  	r3,r3,#32
013134 BD 31 5C 00 		      	bge  	r3,sprite_demo_16
013138 C6 3D F0 FF 		      	lw   	r3,-8[bp]
01313C 82 31 0A 70 		      	asli 	r3,r3,#5
013140 CE 35 06 00 		      	lw   	r3,0[r11+r3]
013144 C6 4D F0 FF 		      	lw   	r4,-8[bp]
013148 02 42 0A 70 		      	asli 	r4,r4,#5
01314C 02 42 16 28 		      	addu 	r4,r4,r11
013150 46 42 20 00 		      	lw   	r4,16[r4]
013154 82 31 08 28 		      	addu 	r3,r3,r4
013158 89 31 AC 0A 		      	mod  	r3,r3,#1366
01315C 94 31 B4 01 		      	addu 	r3,r3,#218
013160 C6 4D F0 FF 		      	lw   	r4,-8[bp]
013164 02 42 0A 70 		      	asli 	r4,r4,#5
013168 EB 35 08 00 		      	sw   	r3,0[r11+r4]
01316C C6 3D F0 FF 		      	lw   	r3,-8[bp]
013170 82 31 0A 70 		      	asli 	r3,r3,#5
013174 82 31 16 28 		      	addu 	r3,r3,r11
013178 C6 31 10 00 		      	lw   	r3,8[r3]
01317C C6 4D F0 FF 		      	lw   	r4,-8[bp]
013180 02 42 0A 70 		      	asli 	r4,r4,#5
013184 02 42 16 28 		      	addu 	r4,r4,r11
013188 46 42 30 00 		      	lw   	r4,24[r4]
01318C 82 31 08 28 		      	addu 	r3,r3,r4
013190 89 31 00 06 		      	mod  	r3,r3,#768
013194 94 31 36 00 		      	addu 	r3,r3,#27
013198 C6 4D F0 FF 		      	lw   	r4,-8[bp]
01319C 02 42 0A 70 		      	asli 	r4,r4,#5
0131A0 02 42 16 28 		      	addu 	r4,r4,r11
0131A4 63 32 10 00 		      	sw   	r3,8[r4]
0131A8 C6 3D F0 FF 		      	lw   	r3,-8[bp]
0131AC 82 31 0A 70 		      	asli 	r3,r3,#5
0131B0 CE 35 06 00 		      	lw   	r3,0[r11+r3]
0131B4 C6 4D F0 FF 		      	lw   	r4,-8[bp]
0131B8 02 42 0A 70 		      	asli 	r4,r4,#5
0131BC 02 42 16 28 		      	addu 	r4,r4,r11
0131C0 46 42 10 00 		      	lw   	r4,8[r4]
0131C4 02 42 20 70 		      	asli 	r4,r4,#16
0131C8 82 31 08 28 		      	addu 	r3,r3,r4
0131CC C6 4D F0 FF 		      	lw   	r4,-8[bp]
0131D0 02 42 04 70 		      	asli 	r4,r4,#2
0131D4 02 42 04 70 		      	asli 	r4,r4,#2
0131D8 7C C1 00 00 		      	lw   	r5,pSpriteController
0131DC 46 50 00 00 
0131E0 EA 32 08 00 		      	sh   	r3,0[r5+r4]
                	sprite_demo_17:
0131E4 E4 1D F0 FF 		      	inc  	-8[bp],#1
0131E8 BA E8 FF FF 		      	bra  	sprite_demo_15
                	sprite_demo_16:
0131EC 7C 0F 00 00 		      	     	            ldi  r1,#1000000
0131F0 0A 10 80 84 
0131F4 39 E8 FE FF 	            bsr  MicroDelay
                	        
0131F8 39 C1 D9 FF 		      	bsr  	getcharNoWait
0131FC 82 30 00 1A 		      	mov  	r3,r1
013200 86 31 06 00 		      	cmp  	r3,r3,#3
013204 BD 11 12 00 		      	bne  	r3,sprite_demo_18
                	sprite_demo_20:
013208 57 DF 10 00 		      	pop  	r13
01320C 57 CF 10 00 		      	pop  	r12
013210 57 BF 10 00 		      	pop  	r11
013214 82 ED 01 1A 		      	mov  	sp,bp
013218 57 BF 11 00 		      	pop  	bp
01321C 57 CF 11 00 		      	pop  	xlr
013220 57 FF 11 00 		      	pop  	lr
013224 37 FF 01 00 		      	rtl  	#0
                	sprite_demo_18:
013228 3A DF FF FF 		      	bra  	sprite_demo_13
                	sprite_demo_14:
01322C BA FB FF FF 		      	bra  	sprite_demo_20
                	sprite_demo_3:
013230 C6 FD 11 00 		      	lw   	lr,8[bp]
013234 E3 FD 21 00 		      	sw   	lr,16[bp]
013238 3A FA FF FF 		      	bra  	sprite_demo_20
                	code
                		code
01323C 00 00 00 00 		align	1
                	
                	public code GetVBR_:
013240 15 EF 21 00 		      	subui	sp,sp,#16
013244 E7 ED 01 00 		      	push 	bp
013248 02 BF 01 1A 		      	mov  	bp,sp
01324C 02 10 14 3E 		      	     	        mfspr r1,vbr
                	    
                	PIC_1:
013250 82 ED 01 1A 		      	mov  	sp,bp
013254 57 BF 11 00 		      	pop  	bp
013258 37 FF 21 00 		      	rtl  	#16
                	endpublic
                	
                	public code set_vector_:
01325C E7 EF 01 00 		      	push 	lr
013260 67 EE 01 00 		      	push 	xlr
013264 E7 ED 01 00 		      	push 	bp
013268 7C 01 00 00 		      	ldi  	xlr,#PIC_2
01326C 0A C0 A1 65 
013270 02 BF 01 1A 		      	mov  	bp,sp
013274 C6 3D 30 00 		      	lw   	r3,24[bp]
013278 96 41 FE 03 		      	cmpu 	r4,r3,#511
01327C 3D 52 0C 00 		      	ble  	r4,PIC_3
                	PIC_5:
013280 82 ED 01 1A 		      	mov  	sp,bp
013284 57 BF 11 00 		      	pop  	bp
013288 57 CF 11 00 		      	pop  	xlr
01328C 57 FF 11 00 		      	pop  	lr
013290 37 FF 01 00 		      	rtl  	#0
                	PIC_3:
013294 C6 3D 40 00 		      	lw   	r3,32[bp]
013298 BD 01 08 00 		      	beq  	r3,PIC_8
01329C C6 4D 40 00 		      	lw   	r4,32[bp]
0132A0 0C 32 06 00 		      	and  	r3,r4,#3
0132A4 BD 01 04 00 		      	beq  	r3,PIC_6
                	PIC_8:
0132A8 3A FB FF FF 		      	bra  	PIC_5
                	PIC_6:
0132AC C6 4D 30 00 		      	lw   	r4,24[bp]
0132B0 02 32 06 70 		      	asli 	r3,r4,#3
0132B4 E7 E1 01 00 		      	push 	r3
0132B8 39 F1 FF FF 		      	bsr  	GetVBR_
0132BC 57 3F 10 00 		      	pop  	r3
0132C0 82 40 00 1A 		      	mov  	r4,r1
0132C4 C6 5D 40 00 		      	lw   	r5,32[bp]
0132C8 6B 52 06 00 		      	sw   	r5,0[r4+r3]
0132CC BA F6 FF FF 		      	bra  	PIC_5
                	PIC_2:
0132D0 C6 FD 11 00 		      	lw   	lr,8[bp]
0132D4 E3 FD 21 00 		      	sw   	lr,16[bp]
0132D8 3A F5 FF FF 		      	bra  	PIC_5
                	endpublic
                	
                	public code InitPIC_:
0132DC E7 EF 01 00 		      	push 	lr
0132E0 67 EE 01 00 		      	push 	xlr
0132E4 E7 ED 01 00 		      	push 	bp
0132E8 7C 01 00 00 		      	ldi  	xlr,#PIC_9
0132EC 0A C0 B1 66 
0132F0 02 BF 01 1A 		      	mov  	bp,sp
0132F4 65 E0 19 00 		      	push 	#12
0132F8 7C DC FF 00 		      	push 	#4292612048
0132FC 65 E0 A1 1F 
013300 39 98 0A 00 		      	bsr  	outh_
013304 14 EF 21 00 		      	addui	sp,sp,#16
013308 39 89 0A 00 		      	bsr  	getCPU_
01330C 82 30 00 1A 		      	mov  	r3,r1
013310 BD 11 10 00 		      	bne  	r3,PIC_10
013314 FC 00 00 00 		      	push 	#32783
013318 65 E0 1F 00 
01331C 7C DC FF 00 		      	push 	#4292612036
013320 65 E0 89 1F 
013324 B9 93 0A 00 		      	bsr  	outh_
013328 14 EF 21 00 		      	addui	sp,sp,#16
01332C 3A 03 00 00 		      	bra  	PIC_11
                	PIC_10:
013330 65 E0 17 00 		      	push 	#11
013334 7C DC FF 00 		      	push 	#4292612036
013338 65 E0 89 1F 
01333C B9 90 0A 00 		      	bsr  	outh_
013340 14 EF 21 00 		      	addui	sp,sp,#16
                	PIC_11:
                	PIC_12:
013344 82 ED 01 1A 		      	mov  	sp,bp
013348 57 BF 11 00 		      	pop  	bp
01334C 57 CF 11 00 		      	pop  	xlr
013350 57 FF 11 00 		      	pop  	lr
013354 37 FF 01 00 		      	rtl  	#0
                	PIC_9:
013358 C6 FD 11 00 		      	lw   	lr,8[bp]
01335C E3 FD 21 00 		      	sw   	lr,16[bp]
013360 BA FC FF FF 		      	bra  	PIC_12
                	endpublic
                	
                		code
013364 00 00 00 00 		align	1
013368 00 00 00 00 
01336C 00 00 00 00 
                	
                	public code FMTK_BrTbl_:
013370 3A 86 01 00 		      	     	          bra  FMTKInitialize_
013374 BA 31 01 00 	          bra  FMTK_StartTask_
013378 3A 0B 01 00 	          bra  FMTK_ExitTask_
01337C 3A E4 D9 FF 	          bra  FMTK_KillTask_
013380 3A 69 01 00 	          bra  FMTK_SetTaskPriority_
013384 BA 55 01 00 	          bra  FMTK_Sleep_
013388 3A 89 02 00 	          bra  FMTK_AllocMbx_
01338C 3A B0 02 00 	          bra  FMTK_FreeMbx_
013390 BA 58 03 00 	          bra  FMTK_PostMsg_
013394 BA 06 03 00 	          bra  FMTK_SendMsg_
013398 3A AA 03 00 	          bra  FMTK_WaitMsg_
01339C 3A 1A 04 00 	          bra  FMTK_CheckMsg_
                	      
                	endpublic
                	
                	public code GetVecno_:
0133A0 02 10 18 3E 		      	     	        mfspr  r1,12
0133A4 37 FF 01 00 	        rtl
    
                	endpublic
                	
                	public code DisplayIRQLive_:
0133A8 7C D0 FF 00 		      	     	         inc  $FFD00000+220,#1
0133AC 64 10 B8 01 
0133B0 37 FF 01 00 	         rtl
     
                	endpublic
                	
                	public code GetJCBPtr_:
0133B4 E7 EF 01 00 		      	push 	lr
0133B8 67 EE 01 00 		      	push 	xlr
0133BC E7 ED 01 00 		      	push 	bp
0133C0 7C 01 00 00 		      	ldi  	xlr,#FMTKc_6
0133C4 0A C0 59 68 
0133C8 02 BF 01 1A 		      	mov  	bp,sp
0133CC E7 E1 01 00 		      	push 	r3
0133D0 67 E2 01 00 		      	push 	r4
0133D4 E7 E2 01 00 		      	push 	r5
0133D8 67 E3 01 00 		      	push 	r6
0133DC B9 4B 04 00 		      	bsr  	GetRunningTCB_
0133E0 57 6F 10 00 		      	pop  	r6
0133E4 57 5F 10 00 		      	pop  	r5
0133E8 57 4F 10 00 		      	pop  	r4
0133EC 57 3F 10 00 		      	pop  	r3
0133F0 82 70 00 1A 		      	mov  	r7,r1
0133F4 82 63 14 70 		      	asli 	r6,r7,#10
0133F8 7C 1A 01 00 		      	addu 	r5,r6,#tcbs_
0133FC 14 53 00 68 
013400 C0 52 9E 05 		      	lb   	r5,719[r5]
013404 82 52 00 20 		      	sxb  	r5,r5
013408 82 42 16 70 		      	asli 	r4,r5,#11
01340C FC C2 00 00 		      	addu 	r3,r4,#jcbs_
013410 14 32 00 30 
013414 82 11 00 1A 		      	mov  	r1,r3
                	FMTKc_7:
013418 82 ED 01 1A 		      	mov  	sp,bp
01341C 57 BF 11 00 		      	pop  	bp
013420 57 CF 11 00 		      	pop  	xlr
013424 57 FF 11 00 		      	pop  	lr
013428 37 FF 01 00 		      	rtl  	#0
                	FMTKc_6:
01342C C6 FD 11 00 		      	lw   	lr,8[bp]
013430 E3 FD 21 00 		      	sw   	lr,16[bp]
013434 BA FC FF FF 		      	bra  	FMTKc_7
                	endpublic
                	
                		code
013438 00 00 00 00 		align	1
01343C 00 00 00 00 
                	
                	SelectTaskToRun_:
013440 E7 EF 01 00 		      	push 	lr
013444 67 EE 01 00 		      	push 	xlr
013448 E7 ED 01 00 		      	push 	bp
01344C 7C 01 00 00 		      	ldi  	xlr,#FMTKc_12
013450 0A C0 19 6C 
013454 02 BF 01 1A 		      	mov  	bp,sp
013458 15 EF 61 00 		      	subui	sp,sp,#48
01345C E7 E5 01 00 		      	push 	r11
013460 67 E6 01 00 		      	push 	r12
013464 7C C1 00 00 		      	ldi  	r12,#FMTKc_9
013468 0A C0 00 17 
01346C 40 36 00 00 		      	lb   	r3,[r12]
013470 94 31 02 00 		      	addui	r3,r3,#1
013474 60 36 00 00 		      	sb   	r3,[r12]
013478 40 36 00 00 		      	lb   	r3,[r12]
01347C 8C 31 3E 00 		      	andi 	r3,r3,#31
013480 60 36 00 00 		      	sb   	r3,[r12]
013484 40 36 00 00 		      	lb   	r3,[r12]
013488 82 31 00 20 		      	sxb  	r3,r3
01348C 7C C1 00 00 		      	lb   	r3,FMTKc_8[r3]
013490 C0 31 C0 16 
013494 82 31 00 20 		      	sxb  	r3,r3
013498 E3 3D B0 FF 		      	sw   	r3,-40[bp]
01349C C6 3D B0 FF 		      	lw   	r3,-40[bp]
0134A0 8C 31 0E 00 		      	andi 	r3,r3,#7
0134A4 E3 3D B0 FF 		      	sw   	r3,-40[bp]
0134A8 E3 0D F0 FF 		      	sw   	r0,-8[bp]
                	FMTKc_13:
0134AC C6 3D F0 FF 		      	lw   	r3,-8[bp]
0134B0 86 41 10 00 		      	cmp  	r4,r3,#8
0134B4 3D 32 A4 00 		      	bge  	r4,FMTKc_14
0134B8 C6 4D B0 FF 		      	lw   	r4,-40[bp]
0134BC 02 32 02 70 		      	asli 	r3,r4,#1
0134C0 7C 1E 01 00 		      	lc   	r4,readyQ_[r3]
0134C4 C2 41 20 68 
0134C8 E1 4D AC FF 		      	sc   	r4,-42[bp]
0134CC C2 3D AC FF 		      	lc   	r3,-42[bp]
0134D0 BD 41 8A 00 		      	blt  	r3,FMTKc_16
0134D4 C2 3D AC FF 		      	lc   	r3,-42[bp]
0134D8 86 41 00 02 		      	cmp  	r4,r3,#256
0134DC 3D 32 84 00 		      	bge  	r4,FMTKc_16
0134E0 C2 5D AC FF 		      	lc   	r5,-42[bp]
0134E4 82 42 14 70 		      	asli 	r4,r5,#10
0134E8 7C 1A 01 00 		      	addu 	r3,r4,#tcbs_
0134EC 14 32 00 68 
0134F0 E3 3D D0 FF 		      	sw   	r3,-24[bp]
0134F4 E3 0D E0 FF 		      	sw   	r0,-16[bp]
0134F8 C2 3D AC FF 		      	lc   	r3,-42[bp]
0134FC E7 E1 01 00 		      	push 	r3
013500 39 27 04 00 		      	bsr  	GetRunningTCB_
013504 57 3F 10 00 		      	pop  	r3
013508 82 40 00 1A 		      	mov  	r4,r1
01350C 02 42 00 22 		      	sxc  	r4,r4
013510 82 51 08 0C 		      	cmp  	r5,r3,r4
013514 BD 02 06 00 		      	beq  	r5,FMTKc_18
013518 C6 BD D0 FF 		      	lw   	r11,-24[bp]
01351C BA 03 00 00 		      	bra  	FMTKc_19
                	FMTKc_18:
013520 C6 5D D0 FF 		      	lw   	r5,-24[bp]
013524 C2 52 E0 04 		      	lc   	r5,624[r5]
013528 82 42 14 70 		      	asli 	r4,r5,#10
01352C 7C 1A 01 00 		      	addu 	r3,r4,#tcbs_
013530 14 32 00 68 
013534 82 B1 00 1A 		      	mov  	r11,r3
                	FMTKc_19:
                	FMTKc_20:
013538 C0 45 9A 05 		      	lb   	r4,717[r11]
01353C 0C 32 10 00 		      	and  	r3,r4,#8
013540 BD 11 36 00 		      	bne  	r3,FMTKc_22
013544 C0 35 9C 05 		      	lb   	r3,718[r11]
013548 82 31 00 20 		      	sxb  	r3,r3
01354C E7 E1 01 00 		      	push 	r3
013550 39 40 0A 00 		      	bsr  	getCPU_
013554 57 3F 10 00 		      	pop  	r3
013558 82 40 00 1A 		      	mov  	r4,r1
01355C 82 51 08 0C 		      	cmp  	r5,r3,r4
013560 BD 12 26 00 		      	bne  	r5,FMTKc_24
013564 7C 1A 01 00 		      	subu 	r4,r11,#tcbs_
013568 95 45 00 68 
01356C 02 32 14 72 		      	lsri 	r3,r4,#10
013570 C6 5D B0 FF 		      	lw   	r5,-40[bp]
013574 82 42 02 70 		      	asli 	r4,r5,#1
013578 7C 1E 01 00 		      	sc   	r3,readyQ_[r4]
01357C 61 32 20 68 
013580 7C 1A 01 00 		      	subu 	r4,r11,#tcbs_
013584 95 45 00 68 
013588 02 32 14 72 		      	lsri 	r3,r4,#10
01358C 82 11 00 1A 		      	mov  	r1,r3
                	FMTKc_26:
013590 57 CF 10 00 		      	pop  	r12
013594 57 BF 10 00 		      	pop  	r11
013598 82 ED 01 1A 		      	mov  	sp,bp
01359C 57 BF 11 00 		      	pop  	bp
0135A0 57 CF 11 00 		      	pop  	xlr
0135A4 57 FF 11 00 		      	pop  	lr
0135A8 37 FF 01 00 		      	rtl  	#0
                	FMTKc_24:
                	FMTKc_22:
0135AC C2 55 E0 04 		      	lc   	r5,624[r11]
0135B0 82 42 14 70 		      	asli 	r4,r5,#10
0135B4 7C 1A 01 00 		      	addu 	r3,r4,#tcbs_
0135B8 14 32 00 68 
0135BC 82 B1 00 1A 		      	mov  	r11,r3
0135C0 C6 4D E0 FF 		      	lw   	r4,-16[bp]
0135C4 14 32 02 00 		      	addu 	r3,r4,#1
0135C8 E3 3D E0 FF 		      	sw   	r3,-16[bp]
0135CC C6 3D D0 FF 		      	lw   	r3,-24[bp]
0135D0 82 45 06 0C 		      	cmp  	r4,r11,r3
0135D4 3D 02 08 00 		      	beq  	r4,FMTKc_27
0135D8 C6 3D E0 FF 		      	lw   	r3,-16[bp]
0135DC 86 41 00 02 		      	cmp  	r4,r3,#256
0135E0 3D 42 AC FF 		      	blt  	r4,FMTKc_20
                	FMTKc_27:
                	FMTKc_21:
                	FMTKc_16:
0135E4 E4 1D B0 FF 		      	inc  	-40[bp],#1
0135E8 C6 3D B0 FF 		      	lw   	r3,-40[bp]
0135EC 8C 31 0E 00 		      	andi 	r3,r3,#7
0135F0 E3 3D B0 FF 		      	sw   	r3,-40[bp]
                	FMTKc_15:
0135F4 E4 1D F0 FF 		      	inc  	-8[bp],#1
0135F8 BA D6 FF FF 		      	bra  	FMTKc_13
                	FMTKc_14:
0135FC B9 07 04 00 		      	bsr  	GetRunningTCB_
013600 82 30 00 1A 		      	mov  	r3,r1
013604 82 11 00 1A 		      	mov  	r1,r3
013608 3A F1 FF FF 		      	bra  	FMTKc_26
                	FMTKc_12:
01360C C6 FD 11 00 		      	lw   	lr,8[bp]
013610 E3 FD 21 00 		      	sw   	lr,16[bp]
013614 BA EF FF FF 		      	bra  	FMTKc_26
                	public code FMTK_SystemCall_:
013618 7C E4 00 00 		      	     	         lea   sp,sys_stacks_[tr]
01361C 47 EC 01 A0 
013620 63 1C 10 00 	         sw    r1,8[tr]
013624 63 2C 20 00 	         sw    r2,16[tr]
013628 63 3C 30 00 	         sw    r3,24[tr]
01362C 63 4C 40 00 	         sw    r4,32[tr]
013630 63 5C 50 00 	         sw    r5,40[tr]
013634 63 6C 60 00 	         sw    r6,48[tr]
013638 63 7C 70 00 	         sw    r7,56[tr]
01363C 63 8C 80 00 	         sw    r8,64[tr]
013640 63 9C 90 00 	         sw    r9,72[tr]
013644 63 AC A0 00 	         sw    r10,80[tr]
013648 63 BC B0 00 	         sw    r11,88[tr]
01364C 63 CC C0 00 	         sw    r12,96[tr]
013650 63 DC D0 00 	         sw    r13,104[tr]
013654 63 EC E0 00 	         sw    r14,112[tr]
013658 63 FC F0 00 	         sw    r15,120[tr]
01365C 63 0C 01 01 	         sw    r16,128[tr]
013660 63 1C 11 01 	         sw    r17,136[tr]
013664 63 2C 21 01 	         sw    r18,144[tr]
013668 63 3C 31 01 	         sw    r19,152[tr]
01366C 63 4C 41 01 	         sw    r20,160[tr]
013670 63 5C 51 01 	         sw    r21,168[tr]
013674 63 6C 61 01 	         sw    r22,176[tr]
013678 63 7C 71 01 	         sw    r23,184[tr]
01367C 63 8C 81 01 	         sw    r24,192[tr]
013680 63 9C 91 01 	         sw    r25,200[tr]
013684 63 AC A1 01 	         sw    r26,208[tr]
013688 63 BC B1 01 	         sw    r27,216[tr]
01368C 63 CC C1 01 	         sw    r28,224[tr]
013690 63 DC D1 01 	         sw    r29,232[tr]
013694 63 EC E1 01 	         sw    r30,240[tr]
013698 63 FC F1 01 	         sw    r31,248[tr]
01369C 02 10 1E 3E 	         mfspr r1,isp
0136A0 63 1C 00 02 	         sw    r1,256[tr]
0136A4 02 10 20 3E 	         mfspr r1,dsp
0136A8 63 1C 10 02 	         sw    r1,264[tr]
0136AC 02 10 22 3E 	         mfspr r1,esp
0136B0 63 1C 20 02 	         sw    r1,272[tr]
0136B4 02 10 10 3E 	         mfspr r1,ipc
0136B8 63 1C 30 02 	         sw    r1,280[tr]
0136BC 02 10 0E 3E 	         mfspr r1,dpc
0136C0 63 1C 40 02 	         sw    r1,288[tr]
0136C4 02 10 12 3E 	         mfspr r1,epc
0136C8 63 1C 50 02 	         sw    r1,296[tr]
0136CC 02 10 00 3E 	         mfspr r1,cr0
0136D0 63 1C 60 02 	         sw    r1,304[tr]
                	
0136D4 02 60 12 3E 	    	 mfspr r6,epc           ; get return address into r6
0136D8 0C 73 F8 FF 	    	 and   r7,r6,#-4        ; clear LSB's
0136DC C4 73 08 00 	    	 lh	   r7,4[r7]			; get static call number parameter into r7
0136E0 14 63 10 00 	    	 addui r6,r6,#8		    ; update return address
0136E4 63 6C 50 02 	    	 sw    r6,296[tr]
0136E8 96 63 28 00 	    	 cmpu  r6,r7,#20
0136EC 3D 23 70 00 	    	 bgt   r6,.bad_callno
0136F0 82 73 04 70 	    	 asl   r7,r7,#2
0136F4 46 1C 10 00 	    	 lw    r1,8[tr]         ; get back r1, we trashed it above
0136F8 E7 E2 01 00 	    	 push  r5
0136FC 67 E2 01 00 	    	 push  r4
013700 E7 E1 01 00 	    	 push  r3
013704 67 E1 01 00 	    	 push  r2
013708 E7 E0 01 00 	    	 push  r1
01370C 7C 00 00 00 	    	 jsr   FMTK_BrTbl_[r7]	; do the system function
013710 BC F3 B9 99 
013714 14 EF 51 00 	    	 addui sp,sp,#40
013718 63 1C 10 00 	    	 sw    r1,8[tr]
                	.0001:
01371C 46 1C 00 02 	         lw    r1,256[tr]
013720 82 00 1E 3C 	         mtspr isp,r1
013724 46 1C 10 02 	         lw    r1,264[tr]
013728 82 00 20 3C 	         mtspr dsp,r1
01372C 46 1C 20 02 	         lw    r1,272[tr]
013730 82 00 22 3C 	         mtspr esp,r1
013734 46 1C 30 02 	         lw    r1,280[tr]
013738 82 00 10 3C 	         mtspr ipc,r1
01373C 46 1C 40 02 	         lw    r1,288[tr]
013740 82 00 0E 3C 	         mtspr dpc,r1
013744 46 1C 50 02 	         lw    r1,296[tr]
013748 82 00 12 3C 	         mtspr epc,r1
01374C 46 1C 60 02 	         lw    r1,304[tr]
013750 82 00 00 3C 	         mtspr cr0,r1
013754 46 1C 10 00 	         lw    r1,8[tr]
013758 46 2C 20 00 	         lw    r2,16[tr]
01375C 46 3C 30 00 	         lw    r3,24[tr]
013760 46 4C 40 00 	         lw    r4,32[tr]
013764 46 5C 50 00 	         lw    r5,40[tr]
013768 46 6C 60 00 	         lw    r6,48[tr]
01376C 46 7C 70 00 	         lw    r7,56[tr]
013770 46 8C 80 00 	         lw    r8,64[tr]
013774 46 9C 90 00 	         lw    r9,72[tr]
013778 46 AC A0 00 	         lw    r10,80[tr]
01377C 46 BC B0 00 	         lw    r11,88[tr]
013780 46 CC C0 00 	         lw    r12,96[tr]
013784 46 DC D0 00 	         lw    r13,104[tr]
013788 46 EC E0 00 	         lw    r14,112[tr]
01378C 46 FC F0 00 	         lw    r15,120[tr]
013790 46 0C 01 01 	         lw    r16,128[tr]
013794 46 1C 11 01 	         lw    r17,136[tr]
013798 46 2C 21 01 	         lw    r18,144[tr]
01379C 46 3C 31 01 	         lw    r19,152[tr]
0137A0 46 4C 41 01 	         lw    r20,160[tr]
0137A4 46 5C 51 01 	         lw    r21,168[tr]
0137A8 46 6C 61 01 	         lw    r22,176[tr]
0137AC 46 7C 71 01 	         lw    r23,184[tr]
0137B0 46 9C 91 01 	         lw    r25,200[tr]
0137B4 46 AC A1 01 	         lw    r26,208[tr]
0137B8 46 BC B1 01 	         lw    r27,216[tr]
0137BC 46 CC C1 01 	         lw    r28,224[tr]
0137C0 46 DC D1 01 	         lw    r29,232[tr]
0137C4 46 FC F1 01 	         lw    r31,248[tr]
0137C8 02 E0 3D 6E 	         rte
                	.bad_callno:
0137CC 0A 10 02 00 	         ldi   r1,#E_BadFuncno
0137D0 63 1C 10 00 	         sw    r1,8[tr]
0137D4 3A E9 FF FF 	         bra   .0001   
                	    
                	endpublic
                	
                	public code FMTK_SchedulerIRQ_:
0137D8 7C 04 01 00 		      	     	         lea   sp,fmtk_irq_stack_+4088
0137DC 47 E0 F1 BF 
0137E0 63 1C 80 02 	         sw    r1,8+312[tr]
0137E4 63 2C 90 02 	         sw    r2,16+312[tr]
0137E8 63 3C A0 02 	         sw    r3,24+312[tr]
0137EC 63 4C B0 02 	         sw    r4,32+312[tr]
0137F0 63 5C C0 02 	         sw    r5,40+312[tr]
0137F4 63 6C D0 02 	         sw    r6,48+312[tr]
0137F8 63 7C E0 02 	         sw    r7,56+312[tr]
0137FC 63 8C F0 02 	         sw    r8,64+312[tr]
013800 63 9C 00 03 	         sw    r9,72+312[tr]
013804 63 AC 10 03 	         sw    r10,80+312[tr]
013808 63 BC 20 03 	         sw    r11,88+312[tr]
01380C 63 CC 30 03 	         sw    r12,96+312[tr]
013810 63 DC 40 03 	         sw    r13,104+312[tr]
013814 63 EC 50 03 	         sw    r14,112+312[tr]
013818 63 FC 60 03 	         sw    r15,120+312[tr]
01381C 63 0C 71 03 	         sw    r16,128+312[tr]
013820 63 1C 81 03 	         sw    r17,136+312[tr]
013824 63 2C 91 03 	         sw    r18,144+312[tr]
013828 63 3C A1 03 	         sw    r19,152+312[tr]
01382C 63 4C B1 03 	         sw    r20,160+312[tr]
013830 63 5C C1 03 	         sw    r21,168+312[tr]
013834 63 6C D1 03 	         sw    r22,176+312[tr]
013838 63 7C E1 03 	         sw    r23,184+312[tr]
01383C 63 8C F1 03 	         sw    r24,192+312[tr]
013840 63 9C 01 04 	         sw    r25,200+312[tr]
013844 63 AC 11 04 	         sw    r26,208+312[tr]
013848 63 BC 21 04 	         sw    r27,216+312[tr]
01384C 63 CC 31 04 	         sw    r28,224+312[tr]
013850 63 DC 41 04 	         sw    r29,232+312[tr]
013854 63 EC 51 04 	         sw    r30,240+312[tr]
013858 63 FC 61 04 	         sw    r31,248+312[tr]
01385C 02 10 1E 3E 	         mfspr r1,isp
013860 63 1C 70 04 	         sw    r1,256+312[tr]
013864 02 10 20 3E 	         mfspr r1,dsp
013868 63 1C 80 04 	         sw    r1,264+312[tr]
01386C 02 10 22 3E 	         mfspr r1,esp
013870 63 1C 90 04 	         sw    r1,272+312[tr]
013874 02 10 10 3E 	         mfspr r1,ipc
013878 63 1C A0 04 	         sw    r1,280+312[tr]
01387C 02 10 0E 3E 	         mfspr r1,dpc
013880 63 1C B0 04 	         sw    r1,288+312[tr]
013884 02 10 12 3E 	         mfspr r1,epc
013888 63 1C C0 04 	         sw    r1,296+312[tr]
01388C 02 10 00 3E 	         mfspr r1,cr0
013890 63 1C D0 04 	         sw    r1,304+312[tr]
013894 02 10 08 3E 	         mfspr r1,tick
013898 63 1C B0 05 	         sw    r1,$2D8[tr]
                	     
01389C E7 EF 01 00 		      	push 	lr
0138A0 67 EE 01 00 		      	push 	xlr
0138A4 E7 ED 01 00 		      	push 	bp
0138A8 7C 01 00 00 		      	ldi  	xlr,#FMTKc_30
0138AC 0A C0 99 76 
0138B0 02 BF 01 1A 		      	mov  	bp,sp
0138B4 15 EF 11 00 		      	subui	sp,sp,#8
0138B8 E7 E5 01 00 		      	push 	r11
0138BC 67 E6 01 00 		      	push 	r12
0138C0 E7 E6 01 00 		      	push 	r13
0138C4 67 E7 01 00 		      	push 	r14
0138C8 7C 1E 01 00 		      	ldi  	r12,#TimeoutList_
0138CC 0A C0 10 68 
0138D0 7C 0D 01 00 		      	ldi  	r13,#missed_ticks_
0138D4 0A D0 F0 E0 
0138D8 7C 1A 01 00 		      	ldi  	r14,#tcbs_
0138DC 0A E0 00 68 
0138E0 39 58 FF FF 		      	bsr  	GetVecno_
0138E4 82 30 00 1A 		      	mov  	r3,r1
0138E8 86 41 86 03 		      	cmp  	r4,r3,#451
0138EC 3D 02 08 00 		      	beq  	r4,FMTKc_32
0138F0 86 41 04 00 		      	cmp  	r4,r3,#2
0138F4 3D 02 92 00 		      	beq  	r4,FMTKc_33
0138F8 BA 2F 00 00 		      	bra  	FMTKc_34
                	FMTKc_32:
0138FC 0A 10 06 00 		      	     	             ldi   r1,#3				; reset the edge sense circuit
013900 7C DC FF 00 	             sh	   r1,PIC_RSTE
013904 62 10 A8 1F 
                	         
013908 39 54 FF FF 		      	bsr  	DisplayIRQLive_
01390C 65 E0 15 00 		      	push 	#10
013910 7C 0D 01 00 		      	push 	#sys_sema_
013914 65 E0 C1 E0 
013918 39 FB 06 00 		      	bsr  	LockSemaphore_
01391C 82 30 00 1A 		      	mov  	r3,r1
013920 BD 01 78 00 		      	beq  	r3,FMTKc_35
013924 B9 A1 03 00 		      	bsr  	GetRunningTCBPtr_
013928 82 30 00 1A 		      	mov  	r3,r1
01392C 82 B1 00 1A 		      	mov  	r11,r3
013930 C6 45 C0 05 		      	lw   	r4,736[r11]
013934 C6 65 B0 05 		      	lw   	r6,728[r11]
013938 C6 75 A0 05 		      	lw   	r7,720[r11]
01393C 02 53 0E 2A 		      	subu 	r5,r6,r7
013940 02 32 0A 28 		      	addu 	r3,r4,r5
013944 E3 35 C0 05 		      	sw   	r3,736[r11]
013948 C0 35 98 05 		      	lb   	r3,716[r11]
01394C BD 01 58 00 		      	beq  	r3,FMTKc_37
013950 0A 30 08 00 		      	ldi  	r3,#4
013954 E0 35 9A 05 		      	sb   	r3,717[r11]
                	FMTKc_39:
013958 42 36 00 00 		      	lc   	r3,[r12]
01395C BD 41 38 00 		      	blt  	r3,FMTKc_40
013960 42 36 00 00 		      	lc   	r3,[r12]
013964 86 41 00 02 		      	cmp  	r4,r3,#256
013968 3D 32 32 00 		      	bge  	r4,FMTKc_40
01396C 42 56 00 00 		      	lc   	r5,[r12]
013970 82 42 14 70 		      	asli 	r4,r5,#10
013974 02 32 1C 28 		      	addu 	r3,r4,r14
013978 C6 31 20 05 		      	lw   	r3,656[r3]
01397C BD 21 0C 00 		      	bgt  	r3,FMTKc_41
013980 39 2B 04 00 		      	bsr  	PopTimeoutList_
013984 82 30 00 1A 		      	mov  	r3,r1
013988 E7 E1 01 00 		      	push 	r3
01398C B9 9C 03 00 		      	bsr  	InsertIntoReadyList_
013990 3A 07 00 00 		      	bra  	FMTKc_42
                	FMTKc_41:
013994 42 76 00 00 		      	lc   	r7,[r12]
013998 82 63 14 70 		      	asli 	r6,r7,#10
01399C 02 53 1C 28 		      	addu 	r5,r6,r14
0139A0 C6 52 20 05 		      	lw   	r5,656[r5]
0139A4 C6 66 00 00 		      	lw   	r6,[r13]
0139A8 82 42 0C 2A 		      	subu 	r4,r5,r6
0139AC 15 32 02 00 		      	subu 	r3,r4,#1
0139B0 42 66 00 00 		      	lc   	r6,[r12]
0139B4 02 53 14 70 		      	asli 	r5,r6,#10
0139B8 82 42 1C 28 		      	addu 	r4,r5,r14
0139BC 63 32 20 05 		      	sw   	r3,656[r4]
0139C0 E3 06 00 00 		      	sw   	r0,[r13]
0139C4 3A 01 00 00 		      	bra  	FMTKc_40
                	FMTKc_42:
0139C8 3A F2 FF FF 		      	bra  	FMTKc_39
                	FMTKc_40:
0139CC C0 35 98 05 		      	lb   	r3,716[r11]
0139D0 86 41 04 00 		      	cmp  	r4,r3,#2
0139D4 3D 52 0A 00 		      	ble  	r4,FMTKc_43
0139D8 39 4D FF FF 		      	bsr  	SelectTaskToRun_
0139DC 82 30 00 1A 		      	mov  	r3,r1
0139E0 E7 E1 01 00 		      	push 	r3
0139E4 B9 8C 03 00 		      	bsr  	SetRunningTCB_
                	FMTKc_43:
0139E8 39 89 03 00 		      	bsr  	GetRunningTCBPtr_
0139EC 82 30 00 1A 		      	mov  	r3,r1
0139F0 0A 40 10 00 		      	ldi  	r4,#8
0139F4 E0 41 9A 05 		      	sb   	r4,717[r3]
0139F8 3A 01 00 00 		      	bra  	FMTKc_38
                	FMTKc_37:
0139FC E4 16 00 00 		      	inc  	[r13],#1
                	FMTKc_38:
013A00 7C 0D 01 00 		      	push 	#sys_sema_
013A04 65 E0 C1 E0 
013A08 39 EB 06 00 		      	bsr  	UnlockSemaphore_
013A0C 3A 01 00 00 		      	bra  	FMTKc_36
                	FMTKc_35:
013A10 E4 16 00 00 		      	inc  	[r13],#1
                	FMTKc_36:
013A14 3A 0C 00 00 		      	bra  	FMTKc_31
                	FMTKc_33:
013A18 39 83 03 00 		      	bsr  	GetRunningTCBPtr_
013A1C 82 30 00 1A 		      	mov  	r3,r1
013A20 82 B1 00 1A 		      	mov  	r11,r3
013A24 C6 45 C0 05 		      	lw   	r4,736[r11]
013A28 C6 65 B0 05 		      	lw   	r6,728[r11]
013A2C C6 75 A0 05 		      	lw   	r7,720[r11]
013A30 02 53 0E 2A 		      	subu 	r5,r6,r7
013A34 02 32 0A 28 		      	addu 	r3,r4,r5
013A38 E3 35 C0 05 		      	sw   	r3,736[r11]
013A3C 0A 30 08 00 		      	ldi  	r3,#4
013A40 E0 35 9A 05 		      	sb   	r3,717[r11]
013A44 C6 45 A0 04 		      	lw   	r4,592[r11]
013A48 14 32 08 00 		      	addu 	r3,r4,#4
013A4C E3 35 A0 04 		      	sw   	r3,592[r11]
013A50 39 3E FF FF 		      	bsr  	SelectTaskToRun_
013A54 82 30 00 1A 		      	mov  	r3,r1
013A58 E7 E1 01 00 		      	push 	r3
013A5C B9 7D 03 00 		      	bsr  	SetRunningTCB_
013A60 39 7A 03 00 		      	bsr  	GetRunningTCBPtr_
013A64 82 30 00 1A 		      	mov  	r3,r1
013A68 0A 40 10 00 		      	ldi  	r4,#8
013A6C E0 41 9A 05 		      	sb   	r4,717[r3]
013A70 BA 00 00 00 		      	bra  	FMTKc_31
                	FMTKc_34:
                	FMTKc_31:
                	FMTKc_45:
013A74 57 EF 10 00 		      	pop  	r14
013A78 57 DF 10 00 		      	pop  	r13
013A7C 57 CF 10 00 		      	pop  	r12
013A80 57 BF 10 00 		      	pop  	r11
013A84 82 ED 01 1A 		      	mov  	sp,bp
013A88 57 BF 11 00 		      	pop  	bp
013A8C 57 CF 11 00 		      	pop  	xlr
013A90 57 FF 11 00 		      	pop  	lr
                		      	     	RestoreContext:
013A94 02 10 08 3E 	         mfspr r1,tick
013A98 63 1C A0 05 	         sw    r1,$2d0[tr]
013A9C 46 1C 70 04 	         lw    r1,256+312[tr]
013AA0 82 00 1E 3C 	         mtspr isp,r1
013AA4 46 1C 80 04 	         lw    r1,264+312[tr]
013AA8 82 00 20 3C 	         mtspr dsp,r1
013AAC 46 1C 90 04 	         lw    r1,272+312[tr]
013AB0 82 00 22 3C 	         mtspr esp,r1
013AB4 46 1C A0 04 	         lw    r1,280+312[tr]
013AB8 82 00 10 3C 	         mtspr ipc,r1
013ABC 46 1C B0 04 	         lw    r1,288+312[tr]
013AC0 82 00 0E 3C 	         mtspr dpc,r1
013AC4 46 1C C0 04 	         lw    r1,296+312[tr]
013AC8 82 00 12 3C 	         mtspr epc,r1
013ACC 46 1C D0 04 	         lw    r1,304+312[tr]
013AD0 82 00 00 3C 	         mtspr cr0,r1
013AD4 46 1C 80 02 	         lw    r1,8+312[tr]
013AD8 46 2C 90 02 	         lw    r2,16+312[tr]
013ADC 46 3C A0 02 	         lw    r3,24+312[tr]
013AE0 46 4C B0 02 	         lw    r4,32+312[tr]
013AE4 46 5C C0 02 	         lw    r5,40+312[tr]
013AE8 46 6C D0 02 	         lw    r6,48+312[tr]
013AEC 46 7C E0 02 	         lw    r7,56+312[tr]
013AF0 46 8C F0 02 	         lw    r8,64+312[tr]
013AF4 46 9C 00 03 	         lw    r9,72+312[tr]
013AF8 46 AC 10 03 	         lw    r10,80+312[tr]
013AFC 46 BC 20 03 	         lw    r11,88+312[tr]
013B00 46 CC 30 03 	         lw    r12,96+312[tr]
013B04 46 DC 40 03 	         lw    r13,104+312[tr]
013B08 46 EC 50 03 	         lw    r14,112+312[tr]
013B0C 46 FC 60 03 	         lw    r15,120+312[tr]
013B10 46 0C 71 03 	         lw    r16,128+312[tr]
013B14 46 1C 81 03 	         lw    r17,136+312[tr]
013B18 46 2C 91 03 	         lw    r18,144+312[tr]
013B1C 46 3C A1 03 	         lw    r19,152+312[tr]
013B20 46 4C B1 03 	         lw    r20,160+312[tr]
013B24 46 5C C1 03 	         lw    r21,168+312[tr]
013B28 46 6C D1 03 	         lw    r22,176+312[tr]
013B2C 46 7C E1 03 	         lw    r23,184+312[tr]
013B30 46 9C 01 04 	         lw    r25,200+312[tr]
013B34 46 AC 11 04 	         lw    r26,208+312[tr]
013B38 46 BC 21 04 	         lw    r27,216+312[tr]
013B3C 46 CC 31 04 	         lw    r28,224+312[tr]
013B40 46 DC 41 04 	         lw    r29,232+312[tr]
013B44 46 FC 61 04 	         lw    r31,248+312[tr]
013B48 02 E0 3F 6E 	         rti
                	     
                	FMTKc_30:
013B4C C6 FD 11 00 		      	lw   	lr,8[bp]
013B50 E3 FD 21 00 		      	sw   	lr,16[bp]
013B54 3A E4 FF FF 		      	bra  	FMTKc_45
                	endpublic
                	
                	public code panic_:
013B58 E7 EF 01 00 		      	push 	lr
013B5C 67 EE 01 00 		      	push 	xlr
013B60 E7 ED 01 00 		      	push 	bp
013B64 7C 01 00 00 		      	ldi  	xlr,#FMTKc_47
013B68 0A C0 29 77 
013B6C 02 BF 01 1A 		      	mov  	bp,sp
013B70 E6 ED 31 00 		      	push 	24[bp]
013B74 39 C4 07 00 		      	bsr  	putstr_
013B78 14 EF 11 00 		      	addui	sp,sp,#8
                	FMTKc_46:
013B7C 3A 00 00 00 		      	bra  	FMTKc_46
                	FMTKc_48:
013B80 82 ED 01 1A 		      	mov  	sp,bp
013B84 57 BF 11 00 		      	pop  	bp
013B88 57 CF 11 00 		      	pop  	xlr
013B8C 57 FF 11 00 		      	pop  	lr
013B90 37 FF 01 00 		      	rtl  	#0
                	FMTKc_47:
013B94 C6 FD 11 00 		      	lw   	lr,8[bp]
013B98 E3 FD 21 00 		      	sw   	lr,16[bp]
013B9C BA FC FF FF 		      	bra  	FMTKc_48
                	endpublic
                	
                	public code IdleTask_:
013BA0 15 EF 21 00 		      	subui	sp,sp,#16
013BA4 E7 ED 01 00 		      	push 	bp
013BA8 02 BF 01 1A 		      	mov  	bp,sp
                	FMTKc_50:
013BAC 0A 30 02 00 		      	ldi  	r3,#1
013BB0 BD 01 08 00 		      	beq  	r3,FMTKc_51
013BB4 7C D0 FF 00 		      	     	             inc  $FFD00000+228
013BB8 64 10 C8 01 
                	         
013BBC 3A FE FF FF 		      	bra  	FMTKc_50
                	FMTKc_51:
                	FMTKc_52:
013BC0 82 ED 01 1A 		      	mov  	sp,bp
013BC4 57 BF 11 00 		      	pop  	bp
013BC8 37 FF 21 00 		      	rtl  	#16
                	endpublic
                	
                		code
013BCC 00 00 00 00 		align	1
                	
                	public code FMTK_ExitTask_:
013BD0 E7 EF 01 00 		      	push 	lr
013BD4 67 EE 01 00 		      	push 	xlr
013BD8 E7 ED 01 00 		      	push 	bp
013BDC 7C 01 00 00 		      	ldi  	xlr,#FMTKc_54
013BE0 0A C0 D1 79 
013BE4 02 BF 01 1A 		      	mov  	bp,sp
013BE8 15 EF 41 00 		      	subui	sp,sp,#32
013BEC E7 E5 01 00 		      	push 	r11
013BF0 7C 1A 01 00 		      	ldi  	r11,#tcbs_
013BF4 0A B0 00 68 
013BF8 02 10 18 3E 		      	     	mfspr r1,ivno 
013BFC B9 47 03 00 		      	bsr  	GetRunningTCB_
013C00 82 30 00 1A 		      	mov  	r3,r1
013C04 82 31 00 22 		      	sxc  	r3,r3
013C08 E1 3D FC FF 		      	sc   	r3,-2[bp]
013C0C 65 E0 FF FF 		      	push 	#-1
013C10 7C 0D 01 00 		      	push 	#sys_sema_
013C14 65 E0 C1 E0 
013C18 39 9B 06 00 		      	bsr  	LockSemaphore_
013C1C 82 30 00 1A 		      	mov  	r3,r1
013C20 BD 01 54 00 		      	beq  	r3,FMTKc_55
013C24 C2 3D FC FF 		      	lc   	r3,-2[bp]
013C28 E7 E1 01 00 		      	push 	r3
013C2C B9 70 03 00 		      	bsr  	RemoveFromReadyList_
013C30 C2 3D FC FF 		      	lc   	r3,-2[bp]
013C34 E7 E1 01 00 		      	push 	r3
013C38 B9 BD 03 00 		      	bsr  	RemoveFromTimeoutList_
013C3C E3 0D C0 FF 		      	sw   	r0,-32[bp]
                	FMTKc_57:
013C40 C6 3D C0 FF 		      	lw   	r3,-32[bp]
013C44 86 41 08 00 		      	cmp  	r4,r3,#4
013C48 3D 32 3A 00 		      	bge  	r4,FMTKc_58
013C4C C6 4D D0 FF 		      	lw   	r4,-24[bp]
013C50 02 32 02 70 		      	asli 	r3,r4,#1
013C54 C2 7D FC FF 		      	lc   	r7,-2[bp]
013C58 82 63 14 70 		      	asli 	r6,r7,#10
013C5C 02 53 16 28 		      	addu 	r5,r6,r11
013C60 94 42 80 05 		      	addu 	r4,r5,#704
013C64 4A 32 06 00 		      	lc   	r3,0[r4+r3]
013C68 BD 41 26 00 		      	blt  	r3,FMTKc_60
013C6C C6 5D C0 FF 		      	lw   	r5,-32[bp]
013C70 82 42 02 70 		      	asli 	r4,r5,#1
013C74 C2 7D FC FF 		      	lc   	r7,-2[bp]
013C78 82 63 14 70 		      	asli 	r6,r7,#10
013C7C 02 53 16 28 		      	addu 	r5,r6,r11
013C80 02 32 0A 28 		      	addu 	r3,r4,r5
013C84 C2 31 80 05 		      	lc   	r3,704[r3]
013C88 E7 E1 01 00 		      	push 	r3
013C8C 39 90 01 00 		      	bsr  	FMTK_FreeMbx_
013C90 14 EF 11 00 		      	addui	sp,sp,#8
013C94 C6 5D C0 FF 		      	lw   	r5,-32[bp]
013C98 82 42 02 70 		      	asli 	r4,r5,#1
013C9C C2 7D FC FF 		      	lc   	r7,-2[bp]
013CA0 82 63 14 70 		      	asli 	r6,r7,#10
013CA4 02 53 16 28 		      	addu 	r5,r6,r11
013CA8 02 32 0A 28 		      	addu 	r3,r4,r5
013CAC 0A 40 FE FF 		      	ldi  	r4,#-1
013CB0 E1 41 80 05 		      	sc   	r4,704[r3]
                	FMTKc_60:
                	FMTKc_59:
013CB4 E4 1D C0 FF 		      	inc  	-32[bp],#1
013CB8 3A F1 FF FF 		      	bra  	FMTKc_57
                	FMTKc_58:
013CBC 7C 0D 01 00 		      	push 	#sys_sema_
013CC0 65 E0 C1 E0 
013CC4 B9 93 06 00 		      	bsr  	UnlockSemaphore_
                	FMTKc_55:
013CC8 38 0F 04 80 		      	     	int #2 
                	FMTKc_53:
013CCC 3A 00 00 00 		      	bra  	FMTKc_53
                	FMTKc_62:
013CD0 57 BF 10 00 		      	pop  	r11
013CD4 82 ED 01 1A 		      	mov  	sp,bp
013CD8 57 BF 11 00 		      	pop  	bp
013CDC 57 CF 11 00 		      	pop  	xlr
013CE0 57 FF 11 00 		      	pop  	lr
013CE4 37 FF 01 00 		      	rtl  	#0
                	FMTKc_54:
013CE8 C6 FD 11 00 		      	lw   	lr,8[bp]
013CEC E3 FD 21 00 		      	sw   	lr,16[bp]
013CF0 3A FC FF FF 		      	bra  	FMTKc_62
                	endpublic
                	
                		code
013CF4 00 00 00 00 		align	1
013CF8 00 00 00 00 
013CFC 00 00 00 00 
                	
                	public code FMTK_StartTask_:
013D00 E7 EF 01 00 		      	push 	lr
013D04 67 EE 01 00 		      	push 	xlr
013D08 E7 ED 01 00 		      	push 	bp
013D0C 7C 01 00 00 		      	ldi  	xlr,#FMTKc_63
013D10 0A C0 49 7C 
013D14 02 BF 01 1A 		      	mov  	bp,sp
013D18 15 EF 31 00 		      	subui	sp,sp,#24
013D1C E7 E5 01 00 		      	push 	r11
013D20 02 10 18 3E 		      	     	mfspr r1,ivno 
013D24 65 E0 FF FF 		      	push 	#-1
013D28 7C 0D 01 00 		      	push 	#sys_sema_
013D2C 65 E0 C1 E0 
013D30 39 78 06 00 		      	bsr  	LockSemaphore_
013D34 82 30 00 1A 		      	mov  	r3,r1
013D38 BD 01 1C 00 		      	beq  	r3,FMTKc_64
013D3C 7C 1E 01 00 		      	lc   	r3,freeTCB_
013D40 42 30 00 68 
013D44 E1 3D FC FF 		      	sc   	r3,-2[bp]
013D48 C2 5D FC FF 		      	lc   	r5,-2[bp]
013D4C 82 42 14 70 		      	asli 	r4,r5,#10
013D50 7C 1A 01 00 		      	addu 	r3,r4,#tcbs_
013D54 14 32 00 68 
013D58 C2 41 E0 04 		      	lc   	r4,624[r3]
013D5C 7C 1E 01 00 		      	sc   	r4,freeTCB_
013D60 61 40 00 68 
013D64 7C 0D 01 00 		      	push 	#sys_sema_
013D68 65 E0 C1 E0 
013D6C B9 7E 06 00 		      	bsr  	UnlockSemaphore_
                	FMTKc_64:
013D70 C2 5D FC FF 		      	lc   	r5,-2[bp]
013D74 82 42 14 70 		      	asli 	r4,r5,#10
013D78 7C 1A 01 00 		      	addu 	r3,r4,#tcbs_
013D7C 14 32 00 68 
013D80 82 B1 00 1A 		      	mov  	r11,r3
013D84 C6 3D 40 00 		      	lw   	r3,32[bp]
013D88 E0 35 9C 05 		      	sb   	r3,718[r11]
013D8C C6 3D 30 00 		      	lw   	r3,24[bp]
013D90 E0 35 98 05 		      	sb   	r3,716[r11]
013D94 C0 3D 70 00 		      	lb   	r3,56[bp]
013D98 E0 35 9E 05 		      	sb   	r3,719[r11]
013D9C C6 3D 60 00 		      	lw   	r3,48[bp]
013DA0 E3 35 80 02 		      	sw   	r3,320[r11]
013DA4 7C 01 00 00 		      	ldi  	r3,#FMTK_ExitTask_
013DA8 0A 30 A0 77 
013DAC E3 35 60 04 		      	sw   	r3,560[r11]
013DB0 C6 45 10 05 		      	lw   	r4,648[r11]
013DB4 14 32 F0 3F 		      	addu 	r3,r4,#8184
013DB8 E3 35 70 04 		      	sw   	r3,568[r11]
013DBC C6 3D 50 00 		      	lw   	r3,40[bp]
013DC0 E3 35 A0 04 		      	sw   	r3,592[r11]
013DC4 7C 00 40 01 		      	ldi  	r3,#5368709120
013DC8 0A 30 00 00 
013DCC E3 35 D0 04 		      	sw   	r3,616[r11]
013DD0 E3 05 A0 05 		      	sw   	r0,720[r11]
013DD4 E3 05 B0 05 		      	sw   	r0,728[r11]
013DD8 E3 05 C0 05 		      	sw   	r0,736[r11]
013DDC 65 E0 FF FF 		      	push 	#-1
013DE0 7C 0D 01 00 		      	push 	#sys_sema_
013DE4 65 E0 C1 E0 
013DE8 39 61 06 00 		      	bsr  	LockSemaphore_
013DEC 82 30 00 1A 		      	mov  	r3,r1
013DF0 BD 01 08 00 		      	beq  	r3,FMTKc_66
013DF4 C2 3D FC FF 		      	lc   	r3,-2[bp]
013DF8 E7 E1 01 00 		      	push 	r3
013DFC B9 0E 03 00 		      	bsr  	InsertIntoReadyList_
                	FMTKc_66:
013E00 7C 0D 01 00 		      	push 	#sys_sema_
013E04 65 E0 C1 E0 
013E08 39 6B 06 00 		      	bsr  	UnlockSemaphore_
                	FMTKc_68:
013E0C 57 BF 10 00 		      	pop  	r11
013E10 82 ED 01 1A 		      	mov  	sp,bp
013E14 57 BF 11 00 		      	pop  	bp
013E18 57 CF 11 00 		      	pop  	xlr
013E1C 57 FF 11 00 		      	pop  	lr
013E20 37 FF 01 00 		      	rtl  	#0
                	FMTKc_63:
013E24 C6 FD 11 00 		      	lw   	lr,8[bp]
013E28 E3 FD 21 00 		      	sw   	lr,16[bp]
013E2C 3A FC FF FF 		      	bra  	FMTKc_68
                	endpublic
                	
                		code
                		align	16                	
                	public code FMTK_Sleep_:
013E30 E7 EF 01 00 		      	push 	lr
013E34 67 EE 01 00 		      	push 	xlr
013E38 E7 ED 01 00 		      	push 	bp
013E3C 7C 01 00 00 		      	ldi  	xlr,#FMTKc_69
013E40 0A C0 79 7D 
013E44 02 BF 01 1A 		      	mov  	bp,sp
013E48 15 EF 11 00 		      	subui	sp,sp,#8
013E4C 02 10 18 3E 		      	     	mfspr r1,ivno 
013E50 65 E0 FF FF 		      	push 	#-1
013E54 7C 0D 01 00 		      	push 	#sys_sema_
013E58 65 E0 C1 E0 
013E5C B9 52 06 00 		      	bsr  	LockSemaphore_
013E60 82 30 00 1A 		      	mov  	r3,r1
013E64 BD 01 1E 00 		      	beq  	r3,FMTKc_70
013E68 39 FA 02 00 		      	bsr  	GetRunningTCB_
013E6C 82 30 00 1A 		      	mov  	r3,r1
013E70 82 31 00 22 		      	sxc  	r3,r3
013E74 E1 3D FC FF 		      	sc   	r3,-2[bp]
013E78 C2 3D FC FF 		      	lc   	r3,-2[bp]
013E7C E7 E1 01 00 		      	push 	r3
013E80 39 26 03 00 		      	bsr  	RemoveFromReadyList_
013E84 E6 ED 31 00 		      	push 	24[bp]
013E88 C2 3D FC FF 		      	lc   	r3,-2[bp]
013E8C E7 E1 01 00 		      	push 	r3
013E90 39 49 03 00 		      	bsr  	InsertIntoTimeoutList_
013E94 7C 0D 01 00 		      	push 	#sys_sema_
013E98 65 E0 C1 E0 
013E9C B9 58 06 00 		      	bsr  	UnlockSemaphore_
                	FMTKc_70:
013EA0 38 0F 04 80 		      	     	int #2 
013EA4 0A 10 00 00 		      	ldi  	r1,#0
                	FMTKc_72:
013EA8 82 ED 01 1A 		      	mov  	sp,bp
013EAC 57 BF 11 00 		      	pop  	bp
013EB0 57 CF 11 00 		      	pop  	xlr
013EB4 57 FF 11 00 		      	pop  	lr
013EB8 37 FF 01 00 		      	rtl  	#0
                	FMTKc_69:
013EBC C6 FD 11 00 		      	lw   	lr,8[bp]
013EC0 E3 FD 21 00 		      	sw   	lr,16[bp]
013EC4 BA FC FF FF 		      	bra  	FMTKc_72
                	endpublic
                	
                	public code FMTK_SetTaskPriority_:
013EC8 E7 EF 01 00 		      	push 	lr
013ECC 67 EE 01 00 		      	push 	xlr
013ED0 E7 ED 01 00 		      	push 	bp
013ED4 7C 01 00 00 		      	ldi  	xlr,#FMTKc_73
013ED8 0A C0 29 7F 
013EDC 02 BF 01 1A 		      	mov  	bp,sp
013EE0 15 EF 11 00 		      	subui	sp,sp,#8
013EE4 E7 E5 01 00 		      	push 	r11
013EE8 02 10 18 3E 		      	     	mfspr r1,ivno 
013EEC C6 3D 40 00 		      	lw   	r3,32[bp]
013EF0 86 41 7E 00 		      	cmp  	r4,r3,#63
013EF4 3D 22 06 00 		      	bgt  	r4,FMTKc_76
013EF8 C6 3D 40 00 		      	lw   	r3,32[bp]
013EFC BD 31 10 00 		      	bge  	r3,FMTKc_74
                	FMTKc_76:
013F00 0A 10 08 00 		      	ldi  	r1,#4
                	FMTKc_77:
013F04 57 BF 10 00 		      	pop  	r11
013F08 82 ED 01 1A 		      	mov  	sp,bp
013F0C 57 BF 11 00 		      	pop  	bp
013F10 57 CF 11 00 		      	pop  	xlr
013F14 57 FF 11 00 		      	pop  	lr
013F18 37 FF 01 00 		      	rtl  	#0
                	FMTKc_74:
013F1C 65 E0 FF FF 		      	push 	#-1
013F20 7C 0D 01 00 		      	push 	#sys_sema_
013F24 65 E0 C1 E0 
013F28 39 39 06 00 		      	bsr  	LockSemaphore_
013F2C 82 30 00 1A 		      	mov  	r3,r1
013F30 BD 01 2E 00 		      	beq  	r3,FMTKc_78
013F34 C2 5D 30 00 		      	lc   	r5,24[bp]
013F38 82 42 14 70 		      	asli 	r4,r5,#10
013F3C 7C 1A 01 00 		      	addu 	r3,r4,#tcbs_
013F40 14 32 00 68 
013F44 82 B1 00 1A 		      	mov  	r11,r3
013F48 C0 45 9A 05 		      	lb   	r4,717[r11]
013F4C 0C 32 30 00 		      	and  	r3,r4,#24
013F50 BD 01 14 00 		      	beq  	r3,FMTKc_80
013F54 C2 3D 30 00 		      	lc   	r3,24[bp]
013F58 E7 E1 01 00 		      	push 	r3
013F5C B9 0A 03 00 		      	bsr  	RemoveFromReadyList_
013F60 C6 3D 40 00 		      	lw   	r3,32[bp]
013F64 E0 35 98 05 		      	sb   	r3,716[r11]
013F68 C2 3D 30 00 		      	lc   	r3,24[bp]
013F6C E7 E1 01 00 		      	push 	r3
013F70 39 E0 02 00 		      	bsr  	InsertIntoReadyList_
013F74 BA 01 00 00 		      	bra  	FMTKc_81
                	FMTKc_80:
013F78 C6 3D 40 00 		      	lw   	r3,32[bp]
013F7C E0 35 98 05 		      	sb   	r3,716[r11]
                	FMTKc_81:
013F80 7C 0D 01 00 		      	push 	#sys_sema_
013F84 65 E0 C1 E0 
013F88 39 3B 06 00 		      	bsr  	UnlockSemaphore_
                	FMTKc_78:
013F8C 0A 10 00 00 		      	ldi  	r1,#0
013F90 BA EE FF FF 		      	bra  	FMTKc_77
                	FMTKc_73:
013F94 C6 FD 11 00 		      	lw   	lr,8[bp]
013F98 E3 FD 21 00 		      	sw   	lr,16[bp]
013F9C 3A ED FF FF 		      	bra  	FMTKc_77
                	endpublic
                	
                	public code FMTKInitialize_:
013FA0 E7 EF 01 00 		      	push 	lr
013FA4 67 EE 01 00 		      	push 	xlr
013FA8 E7 ED 01 00 		      	push 	bp
013FAC 7C 01 00 00 		      	ldi  	xlr,#FMTKc_82
013FB0 0A C0 A1 88 
013FB4 02 BF 01 1A 		      	mov  	bp,sp
013FB8 15 EF 11 00 		      	subui	sp,sp,#8
013FBC E7 E5 01 00 		      	push 	r11
013FC0 67 E6 01 00 		      	push 	r12
013FC4 7C 1A 01 00 		      	ldi  	r11,#tcbs_
013FC8 0A B0 00 68 
013FCC FC C2 00 00 		      	ldi  	r12,#jcbs_
013FD0 0A C0 00 30 
013FD4 02 10 18 3E 		      	     	mfspr r1,ivno 
013FD8 0A 10 28 00 		      	     	            ldi   r1,#20
013FDC 7C DC FF 00 	            sc    r1,LEDS
013FE0 61 10 00 0C 
                	        
013FE4 7C 0D 01 00 		      	sc   	r0,hasUltraHighPriorityTasks_
013FE8 61 00 E0 E0 
013FEC 7C 0D 01 00 		      	sw   	r0,missed_ticks_
013FF0 63 00 F0 E0 
013FF4 7C 0D 01 00 		      	sw   	r0,IOFocusTbl_
013FF8 63 00 50 E0 
013FFC 7C 0D 01 00 		      	sw   	r0,IOFocusNdx_
014000 63 00 40 E0 
014004 7C 0D 01 00 		      	push 	#sys_sema_
014008 65 E0 C1 E0 
01400C B9 2A 06 00 		      	bsr  	UnlockSemaphore_
014010 7C 0D 01 00 		      	push 	#iof_sema_
014014 65 E0 B1 E0 
014018 39 29 06 00 		      	bsr  	UnlockSemaphore_
01401C E3 0D F0 FF 		      	sw   	r0,-8[bp]
                	FMTKc_83:
014020 C6 3D F0 FF 		      	lw   	r3,-8[bp]
014024 7C 00 00 00 		      	cmp  	r4,r3,#16384
014028 86 41 00 80 
01402C 3D 32 12 00 		      	bge  	r4,FMTKc_84
014030 C6 4D F0 FF 		      	lw   	r4,-8[bp]
014034 14 32 02 00 		      	addu 	r3,r4,#1
014038 C6 5D F0 FF 		      	lw   	r5,-8[bp]
01403C 82 42 0A 70 		      	asli 	r4,r5,#5
014040 7C 05 01 00 		      	sc   	r3,message_[r4]
014044 61 32 00 E0 
                	FMTKc_85:
014048 E4 1D F0 FF 		      	inc  	-8[bp],#1
01404C BA FA FF FF 		      	bra  	FMTKc_83
                	FMTKc_84:
014050 7C 05 01 00 		      	ldi  	r3,#message_
014054 0A 30 00 E0 
014058 0A 40 FE FF 		      	ldi  	r4,#-1
01405C FC 07 00 00 		      	sc   	r4,524256[r3]
014060 E1 41 C0 FF 
014064 7C 0D 01 00 		      	sc   	r0,freeMSG_
014068 61 00 20 E0 
01406C 0A 10 3C 00 		      	     	            ldi   r1,#30
014070 7C DC FF 00 	            sc    r1,LEDS
014074 61 10 00 0C 
                	        
014078 E3 0D F0 FF 		      	sw   	r0,-8[bp]
                	FMTKc_86:
01407C C6 3D F0 FF 		      	lw   	r3,-8[bp]
014080 86 41 66 00 		      	cmp  	r4,r3,#51
014084 3D 32 7C 00 		      	bge  	r4,FMTKc_87
014088 C6 3D F0 FF 		      	lw   	r3,-8[bp]
01408C C6 6D F0 FF 		      	lw   	r6,-8[bp]
014090 02 53 16 70 		      	asli 	r5,r6,#11
014094 82 42 18 28 		      	addu 	r4,r5,r12
014098 60 32 24 0D 		      	sb   	r3,1682[r4]
01409C C6 3D F0 FF 		      	lw   	r3,-8[bp]
0140A0 BD 11 2A 00 		      	bne  	r3,FMTKc_89
0140A4 C6 5D F0 FF 		      	lw   	r5,-8[bp]
0140A8 82 42 16 70 		      	asli 	r4,r5,#11
0140AC 02 32 18 28 		      	addu 	r3,r4,r12
0140B0 7C D0 FF 00 		      	ldi  	r4,#4291821568
0140B4 0A 40 00 00 
0140B8 E3 41 A0 0C 		      	sw   	r4,1616[r3]
0140BC C6 5D F0 FF 		      	lw   	r5,-8[bp]
0140C0 82 42 16 70 		      	asli 	r4,r5,#11
0140C4 02 32 18 28 		      	addu 	r3,r4,r12
0140C8 E3 01 B0 0C 		      	sw   	r0,1624[r3]
0140CC C6 5D F0 FF 		      	lw   	r5,-8[bp]
0140D0 82 42 16 70 		      	asli 	r4,r5,#11
0140D4 02 32 18 28 		      	addu 	r3,r4,r12
0140D8 FC 26 00 00 		      	ldi  	r4,#2537472
0140DC 0A 40 00 70 
0140E0 E2 41 D0 0C 		      	sh   	r4,1640[r3]
0140E4 67 E6 01 00 		      	push 	r12
0140E8 39 3E 06 00 		      	bsr  	RequestIOFocus_
0140EC 14 EF 11 00 		      	addui	sp,sp,#8
0140F0 BA 07 00 00 		      	bra  	FMTKc_90
                	FMTKc_89:
0140F4 C6 5D F0 FF 		      	lw   	r5,-8[bp]
0140F8 82 42 16 70 		      	asli 	r4,r5,#11
0140FC 02 32 18 28 		      	addu 	r3,r4,r12
014100 E3 01 A0 0C 		      	sw   	r0,1616[r3]
014104 C6 5D F0 FF 		      	lw   	r5,-8[bp]
014108 82 42 16 70 		      	asli 	r4,r5,#11
01410C 02 32 18 28 		      	addu 	r3,r4,r12
014110 E3 01 B0 0C 		      	sw   	r0,1624[r3]
014114 C6 5D F0 FF 		      	lw   	r5,-8[bp]
014118 82 42 16 70 		      	asli 	r4,r5,#11
01411C 02 32 18 28 		      	addu 	r3,r4,r12
014120 FC 26 00 00 		      	ldi  	r4,#2537472
014124 0A 40 00 70 
014128 E2 41 D0 0C 		      	sh   	r4,1640[r3]
                	FMTKc_90:
01412C C6 5D F0 FF 		      	lw   	r5,-8[bp]
014130 82 42 16 70 		      	asli 	r4,r5,#11
014134 02 32 18 28 		      	addu 	r3,r4,r12
014138 0A 40 3E 00 		      	ldi  	r4,#31
01413C E1 41 C0 0C 		      	sc   	r4,1632[r3]
014140 C6 5D F0 FF 		      	lw   	r5,-8[bp]
014144 82 42 16 70 		      	asli 	r4,r5,#11
014148 02 32 18 28 		      	addu 	r3,r4,r12
01414C 0A 40 A8 00 		      	ldi  	r4,#84
014150 E1 41 C4 0C 		      	sc   	r4,1634[r3]
014154 C6 5D F0 FF 		      	lw   	r5,-8[bp]
014158 82 42 16 70 		      	asli 	r4,r5,#11
01415C 02 32 18 28 		      	addu 	r3,r4,r12
014160 E1 01 C8 0C 		      	sc   	r0,1636[r3]
014164 C6 5D F0 FF 		      	lw   	r5,-8[bp]
014168 82 42 16 70 		      	asli 	r4,r5,#11
01416C 02 32 18 28 		      	addu 	r3,r4,r12
014170 E1 01 CC 0C 		      	sc   	r0,1638[r3]
                	FMTKc_88:
014174 E4 1D F0 FF 		      	inc  	-8[bp],#1
014178 BA E0 FF FF 		      	bra  	FMTKc_86
                	FMTKc_87:
01417C 0A 10 50 00 		      	     	            ldi   r1,#40
014180 7C DC FF 00 	            sc    r1,LEDS
014184 61 10 00 0C 
                	        
014188 E3 0D F0 FF 		      	sw   	r0,-8[bp]
                	FMTKc_91:
01418C C6 3D F0 FF 		      	lw   	r3,-8[bp]
014190 86 41 10 00 		      	cmp  	r4,r3,#8
014194 3D 32 10 00 		      	bge  	r4,FMTKc_92
014198 C6 4D F0 FF 		      	lw   	r4,-8[bp]
01419C 02 32 02 70 		      	asli 	r3,r4,#1
0141A0 0A 40 FE FF 		      	ldi  	r4,#-1
0141A4 7C 1E 01 00 		      	sc   	r4,readyQ_[r3]
0141A8 E1 41 20 68 
                	FMTKc_93:
0141AC E4 1D F0 FF 		      	inc  	-8[bp],#1
0141B0 BA FB FF FF 		      	bra  	FMTKc_91
                	FMTKc_92:
0141B4 E3 0D F0 FF 		      	sw   	r0,-8[bp]
                	FMTKc_94:
0141B8 C6 3D F0 FF 		      	lw   	r3,-8[bp]
0141BC 86 41 00 02 		      	cmp  	r4,r3,#256
0141C0 3D 32 BC 00 		      	bge  	r4,FMTKc_95
0141C4 C6 3D F0 FF 		      	lw   	r3,-8[bp]
0141C8 C6 6D F0 FF 		      	lw   	r6,-8[bp]
0141CC 02 53 14 70 		      	asli 	r5,r6,#10
0141D0 82 42 16 28 		      	addu 	r4,r5,r11
0141D4 61 32 94 05 		      	sc   	r3,714[r4]
0141D8 C6 4D F0 FF 		      	lw   	r4,-8[bp]
0141DC 14 32 02 00 		      	addu 	r3,r4,#1
0141E0 C6 6D F0 FF 		      	lw   	r6,-8[bp]
0141E4 02 53 14 70 		      	asli 	r5,r6,#10
0141E8 82 42 16 28 		      	addu 	r4,r5,r11
0141EC 61 32 E0 04 		      	sc   	r3,624[r4]
0141F0 C6 5D F0 FF 		      	lw   	r5,-8[bp]
0141F4 82 42 14 70 		      	asli 	r4,r5,#10
0141F8 02 32 16 28 		      	addu 	r3,r4,r11
0141FC 0A 40 FE FF 		      	ldi  	r4,#-1
014200 E1 41 E4 04 		      	sc   	r4,626[r3]
014204 C6 5D F0 FF 		      	lw   	r5,-8[bp]
014208 82 42 14 70 		      	asli 	r4,r5,#10
01420C 02 32 16 28 		      	addu 	r3,r4,r11
014210 E0 01 9A 05 		      	sb   	r0,717[r3]
014214 C6 5D F0 FF 		      	lw   	r5,-8[bp]
014218 82 42 14 70 		      	asli 	r4,r5,#10
01421C 02 32 16 28 		      	addu 	r3,r4,r11
014220 0A 40 70 00 		      	ldi  	r4,#56
014224 E0 41 98 05 		      	sb   	r4,716[r3]
014228 C6 5D F0 FF 		      	lw   	r5,-8[bp]
01422C 82 42 14 70 		      	asli 	r4,r5,#10
014230 02 32 16 28 		      	addu 	r3,r4,r11
014234 E0 01 9C 05 		      	sb   	r0,718[r3]
014238 7C E4 00 00 		      	ldi  	r4,#sys_stacks_
01423C 0A 40 00 A0 
014240 14 32 F0 1F 		      	addu 	r3,r4,#4088
014244 C6 6D F0 FF 		      	lw   	r6,-8[bp]
014248 02 53 14 70 		      	asli 	r5,r6,#10
01424C 82 42 16 28 		      	addu 	r4,r5,r11
014250 63 32 F0 04 		      	sw   	r3,632[r4]
014254 7C F4 00 00 		      	ldi  	r4,#bios_stacks_
014258 0A 40 00 A0 
01425C 14 32 F0 1F 		      	addu 	r3,r4,#4088
014260 C6 6D F0 FF 		      	lw   	r6,-8[bp]
014264 02 53 14 70 		      	asli 	r5,r6,#10
014268 82 42 16 28 		      	addu 	r4,r5,r11
01426C 63 32 00 05 		      	sw   	r3,640[r4]
014270 7C C4 00 00 		      	ldi  	r4,#stacks_
014274 0A 40 00 A0 
014278 14 32 F0 3F 		      	addu 	r3,r4,#8184
01427C C6 6D F0 FF 		      	lw   	r6,-8[bp]
014280 02 53 14 70 		      	asli 	r5,r6,#10
014284 82 42 16 28 		      	addu 	r4,r5,r11
014288 63 32 10 05 		      	sw   	r3,648[r4]
01428C C6 5D F0 FF 		      	lw   	r5,-8[bp]
014290 82 42 14 70 		      	asli 	r4,r5,#10
014294 02 32 16 28 		      	addu 	r3,r4,r11
014298 E0 01 9E 05 		      	sb   	r0,719[r3]
01429C C6 5D F0 FF 		      	lw   	r5,-8[bp]
0142A0 82 42 14 70 		      	asli 	r4,r5,#10
0142A4 02 32 16 28 		      	addu 	r3,r4,r11
0142A8 E3 01 20 05 		      	sw   	r0,656[r3]
0142AC C6 5D F0 FF 		      	lw   	r5,-8[bp]
0142B0 82 42 14 70 		      	asli 	r4,r5,#10
0142B4 02 32 16 28 		      	addu 	r3,r4,r11
0142B8 0A 40 FE FF 		      	ldi  	r4,#-1
0142BC E1 41 80 05 		      	sc   	r4,704[r3]
0142C0 C6 5D F0 FF 		      	lw   	r5,-8[bp]
0142C4 82 42 14 70 		      	asli 	r4,r5,#10
0142C8 02 32 16 28 		      	addu 	r3,r4,r11
0142CC 0A 40 FE FF 		      	ldi  	r4,#-1
0142D0 E1 41 84 05 		      	sc   	r4,706[r3]
0142D4 C6 5D F0 FF 		      	lw   	r5,-8[bp]
0142D8 82 42 14 70 		      	asli 	r4,r5,#10
0142DC 02 32 16 28 		      	addu 	r3,r4,r11
0142E0 0A 40 FE FF 		      	ldi  	r4,#-1
0142E4 E1 41 88 05 		      	sc   	r4,708[r3]
0142E8 C6 5D F0 FF 		      	lw   	r5,-8[bp]
0142EC 82 42 14 70 		      	asli 	r4,r5,#10
0142F0 02 32 16 28 		      	addu 	r3,r4,r11
0142F4 0A 40 FE FF 		      	ldi  	r4,#-1
0142F8 E1 41 8C 05 		      	sc   	r4,710[r3]
0142FC C6 3D F0 FF 		      	lw   	r3,-8[bp]
014300 86 41 04 00 		      	cmp  	r4,r3,#2
014304 3D 32 16 00 		      	bge  	r4,FMTKc_97
014308 C6 3D F0 FF 		      	lw   	r3,-8[bp]
01430C C6 6D F0 FF 		      	lw   	r6,-8[bp]
014310 02 53 14 70 		      	asli 	r5,r6,#10
014314 82 42 16 28 		      	addu 	r4,r5,r11
014318 60 32 9C 05 		      	sb   	r3,718[r4]
01431C C6 5D F0 FF 		      	lw   	r5,-8[bp]
014320 82 42 14 70 		      	asli 	r4,r5,#10
014324 02 32 16 28 		      	addu 	r3,r4,r11
014328 0A 40 30 00 		      	ldi  	r4,#24
01432C E0 41 98 05 		      	sb   	r4,716[r3]
                	FMTKc_97:
                	FMTKc_96:
014330 E4 1D F0 FF 		      	inc  	-8[bp],#1
014334 BA D0 FF FF 		      	bra  	FMTKc_94
                	FMTKc_95:
014338 0A 30 FE FF 		      	ldi  	r3,#-1
01433C FC 03 00 00 		      	sc   	r3,261744[r11]
014340 E1 35 E0 FC 
014344 0A 30 04 00 		      	ldi  	r3,#2
014348 7C 1E 01 00 		      	sc   	r3,freeTCB_
01434C 61 30 00 68 
014350 0A 10 54 00 		      	     	            ldi   r1,#42
014354 7C DC FF 00 	            sc    r1,LEDS
014358 61 10 00 0C 
                	        
01435C 65 E0 01 00 		      	push 	#0
014360 39 62 02 00 		      	bsr  	InsertIntoReadyList_
014364 65 E0 03 00 		      	push 	#1
014368 39 61 02 00 		      	bsr  	InsertIntoReadyList_
01436C 0A 30 10 00 		      	ldi  	r3,#8
014370 E0 35 9A 05 		      	sb   	r3,717[r11]
014374 0A 30 10 00 		      	ldi  	r3,#8
014378 E0 35 9A 0D 		      	sb   	r3,1741[r11]
01437C 0A 10 58 00 		      	     	            ldi   r1,#44
014380 7C DC FF 00 	            sc    r1,LEDS
014384 61 10 00 0C 
                	        
014388 65 E0 01 00 		      	push 	#0
01438C B9 57 02 00 		      	bsr  	SetRunningTCB_
014390 0A 30 FE FF 		      	ldi  	r3,#-1
014394 7C 1E 01 00 		      	sc   	r3,TimeoutList_
014398 61 30 10 68 
01439C 7C 01 00 00 		      	push 	#FMTK_SystemCall_
0143A0 65 E0 31 6C 
0143A4 65 E0 09 00 		      	push 	#4
0143A8 B9 D6 FD FF 		      	bsr  	set_vector_
0143AC 14 EF 21 00 		      	addui	sp,sp,#16
0143B0 7C 01 00 00 		      	push 	#FMTK_SchedulerIRQ_
0143B4 65 E0 B1 6F 
0143B8 65 E0 05 00 		      	push 	#2
0143BC 39 D4 FD FF 		      	bsr  	set_vector_
0143C0 14 EF 21 00 		      	addui	sp,sp,#16
0143C4 7C 01 00 00 		      	push 	#FMTK_SchedulerIRQ_
0143C8 65 E0 B1 6F 
0143CC 65 E0 87 03 		      	push 	#451
0143D0 B9 D1 FD FF 		      	bsr  	set_vector_
0143D4 14 EF 21 00 		      	addui	sp,sp,#16
0143D8 65 E0 01 00 		      	push 	#0
0143DC 65 E0 01 00 		      	push 	#0
0143E0 7C 01 00 00 		      	push 	#IdleTask_
0143E4 65 E0 41 77 
0143E8 65 E0 01 00 		      	push 	#0
0143EC 65 E0 71 00 		      	push 	#56
0143F0 39 22 FF FF 		      	bsr  	FMTK_StartTask_
0143F4 14 EF 51 00 		      	addui	sp,sp,#40
0143F8 65 E0 01 00 		      	push 	#0
0143FC 65 E0 01 00 		      	push 	#0
014400 7C 01 00 00 		      	push 	#IdleTask_
014404 65 E0 41 77 
014408 65 E0 03 00 		      	push 	#1
01440C 65 E0 71 00 		      	push 	#56
014410 39 1E FF FF 		      	bsr  	FMTK_StartTask_
014414 14 EF 51 00 		      	addui	sp,sp,#40
014418 7C 34 12 00 		      	ldi  	r3,#305419896
01441C 0A 30 F0 AC 
014420 FC C2 00 00 		      	sw   	r3,FMTK_Inited_
014424 63 30 20 28 
014428 0A 10 64 00 		      	     	            ldi   r1,#50
01442C 7C DC FF 00 	            sc    r1,LEDS
014430 61 10 00 0C 
                	        
                	FMTKc_99:
014434 57 CF 10 00 		      	pop  	r12
014438 57 BF 10 00 		      	pop  	r11
01443C 82 ED 01 1A 		      	mov  	sp,bp
014440 57 BF 11 00 		      	pop  	bp
014444 57 CF 11 00 		      	pop  	xlr
014448 57 FF 11 00 		      	pop  	lr
01444C 37 FF 01 00 		      	rtl  	#0
                	FMTKc_82:
014450 C6 FD 11 00 		      	lw   	lr,8[bp]
014454 E3 FD 21 00 		      	sw   	lr,16[bp]
014458 BA FB FF FF 		      	bra  	FMTKc_99
                	endpublic
                	
                		code
01445C 00 00 00 00 		align	1
                	
                		code
                		align	16                	
                	QueueMsg_:
014460 E7 EF 01 00 		      	push 	lr
014464 67 EE 01 00 		      	push 	xlr
014468 E7 ED 01 00 		      	push 	bp
01446C 7C 01 00 00 		      	ldi  	xlr,#FMTKmsg_1
014470 0A C0 71 8E 
014474 02 BF 01 1A 		      	mov  	bp,sp
014478 15 EF 31 00 		      	subui	sp,sp,#24
01447C E7 E5 01 00 		      	push 	r11
014480 67 E6 01 00 		      	push 	r12
014484 E7 E6 01 00 		      	push 	r13
014488 C6 BD 30 00 		      	lw   	r11,24[bp]
01448C 7C 0D 01 00 		      	ldi  	r12,#nMsgBlk_
014490 0A C0 00 E0 
014494 7C 0D 01 00 		      	ldi  	r13,#freeMSG_
014498 0A D0 20 E0 
01449C E3 0D D0 FF 		      	sw   	r0,-24[bp]
0144A0 65 E0 FF FF 		      	push 	#-1
0144A4 7C 0D 01 00 		      	push 	#sys_sema_
0144A8 65 E0 C1 E0 
0144AC B9 88 05 00 		      	bsr  	LockSemaphore_
0144B0 82 30 00 1A 		      	mov  	r3,r1
0144B4 BD 01 3C 01 		      	beq  	r3,FMTKmsg_2
0144B8 E4 15 40 00 		      	inc  	32[r11],#1
0144BC C3 35 18 00 		      	lcu  	r3,12[r11]
0144C0 86 41 00 00 		      	cmp  	r4,r3,#0
0144C4 3D 02 0C 00 		      	beq  	r4,FMTKmsg_5
0144C8 86 41 04 00 		      	cmp  	r4,r3,#2
0144CC 3D 02 0A 00 		      	beq  	r4,FMTKmsg_6
0144D0 86 41 02 00 		      	cmp  	r4,r3,#1
0144D4 3D 02 4A 00 		      	beq  	r4,FMTKmsg_7
0144D8 3A 3D 00 00 		      	bra  	FMTKmsg_4
                	FMTKmsg_5:
0144DC BA 3C 00 00 		      	bra  	FMTKmsg_4
                	FMTKmsg_6:
                	FMTKmsg_8:
0144E0 C6 35 40 00 		      	lw   	r3,32[r11]
0144E4 C6 45 30 00 		      	lw   	r4,24[r11]
0144E8 82 51 08 2C 		      	cmpu 	r5,r3,r4
0144EC BD 52 3C 00 		      	ble  	r5,FMTKmsg_9
0144F0 C2 45 10 00 		      	lc   	r4,8[r11]
0144F4 02 32 0A 70 		      	asli 	r3,r4,#5
0144F8 7C 05 01 00 		      	lcu  	r3,message_[r3]
0144FC C3 31 00 E0 
014500 82 31 00 22 		      	sxc  	r3,r3
014504 E1 3D EC FF 		      	sc   	r3,-10[bp]
014508 C2 5D EC FF 		      	lc   	r5,-10[bp]
01450C 82 42 0A 70 		      	asli 	r4,r5,#5
014510 7C 05 01 00 		      	addu 	r3,r4,#message_
014514 14 32 00 E0 
014518 E3 3D F0 FF 		      	sw   	r3,-8[bp]
01451C C2 36 00 00 		      	lc   	r3,[r13]
014520 C2 55 10 00 		      	lc   	r5,8[r11]
014524 82 42 0A 70 		      	asli 	r4,r5,#5
014528 7C 05 01 00 		      	sc   	r3,message_[r4]
01452C 61 32 00 E0 
014530 C2 35 10 00 		      	lc   	r3,8[r11]
014534 E1 36 00 00 		      	sc   	r3,[r13]
014538 64 16 00 00 		      	inc  	[r12],#1
01453C E4 F5 41 00 		      	dec  	32[r11],#1
014540 C2 3D EC FF 		      	lc   	r3,-10[bp]
014544 E1 35 10 00 		      	sc   	r3,8[r11]
014548 C6 35 50 00 		      	lw   	r3,40[r11]
01454C 96 41 FE FF 		      	cmpu 	r4,r3,#-1
014550 3D 32 04 00 		      	bge  	r4,FMTKmsg_10
014554 E4 15 50 00 		      	inc  	40[r11],#1
                	FMTKmsg_10:
014558 0A 30 0C 00 		      	ldi  	r3,#6
01455C E3 3D D0 FF 		      	sw   	r3,-24[bp]
014560 3A F0 FF FF 		      	bra  	FMTKmsg_8
                	FMTKmsg_9:
014564 BA 2B 00 00 		      	bra  	FMTKmsg_4
                	FMTKmsg_7:
014568 C6 35 40 00 		      	lw   	r3,32[r11]
01456C C6 45 30 00 		      	lw   	r4,24[r11]
014570 82 51 08 2C 		      	cmpu 	r5,r3,r4
014574 BD 52 22 00 		      	ble  	r5,FMTKmsg_12
014578 C2 36 00 00 		      	lc   	r3,[r13]
01457C C6 4D 40 00 		      	lw   	r4,32[bp]
014580 61 32 00 00 		      	sc   	r3,[r4]
014584 C6 5D 40 00 		      	lw   	r5,32[bp]
014588 7C 05 01 00 		      	subu 	r4,r5,#message_
01458C 95 42 00 E0 
014590 02 32 0A 72 		      	lsri 	r3,r4,#5
014594 E1 36 00 00 		      	sc   	r3,[r13]
014598 64 16 00 00 		      	inc  	[r12],#1
01459C C6 35 50 00 		      	lw   	r3,40[r11]
0145A0 96 41 FE FF 		      	cmpu 	r4,r3,#-1
0145A4 3D 32 04 00 		      	bge  	r4,FMTKmsg_14
0145A8 E4 15 50 00 		      	inc  	40[r11],#1
                	FMTKmsg_14:
0145AC 0A 30 0C 00 		      	ldi  	r3,#6
0145B0 E3 3D D0 FF 		      	sw   	r3,-24[bp]
0145B4 E4 F5 41 00 		      	dec  	32[r11],#1
                	FMTKmsg_12:
                	FMTKmsg_16:
0145B8 C6 35 40 00 		      	lw   	r3,32[r11]
0145BC C6 45 30 00 		      	lw   	r4,24[r11]
0145C0 82 51 08 2C 		      	cmpu 	r5,r3,r4
0145C4 BD 52 5C 00 		      	ble  	r5,FMTKmsg_17
0145C8 C2 55 10 00 		      	lc   	r5,8[r11]
0145CC 82 42 0A 70 		      	asli 	r4,r5,#5
0145D0 7C 05 01 00 		      	addu 	r3,r4,#message_
0145D4 14 32 00 E0 
0145D8 E3 3D F0 FF 		      	sw   	r3,-8[bp]
                	FMTKmsg_18:
0145DC C6 5D F0 FF 		      	lw   	r5,-8[bp]
0145E0 7C 05 01 00 		      	subu 	r4,r5,#message_
0145E4 95 42 00 E0 
0145E8 02 32 0A 72 		      	lsri 	r3,r4,#5
0145EC C2 45 14 00 		      	lc   	r4,10[r11]
0145F0 FC 00 00 00 		      	andi 	r4,r4,#65535
0145F4 0C 42 FE FF 
0145F8 82 51 08 0C 		      	cmp  	r5,r3,r4
0145FC BD 02 14 00 		      	beq  	r5,FMTKmsg_19
014600 C6 3D F0 FF 		      	lw   	r3,-8[bp]
014604 E3 3D 40 00 		      	sw   	r3,32[bp]
014608 C6 5D F0 FF 		      	lw   	r5,-8[bp]
01460C C3 52 00 00 		      	lcu  	r5,[r5]
014610 82 42 0A 70 		      	asli 	r4,r5,#5
014614 7C 05 01 00 		      	addu 	r3,r4,#message_
014618 14 32 00 E0 
01461C E3 3D F0 FF 		      	sw   	r3,-8[bp]
014620 BA F7 FF FF 		      	bra  	FMTKmsg_18
                	FMTKmsg_19:
014624 C6 5D 40 00 		      	lw   	r5,32[bp]
014628 7C 05 01 00 		      	subu 	r4,r5,#message_
01462C 95 42 00 E0 
014630 02 32 0A 72 		      	lsri 	r3,r4,#5
014634 E1 35 14 00 		      	sc   	r3,10[r11]
014638 C2 36 00 00 		      	lc   	r3,[r13]
01463C C6 4D F0 FF 		      	lw   	r4,-8[bp]
014640 61 32 00 00 		      	sc   	r3,[r4]
014644 C6 5D F0 FF 		      	lw   	r5,-8[bp]
014648 7C 05 01 00 		      	subu 	r4,r5,#message_
01464C 95 42 00 E0 
014650 02 32 0A 72 		      	lsri 	r3,r4,#5
014654 E1 36 00 00 		      	sc   	r3,[r13]
014658 64 16 00 00 		      	inc  	[r12],#1
01465C C6 35 50 00 		      	lw   	r3,40[r11]
014660 96 41 FE FF 		      	cmpu 	r4,r3,#-1
014664 3D 32 04 00 		      	bge  	r4,FMTKmsg_20
014668 E4 15 50 00 		      	inc  	40[r11],#1
                	FMTKmsg_20:
01466C E4 F5 41 00 		      	dec  	32[r11],#1
014670 0A 30 0C 00 		      	ldi  	r3,#6
014674 E3 3D D0 FF 		      	sw   	r3,-24[bp]
014678 3A E8 FF FF 		      	bra  	FMTKmsg_16
                	FMTKmsg_17:
01467C C6 3D D0 FF 		      	lw   	r3,-24[bp]
014680 86 41 0C 00 		      	cmp  	r4,r3,#6
014684 3D 12 1C 00 		      	bne  	r4,FMTKmsg_22
014688 7C 0D 01 00 		      	push 	#sys_sema_
01468C 65 E0 C1 E0 
014690 39 5A 05 00 		      	bsr  	UnlockSemaphore_
014694 C6 3D D0 FF 		      	lw   	r3,-24[bp]
014698 82 11 00 1A 		      	mov  	r1,r3
                	FMTKmsg_24:
01469C 57 DF 10 00 		      	pop  	r13
0146A0 57 CF 10 00 		      	pop  	r12
0146A4 57 BF 10 00 		      	pop  	r11
0146A8 82 ED 01 1A 		      	mov  	sp,bp
0146AC 57 BF 11 00 		      	pop  	bp
0146B0 57 CF 11 00 		      	pop  	xlr
0146B4 57 FF 11 00 		      	pop  	lr
0146B8 37 FF 21 00 		      	rtl  	#16
                	FMTKmsg_22:
0146BC BA 00 00 00 		      	bra  	FMTKmsg_4
                	FMTKmsg_4:
0146C0 C2 35 14 00 		      	lc   	r3,10[r11]
0146C4 BD 41 14 00 		      	blt  	r3,FMTKmsg_25
0146C8 C6 5D 40 00 		      	lw   	r5,32[bp]
0146CC 7C 05 01 00 		      	subu 	r4,r5,#message_
0146D0 95 42 00 E0 
0146D4 02 32 0A 72 		      	lsri 	r3,r4,#5
0146D8 C2 55 14 00 		      	lc   	r5,10[r11]
0146DC 82 42 0A 70 		      	asli 	r4,r5,#5
0146E0 7C 05 01 00 		      	sc   	r3,message_[r4]
0146E4 61 32 00 E0 
0146E8 3A 03 00 00 		      	bra  	FMTKmsg_26
                	FMTKmsg_25:
0146EC C6 5D 40 00 		      	lw   	r5,32[bp]
0146F0 7C 05 01 00 		      	subu 	r4,r5,#message_
0146F4 95 42 00 E0 
0146F8 02 32 0A 72 		      	lsri 	r3,r4,#5
0146FC E1 35 10 00 		      	sc   	r3,8[r11]
                	FMTKmsg_26:
014700 C6 5D 40 00 		      	lw   	r5,32[bp]
014704 7C 05 01 00 		      	subu 	r4,r5,#message_
014708 95 42 00 E0 
01470C 02 32 0A 72 		      	lsri 	r3,r4,#5
014710 E1 35 14 00 		      	sc   	r3,10[r11]
014714 C6 3D 40 00 		      	lw   	r3,32[bp]
014718 0A 40 FE FF 		      	ldi  	r4,#-1
01471C E1 41 00 00 		      	sc   	r4,[r3]
014720 7C 0D 01 00 		      	push 	#sys_sema_
014724 65 E0 C1 E0 
014728 39 47 05 00 		      	bsr  	UnlockSemaphore_
                	FMTKmsg_2:
01472C C6 3D D0 FF 		      	lw   	r3,-24[bp]
014730 82 11 00 1A 		      	mov  	r1,r3
014734 3A ED FF FF 		      	bra  	FMTKmsg_24
                	FMTKmsg_1:
014738 C6 FD 11 00 		      	lw   	lr,8[bp]
01473C E3 FD 21 00 		      	sw   	lr,16[bp]
014740 BA EB FF FF 		      	bra  	FMTKmsg_24
                	DequeueMsg_:
014744 15 EF 21 00 		      	subui	sp,sp,#16
014748 E7 ED 01 00 		      	push 	bp
01474C 02 BF 01 1A 		      	mov  	bp,sp
014750 15 EF 21 00 		      	subui	sp,sp,#16
014754 E7 E5 01 00 		      	push 	r11
014758 67 E6 01 00 		      	push 	r12
01475C C6 BD 30 00 		      	lw   	r11,24[bp]
014760 0A C0 00 00 		      	ldi  	r12,#0
014764 C6 35 40 00 		      	lw   	r3,32[r11]
014768 BD 01 28 00 		      	beq  	r3,FMTKmsg_29
01476C E4 F5 41 00 		      	dec  	32[r11],#1
014770 C2 35 10 00 		      	lc   	r3,8[r11]
014774 E1 3D EC FF 		      	sc   	r3,-10[bp]
014778 C2 3D EC FF 		      	lc   	r3,-10[bp]
01477C BD 41 1E 00 		      	blt  	r3,FMTKmsg_31
014780 C2 5D EC FF 		      	lc   	r5,-10[bp]
014784 82 42 0A 70 		      	asli 	r4,r5,#5
014788 7C 05 01 00 		      	addu 	r3,r4,#message_
01478C 14 32 00 E0 
014790 82 C1 00 1A 		      	mov  	r12,r3
014794 43 36 00 00 		      	lcu  	r3,[r12]
014798 82 31 00 22 		      	sxc  	r3,r3
01479C E1 35 10 00 		      	sc   	r3,8[r11]
0147A0 C2 35 10 00 		      	lc   	r3,8[r11]
0147A4 BD 31 06 00 		      	bge  	r3,FMTKmsg_33
0147A8 0A 30 FE FF 		      	ldi  	r3,#-1
0147AC E1 35 14 00 		      	sc   	r3,10[r11]
                	FMTKmsg_33:
0147B0 C2 3D EC FF 		      	lc   	r3,-10[bp]
0147B4 61 36 00 00 		      	sc   	r3,[r12]
                	FMTKmsg_31:
                	FMTKmsg_29:
0147B8 02 16 00 1A 		      	mov  	r1,r12
                	FMTKmsg_35:
0147BC 57 CF 10 00 		      	pop  	r12
0147C0 57 BF 10 00 		      	pop  	r11
0147C4 82 ED 01 1A 		      	mov  	sp,bp
0147C8 57 BF 11 00 		      	pop  	bp
0147CC 37 FF 31 00 		      	rtl  	#24
                	public code FMTK_AllocMbx_:
0147D0 E7 EF 01 00 		      	push 	lr
0147D4 67 EE 01 00 		      	push 	xlr
0147D8 E7 ED 01 00 		      	push 	bp
0147DC 7C 01 00 00 		      	ldi  	xlr,#FMTKmsg_36
0147E0 0A C0 01 92 
0147E4 02 BF 01 1A 		      	mov  	bp,sp
0147E8 15 EF 11 00 		      	subui	sp,sp,#8
0147EC E7 E5 01 00 		      	push 	r11
0147F0 67 E6 01 00 		      	push 	r12
0147F4 E7 E6 01 00 		      	push 	r13
0147F8 7C 0D 01 00 		      	ldi  	r12,#freeMBX_
0147FC 0A C0 30 E0 
014800 C6 DD 30 00 		      	lw   	r13,24[bp]
014804 02 10 18 3E 		      	     	mfspr r1,ivno 
014808 BD 16 14 00 		      	bne  	r13,FMTKmsg_37
01480C 0A 10 08 00 		      	ldi  	r1,#4
                	FMTKmsg_39:
014810 57 DF 10 00 		      	pop  	r13
014814 57 CF 10 00 		      	pop  	r12
014818 57 BF 10 00 		      	pop  	r11
01481C 82 ED 01 1A 		      	mov  	sp,bp
014820 57 BF 11 00 		      	pop  	bp
014824 57 CF 11 00 		      	pop  	xlr
014828 57 FF 11 00 		      	pop  	lr
01482C 37 FF 01 00 		      	rtl  	#0
                	FMTKmsg_37:
014830 65 E0 FF FF 		      	push 	#-1
014834 7C 0D 01 00 		      	push 	#sys_sema_
014838 65 E0 C1 E0 
01483C B9 16 05 00 		      	bsr  	LockSemaphore_
014840 82 30 00 1A 		      	mov  	r3,r1
014844 BD 01 2E 00 		      	beq  	r3,FMTKmsg_40
014848 42 36 00 00 		      	lc   	r3,[r12]
01484C BD 41 08 00 		      	blt  	r3,FMTKmsg_44
014850 42 36 00 00 		      	lc   	r3,[r12]
014854 86 41 00 08 		      	cmp  	r4,r3,#1024
014858 3D 42 0C 00 		      	blt  	r4,FMTKmsg_42
                	FMTKmsg_44:
01485C 7C 0D 01 00 		      	push 	#sys_sema_
014860 65 E0 C1 E0 
014864 B9 1F 05 00 		      	bsr  	UnlockSemaphore_
014868 0A 10 80 00 		      	ldi  	r1,#64
01486C BA F4 FF FF 		      	bra  	FMTKmsg_39
                	FMTKmsg_42:
014870 42 56 00 00 		      	lc   	r5,[r12]
014874 82 42 0C 70 		      	asli 	r4,r5,#6
014878 7C 04 01 00 		      	addu 	r3,r4,#mailbox_
01487C 14 32 00 E0 
014880 82 B1 00 1A 		      	mov  	r11,r3
014884 C2 35 00 00 		      	lc   	r3,[r11]
014888 61 36 00 00 		      	sc   	r3,[r12]
01488C 7C 0D 01 00 		      	dec  	nMailbox_,#1
014890 64 F0 11 E0 
014894 7C 0D 01 00 		      	push 	#sys_sema_
014898 65 E0 C1 E0 
01489C B9 18 05 00 		      	bsr  	UnlockSemaphore_
                	FMTKmsg_40:
0148A0 7C 04 01 00 		      	subu 	r4,r11,#mailbox_
0148A4 95 45 00 E0 
0148A8 02 32 0C 72 		      	lsri 	r3,r4,#6
0148AC E1 36 00 00 		      	sc   	r3,[r13]
0148B0 B9 60 FD FF 		      	bsr  	GetJCBPtr_
0148B4 82 30 00 1A 		      	mov  	r3,r1
0148B8 E0 35 04 00 		      	sb   	r3,2[r11]
0148BC 0A 30 FE FF 		      	ldi  	r3,#-1
0148C0 E1 35 08 00 		      	sc   	r3,4[r11]
0148C4 0A 30 FE FF 		      	ldi  	r3,#-1
0148C8 E1 35 0C 00 		      	sc   	r3,6[r11]
0148CC 0A 30 FE FF 		      	ldi  	r3,#-1
0148D0 E1 35 10 00 		      	sc   	r3,8[r11]
0148D4 0A 30 FE FF 		      	ldi  	r3,#-1
0148D8 E1 35 14 00 		      	sc   	r3,10[r11]
0148DC E3 05 20 00 		      	sw   	r0,16[r11]
0148E0 E3 05 40 00 		      	sw   	r0,32[r11]
0148E4 E3 05 50 00 		      	sw   	r0,40[r11]
0148E8 0A 30 10 00 		      	ldi  	r3,#8
0148EC E3 35 30 00 		      	sw   	r3,24[r11]
0148F0 0A 30 04 00 		      	ldi  	r3,#2
0148F4 E1 35 18 00 		      	sc   	r3,12[r11]
0148F8 0A 10 00 00 		      	ldi  	r1,#0
0148FC BA E2 FF FF 		      	bra  	FMTKmsg_39
                	FMTKmsg_36:
014900 C6 FD 11 00 		      	lw   	lr,8[bp]
014904 E3 FD 21 00 		      	sw   	lr,16[bp]
014908 3A E1 FF FF 		      	bra  	FMTKmsg_39
                	endpublic
                	
                	public code FMTK_FreeMbx_:
01490C E7 EF 01 00 		      	push 	lr
014910 67 EE 01 00 		      	push 	xlr
014914 E7 ED 01 00 		      	push 	bp
014918 7C 01 00 00 		      	ldi  	xlr,#FMTKmsg_45
01491C 0A C0 99 95 
014920 02 BF 01 1A 		      	mov  	bp,sp
014924 15 EF 31 00 		      	subui	sp,sp,#24
014928 E7 E5 01 00 		      	push 	r11
01492C 67 E6 01 00 		      	push 	r12
014930 E7 E6 01 00 		      	push 	r13
014934 C7 3D D0 FF 		      	lea  	r3,-24[bp]
014938 82 B1 00 1A 		      	mov  	r11,r3
01493C 02 10 18 3E 		      	     	mfspr r1,ivno 
014940 C2 3D 30 00 		      	lc   	r3,24[bp]
014944 02 30 FE FF 		      	chk  	r3,r0,#1024
014948 C2 5D 30 00 		      	lc   	r5,24[bp]
01494C 82 42 0C 70 		      	asli 	r4,r5,#6
014950 7C 04 01 00 		      	addu 	r3,r4,#mailbox_
014954 14 32 00 E0 
014958 82 D1 00 1A 		      	mov  	r13,r3
01495C 65 E0 FF FF 		      	push 	#-1
014960 7C 0D 01 00 		      	push 	#sys_sema_
014964 65 E0 C1 E0 
014968 39 F1 04 00 		      	bsr  	LockSemaphore_
01496C 82 30 00 1A 		      	mov  	r3,r1
014970 BD 01 AA 00 		      	beq  	r3,FMTKmsg_46
014974 C0 36 04 00 		      	lb   	r3,2[r13]
014978 82 31 00 20 		      	sxb  	r3,r3
01497C E7 E1 01 00 		      	push 	r3
014980 B9 46 FD FF 		      	bsr  	GetJCBPtr_
014984 57 3F 10 00 		      	pop  	r3
014988 82 40 00 1A 		      	mov  	r4,r1
01498C 82 51 08 0C 		      	cmp  	r5,r3,r4
014990 BD 02 20 00 		      	beq  	r5,FMTKmsg_48
014994 39 44 FD FF 		      	bsr  	GetJCBPtr_
014998 82 30 00 1A 		      	mov  	r3,r1
01499C BD 01 1A 00 		      	beq  	r3,FMTKmsg_48
0149A0 7C 0D 01 00 		      	push 	#sys_sema_
0149A4 65 E0 C1 E0 
0149A8 39 F7 04 00 		      	bsr  	UnlockSemaphore_
0149AC 0A 10 18 00 		      	ldi  	r1,#12
                	FMTKmsg_50:
0149B0 57 DF 10 00 		      	pop  	r13
0149B4 57 CF 10 00 		      	pop  	r12
0149B8 57 BF 10 00 		      	pop  	r11
0149BC 82 ED 01 1A 		      	mov  	sp,bp
0149C0 57 BF 11 00 		      	pop  	bp
0149C4 57 CF 11 00 		      	pop  	xlr
0149C8 57 FF 11 00 		      	pop  	lr
0149CC 37 FF 01 00 		      	rtl  	#0
                	FMTKmsg_48:
                	FMTKmsg_51:
0149D0 E7 E6 01 00 		      	push 	r13
0149D4 39 AE FF FF 		      	bsr  	DequeueMsg_
0149D8 82 30 00 1A 		      	mov  	r3,r1
0149DC 82 C1 00 1A 		      	mov  	r12,r3
0149E0 BD 01 24 00 		      	beq  	r3,FMTKmsg_52
0149E4 0A 30 02 00 		      	ldi  	r3,#1
0149E8 61 36 0C 00 		      	sc   	r3,6[r12]
0149EC 0A 30 FE FF 		      	ldi  	r3,#-1
0149F0 61 36 04 00 		      	sc   	r3,2[r12]
0149F4 0A 30 FE FF 		      	ldi  	r3,#-1
0149F8 61 36 08 00 		      	sc   	r3,4[r12]
0149FC 7C 0D 01 00 		      	lc   	r3,freeMSG_
014A00 42 30 20 E0 
014A04 61 36 00 00 		      	sc   	r3,[r12]
014A08 7C 05 01 00 		      	subu 	r4,r12,#message_
014A0C 15 46 00 E0 
014A10 02 32 0A 72 		      	lsri 	r3,r4,#5
014A14 7C 0D 01 00 		      	sc   	r3,freeMSG_
014A18 61 30 20 E0 
014A1C 7C 0D 01 00 		      	inc  	nMsgBlk_,#1
014A20 64 10 00 E0 
014A24 BA F5 FF FF 		      	bra  	FMTKmsg_51
                	FMTKmsg_52:
                	FMTKmsg_53:
014A28 E7 E5 01 00 		      	push 	r11
014A2C E7 E6 01 00 		      	push 	r13
014A30 39 BA D6 FF 		      	bsr  	DequeThreadFromMbx_
014A34 14 EF 21 00 		      	addui	sp,sp,#16
014A38 C6 35 00 00 		      	lw   	r3,[r11]
014A3C BD 11 04 00 		      	bne  	r3,FMTKmsg_55
014A40 3A 0A 00 00 		      	bra  	FMTKmsg_54
                	FMTKmsg_55:
014A44 C6 35 00 00 		      	lw   	r3,[r11]
014A48 E1 01 4C 05 		      	sc   	r0,678[r3]
014A4C C6 45 00 00 		      	lw   	r4,[r11]
014A50 40 42 9A 05 		      	lb   	r4,717[r4]
014A54 0C 32 02 00 		      	and  	r3,r4,#1
014A58 BD 01 0E 00 		      	beq  	r3,FMTKmsg_57
014A5C C6 55 00 00 		      	lw   	r5,[r11]
014A60 7C 1A 01 00 		      	subu 	r4,r5,#tcbs_
014A64 95 42 00 68 
014A68 02 32 14 72 		      	lsri 	r3,r4,#10
014A6C E7 E1 01 00 		      	push 	r3
014A70 B9 F6 01 00 		      	bsr  	RemoveFromTimeoutList_
                	FMTKmsg_57:
014A74 C6 55 00 00 		      	lw   	r5,[r11]
014A78 7C 1A 01 00 		      	subu 	r4,r5,#tcbs_
014A7C 95 42 00 68 
014A80 02 32 14 72 		      	lsri 	r3,r4,#10
014A84 E7 E1 01 00 		      	push 	r3
014A88 39 7D 01 00 		      	bsr  	InsertIntoReadyList_
014A8C BA F3 FF FF 		      	bra  	FMTKmsg_53
                	FMTKmsg_54:
014A90 7C 0D 01 00 		      	lc   	r3,freeMBX_
014A94 42 30 30 E0 
014A98 E1 36 00 00 		      	sc   	r3,[r13]
014A9C 7C 04 01 00 		      	subu 	r4,r13,#mailbox_
014AA0 95 46 00 E0 
014AA4 02 32 0C 72 		      	lsri 	r3,r4,#6
014AA8 7C 0D 01 00 		      	sc   	r3,freeMBX_
014AAC 61 30 30 E0 
014AB0 7C 0D 01 00 		      	inc  	nMailbox_,#1
014AB4 64 10 10 E0 
014AB8 7C 0D 01 00 		      	push 	#sys_sema_
014ABC 65 E0 C1 E0 
014AC0 39 D4 04 00 		      	bsr  	UnlockSemaphore_
                	FMTKmsg_46:
014AC4 0A 10 00 00 		      	ldi  	r1,#0
014AC8 3A DD FF FF 		      	bra  	FMTKmsg_50
                	FMTKmsg_45:
014ACC C6 FD 11 00 		      	lw   	lr,8[bp]
014AD0 E3 FD 21 00 		      	sw   	lr,16[bp]
014AD4 BA DB FF FF 		      	bra  	FMTKmsg_50
                	endpublic
                	
                	public code SetMbxMsgQueStrategy_:
014AD8 E7 EF 01 00 		      	push 	lr
014ADC 67 EE 01 00 		      	push 	xlr
014AE0 E7 ED 01 00 		      	push 	bp
014AE4 7C 01 00 00 		      	ldi  	xlr,#FMTKmsg_59
014AE8 0A C0 79 97 
014AEC 02 BF 01 1A 		      	mov  	bp,sp
014AF0 15 EF 11 00 		      	subui	sp,sp,#8
014AF4 E7 E5 01 00 		      	push 	r11
014AF8 02 10 18 3E 		      	     	mfspr r1,ivno 
014AFC C2 3D 30 00 		      	lc   	r3,24[bp]
014B00 02 30 FE FF 		      	chk  	r3,r0,#1024
014B04 C6 3D 40 00 		      	lw   	r3,32[bp]
014B08 86 41 04 00 		      	cmp  	r4,r3,#2
014B0C 3D 52 10 00 		      	ble  	r4,FMTKmsg_60
014B10 0A 10 08 00 		      	ldi  	r1,#4
                	FMTKmsg_62:
014B14 57 BF 10 00 		      	pop  	r11
014B18 82 ED 01 1A 		      	mov  	sp,bp
014B1C 57 BF 11 00 		      	pop  	bp
014B20 57 CF 11 00 		      	pop  	xlr
014B24 57 FF 11 00 		      	pop  	lr
014B28 37 FF 01 00 		      	rtl  	#0
                	FMTKmsg_60:
014B2C C2 5D 30 00 		      	lc   	r5,24[bp]
014B30 82 42 0C 70 		      	asli 	r4,r5,#6
014B34 7C 04 01 00 		      	addu 	r3,r4,#mailbox_
014B38 14 32 00 E0 
014B3C 82 B1 00 1A 		      	mov  	r11,r3
014B40 65 E0 FF FF 		      	push 	#-1
014B44 7C 0D 01 00 		      	push 	#sys_sema_
014B48 65 E0 C1 E0 
014B4C B9 B4 04 00 		      	bsr  	LockSemaphore_
014B50 82 30 00 1A 		      	mov  	r3,r1
014B54 BD 01 30 00 		      	beq  	r3,FMTKmsg_63
014B58 C0 35 04 00 		      	lb   	r3,2[r11]
014B5C 82 31 00 20 		      	sxb  	r3,r3
014B60 E7 E1 01 00 		      	push 	r3
014B64 39 0A FD FF 		      	bsr  	GetJCBPtr_
014B68 57 3F 10 00 		      	pop  	r3
014B6C 82 40 00 1A 		      	mov  	r4,r1
014B70 82 51 08 0C 		      	cmp  	r5,r3,r4
014B74 BD 02 12 00 		      	beq  	r5,FMTKmsg_65
014B78 B9 07 FD FF 		      	bsr  	GetJCBPtr_
014B7C 82 30 00 1A 		      	mov  	r3,r1
014B80 BD 01 0C 00 		      	beq  	r3,FMTKmsg_65
014B84 7C 0D 01 00 		      	push 	#sys_sema_
014B88 65 E0 C1 E0 
014B8C B9 BA 04 00 		      	bsr  	UnlockSemaphore_
014B90 0A 10 18 00 		      	ldi  	r1,#12
014B94 3A F0 FF FF 		      	bra  	FMTKmsg_62
                	FMTKmsg_65:
014B98 C6 3D 40 00 		      	lw   	r3,32[bp]
014B9C E1 35 18 00 		      	sc   	r3,12[r11]
014BA0 C6 3D 50 00 		      	lw   	r3,40[bp]
014BA4 E3 35 30 00 		      	sw   	r3,24[r11]
014BA8 7C 0D 01 00 		      	push 	#sys_sema_
014BAC 65 E0 C1 E0 
014BB0 39 B6 04 00 		      	bsr  	UnlockSemaphore_
                	FMTKmsg_63:
014BB4 0A 10 00 00 		      	ldi  	r1,#0
014BB8 BA EB FF FF 		      	bra  	FMTKmsg_62
                	FMTKmsg_59:
014BBC C6 FD 11 00 		      	lw   	lr,8[bp]
014BC0 E3 FD 21 00 		      	sw   	lr,16[bp]
014BC4 3A EA FF FF 		      	bra  	FMTKmsg_62
                	endpublic
                	
                	public code FMTK_SendMsg_:
014BC8 E7 EF 01 00 		      	push 	lr
014BCC 67 EE 01 00 		      	push 	xlr
014BD0 E7 ED 01 00 		      	push 	bp
014BD4 7C 01 00 00 		      	ldi  	xlr,#FMTKmsg_67
014BD8 0A C0 91 9C 
014BDC 02 BF 01 1A 		      	mov  	bp,sp
014BE0 15 EF 31 00 		      	subui	sp,sp,#24
014BE4 E7 E5 01 00 		      	push 	r11
014BE8 67 E6 01 00 		      	push 	r12
014BEC E7 E6 01 00 		      	push 	r13
014BF0 67 E7 01 00 		      	push 	r14
014BF4 C7 3D D0 FF 		      	lea  	r3,-24[bp]
014BF8 82 B1 00 1A 		      	mov  	r11,r3
014BFC 7C 0D 01 00 		      	ldi  	r14,#freeMSG_
014C00 0A E0 20 E0 
014C04 02 10 18 3E 		      	     	mfspr r1,ivno 
014C08 C2 3D 30 00 		      	lc   	r3,24[bp]
014C0C 02 30 FE FF 		      	chk  	r3,r0,#1024
014C10 C2 5D 30 00 		      	lc   	r5,24[bp]
014C14 82 42 0C 70 		      	asli 	r4,r5,#6
014C18 7C 04 01 00 		      	addu 	r3,r4,#mailbox_
014C1C 14 32 00 E0 
014C20 82 D1 00 1A 		      	mov  	r13,r3
014C24 65 E0 FF FF 		      	push 	#-1
014C28 7C 0D 01 00 		      	push 	#sys_sema_
014C2C 65 E0 C1 E0 
014C30 39 98 04 00 		      	bsr  	LockSemaphore_
014C34 82 30 00 1A 		      	mov  	r3,r1
014C38 BD 01 86 00 		      	beq  	r3,FMTKmsg_68
014C3C C0 36 04 00 		      	lb   	r3,2[r13]
014C40 BD 41 08 00 		      	blt  	r3,FMTKmsg_72
014C44 C0 36 04 00 		      	lb   	r3,2[r13]
014C48 86 41 66 00 		      	cmp  	r4,r3,#51
014C4C 3D 42 1C 00 		      	blt  	r4,FMTKmsg_70
                	FMTKmsg_72:
014C50 7C 0D 01 00 		      	push 	#sys_sema_
014C54 65 E0 C1 E0 
014C58 39 A1 04 00 		      	bsr  	UnlockSemaphore_
014C5C 0A 10 10 00 		      	ldi  	r1,#8
                	FMTKmsg_73:
014C60 57 EF 10 00 		      	pop  	r14
014C64 57 DF 10 00 		      	pop  	r13
014C68 57 CF 10 00 		      	pop  	r12
014C6C 57 BF 10 00 		      	pop  	r11
014C70 82 ED 01 1A 		      	mov  	sp,bp
014C74 57 BF 11 00 		      	pop  	bp
014C78 57 CF 11 00 		      	pop  	xlr
014C7C 57 FF 11 00 		      	pop  	lr
014C80 37 FF 01 00 		      	rtl  	#0
                	FMTKmsg_70:
014C84 42 37 00 00 		      	lc   	r3,[r14]
014C88 BD 41 0A 00 		      	blt  	r3,FMTKmsg_76
014C8C 42 37 00 00 		      	lc   	r3,[r14]
014C90 7C 00 00 00 		      	cmp  	r4,r3,#16384
014C94 86 41 00 80 
014C98 3D 42 0C 00 		      	blt  	r4,FMTKmsg_74
                	FMTKmsg_76:
014C9C 7C 0D 01 00 		      	push 	#sys_sema_
014CA0 65 E0 C1 E0 
014CA4 B9 97 04 00 		      	bsr  	UnlockSemaphore_
014CA8 0A 10 82 00 		      	ldi  	r1,#65
014CAC BA F6 FF FF 		      	bra  	FMTKmsg_73
                	FMTKmsg_74:
014CB0 42 57 00 00 		      	lc   	r5,[r14]
014CB4 82 42 0A 70 		      	asli 	r4,r5,#5
014CB8 7C 05 01 00 		      	addu 	r3,r4,#message_
014CBC 14 32 00 E0 
014CC0 82 C1 00 1A 		      	mov  	r12,r3
014CC4 43 36 00 00 		      	lcu  	r3,[r12]
014CC8 82 31 00 22 		      	sxc  	r3,r3
014CCC 61 37 00 00 		      	sc   	r3,[r14]
014CD0 7C 0D 01 00 		      	dec  	nMsgBlk_,#1
014CD4 64 F0 01 E0 
014CD8 E7 E1 01 00 		      	push 	r3
014CDC 67 E2 01 00 		      	push 	r4
014CE0 B9 DA FC FF 		      	bsr  	GetJCBPtr_
014CE4 57 4F 10 00 		      	pop  	r4
014CE8 57 3F 10 00 		      	pop  	r3
014CEC 82 50 00 1A 		      	mov  	r5,r1
014CF0 FC C2 00 00 		      	subu 	r4,r5,#jcbs_
014CF4 95 42 00 30 
014CF8 02 32 16 72 		      	lsri 	r3,r4,#11
014CFC 61 36 04 00 		      	sc   	r3,2[r12]
014D00 C2 3D 30 00 		      	lc   	r3,24[bp]
014D04 61 36 08 00 		      	sc   	r3,4[r12]
014D08 0A 30 04 00 		      	ldi  	r3,#2
014D0C 61 36 0C 00 		      	sc   	r3,6[r12]
014D10 C6 3D 40 00 		      	lw   	r3,32[bp]
014D14 63 36 10 00 		      	sw   	r3,8[r12]
014D18 C6 3D 50 00 		      	lw   	r3,40[bp]
014D1C 63 36 20 00 		      	sw   	r3,16[r12]
014D20 C6 3D 60 00 		      	lw   	r3,48[bp]
014D24 63 36 30 00 		      	sw   	r3,24[r12]
014D28 E7 E5 01 00 		      	push 	r11
014D2C E7 E6 01 00 		      	push 	r13
014D30 39 5A D6 FF 		      	bsr  	DequeThreadFromMbx_
014D34 14 EF 21 00 		      	addui	sp,sp,#16
014D38 7C 0D 01 00 		      	push 	#sys_sema_
014D3C 65 E0 C1 E0 
014D40 39 84 04 00 		      	bsr  	UnlockSemaphore_
                	FMTKmsg_68:
014D44 C6 35 00 00 		      	lw   	r3,[r11]
014D48 BD 11 0E 00 		      	bne  	r3,FMTKmsg_77
014D4C 67 E6 01 00 		      	push 	r12
014D50 E7 E6 01 00 		      	push 	r13
014D54 B9 E1 FE FF 		      	bsr  	QueueMsg_
014D58 82 30 00 1A 		      	mov  	r3,r1
014D5C 82 11 00 1A 		      	mov  	r1,r3
014D60 3A E0 FF FF 		      	bra  	FMTKmsg_73
                	FMTKmsg_77:
014D64 65 E0 FF FF 		      	push 	#-1
014D68 7C 0D 01 00 		      	push 	#sys_sema_
014D6C 65 E0 C1 E0 
014D70 39 70 04 00 		      	bsr  	LockSemaphore_
014D74 82 30 00 1A 		      	mov  	r3,r1
014D78 BD 01 64 00 		      	beq  	r3,FMTKmsg_79
014D7C C6 35 00 00 		      	lw   	r3,[r11]
014D80 43 46 04 00 		      	lcu  	r4,2[r12]
014D84 E1 41 44 05 		      	sc   	r4,674[r3]
014D88 C6 35 00 00 		      	lw   	r3,[r11]
014D8C 43 46 08 00 		      	lcu  	r4,4[r12]
014D90 E1 41 48 05 		      	sc   	r4,676[r3]
014D94 C6 35 00 00 		      	lw   	r3,[r11]
014D98 43 46 0C 00 		      	lcu  	r4,6[r12]
014D9C E1 41 4C 05 		      	sc   	r4,678[r3]
014DA0 C6 35 00 00 		      	lw   	r3,[r11]
014DA4 46 46 10 00 		      	lw   	r4,8[r12]
014DA8 E3 41 50 05 		      	sw   	r4,680[r3]
014DAC C6 35 00 00 		      	lw   	r3,[r11]
014DB0 46 46 20 00 		      	lw   	r4,16[r12]
014DB4 E3 41 60 05 		      	sw   	r4,688[r3]
014DB8 C6 35 00 00 		      	lw   	r3,[r11]
014DBC 46 46 30 00 		      	lw   	r4,24[r12]
014DC0 E3 41 70 05 		      	sw   	r4,696[r3]
014DC4 0A 30 02 00 		      	ldi  	r3,#1
014DC8 61 36 0C 00 		      	sc   	r3,6[r12]
014DCC 0A 30 FE FF 		      	ldi  	r3,#-1
014DD0 61 36 04 00 		      	sc   	r3,2[r12]
014DD4 0A 30 FE FF 		      	ldi  	r3,#-1
014DD8 61 36 08 00 		      	sc   	r3,4[r12]
014DDC 42 37 00 00 		      	lc   	r3,[r14]
014DE0 61 36 00 00 		      	sc   	r3,[r12]
014DE4 7C 05 01 00 		      	subu 	r4,r12,#message_
014DE8 15 46 00 E0 
014DEC 02 32 0A 72 		      	lsri 	r3,r4,#5
014DF0 61 37 00 00 		      	sc   	r3,[r14]
014DF4 C6 45 00 00 		      	lw   	r4,[r11]
014DF8 40 42 9A 05 		      	lb   	r4,717[r4]
014DFC 0C 32 02 00 		      	and  	r3,r4,#1
014E00 BD 01 0E 00 		      	beq  	r3,FMTKmsg_81
014E04 C6 55 00 00 		      	lw   	r5,[r11]
014E08 7C 1A 01 00 		      	subu 	r4,r5,#tcbs_
014E0C 95 42 00 68 
014E10 02 32 14 72 		      	lsri 	r3,r4,#10
014E14 E7 E1 01 00 		      	push 	r3
014E18 B9 81 01 00 		      	bsr  	RemoveFromTimeoutList_
                	FMTKmsg_81:
014E1C C6 55 00 00 		      	lw   	r5,[r11]
014E20 7C 1A 01 00 		      	subu 	r4,r5,#tcbs_
014E24 95 42 00 68 
014E28 02 32 14 72 		      	lsri 	r3,r4,#10
014E2C E7 E1 01 00 		      	push 	r3
014E30 39 08 01 00 		      	bsr  	InsertIntoReadyList_
014E34 7C 0D 01 00 		      	push 	#sys_sema_
014E38 65 E0 C1 E0 
014E3C B9 64 04 00 		      	bsr  	UnlockSemaphore_
                	FMTKmsg_79:
014E40 0A 10 00 00 		      	ldi  	r1,#0
014E44 BA C3 FF FF 		      	bra  	FMTKmsg_73
                	FMTKmsg_67:
014E48 C6 FD 11 00 		      	lw   	lr,8[bp]
014E4C E3 FD 21 00 		      	sw   	lr,16[bp]
014E50 3A C2 FF FF 		      	bra  	FMTKmsg_73
                	endpublic
                	
                	public code FMTK_PostMsg_:
014E54 E7 EF 01 00 		      	push 	lr
014E58 67 EE 01 00 		      	push 	xlr
014E5C E7 ED 01 00 		      	push 	bp
014E60 7C 01 00 00 		      	ldi  	xlr,#FMTKmsg_83
014E64 0A C0 B9 A1 
014E68 02 BF 01 1A 		      	mov  	bp,sp
014E6C 15 EF 41 00 		      	subui	sp,sp,#32
014E70 E7 E5 01 00 		      	push 	r11
014E74 67 E6 01 00 		      	push 	r12
014E78 E7 E6 01 00 		      	push 	r13
014E7C 67 E7 01 00 		      	push 	r14
014E80 C7 3D D0 FF 		      	lea  	r3,-24[bp]
014E84 82 B1 00 1A 		      	mov  	r11,r3
014E88 7C 0D 01 00 		      	ldi  	r14,#freeMSG_
014E8C 0A E0 20 E0 
014E90 02 10 18 3E 		      	     	mfspr r1,ivno 
014E94 C2 3D 30 00 		      	lc   	r3,24[bp]
014E98 02 30 FE FF 		      	chk  	r3,r0,#1024
014E9C C2 5D 30 00 		      	lc   	r5,24[bp]
014EA0 82 42 0C 70 		      	asli 	r4,r5,#6
014EA4 7C 04 01 00 		      	addu 	r3,r4,#mailbox_
014EA8 14 32 00 E0 
014EAC 82 D1 00 1A 		      	mov  	r13,r3
014EB0 65 E0 FF FF 		      	push 	#-1
014EB4 7C 0D 01 00 		      	push 	#sys_sema_
014EB8 65 E0 C1 E0 
014EBC B9 46 04 00 		      	bsr  	LockSemaphore_
014EC0 82 30 00 1A 		      	mov  	r3,r1
014EC4 BD 01 86 00 		      	beq  	r3,FMTKmsg_84
014EC8 C0 36 04 00 		      	lb   	r3,2[r13]
014ECC BD 41 08 00 		      	blt  	r3,FMTKmsg_88
014ED0 C0 36 04 00 		      	lb   	r3,2[r13]
014ED4 86 41 66 00 		      	cmp  	r4,r3,#51
014ED8 3D 42 1C 00 		      	blt  	r4,FMTKmsg_86
                	FMTKmsg_88:
014EDC 7C 0D 01 00 		      	push 	#sys_sema_
014EE0 65 E0 C1 E0 
014EE4 B9 4F 04 00 		      	bsr  	UnlockSemaphore_
014EE8 0A 10 10 00 		      	ldi  	r1,#8
                	FMTKmsg_89:
014EEC 57 EF 10 00 		      	pop  	r14
014EF0 57 DF 10 00 		      	pop  	r13
014EF4 57 CF 10 00 		      	pop  	r12
014EF8 57 BF 10 00 		      	pop  	r11
014EFC 82 ED 01 1A 		      	mov  	sp,bp
014F00 57 BF 11 00 		      	pop  	bp
014F04 57 CF 11 00 		      	pop  	xlr
014F08 57 FF 11 00 		      	pop  	lr
014F0C 37 FF 01 00 		      	rtl  	#0
                	FMTKmsg_86:
014F10 42 37 00 00 		      	lc   	r3,[r14]
014F14 BD 41 0A 00 		      	blt  	r3,FMTKmsg_92
014F18 42 37 00 00 		      	lc   	r3,[r14]
014F1C 7C 00 00 00 		      	cmp  	r4,r3,#16384
014F20 86 41 00 80 
014F24 3D 42 0C 00 		      	blt  	r4,FMTKmsg_90
                	FMTKmsg_92:
014F28 7C 0D 01 00 		      	push 	#sys_sema_
014F2C 65 E0 C1 E0 
014F30 39 46 04 00 		      	bsr  	UnlockSemaphore_
014F34 0A 10 82 00 		      	ldi  	r1,#65
014F38 BA F6 FF FF 		      	bra  	FMTKmsg_89
                	FMTKmsg_90:
014F3C 42 57 00 00 		      	lc   	r5,[r14]
014F40 82 42 0A 70 		      	asli 	r4,r5,#5
014F44 7C 05 01 00 		      	addu 	r3,r4,#message_
014F48 14 32 00 E0 
014F4C 82 C1 00 1A 		      	mov  	r12,r3
014F50 43 36 00 00 		      	lcu  	r3,[r12]
014F54 82 31 00 22 		      	sxc  	r3,r3
014F58 61 37 00 00 		      	sc   	r3,[r14]
014F5C 7C 0D 01 00 		      	dec  	nMsgBlk_,#1
014F60 64 F0 01 E0 
014F64 E7 E1 01 00 		      	push 	r3
014F68 67 E2 01 00 		      	push 	r4
014F6C 39 89 FC FF 		      	bsr  	GetJCBPtr_
014F70 57 4F 10 00 		      	pop  	r4
014F74 57 3F 10 00 		      	pop  	r3
014F78 82 50 00 1A 		      	mov  	r5,r1
014F7C FC C2 00 00 		      	subu 	r4,r5,#jcbs_
014F80 95 42 00 30 
014F84 02 32 16 72 		      	lsri 	r3,r4,#11
014F88 61 36 04 00 		      	sc   	r3,2[r12]
014F8C C2 3D 30 00 		      	lc   	r3,24[bp]
014F90 61 36 08 00 		      	sc   	r3,4[r12]
014F94 0A 30 04 00 		      	ldi  	r3,#2
014F98 61 36 0C 00 		      	sc   	r3,6[r12]
014F9C C6 3D 40 00 		      	lw   	r3,32[bp]
014FA0 63 36 10 00 		      	sw   	r3,8[r12]
014FA4 C6 3D 50 00 		      	lw   	r3,40[bp]
014FA8 63 36 20 00 		      	sw   	r3,16[r12]
014FAC C6 3D 60 00 		      	lw   	r3,48[bp]
014FB0 63 36 30 00 		      	sw   	r3,24[r12]
014FB4 E7 E5 01 00 		      	push 	r11
014FB8 E7 E6 01 00 		      	push 	r13
014FBC B9 08 D6 FF 		      	bsr  	DequeueThreadFromMbx_
014FC0 14 EF 21 00 		      	addui	sp,sp,#16
014FC4 7C 0D 01 00 		      	push 	#sys_sema_
014FC8 65 E0 C1 E0 
014FCC B9 32 04 00 		      	bsr  	UnlockSemaphore_
                	FMTKmsg_84:
014FD0 C6 35 00 00 		      	lw   	r3,[r11]
014FD4 BD 11 12 00 		      	bne  	r3,FMTKmsg_93
014FD8 67 E6 01 00 		      	push 	r12
014FDC E7 E6 01 00 		      	push 	r13
014FE0 39 90 FE FF 		      	bsr  	QueueMsg_
014FE4 82 30 00 1A 		      	mov  	r3,r1
014FE8 E3 3D C0 FF 		      	sw   	r3,-32[bp]
014FEC C6 3D C0 FF 		      	lw   	r3,-32[bp]
014FF0 82 11 00 1A 		      	mov  	r1,r3
014FF4 3A DF FF FF 		      	bra  	FMTKmsg_89
                	FMTKmsg_93:
014FF8 65 E0 FF FF 		      	push 	#-1
014FFC 7C 0D 01 00 		      	push 	#sys_sema_
015000 65 E0 C1 E0 
015004 B9 1D 04 00 		      	bsr  	LockSemaphore_
015008 82 30 00 1A 		      	mov  	r3,r1
01500C BD 01 64 00 		      	beq  	r3,FMTKmsg_95
015010 C6 35 00 00 		      	lw   	r3,[r11]
015014 43 46 04 00 		      	lcu  	r4,2[r12]
015018 E1 41 44 05 		      	sc   	r4,674[r3]
01501C C6 35 00 00 		      	lw   	r3,[r11]
015020 43 46 08 00 		      	lcu  	r4,4[r12]
015024 E1 41 48 05 		      	sc   	r4,676[r3]
015028 C6 35 00 00 		      	lw   	r3,[r11]
01502C 43 46 0C 00 		      	lcu  	r4,6[r12]
015030 E1 41 4C 05 		      	sc   	r4,678[r3]
015034 C6 35 00 00 		      	lw   	r3,[r11]
015038 46 46 10 00 		      	lw   	r4,8[r12]
01503C E3 41 50 05 		      	sw   	r4,680[r3]
015040 C6 35 00 00 		      	lw   	r3,[r11]
015044 46 46 20 00 		      	lw   	r4,16[r12]
015048 E3 41 60 05 		      	sw   	r4,688[r3]
01504C C6 35 00 00 		      	lw   	r3,[r11]
015050 46 46 30 00 		      	lw   	r4,24[r12]
015054 E3 41 70 05 		      	sw   	r4,696[r3]
015058 0A 30 02 00 		      	ldi  	r3,#1
01505C 61 36 0C 00 		      	sc   	r3,6[r12]
015060 0A 30 FE FF 		      	ldi  	r3,#-1
015064 61 36 04 00 		      	sc   	r3,2[r12]
015068 0A 30 FE FF 		      	ldi  	r3,#-1
01506C 61 36 08 00 		      	sc   	r3,4[r12]
015070 42 37 00 00 		      	lc   	r3,[r14]
015074 61 36 00 00 		      	sc   	r3,[r12]
015078 7C 05 01 00 		      	subu 	r4,r12,#message_
01507C 15 46 00 E0 
015080 02 32 0A 72 		      	lsri 	r3,r4,#5
015084 61 37 00 00 		      	sc   	r3,[r14]
015088 C6 45 00 00 		      	lw   	r4,[r11]
01508C 40 42 9A 05 		      	lb   	r4,717[r4]
015090 0C 32 02 00 		      	and  	r3,r4,#1
015094 BD 01 0E 00 		      	beq  	r3,FMTKmsg_97
015098 C6 55 00 00 		      	lw   	r5,[r11]
01509C 7C 1A 01 00 		      	subu 	r4,r5,#tcbs_
0150A0 95 42 00 68 
0150A4 02 32 14 72 		      	lsri 	r3,r4,#10
0150A8 E7 E1 01 00 		      	push 	r3
0150AC 39 2F 01 00 		      	bsr  	RemoveFromTimeoutList_
                	FMTKmsg_97:
0150B0 C6 55 00 00 		      	lw   	r5,[r11]
0150B4 7C 1A 01 00 		      	subu 	r4,r5,#tcbs_
0150B8 95 42 00 68 
0150BC 02 32 14 72 		      	lsri 	r3,r4,#10
0150C0 E7 E1 01 00 		      	push 	r3
0150C4 B9 B5 00 00 		      	bsr  	InsertIntoReadyList_
0150C8 7C 0D 01 00 		      	push 	#sys_sema_
0150CC 65 E0 C1 E0 
0150D0 39 12 04 00 		      	bsr  	UnlockSemaphore_
                	FMTKmsg_95:
0150D4 0A 10 00 00 		      	ldi  	r1,#0
0150D8 BA C2 FF FF 		      	bra  	FMTKmsg_89
                	FMTKmsg_83:
0150DC C6 FD 11 00 		      	lw   	lr,8[bp]
0150E0 E3 FD 21 00 		      	sw   	lr,16[bp]
0150E4 3A C1 FF FF 		      	bra  	FMTKmsg_89
                	endpublic
                	
                	public code FMTK_WaitMsg_:
0150E8 E7 EF 01 00 		      	push 	lr
0150EC 67 EE 01 00 		      	push 	xlr
0150F0 E7 ED 01 00 		      	push 	bp
0150F4 7C 01 00 00 		      	ldi  	xlr,#FMTKmsg_99
0150F8 0A C0 11 A8 
0150FC 02 BF 01 1A 		      	mov  	bp,sp
015100 15 EF 41 00 		      	subui	sp,sp,#32
015104 E7 E5 01 00 		      	push 	r11
015108 67 E6 01 00 		      	push 	r12
01510C E7 E6 01 00 		      	push 	r13
015110 67 E7 01 00 		      	push 	r14
015114 E7 E7 01 00 		      	push 	r15
015118 67 E8 01 00 		      	push 	r16
01511C E7 E8 01 00 		      	push 	r17
015120 C6 DD 60 00 		      	lw   	r13,48[bp]
015124 C6 ED 50 00 		      	lw   	r14,40[bp]
015128 C6 FD 40 00 		      	lw   	r15,32[bp]
01512C 02 10 18 3E 		      	     	mfspr r1,ivno 
015130 C2 3D 30 00 		      	lc   	r3,24[bp]
015134 02 30 FE FF 		      	chk  	r3,r0,#1024
015138 C2 5D 30 00 		      	lc   	r5,24[bp]
01513C 82 42 0C 70 		      	asli 	r4,r5,#6
015140 7C 04 01 00 		      	addu 	r3,r4,#mailbox_
015144 14 32 00 E0 
015148 82 C1 00 1A 		      	mov  	r12,r3
01514C 65 E0 FF FF 		      	push 	#-1
015150 7C 0D 01 00 		      	push 	#sys_sema_
015154 65 E0 C1 E0 
015158 39 F3 03 00 		      	bsr  	LockSemaphore_
01515C 82 30 00 1A 		      	mov  	r3,r1
015160 BD 01 3A 00 		      	beq  	r3,FMTKmsg_100
015164 40 36 04 00 		      	lb   	r3,2[r12]
015168 BD 41 08 00 		      	blt  	r3,FMTKmsg_104
01516C 40 36 04 00 		      	lb   	r3,2[r12]
015170 86 41 66 00 		      	cmp  	r4,r3,#51
015174 3D 42 22 00 		      	blt  	r4,FMTKmsg_102
                	FMTKmsg_104:
015178 7C 0D 01 00 		      	push 	#sys_sema_
01517C 65 E0 C1 E0 
015180 39 FC 03 00 		      	bsr  	UnlockSemaphore_
015184 0A 10 10 00 		      	ldi  	r1,#8
                	FMTKmsg_105:
015188 57 1F 11 00 		      	pop  	r17
01518C 57 0F 11 00 		      	pop  	r16
015190 57 FF 10 00 		      	pop  	r15
015194 57 EF 10 00 		      	pop  	r14
015198 57 DF 10 00 		      	pop  	r13
01519C 57 CF 10 00 		      	pop  	r12
0151A0 57 BF 10 00 		      	pop  	r11
0151A4 82 ED 01 1A 		      	mov  	sp,bp
0151A8 57 BF 11 00 		      	pop  	bp
0151AC 57 CF 11 00 		      	pop  	xlr
0151B0 57 FF 11 00 		      	pop  	lr
0151B4 37 FF 01 00 		      	rtl  	#0
                	FMTKmsg_102:
0151B8 67 E6 01 00 		      	push 	r12
0151BC 39 B1 FE FF 		      	bsr  	DequeueMsg_
0151C0 82 30 00 1A 		      	mov  	r3,r1
0151C4 82 11 01 1A 		      	mov  	r17,r3
0151C8 7C 0D 01 00 		      	push 	#sys_sema_
0151CC 65 E0 C1 E0 
0151D0 39 F2 03 00 		      	bsr  	UnlockSemaphore_
                	FMTKmsg_100:
0151D4 BD 18 D2 00 		      	bne  	r17,FMTKmsg_106
0151D8 65 E0 FF FF 		      	push 	#-1
0151DC 7C 0D 01 00 		      	push 	#sys_sema_
0151E0 65 E0 C1 E0 
0151E4 B9 E1 03 00 		      	bsr  	LockSemaphore_
0151E8 82 30 00 1A 		      	mov  	r3,r1
0151EC BD 01 18 00 		      	beq  	r3,FMTKmsg_108
0151F0 39 88 00 00 		      	bsr  	GetRunningTCBPtr_
0151F4 82 30 00 1A 		      	mov  	r3,r1
0151F8 82 B1 00 1A 		      	mov  	r11,r3
0151FC 7C 1A 01 00 		      	subu 	r4,r11,#tcbs_
015200 95 45 00 68 
015204 02 32 14 72 		      	lsri 	r3,r4,#10
015208 E7 E1 01 00 		      	push 	r3
01520C B9 B4 00 00 		      	bsr  	RemoveFromReadyList_
015210 7C 0D 01 00 		      	push 	#sys_sema_
015214 65 E0 C1 E0 
015218 39 E9 03 00 		      	bsr  	UnlockSemaphore_
                	FMTKmsg_108:
01521C C0 35 9A 05 		      	lb   	r3,717[r11]
015220 8D 31 04 00 		      	ori  	r3,r3,#2
015224 E0 35 9A 05 		      	sb   	r3,717[r11]
015228 C2 3D 30 00 		      	lc   	r3,24[bp]
01522C E1 35 90 05 		      	sc   	r3,712[r11]
015230 E1 05 E8 04 		      	sc   	r0,628[r11]
015234 65 E0 FF FF 		      	push 	#-1
015238 7C 0D 01 00 		      	push 	#sys_sema_
01523C 65 E0 C1 E0 
015240 39 D6 03 00 		      	bsr  	LockSemaphore_
015244 82 30 00 1A 		      	mov  	r3,r1
015248 BD 01 44 00 		      	beq  	r3,FMTKmsg_110
01524C 42 36 08 00 		      	lc   	r3,4[r12]
015250 BD 31 1C 00 		      	bge  	r3,FMTKmsg_112
015254 0A 30 FE FF 		      	ldi  	r3,#-1
015258 E1 35 EC 04 		      	sc   	r3,630[r11]
01525C 7C 1A 01 00 		      	subu 	r4,r11,#tcbs_
015260 95 45 00 68 
015264 02 32 14 72 		      	lsri 	r3,r4,#10
015268 61 36 08 00 		      	sc   	r3,4[r12]
01526C 7C 1A 01 00 		      	subu 	r4,r11,#tcbs_
015270 95 45 00 68 
015274 02 32 14 72 		      	lsri 	r3,r4,#10
015278 61 36 0C 00 		      	sc   	r3,6[r12]
01527C 0A 30 02 00 		      	ldi  	r3,#1
015280 63 36 20 00 		      	sw   	r3,16[r12]
015284 3A 08 00 00 		      	bra  	FMTKmsg_113
                	FMTKmsg_112:
015288 42 36 0C 00 		      	lc   	r3,6[r12]
01528C E1 35 EC 04 		      	sc   	r3,630[r11]
015290 7C 1A 01 00 		      	subu 	r4,r11,#tcbs_
015294 95 45 00 68 
015298 02 32 14 72 		      	lsri 	r3,r4,#10
01529C 42 66 0C 00 		      	lc   	r6,6[r12]
0152A0 02 53 14 70 		      	asli 	r5,r6,#10
0152A4 7C 1A 01 00 		      	addu 	r4,r5,#tcbs_
0152A8 94 42 00 68 
0152AC 61 32 E8 04 		      	sc   	r3,628[r4]
0152B0 7C 1A 01 00 		      	subu 	r4,r11,#tcbs_
0152B4 95 45 00 68 
0152B8 02 32 14 72 		      	lsri 	r3,r4,#10
0152BC 61 36 0C 00 		      	sc   	r3,6[r12]
0152C0 64 16 20 00 		      	inc  	16[r12],#1
                	FMTKmsg_113:
0152C4 7C 0D 01 00 		      	push 	#sys_sema_
0152C8 65 E0 C1 E0 
0152CC B9 D2 03 00 		      	bsr  	UnlockSemaphore_
                	FMTKmsg_110:
0152D0 C6 3D 70 00 		      	lw   	r3,56[bp]
0152D4 BD 01 20 00 		      	beq  	r3,FMTKmsg_114
0152D8 65 E0 FF FF 		      	push 	#-1
0152DC 7C 0D 01 00 		      	push 	#sys_sema_
0152E0 65 E0 C1 E0 
0152E4 B9 C1 03 00 		      	bsr  	LockSemaphore_
0152E8 82 30 00 1A 		      	mov  	r3,r1
0152EC BD 01 14 00 		      	beq  	r3,FMTKmsg_116
0152F0 E6 ED 71 00 		      	push 	56[bp]
0152F4 7C 1A 01 00 		      	subu 	r4,r11,#tcbs_
0152F8 95 45 00 68 
0152FC 02 32 14 72 		      	lsri 	r3,r4,#10
015300 E7 E1 01 00 		      	push 	r3
015304 B9 BA 00 00 		      	bsr  	InsertIntoTimeoutList_
015308 7C 0D 01 00 		      	push 	#sys_sema_
01530C 65 E0 C1 E0 
015310 39 CA 03 00 		      	bsr  	UnlockSemaphore_
                	FMTKmsg_116:
                	FMTKmsg_114:
015314 38 0F 04 80 		      	     	int #2 
015318 39 63 00 00 		      	bsr  	GetRunningTCBPtr_
01531C 82 30 00 1A 		      	mov  	r3,r1
015320 82 01 01 1A 		      	mov  	r16,r3
015324 14 38 40 05 		      	addu 	r3,r16,#672
015328 C3 31 0C 00 		      	lcu  	r3,6[r3]
01532C BD 11 06 00 		      	bne  	r3,FMTKmsg_118
015330 0A 10 12 00 		      	ldi  	r1,#9
015334 BA CA FF FF 		      	bra  	FMTKmsg_105
                	FMTKmsg_118:
015338 61 08 4C 05 		      	sc   	r0,678[r16]
01533C 0A 30 FE FF 		      	ldi  	r3,#-1
015340 61 38 48 05 		      	sc   	r3,676[r16]
015344 0A 30 FE FF 		      	ldi  	r3,#-1
015348 61 38 44 05 		      	sc   	r3,674[r16]
01534C BD 07 06 00 		      	beq  	r15,FMTKmsg_120
015350 46 38 50 05 		      	lw   	r3,680[r16]
015354 E3 37 00 00 		      	sw   	r3,[r15]
                	FMTKmsg_120:
015358 3D 07 06 00 		      	beq  	r14,FMTKmsg_122
01535C 46 38 60 05 		      	lw   	r3,688[r16]
015360 63 37 00 00 		      	sw   	r3,[r14]
                	FMTKmsg_122:
015364 BD 06 06 00 		      	beq  	r13,FMTKmsg_124
015368 46 38 70 05 		      	lw   	r3,696[r16]
01536C E3 36 00 00 		      	sw   	r3,[r13]
                	FMTKmsg_124:
015370 0A 10 00 00 		      	ldi  	r1,#0
015374 BA C2 FF FF 		      	bra  	FMTKmsg_105
                	FMTKmsg_106:
015378 BD 07 06 00 		      	beq  	r15,FMTKmsg_126
01537C C6 38 10 00 		      	lw   	r3,8[r17]
015380 E3 37 00 00 		      	sw   	r3,[r15]
                	FMTKmsg_126:
015384 3D 07 06 00 		      	beq  	r14,FMTKmsg_128
015388 C6 38 20 00 		      	lw   	r3,16[r17]
01538C 63 37 00 00 		      	sw   	r3,[r14]
                	FMTKmsg_128:
015390 BD 06 06 00 		      	beq  	r13,FMTKmsg_130
015394 C6 38 30 00 		      	lw   	r3,24[r17]
015398 E3 36 00 00 		      	sw   	r3,[r13]
                	FMTKmsg_130:
01539C 65 E0 FF FF 		      	push 	#-1
0153A0 7C 0D 01 00 		      	push 	#sys_sema_
0153A4 65 E0 C1 E0 
0153A8 39 A9 03 00 		      	bsr  	LockSemaphore_
0153AC 82 30 00 1A 		      	mov  	r3,r1
0153B0 BD 01 28 00 		      	beq  	r3,FMTKmsg_132
0153B4 0A 30 02 00 		      	ldi  	r3,#1
0153B8 E1 38 0C 00 		      	sc   	r3,6[r17]
0153BC 0A 30 FE FF 		      	ldi  	r3,#-1
0153C0 E1 38 04 00 		      	sc   	r3,2[r17]
0153C4 0A 30 FE FF 		      	ldi  	r3,#-1
0153C8 E1 38 08 00 		      	sc   	r3,4[r17]
0153CC 7C 0D 01 00 		      	lc   	r3,freeMSG_
0153D0 42 30 20 E0 
0153D4 E1 38 00 00 		      	sc   	r3,[r17]
0153D8 7C 05 01 00 		      	subu 	r4,r17,#message_
0153DC 95 48 00 E0 
0153E0 02 32 0A 72 		      	lsri 	r3,r4,#5
0153E4 7C 0D 01 00 		      	sc   	r3,freeMSG_
0153E8 61 30 20 E0 
0153EC 7C 0D 01 00 		      	inc  	nMsgBlk_,#1
0153F0 64 10 00 E0 
0153F4 7C 0D 01 00 		      	push 	#sys_sema_
0153F8 65 E0 C1 E0 
0153FC B9 AC 03 00 		      	bsr  	UnlockSemaphore_
                	FMTKmsg_132:
015400 0A 10 00 00 		      	ldi  	r1,#0
015404 BA B0 FF FF 		      	bra  	FMTKmsg_105
                	FMTKmsg_99:
015408 C6 FD 11 00 		      	lw   	lr,8[bp]
01540C E3 FD 21 00 		      	sw   	lr,16[bp]
015410 3A AF FF FF 		      	bra  	FMTKmsg_105
                	endpublic
                	
                	public code FMTK_PeekMsg_:
015414 E7 EF 01 00 		      	push 	lr
015418 67 EE 01 00 		      	push 	xlr
01541C E7 ED 01 00 		      	push 	bp
015420 7C 01 00 00 		      	ldi  	xlr,#FMTKmsg_134
015424 0A C0 C1 A8 
015428 02 BF 01 1A 		      	mov  	bp,sp
01542C 65 E0 01 00 		      	push 	#0
015430 E6 ED 51 00 		      	push 	40[bp]
015434 E6 ED 41 00 		      	push 	32[bp]
015438 E6 ED 31 00 		      	push 	24[bp]
01543C B9 78 D5 FF 		      	bsr  	CheckMsg_
015440 14 EF 41 00 		      	addui	sp,sp,#32
015444 82 30 00 1A 		      	mov  	r3,r1
015448 82 11 00 1A 		      	mov  	r1,r3
                	FMTKmsg_135:
01544C 82 ED 01 1A 		      	mov  	sp,bp
015450 57 BF 11 00 		      	pop  	bp
015454 57 CF 11 00 		      	pop  	xlr
015458 57 FF 11 00 		      	pop  	lr
01545C 37 FF 01 00 		      	rtl  	#0
                	FMTKmsg_134:
015460 C6 FD 11 00 		      	lw   	lr,8[bp]
015464 E3 FD 21 00 		      	sw   	lr,16[bp]
015468 BA FC FF FF 		      	bra  	FMTKmsg_135
                	endpublic
                	
                	public code FMTK_CheckMsg_:
01546C E7 EF 01 00 		      	push 	lr
015470 67 EE 01 00 		      	push 	xlr
015474 E7 ED 01 00 		      	push 	bp
015478 7C 01 00 00 		      	ldi  	xlr,#FMTKmsg_136
01547C 0A C0 09 AC 
015480 02 BF 01 1A 		      	mov  	bp,sp
015484 15 EF 21 00 		      	subui	sp,sp,#16
015488 E7 E5 01 00 		      	push 	r11
01548C 67 E6 01 00 		      	push 	r12
015490 E7 E6 01 00 		      	push 	r13
015494 67 E7 01 00 		      	push 	r14
015498 E7 E7 01 00 		      	push 	r15
01549C C6 DD 60 00 		      	lw   	r13,48[bp]
0154A0 C6 ED 50 00 		      	lw   	r14,40[bp]
0154A4 C6 FD 40 00 		      	lw   	r15,32[bp]
0154A8 02 10 18 3E 		      	     	mfspr r1,ivno 
0154AC C2 3D 30 00 		      	lc   	r3,24[bp]
0154B0 02 30 FE FF 		      	chk  	r3,r0,#1024
0154B4 C2 5D 30 00 		      	lc   	r5,24[bp]
0154B8 82 42 0C 70 		      	asli 	r4,r5,#6
0154BC 7C 04 01 00 		      	addu 	r3,r4,#mailbox_
0154C0 14 32 00 E0 
0154C4 82 C1 00 1A 		      	mov  	r12,r3
0154C8 65 E0 FF FF 		      	push 	#-1
0154CC 7C 0D 01 00 		      	push 	#sys_sema_
0154D0 65 E0 C1 E0 
0154D4 B9 83 03 00 		      	bsr  	LockSemaphore_
0154D8 82 30 00 1A 		      	mov  	r3,r1
0154DC BD 01 40 00 		      	beq  	r3,FMTKmsg_137
0154E0 40 36 04 00 		      	lb   	r3,2[r12]
0154E4 BD 11 1E 00 		      	bne  	r3,FMTKmsg_139
0154E8 7C 0D 01 00 		      	push 	#sys_sema_
0154EC 65 E0 C1 E0 
0154F0 39 8E 03 00 		      	bsr  	UnlockSemaphore_
0154F4 0A 10 10 00 		      	ldi  	r1,#8
                	FMTKmsg_141:
0154F8 57 FF 10 00 		      	pop  	r15
0154FC 57 EF 10 00 		      	pop  	r14
015500 57 DF 10 00 		      	pop  	r13
015504 57 CF 10 00 		      	pop  	r12
015508 57 BF 10 00 		      	pop  	r11
01550C 82 ED 01 1A 		      	mov  	sp,bp
015510 57 BF 11 00 		      	pop  	bp
015514 57 CF 11 00 		      	pop  	xlr
015518 57 FF 11 00 		      	pop  	lr
01551C 37 FF 01 00 		      	rtl  	#0
                	FMTKmsg_139:
015520 C6 3D 70 00 		      	lw   	r3,56[bp]
015524 86 41 02 00 		      	cmp  	r4,r3,#1
015528 3D 12 0C 00 		      	bne  	r4,FMTKmsg_142
01552C 67 E6 01 00 		      	push 	r12
015530 B9 42 FE FF 		      	bsr  	DequeueMsg_
015534 82 30 00 1A 		      	mov  	r3,r1
015538 82 B1 00 1A 		      	mov  	r11,r3
01553C BA 02 00 00 		      	bra  	FMTKmsg_143
                	FMTKmsg_142:
015540 42 36 10 00 		      	lc   	r3,8[r12]
015544 FC 00 00 00 		      	andi 	r3,r3,#65535
015548 8C 31 FE FF 
01554C 82 B1 00 1A 		      	mov  	r11,r3
                	FMTKmsg_143:
015550 7C 0D 01 00 		      	push 	#sys_sema_
015554 65 E0 C1 E0 
015558 39 81 03 00 		      	bsr  	UnlockSemaphore_
                	FMTKmsg_137:
01555C BD 15 06 00 		      	bne  	r11,FMTKmsg_144
015560 0A 10 12 00 		      	ldi  	r1,#9
015564 BA F2 FF FF 		      	bra  	FMTKmsg_141
                	FMTKmsg_144:
015568 BD 07 06 00 		      	beq  	r15,FMTKmsg_146
01556C C6 35 10 00 		      	lw   	r3,8[r11]
015570 E3 37 00 00 		      	sw   	r3,[r15]
                	FMTKmsg_146:
015574 3D 07 06 00 		      	beq  	r14,FMTKmsg_148
015578 C6 35 20 00 		      	lw   	r3,16[r11]
01557C 63 37 00 00 		      	sw   	r3,[r14]
                	FMTKmsg_148:
015580 BD 06 06 00 		      	beq  	r13,FMTKmsg_150
015584 C6 35 30 00 		      	lw   	r3,24[r11]
015588 E3 36 00 00 		      	sw   	r3,[r13]
                	FMTKmsg_150:
01558C C6 3D 70 00 		      	lw   	r3,56[bp]
015590 86 41 02 00 		      	cmp  	r4,r3,#1
015594 3D 12 34 00 		      	bne  	r4,FMTKmsg_152
015598 65 E0 FF FF 		      	push 	#-1
01559C 7C 0D 01 00 		      	push 	#sys_sema_
0155A0 65 E0 C1 E0 
0155A4 B9 69 03 00 		      	bsr  	LockSemaphore_
0155A8 82 30 00 1A 		      	mov  	r3,r1
0155AC BD 01 28 00 		      	beq  	r3,FMTKmsg_154
0155B0 0A 30 02 00 		      	ldi  	r3,#1
0155B4 E1 35 0C 00 		      	sc   	r3,6[r11]
0155B8 0A 30 FE FF 		      	ldi  	r3,#-1
0155BC E1 35 04 00 		      	sc   	r3,2[r11]
0155C0 0A 30 FE FF 		      	ldi  	r3,#-1
0155C4 E1 35 08 00 		      	sc   	r3,4[r11]
0155C8 7C 0D 01 00 		      	lc   	r3,freeMSG_
0155CC 42 30 20 E0 
0155D0 E1 35 00 00 		      	sc   	r3,[r11]
0155D4 7C 05 01 00 		      	subu 	r4,r11,#message_
0155D8 95 45 00 E0 
0155DC 02 32 0A 72 		      	lsri 	r3,r4,#5
0155E0 7C 0D 01 00 		      	sc   	r3,freeMSG_
0155E4 61 30 20 E0 
0155E8 7C 0D 01 00 		      	inc  	nMsgBlk_,#1
0155EC 64 10 00 E0 
0155F0 7C 0D 01 00 		      	push 	#sys_sema_
0155F4 65 E0 C1 E0 
0155F8 39 6D 03 00 		      	bsr  	UnlockSemaphore_
                	FMTKmsg_154:
                	FMTKmsg_152:
0155FC 0A 10 00 00 		      	ldi  	r1,#0
015600 3A DF FF FF 		      	bra  	FMTKmsg_141
                	FMTKmsg_136:
015604 C6 FD 11 00 		      	lw   	lr,8[bp]
015608 E3 FD 21 00 		      	sw   	lr,16[bp]
01560C BA DD FF FF 		      	bra  	FMTKmsg_141
                	endpublic
                	
                		code
                		align	16                	
                	public code chkTCB_:
015610 15 EF 21 00 		      	subui	sp,sp,#16
015614 E7 ED 01 00 		      	push 	bp
015618 02 BF 01 1A 		      	mov  	bp,sp
01561C C6 1D 30 00 		      	     	        lw    r1,24[bp]
015620 82 10 60 34 	        chk   r1,r1,b48
                	    
                	TCB_1:
015624 82 ED 01 1A 		      	mov  	sp,bp
015628 57 BF 11 00 		      	pop  	bp
01562C 37 FF 31 00 		      	rtl  	#24
                	endpublic
                	
                	public code GetRunningTCBPtr_:
015630 02 1C 00 1A 		      	     	        mov   r1,tr
015634 37 FF 01 00 	        rtl
    
                	endpublic
                	
                	public code GetRunningTCB_:
015638 7C 1A 01 00 		      	     	        subui  r1,tr,#tcbs_
01563C 15 1C 00 68 
015640 82 10 14 72 	        lsri   r1,r1,#10
015644 37 FF 01 00 	        rtl
    
                	endpublic
                	
                	public code SetRunningTCB_:
015648 15 EF 21 00 		      	subui	sp,sp,#16
01564C E7 ED 01 00 		      	push 	bp
015650 02 BF 01 1A 		      	mov  	bp,sp
015654 C6 8D 31 00 		      	     	         lw      tr,24[bp]
015658 02 8C 15 70 	         asli    tr,tr,#10
01565C 7C 1A 01 00 	         addui   tr,tr,#tcbs_
015660 14 8C 01 68 
                	     
                	TCB_7:
015664 82 ED 01 1A 		      	mov  	sp,bp
015668 57 BF 11 00 		      	pop  	bp
01566C 37 FF 31 00 		      	rtl  	#24
                	endpublic
                	
                		code
                		align	16                	
                	public code InsertIntoReadyList_:
015670 15 EF 21 00 		      	subui	sp,sp,#16
015674 E7 ED 01 00 		      	push 	bp
015678 02 BF 01 1A 		      	mov  	bp,sp
01567C 15 EF 31 00 		      	subui	sp,sp,#24
015680 E7 E5 01 00 		      	push 	r11
015684 67 E6 01 00 		      	push 	r12
015688 E7 E6 01 00 		      	push 	r13
01568C 7C 1A 01 00 		      	ldi  	r13,#tcbs_
015690 0A D0 00 68 
015694 C2 3D 30 00 		      	lc   	r3,24[bp]
015698 02 30 FE FF 		      	chk  	r3,r0,#256
01569C C2 5D 30 00 		      	lc   	r5,24[bp]
0156A0 82 42 14 70 		      	asli 	r4,r5,#10
0156A4 02 32 1A 28 		      	addu 	r3,r4,r13
0156A8 82 B1 00 1A 		      	mov  	r11,r3
0156AC C0 35 98 05 		      	lb   	r3,716[r11]
0156B0 86 41 7E 00 		      	cmp  	r4,r3,#63
0156B4 3D 22 06 00 		      	bgt  	r4,TCB_11
0156B8 C0 35 98 05 		      	lb   	r3,716[r11]
0156BC BD 31 10 00 		      	bge  	r3,TCB_9
                	TCB_11:
0156C0 0A 10 04 00 		      	ldi  	r1,#2
                	TCB_12:
0156C4 57 DF 10 00 		      	pop  	r13
0156C8 57 CF 10 00 		      	pop  	r12
0156CC 57 BF 10 00 		      	pop  	r11
0156D0 82 ED 01 1A 		      	mov  	sp,bp
0156D4 57 BF 11 00 		      	pop  	bp
0156D8 37 FF 31 00 		      	rtl  	#24
                	TCB_9:
0156DC C0 35 98 05 		      	lb   	r3,716[r11]
0156E0 86 41 06 00 		      	cmp  	r4,r3,#3
0156E4 3D 32 14 00 		      	bge  	r4,TCB_13
0156E8 0A 40 02 00 		      	ldi  	r4,#1
0156EC C0 55 98 05 		      	lb   	r5,716[r11]
0156F0 82 52 00 20 		      	sxb  	r5,r5
0156F4 02 32 0A 60 		      	asl  	r3,r4,r5
0156F8 7C 0D 01 00 		      	lcu  	r4,hasUltraHighPriorityTasks_
0156FC 43 40 E0 E0 
015700 02 42 06 1A 		      	or   	r4,r4,r3
015704 7C 0D 01 00 		      	sc   	r4,hasUltraHighPriorityTasks_
015708 61 40 E0 E0 
                	TCB_13:
01570C 0A 30 20 00 		      	ldi  	r3,#16
015710 E0 35 9A 05 		      	sb   	r3,717[r11]
015714 C0 55 98 05 		      	lb   	r5,716[r11]
015718 82 52 00 20 		      	sxb  	r5,r5
01571C 82 42 06 78 		      	asri 	r4,r5,#3
015720 02 32 02 70 		      	asli 	r3,r4,#1
015724 7C 1E 01 00 		      	lc   	r4,readyQ_[r3]
015728 C2 41 20 68 
01572C E1 4D FC FF 		      	sc   	r4,-2[bp]
015730 C2 3D FC FF 		      	lc   	r3,-2[bp]
015734 BD 31 1C 00 		      	bge  	r3,TCB_15
015738 C2 3D 30 00 		      	lc   	r3,24[bp]
01573C E1 35 E0 04 		      	sc   	r3,624[r11]
015740 C2 3D 30 00 		      	lc   	r3,24[bp]
015744 E1 35 E4 04 		      	sc   	r3,626[r11]
015748 C0 55 98 05 		      	lb   	r5,716[r11]
01574C 82 52 00 20 		      	sxb  	r5,r5
015750 82 42 06 78 		      	asri 	r4,r5,#3
015754 02 32 02 70 		      	asli 	r3,r4,#1
015758 C2 4D 30 00 		      	lc   	r4,24[bp]
01575C 7C 1E 01 00 		      	sc   	r4,readyQ_[r3]
015760 E1 41 20 68 
015764 0A 10 00 00 		      	ldi  	r1,#0
015768 BA EB FF FF 		      	bra  	TCB_12
                	TCB_15:
01576C C2 5D FC FF 		      	lc   	r5,-2[bp]
015770 82 42 14 70 		      	asli 	r4,r5,#10
015774 02 32 1A 28 		      	addu 	r3,r4,r13
015778 82 C1 00 1A 		      	mov  	r12,r3
01577C C2 3D FC FF 		      	lc   	r3,-2[bp]
015780 E1 35 E0 04 		      	sc   	r3,624[r11]
015784 42 36 E4 04 		      	lc   	r3,626[r12]
015788 E1 35 E4 04 		      	sc   	r3,626[r11]
01578C 42 56 E4 04 		      	lc   	r5,626[r12]
015790 82 42 14 70 		      	asli 	r4,r5,#10
015794 02 32 1A 28 		      	addu 	r3,r4,r13
015798 C2 4D 30 00 		      	lc   	r4,24[bp]
01579C E1 41 E0 04 		      	sc   	r4,624[r3]
0157A0 C2 3D 30 00 		      	lc   	r3,24[bp]
0157A4 61 36 E4 04 		      	sc   	r3,626[r12]
0157A8 0A 10 00 00 		      	ldi  	r1,#0
0157AC 3A E3 FF FF 		      	bra  	TCB_12
                	endpublic
                	
                	public code RemoveFromReadyList_:
0157B0 15 EF 21 00 		      	subui	sp,sp,#16
0157B4 E7 ED 01 00 		      	push 	bp
0157B8 02 BF 01 1A 		      	mov  	bp,sp
0157BC 15 EF 11 00 		      	subui	sp,sp,#8
0157C0 E7 E5 01 00 		      	push 	r11
0157C4 67 E6 01 00 		      	push 	r12
0157C8 E7 E6 01 00 		      	push 	r13
0157CC 7C 1E 01 00 		      	ldi  	r12,#readyQ_
0157D0 0A C0 20 68 
0157D4 7C 1A 01 00 		      	ldi  	r13,#tcbs_
0157D8 0A D0 00 68 
0157DC C2 3D 30 00 		      	lc   	r3,24[bp]
0157E0 02 30 FE FF 		      	chk  	r3,r0,#256
0157E4 C2 5D 30 00 		      	lc   	r5,24[bp]
0157E8 82 42 14 70 		      	asli 	r4,r5,#10
0157EC 02 32 1A 28 		      	addu 	r3,r4,r13
0157F0 82 B1 00 1A 		      	mov  	r11,r3
0157F4 C0 35 98 05 		      	lb   	r3,716[r11]
0157F8 86 41 7E 00 		      	cmp  	r4,r3,#63
0157FC 3D 22 06 00 		      	bgt  	r4,TCB_20
015800 C0 35 98 05 		      	lb   	r3,716[r11]
015804 BD 31 10 00 		      	bge  	r3,TCB_18
                	TCB_20:
015808 0A 10 04 00 		      	ldi  	r1,#2
                	TCB_21:
01580C 57 DF 10 00 		      	pop  	r13
015810 57 CF 10 00 		      	pop  	r12
015814 57 BF 10 00 		      	pop  	r11
015818 82 ED 01 1A 		      	mov  	sp,bp
01581C 57 BF 11 00 		      	pop  	bp
015820 37 FF 31 00 		      	rtl  	#24
                	TCB_18:
015824 C2 3D 30 00 		      	lc   	r3,24[bp]
015828 C0 65 98 05 		      	lb   	r6,716[r11]
01582C 02 63 00 20 		      	sxb  	r6,r6
015830 02 53 06 78 		      	asri 	r5,r6,#3
015834 82 42 02 70 		      	asli 	r4,r5,#1
015838 4A 46 08 00 		      	lc   	r4,0[r12+r4]
01583C 82 51 08 0C 		      	cmp  	r5,r3,r4
015840 BD 12 0E 00 		      	bne  	r5,TCB_22
015844 C0 55 98 05 		      	lb   	r5,716[r11]
015848 82 52 00 20 		      	sxb  	r5,r5
01584C 82 42 06 78 		      	asri 	r4,r5,#3
015850 02 32 02 70 		      	asli 	r3,r4,#1
015854 C2 45 E0 04 		      	lc   	r4,624[r11]
015858 69 46 06 00 		      	sc   	r4,0[r12+r3]
                	TCB_22:
01585C C2 3D 30 00 		      	lc   	r3,24[bp]
015860 C0 65 98 05 		      	lb   	r6,716[r11]
015864 02 63 00 20 		      	sxb  	r6,r6
015868 02 53 06 78 		      	asri 	r5,r6,#3
01586C 82 42 02 70 		      	asli 	r4,r5,#1
015870 4A 46 08 00 		      	lc   	r4,0[r12+r4]
015874 82 51 08 0C 		      	cmp  	r5,r3,r4
015878 BD 12 0E 00 		      	bne  	r5,TCB_24
01587C C0 55 98 05 		      	lb   	r5,716[r11]
015880 82 52 00 20 		      	sxb  	r5,r5
015884 82 42 06 78 		      	asri 	r4,r5,#3
015888 02 32 02 70 		      	asli 	r3,r4,#1
01588C 0A 40 FE FF 		      	ldi  	r4,#-1
015890 69 46 06 00 		      	sc   	r4,0[r12+r3]
                	TCB_24:
015894 C2 55 E0 04 		      	lc   	r5,624[r11]
015898 82 42 14 70 		      	asli 	r4,r5,#10
01589C 02 32 1A 28 		      	addu 	r3,r4,r13
0158A0 C2 45 E4 04 		      	lc   	r4,626[r11]
0158A4 E1 41 E4 04 		      	sc   	r4,626[r3]
0158A8 C2 55 E4 04 		      	lc   	r5,626[r11]
0158AC 82 42 14 70 		      	asli 	r4,r5,#10
0158B0 02 32 1A 28 		      	addu 	r3,r4,r13
0158B4 C2 45 E0 04 		      	lc   	r4,624[r11]
0158B8 E1 41 E0 04 		      	sc   	r4,624[r3]
0158BC 0A 30 FE FF 		      	ldi  	r3,#-1
0158C0 E1 35 E0 04 		      	sc   	r3,624[r11]
0158C4 0A 30 FE FF 		      	ldi  	r3,#-1
0158C8 E1 35 E4 04 		      	sc   	r3,626[r11]
0158CC E0 05 9A 05 		      	sb   	r0,717[r11]
0158D0 0A 10 00 00 		      	ldi  	r1,#0
0158D4 3A E7 FF FF 		      	bra  	TCB_21
                	endpublic
                	
                	public code InsertIntoTimeoutList_:
0158D8 15 EF 21 00 		      	subui	sp,sp,#16
0158DC E7 ED 01 00 		      	push 	bp
0158E0 02 BF 01 1A 		      	mov  	bp,sp
0158E4 15 EF 31 00 		      	subui	sp,sp,#24
0158E8 E7 E5 01 00 		      	push 	r11
0158EC 67 E6 01 00 		      	push 	r12
0158F0 E7 E6 01 00 		      	push 	r13
0158F4 7C 1E 01 00 		      	ldi  	r13,#TimeoutList_
0158F8 0A D0 10 68 
0158FC C2 3D 30 00 		      	lc   	r3,24[bp]
015900 02 30 FE FF 		      	chk  	r3,r0,#256
015904 C2 5D 30 00 		      	lc   	r5,24[bp]
015908 82 42 14 70 		      	asli 	r4,r5,#10
01590C 7C 1A 01 00 		      	addu 	r3,r4,#tcbs_
015910 14 32 00 68 
015914 82 C1 00 1A 		      	mov  	r12,r3
015918 C2 36 00 00 		      	lc   	r3,[r13]
01591C BD 31 20 00 		      	bge  	r3,TCB_27
015920 C6 3D 40 00 		      	lw   	r3,32[bp]
015924 63 36 20 05 		      	sw   	r3,656[r12]
015928 C2 3D 30 00 		      	lc   	r3,24[bp]
01592C E1 36 00 00 		      	sc   	r3,[r13]
015930 0A 30 FE FF 		      	ldi  	r3,#-1
015934 61 36 E0 04 		      	sc   	r3,624[r12]
015938 0A 30 FE FF 		      	ldi  	r3,#-1
01593C 61 36 E4 04 		      	sc   	r3,626[r12]
015940 0A 10 00 00 		      	ldi  	r1,#0
                	TCB_29:
015944 57 DF 10 00 		      	pop  	r13
015948 57 CF 10 00 		      	pop  	r12
01594C 57 BF 10 00 		      	pop  	r11
015950 82 ED 01 1A 		      	mov  	sp,bp
015954 57 BF 11 00 		      	pop  	bp
015958 37 FF 41 00 		      	rtl  	#32
                	TCB_27:
01595C E3 0D E0 FF 		      	sw   	r0,-16[bp]
015960 C2 56 00 00 		      	lc   	r5,[r13]
015964 82 42 14 70 		      	asli 	r4,r5,#10
015968 7C 1A 01 00 		      	addu 	r3,r4,#tcbs_
01596C 14 32 00 68 
015970 82 B1 00 1A 		      	mov  	r11,r3
                	TCB_30:
015974 C6 3D 40 00 		      	lw   	r3,32[bp]
015978 C6 45 20 05 		      	lw   	r4,656[r11]
01597C 82 51 08 0C 		      	cmp  	r5,r3,r4
015980 BD 52 18 00 		      	ble  	r5,TCB_31
015984 C6 35 20 05 		      	lw   	r3,656[r11]
015988 C6 4D 40 00 		      	lw   	r4,32[bp]
01598C 02 42 06 2A 		      	subu 	r4,r4,r3
015990 E3 4D 40 00 		      	sw   	r4,32[bp]
015994 E3 BD E0 FF 		      	sw   	r11,-16[bp]
015998 C2 55 E0 04 		      	lc   	r5,624[r11]
01599C 82 42 14 70 		      	asli 	r4,r5,#10
0159A0 7C 1A 01 00 		      	addu 	r3,r4,#tcbs_
0159A4 14 32 00 68 
0159A8 82 B1 00 1A 		      	mov  	r11,r3
0159AC 3A F9 FF FF 		      	bra  	TCB_30
                	TCB_31:
0159B0 7C 1A 01 00 		      	subu 	r4,r11,#tcbs_
0159B4 95 45 00 68 
0159B8 02 32 14 72 		      	lsri 	r3,r4,#10
0159BC 61 36 E0 04 		      	sc   	r3,624[r12]
0159C0 C6 5D E0 FF 		      	lw   	r5,-16[bp]
0159C4 7C 1A 01 00 		      	subu 	r4,r5,#tcbs_
0159C8 95 42 00 68 
0159CC 02 32 14 72 		      	lsri 	r3,r4,#10
0159D0 61 36 E4 04 		      	sc   	r3,626[r12]
0159D4 BD 05 0E 00 		      	beq  	r11,TCB_32
0159D8 C6 3D 40 00 		      	lw   	r3,32[bp]
0159DC C6 45 20 05 		      	lw   	r4,656[r11]
0159E0 02 42 06 2A 		      	subu 	r4,r4,r3
0159E4 E3 45 20 05 		      	sw   	r4,656[r11]
0159E8 C2 3D 30 00 		      	lc   	r3,24[bp]
0159EC E1 35 E4 04 		      	sc   	r3,626[r11]
                	TCB_32:
0159F0 C6 3D E0 FF 		      	lw   	r3,-16[bp]
0159F4 BD 01 0A 00 		      	beq  	r3,TCB_34
0159F8 C6 3D E0 FF 		      	lw   	r3,-16[bp]
0159FC C2 4D 30 00 		      	lc   	r4,24[bp]
015A00 E1 41 E0 04 		      	sc   	r4,624[r3]
015A04 BA 01 00 00 		      	bra  	TCB_35
                	TCB_34:
015A08 C2 3D 30 00 		      	lc   	r3,24[bp]
015A0C E1 36 00 00 		      	sc   	r3,[r13]
                	TCB_35:
015A10 40 36 9A 05 		      	lb   	r3,717[r12]
015A14 8D 31 02 00 		      	ori  	r3,r3,#1
015A18 60 36 9A 05 		      	sb   	r3,717[r12]
015A1C 0A 10 00 00 		      	ldi  	r1,#0
015A20 BA E4 FF FF 		      	bra  	TCB_29
                	endpublic
                	
                	public code RemoveFromTimeoutList_:
015A24 15 EF 21 00 		      	subui	sp,sp,#16
015A28 E7 ED 01 00 		      	push 	bp
015A2C 02 BF 01 1A 		      	mov  	bp,sp
015A30 15 EF 11 00 		      	subui	sp,sp,#8
015A34 E7 E5 01 00 		      	push 	r11
015A38 67 E6 01 00 		      	push 	r12
015A3C 7C 1A 01 00 		      	ldi  	r12,#tcbs_
015A40 0A C0 00 68 
015A44 C2 3D 30 00 		      	lc   	r3,24[bp]
015A48 02 30 FE FF 		      	chk  	r3,r0,#256
015A4C C2 5D 30 00 		      	lc   	r5,24[bp]
015A50 82 42 14 70 		      	asli 	r4,r5,#10
015A54 02 32 18 28 		      	addu 	r3,r4,r12
015A58 82 B1 00 1A 		      	mov  	r11,r3
015A5C C2 35 E0 04 		      	lc   	r3,624[r11]
015A60 BD 01 1A 00 		      	beq  	r3,TCB_37
015A64 C2 55 E0 04 		      	lc   	r5,624[r11]
015A68 82 42 14 70 		      	asli 	r4,r5,#10
015A6C 02 32 18 28 		      	addu 	r3,r4,r12
015A70 C2 45 E4 04 		      	lc   	r4,626[r11]
015A74 E1 41 E4 04 		      	sc   	r4,626[r3]
015A78 C2 55 E0 04 		      	lc   	r5,624[r11]
015A7C 82 42 14 70 		      	asli 	r4,r5,#10
015A80 02 32 18 28 		      	addu 	r3,r4,r12
015A84 C6 45 20 05 		      	lw   	r4,656[r11]
015A88 C6 51 20 05 		      	lw   	r5,656[r3]
015A8C 82 52 08 28 		      	addu 	r5,r5,r4
015A90 E3 51 20 05 		      	sw   	r5,656[r3]
                	TCB_37:
015A94 C2 35 E4 04 		      	lc   	r3,626[r11]
015A98 BD 41 0C 00 		      	blt  	r3,TCB_39
015A9C C2 55 E4 04 		      	lc   	r5,626[r11]
015AA0 82 42 14 70 		      	asli 	r4,r5,#10
015AA4 02 32 18 28 		      	addu 	r3,r4,r12
015AA8 C2 45 E0 04 		      	lc   	r4,624[r11]
015AAC E1 41 E0 04 		      	sc   	r4,624[r3]
                	TCB_39:
015AB0 E0 05 9A 05 		      	sb   	r0,717[r11]
015AB4 0A 30 FE FF 		      	ldi  	r3,#-1
015AB8 E1 35 E0 04 		      	sc   	r3,624[r11]
015ABC 0A 30 FE FF 		      	ldi  	r3,#-1
015AC0 E1 35 E4 04 		      	sc   	r3,626[r11]
                	TCB_41:
015AC4 57 CF 10 00 		      	pop  	r12
015AC8 57 BF 10 00 		      	pop  	r11
015ACC 82 ED 01 1A 		      	mov  	sp,bp
015AD0 57 BF 11 00 		      	pop  	bp
015AD4 37 FF 31 00 		      	rtl  	#24
                	endpublic
                	
                	public code PopTimeoutList_:
015AD8 15 EF 21 00 		      	subui	sp,sp,#16
015ADC E7 ED 01 00 		      	push 	bp
015AE0 02 BF 01 1A 		      	mov  	bp,sp
015AE4 15 EF 21 00 		      	subui	sp,sp,#16
015AE8 E7 E5 01 00 		      	push 	r11
015AEC 7C 1E 01 00 		      	ldi  	r11,#TimeoutList_
015AF0 0A B0 10 68 
015AF4 C2 35 00 00 		      	lc   	r3,[r11]
015AF8 E1 3D EC FF 		      	sc   	r3,-10[bp]
015AFC C2 35 00 00 		      	lc   	r3,[r11]
015B00 BD 41 2A 00 		      	blt  	r3,TCB_43
015B04 C2 35 00 00 		      	lc   	r3,[r11]
015B08 86 41 00 02 		      	cmp  	r4,r3,#256
015B0C 3D 32 24 00 		      	bge  	r4,TCB_43
015B10 C2 55 00 00 		      	lc   	r5,[r11]
015B14 82 42 14 70 		      	asli 	r4,r5,#10
015B18 7C 1A 01 00 		      	addu 	r3,r4,#tcbs_
015B1C 14 32 00 68 
015B20 C2 41 E0 04 		      	lc   	r4,624[r3]
015B24 E1 45 00 00 		      	sc   	r4,[r11]
015B28 C2 35 00 00 		      	lc   	r3,[r11]
015B2C BD 41 14 00 		      	blt  	r3,TCB_45
015B30 C2 35 00 00 		      	lc   	r3,[r11]
015B34 86 41 00 02 		      	cmp  	r4,r3,#256
015B38 3D 32 0E 00 		      	bge  	r4,TCB_45
015B3C C2 55 00 00 		      	lc   	r5,[r11]
015B40 82 42 14 70 		      	asli 	r4,r5,#10
015B44 7C 1A 01 00 		      	addu 	r3,r4,#tcbs_
015B48 14 32 00 68 
015B4C 0A 40 FE FF 		      	ldi  	r4,#-1
015B50 E1 41 E4 04 		      	sc   	r4,626[r3]
                	TCB_45:
                	TCB_43:
015B54 C2 3D EC FF 		      	lc   	r3,-10[bp]
015B58 82 11 00 1A 		      	mov  	r1,r3
                	TCB_47:
015B5C 57 BF 10 00 		      	pop  	r11
015B60 82 ED 01 1A 		      	mov  	sp,bp
015B64 57 BF 11 00 		      	pop  	bp
015B68 37 FF 21 00 		      	rtl  	#16
                	endpublic
                	
                	public code DumpTaskList_:
015B6C E7 EF 01 00 		      	push 	lr
015B70 67 EE 01 00 		      	push 	xlr
015B74 E7 ED 01 00 		      	push 	bp
015B78 7C 01 00 00 		      	ldi  	xlr,#TCB_51
015B7C 0A C0 B1 B9 
015B80 02 BF 01 1A 		      	mov  	bp,sp
015B84 15 EF 51 00 		      	subui	sp,sp,#40
015B88 E7 E5 01 00 		      	push 	r11
015B8C FC 01 00 00 		      	push 	#TCB_48
015B90 65 E0 29 C1 
015B94 39 E6 03 00 		      	bsr  	printf_
015B98 14 EF 11 00 		      	addui	sp,sp,#8
015B9C E3 0D D0 FF 		      	sw   	r0,-24[bp]
                	TCB_52:
015BA0 C6 3D D0 FF 		      	lw   	r3,-24[bp]
015BA4 86 41 10 00 		      	cmp  	r4,r3,#8
015BA8 3D 32 8C 00 		      	bge  	r4,TCB_53
015BAC C6 4D D0 FF 		      	lw   	r4,-24[bp]
015BB0 02 32 02 70 		      	asli 	r3,r4,#1
015BB4 7C 1E 01 00 		      	lc   	r4,readyQ_[r3]
015BB8 C2 41 20 68 
015BBC E1 4D BC FF 		      	sc   	r4,-34[bp]
015BC0 C2 3D BC FF 		      	lc   	r3,-34[bp]
015BC4 BD 41 7A 00 		      	blt  	r3,TCB_55
015BC8 C2 3D BC FF 		      	lc   	r3,-34[bp]
015BCC 86 41 00 02 		      	cmp  	r4,r3,#256
015BD0 3D 32 74 00 		      	bge  	r4,TCB_55
015BD4 C2 5D BC FF 		      	lc   	r5,-34[bp]
015BD8 82 42 14 70 		      	asli 	r4,r5,#10
015BDC 7C 1A 01 00 		      	addu 	r3,r4,#tcbs_
015BE0 14 32 00 68 
015BE4 E3 3D E0 FF 		      	sw   	r3,-16[bp]
015BE8 C6 BD E0 FF 		      	lw   	r11,-16[bp]
015BEC E3 0D C0 FF 		      	sw   	r0,-32[bp]
                	TCB_57:
015BF0 7C 1A 01 00 		      	subu 	r4,r11,#tcbs_
015BF4 95 45 00 68 
015BF8 02 32 14 72 		      	lsri 	r3,r4,#10
015BFC E1 3D B8 FF 		      	sc   	r3,-36[bp]
015C00 E6 E5 C1 05 		      	push 	736[r11]
015C04 E6 E5 21 05 		      	push 	656[r11]
015C08 C2 35 E0 04 		      	lc   	r3,624[r11]
015C0C E7 E1 01 00 		      	push 	r3
015C10 C2 35 E4 04 		      	lc   	r3,626[r11]
015C14 E7 E1 01 00 		      	push 	r3
015C18 C2 3D B8 FF 		      	lc   	r3,-36[bp]
015C1C E7 E1 01 00 		      	push 	r3
015C20 C0 35 9A 05 		      	lb   	r3,717[r11]
015C24 82 31 00 20 		      	sxb  	r3,r3
015C28 E7 E1 01 00 		      	push 	r3
015C2C C0 35 98 05 		      	lb   	r3,716[r11]
015C30 82 31 00 20 		      	sxb  	r3,r3
015C34 E7 E1 01 00 		      	push 	r3
015C38 C0 35 9C 05 		      	lb   	r3,718[r11]
015C3C 82 31 00 20 		      	sxb  	r3,r3
015C40 E7 E1 01 00 		      	push 	r3
015C44 FC 01 00 00 		      	push 	#TCB_49
015C48 65 E0 81 C0 
015C4C 39 CF 03 00 		      	bsr  	printf_
015C50 14 EF 91 00 		      	addui	sp,sp,#72
015C54 C2 35 E0 04 		      	lc   	r3,624[r11]
015C58 BD 41 08 00 		      	blt  	r3,TCB_61
015C5C C2 35 E0 04 		      	lc   	r3,624[r11]
015C60 86 41 00 02 		      	cmp  	r4,r3,#256
015C64 3D 42 04 00 		      	blt  	r4,TCB_59
                	TCB_61:
015C68 3A 0A 00 00 		      	bra  	TCB_58
                	TCB_59:
015C6C C2 55 E0 04 		      	lc   	r5,624[r11]
015C70 82 42 14 70 		      	asli 	r4,r5,#10
015C74 7C 1A 01 00 		      	addu 	r3,r4,#tcbs_
015C78 14 32 00 68 
015C7C 82 B1 00 1A 		      	mov  	r11,r3
015C80 B9 B8 03 00 		      	bsr  	getcharNoWait_
015C84 82 30 00 1A 		      	mov  	r3,r1
015C88 86 41 06 00 		      	cmp  	r4,r3,#3
015C8C 3D 12 04 00 		      	bne  	r4,TCB_62
015C90 3A 06 00 00 		      	bra  	TCB_50
                	TCB_62:
015C94 C6 4D C0 FF 		      	lw   	r4,-32[bp]
015C98 14 32 02 00 		      	addu 	r3,r4,#1
015C9C E3 3D C0 FF 		      	sw   	r3,-32[bp]
015CA0 C6 3D E0 FF 		      	lw   	r3,-16[bp]
015CA4 82 45 06 0C 		      	cmp  	r4,r11,r3
015CA8 3D 02 08 00 		      	beq  	r4,TCB_64
015CAC C6 3D C0 FF 		      	lw   	r3,-32[bp]
015CB0 86 41 14 00 		      	cmp  	r4,r3,#10
015CB4 3D 42 9E FF 		      	blt  	r4,TCB_57
                	TCB_64:
                	TCB_58:
                	TCB_55:
                	TCB_54:
015CB8 E4 1D D0 FF 		      	inc  	-24[bp],#1
015CBC BA DC FF FF 		      	bra  	TCB_52
                	TCB_53:
                	TCB_50:
                	TCB_65:
015CC0 57 BF 10 00 		      	pop  	r11
015CC4 82 ED 01 1A 		      	mov  	sp,bp
015CC8 57 BF 11 00 		      	pop  	bp
015CCC 57 CF 11 00 		      	pop  	xlr
015CD0 57 FF 11 00 		      	pop  	lr
015CD4 37 FF 01 00 		      	rtl  	#0
                	TCB_51:
015CD8 C6 FD 11 00 		      	lw   	lr,8[bp]
015CDC E3 FD 21 00 		      	sw   	lr,16[bp]
015CE0 3A FC FF FF 		      	bra  	TCB_65
                	endpublic
                	
                		code
015CE4 00 00 00 00 		align	1
015CE8 00 00 00 00 
015CEC 00 00 00 00 
                	
                	public code GetScreenLocation_:
015CF0 E7 EF 01 00 		      	push 	lr
015CF4 67 EE 01 00 		      	push 	xlr
015CF8 E7 ED 01 00 		      	push 	bp
015CFC 7C 01 00 00 		      	ldi  	xlr,#console_0
015D00 0A C0 59 BA 
015D04 02 BF 01 1A 		      	mov  	bp,sp
015D08 B9 D5 FA FF 		      	bsr  	GetJCBPtr_
015D0C 82 30 00 1A 		      	mov  	r3,r1
015D10 C6 31 A0 0C 		      	lw   	r3,1616[r3]
015D14 82 11 00 1A 		      	mov  	r1,r3
                	console_1:
015D18 82 ED 01 1A 		      	mov  	sp,bp
015D1C 57 BF 11 00 		      	pop  	bp
015D20 57 CF 11 00 		      	pop  	xlr
015D24 57 FF 11 00 		      	pop  	lr
015D28 37 FF 01 00 		      	rtl  	#0
                	console_0:
015D2C C6 FD 11 00 		      	lw   	lr,8[bp]
015D30 E3 FD 21 00 		      	sw   	lr,16[bp]
015D34 BA FC FF FF 		      	bra  	console_1
                	endpublic
                	
                	public code GetCurrAttr_:
015D38 E7 EF 01 00 		      	push 	lr
015D3C 67 EE 01 00 		      	push 	xlr
015D40 E7 ED 01 00 		      	push 	bp
015D44 7C 01 00 00 		      	ldi  	xlr,#console_2
015D48 0A C0 E9 BA 
015D4C 02 BF 01 1A 		      	mov  	bp,sp
015D50 B9 CC FA FF 		      	bsr  	GetJCBPtr_
015D54 82 30 00 1A 		      	mov  	r3,r1
015D58 C5 31 D0 0C 		      	lhu  	r3,1640[r3]
015D5C 82 11 00 1A 		      	mov  	r1,r3
                	console_3:
015D60 82 ED 01 1A 		      	mov  	sp,bp
015D64 57 BF 11 00 		      	pop  	bp
015D68 57 CF 11 00 		      	pop  	xlr
015D6C 57 FF 11 00 		      	pop  	lr
015D70 37 FF 01 00 		      	rtl  	#0
                	console_2:
015D74 C6 FD 11 00 		      	lw   	lr,8[bp]
015D78 E3 FD 21 00 		      	sw   	lr,16[bp]
015D7C BA FC FF FF 		      	bra  	console_3
                	endpublic
                	
                	public code SetCurrAttr_:
015D80 E7 EF 01 00 		      	push 	lr
015D84 67 EE 01 00 		      	push 	xlr
015D88 E7 ED 01 00 		      	push 	bp
015D8C 7C 01 00 00 		      	ldi  	xlr,#console_4
015D90 0A C0 99 BB 
015D94 02 BF 01 1A 		      	mov  	bp,sp
015D98 C4 4D 30 00 		      	lh   	r4,24[bp]
015D9C FC FF FF 00 		      	and  	r3,r4,#4294966272
015DA0 0C 32 00 F8 
015DA4 E7 E1 01 00 		      	push 	r3
015DA8 B9 C1 FA FF 		      	bsr  	GetJCBPtr_
015DAC 57 3F 10 00 		      	pop  	r3
015DB0 82 40 00 1A 		      	mov  	r4,r1
015DB4 62 32 D0 0C 		      	sh   	r3,1640[r4]
                	console_5:
015DB8 82 ED 01 1A 		      	mov  	sp,bp
015DBC 57 BF 11 00 		      	pop  	bp
015DC0 57 CF 11 00 		      	pop  	xlr
015DC4 57 FF 11 00 		      	pop  	lr
015DC8 37 FF 01 00 		      	rtl  	#0
                	console_4:
015DCC C6 FD 11 00 		      	lw   	lr,8[bp]
015DD0 E3 FD 21 00 		      	sw   	lr,16[bp]
015DD4 BA FC FF FF 		      	bra  	console_5
                	endpublic
                	
                	public code SetVideoReg_:
015DD8 15 EF 21 00 		      	subui	sp,sp,#16
015DDC E7 ED 01 00 		      	push 	bp
015DE0 02 BF 01 1A 		      	mov  	bp,sp
015DE4 C6 1D 30 00 		      	     	         lw   r1,24[bp]
015DE8 C6 2D 40 00 	         lw   r2,32[bp]
015DEC 82 10 04 70 	         asl  r1,r1,#2
015DF0 7C DA FF 00 	         sh   r2,$FFDA0000[r1]
015DF4 E2 20 00 00 
                	     
                	console_7:
015DF8 82 ED 01 1A 		      	mov  	sp,bp
015DFC 57 BF 11 00 		      	pop  	bp
015E00 37 FF 21 00 		      	rtl  	#16
                	endpublic
                	
                	public code SetCursorPos_:
015E04 E7 EF 01 00 		      	push 	lr
015E08 67 EE 01 00 		      	push 	xlr
015E0C E7 ED 01 00 		      	push 	bp
015E10 7C 01 00 00 		      	ldi  	xlr,#console_8
015E14 0A C0 B9 BC 
015E18 02 BF 01 1A 		      	mov  	bp,sp
015E1C 15 EF 11 00 		      	subui	sp,sp,#8
015E20 E7 E5 01 00 		      	push 	r11
015E24 39 B2 FA FF 		      	bsr  	GetJCBPtr_
015E28 82 30 00 1A 		      	mov  	r3,r1
015E2C 82 B1 00 1A 		      	mov  	r11,r3
015E30 C6 3D 40 00 		      	lw   	r3,32[bp]
015E34 E1 35 CC 0C 		      	sc   	r3,1638[r11]
015E38 C6 3D 30 00 		      	lw   	r3,24[bp]
015E3C E1 35 C8 0C 		      	sc   	r3,1636[r11]
015E40 39 50 00 00 		      	bsr  	UpdateCursorPos_
                	console_9:
015E44 57 BF 10 00 		      	pop  	r11
015E48 82 ED 01 1A 		      	mov  	sp,bp
015E4C 57 BF 11 00 		      	pop  	bp
015E50 57 CF 11 00 		      	pop  	xlr
015E54 57 FF 11 00 		      	pop  	lr
015E58 37 FF 01 00 		      	rtl  	#0
                	console_8:
015E5C C6 FD 11 00 		      	lw   	lr,8[bp]
015E60 E3 FD 21 00 		      	sw   	lr,16[bp]
015E64 3A FC FF FF 		      	bra  	console_9
                	endpublic
                	
                	public code SetCursorCol_:
015E68 E7 EF 01 00 		      	push 	lr
015E6C 67 EE 01 00 		      	push 	xlr
015E70 E7 ED 01 00 		      	push 	bp
015E74 7C 01 00 00 		      	ldi  	xlr,#console_10
015E78 0A C0 71 BD 
015E7C 02 BF 01 1A 		      	mov  	bp,sp
015E80 15 EF 11 00 		      	subui	sp,sp,#8
015E84 E7 E5 01 00 		      	push 	r11
015E88 B9 A5 FA FF 		      	bsr  	GetJCBPtr_
015E8C 82 30 00 1A 		      	mov  	r3,r1
015E90 82 B1 00 1A 		      	mov  	r11,r3
015E94 C6 3D 30 00 		      	lw   	r3,24[bp]
015E98 E1 35 CC 0C 		      	sc   	r3,1638[r11]
015E9C B9 44 00 00 		      	bsr  	UpdateCursorPos_
                	console_11:
015EA0 57 BF 10 00 		      	pop  	r11
015EA4 82 ED 01 1A 		      	mov  	sp,bp
015EA8 57 BF 11 00 		      	pop  	bp
015EAC 57 CF 11 00 		      	pop  	xlr
015EB0 57 FF 11 00 		      	pop  	lr
015EB4 37 FF 01 00 		      	rtl  	#0
                	console_10:
015EB8 C6 FD 11 00 		      	lw   	lr,8[bp]
015EBC E3 FD 21 00 		      	sw   	lr,16[bp]
015EC0 3A FC FF FF 		      	bra  	console_11
                	endpublic
                	
                	public code GetCursorPos_:
015EC4 E7 EF 01 00 		      	push 	lr
015EC8 67 EE 01 00 		      	push 	xlr
015ECC E7 ED 01 00 		      	push 	bp
015ED0 7C 01 00 00 		      	ldi  	xlr,#console_12
015ED4 0A C0 39 BE 
015ED8 02 BF 01 1A 		      	mov  	bp,sp
015EDC 15 EF 11 00 		      	subui	sp,sp,#8
015EE0 E7 E5 01 00 		      	push 	r11
015EE4 39 9A FA FF 		      	bsr  	GetJCBPtr_
015EE8 82 30 00 1A 		      	mov  	r3,r1
015EEC 82 B1 00 1A 		      	mov  	r11,r3
015EF0 C3 45 CC 0C 		      	lcu  	r4,1638[r11]
015EF4 C3 65 C8 0C 		      	lcu  	r6,1636[r11]
015EF8 02 53 10 70 		      	asli 	r5,r6,#8
015EFC 02 32 0A 1A 		      	or   	r3,r4,r5
015F00 82 11 00 1A 		      	mov  	r1,r3
                	console_13:
015F04 57 BF 10 00 		      	pop  	r11
015F08 82 ED 01 1A 		      	mov  	sp,bp
015F0C 57 BF 11 00 		      	pop  	bp
015F10 57 CF 11 00 		      	pop  	xlr
015F14 57 FF 11 00 		      	pop  	lr
015F18 37 FF 01 00 		      	rtl  	#0
                	console_12:
015F1C C6 FD 11 00 		      	lw   	lr,8[bp]
015F20 E3 FD 21 00 		      	sw   	lr,16[bp]
015F24 3A FC FF FF 		      	bra  	console_13
                	endpublic
                	
                	public code GetTextCols_:
015F28 E7 EF 01 00 		      	push 	lr
015F2C 67 EE 01 00 		      	push 	xlr
015F30 E7 ED 01 00 		      	push 	bp
015F34 7C 01 00 00 		      	ldi  	xlr,#console_14
015F38 0A C0 C9 BE 
015F3C 02 BF 01 1A 		      	mov  	bp,sp
015F40 B9 8E FA FF 		      	bsr  	GetJCBPtr_
015F44 82 30 00 1A 		      	mov  	r3,r1
015F48 C3 31 C4 0C 		      	lcu  	r3,1634[r3]
015F4C 82 11 00 1A 		      	mov  	r1,r3
                	console_15:
015F50 82 ED 01 1A 		      	mov  	sp,bp
015F54 57 BF 11 00 		      	pop  	bp
015F58 57 CF 11 00 		      	pop  	xlr
015F5C 57 FF 11 00 		      	pop  	lr
015F60 37 FF 01 00 		      	rtl  	#0
                	console_14:
015F64 C6 FD 11 00 		      	lw   	lr,8[bp]
015F68 E3 FD 21 00 		      	sw   	lr,16[bp]
015F6C BA FC FF FF 		      	bra  	console_15
                	endpublic
                	
                	public code GetTextRows_:
015F70 E7 EF 01 00 		      	push 	lr
015F74 67 EE 01 00 		      	push 	xlr
015F78 E7 ED 01 00 		      	push 	bp
015F7C 7C 01 00 00 		      	ldi  	xlr,#console_16
015F80 0A C0 59 BF 
015F84 02 BF 01 1A 		      	mov  	bp,sp
015F88 B9 85 FA FF 		      	bsr  	GetJCBPtr_
015F8C 82 30 00 1A 		      	mov  	r3,r1
015F90 C3 31 C0 0C 		      	lcu  	r3,1632[r3]
015F94 82 11 00 1A 		      	mov  	r1,r3
                	console_17:
015F98 82 ED 01 1A 		      	mov  	sp,bp
015F9C 57 BF 11 00 		      	pop  	bp
015FA0 57 CF 11 00 		      	pop  	xlr
015FA4 57 FF 11 00 		      	pop  	lr
015FA8 37 FF 01 00 		      	rtl  	#0
                	console_16:
015FAC C6 FD 11 00 		      	lw   	lr,8[bp]
015FB0 E3 FD 21 00 		      	sw   	lr,16[bp]
015FB4 BA FC FF FF 		      	bra  	console_17
                	endpublic
                	
                	public code AsciiToScreen_:
015FB8 15 EF 21 00 		      	subui	sp,sp,#16
015FBC E7 ED 01 00 		      	push 	bp
015FC0 02 BF 01 1A 		      	mov  	bp,sp
015FC4 C3 3D 30 00 		      	lcu  	r3,24[bp]
015FC8 86 41 B6 00 		      	cmp  	r4,r3,#91
015FCC 3D 12 0A 00 		      	bne  	r4,console_19
015FD0 0A 10 36 00 		      	ldi  	r1,#27
                	console_21:
015FD4 82 ED 01 1A 		      	mov  	sp,bp
015FD8 57 BF 11 00 		      	pop  	bp
015FDC 37 FF 21 00 		      	rtl  	#16
                	console_19:
015FE0 C3 3D 30 00 		      	lcu  	r3,24[bp]
015FE4 86 41 BA 00 		      	cmp  	r4,r3,#93
015FE8 3D 12 06 00 		      	bne  	r4,console_22
015FEC 0A 10 3A 00 		      	ldi  	r1,#29
015FF0 BA FC FF FF 		      	bra  	console_21
                	console_22:
015FF4 C3 3D 30 00 		      	lcu  	r3,24[bp]
015FF8 8C 31 FE 01 		      	andi 	r3,r3,#255
015FFC E1 3D 30 00 		      	sc   	r3,24[bp]
016000 C3 3D 30 00 		      	lcu  	r3,24[bp]
016004 8D 31 00 02 		      	ori  	r3,r3,#256
016008 E1 3D 30 00 		      	sc   	r3,24[bp]
01600C C3 4D 30 00 		      	lcu  	r4,24[bp]
016010 0C 32 40 00 		      	and  	r3,r4,#32
016014 BD 11 08 00 		      	bne  	r3,console_24
016018 C3 3D 30 00 		      	lcu  	r3,24[bp]
01601C 82 11 00 1A 		      	mov  	r1,r3
016020 BA F6 FF FF 		      	bra  	console_21
                	console_24:
016024 C3 4D 30 00 		      	lcu  	r4,24[bp]
016028 0C 32 80 00 		      	and  	r3,r4,#64
01602C BD 11 08 00 		      	bne  	r3,console_26
016030 C3 3D 30 00 		      	lcu  	r3,24[bp]
016034 82 11 00 1A 		      	mov  	r1,r3
016038 BA F3 FF FF 		      	bra  	console_21
                	console_26:
01603C C3 4D 30 00 		      	lcu  	r4,24[bp]
016040 0C 32 3E 03 		      	and  	r3,r4,#415
016044 E1 3D 30 00 		      	sc   	r3,24[bp]
016048 C3 3D 30 00 		      	lcu  	r3,24[bp]
01604C 82 11 00 1A 		      	mov  	r1,r3
016050 BA F0 FF FF 		      	bra  	console_21
                	endpublic
                	
                	public code ScreenToAscii_:
016054 15 EF 21 00 		      	subui	sp,sp,#16
016058 E7 ED 01 00 		      	push 	bp
01605C 02 BF 01 1A 		      	mov  	bp,sp
016060 C3 3D 30 00 		      	lcu  	r3,24[bp]
016064 8C 31 FE 01 		      	andi 	r3,r3,#255
016068 E1 3D 30 00 		      	sc   	r3,24[bp]
01606C C3 3D 30 00 		      	lcu  	r3,24[bp]
016070 86 41 36 00 		      	cmp  	r4,r3,#27
016074 3D 12 0A 00 		      	bne  	r4,console_29
016078 0A 10 B6 00 		      	ldi  	r1,#91
                	console_31:
01607C 82 ED 01 1A 		      	mov  	sp,bp
016080 57 BF 11 00 		      	pop  	bp
016084 37 FF 21 00 		      	rtl  	#16
                	console_29:
016088 C3 3D 30 00 		      	lcu  	r3,24[bp]
01608C 86 41 3A 00 		      	cmp  	r4,r3,#29
016090 3D 12 06 00 		      	bne  	r4,console_32
016094 0A 10 BA 00 		      	ldi  	r1,#93
016098 BA FC FF FF 		      	bra  	console_31
                	console_32:
01609C C3 3D 30 00 		      	lcu  	r3,24[bp]
0160A0 96 41 36 00 		      	cmpu 	r4,r3,#27
0160A4 3D 32 08 00 		      	bge  	r4,console_34
0160A8 C3 3D 30 00 		      	lcu  	r3,24[bp]
0160AC 94 31 C0 00 		      	addui	r3,r3,#96
0160B0 E1 3D 30 00 		      	sc   	r3,24[bp]
                	console_34:
0160B4 C3 3D 30 00 		      	lcu  	r3,24[bp]
0160B8 82 11 00 1A 		      	mov  	r1,r3
0160BC 3A F8 FF FF 		      	bra  	console_31
                	endpublic
                	
                	public code UpdateCursorPos_:
0160C0 E7 EF 01 00 		      	push 	lr
0160C4 67 EE 01 00 		      	push 	xlr
0160C8 E7 ED 01 00 		      	push 	bp
0160CC 7C 01 00 00 		      	ldi  	xlr,#console_36
0160D0 0A C0 61 C2 
0160D4 02 BF 01 1A 		      	mov  	bp,sp
0160D8 15 EF 21 00 		      	subui	sp,sp,#16
0160DC E7 E5 01 00 		      	push 	r11
0160E0 B9 5A FA FF 		      	bsr  	GetJCBPtr_
0160E4 82 30 00 1A 		      	mov  	r3,r1
0160E8 82 B1 00 1A 		      	mov  	r11,r3
0160EC C3 45 C8 0C 		      	lcu  	r4,1636[r11]
0160F0 C3 55 C4 0C 		      	lcu  	r5,1634[r11]
0160F4 02 42 0A 2E 		      	mulu 	r4,r4,r5
0160F8 C3 55 CC 0C 		      	lcu  	r5,1638[r11]
0160FC 02 32 0A 28 		      	addu 	r3,r4,r5
016100 82 31 00 22 		      	sxc  	r3,r3
016104 E3 3D E0 FF 		      	sw   	r3,-16[bp]
016108 E6 ED E1 FF 		      	push 	-16[bp]
01610C 65 E0 17 00 		      	push 	#11
016110 39 99 FF FF 		      	bsr  	SetVideoReg_
016114 14 EF 21 00 		      	addui	sp,sp,#16
                	console_37:
016118 57 BF 10 00 		      	pop  	r11
01611C 82 ED 01 1A 		      	mov  	sp,bp
016120 57 BF 11 00 		      	pop  	bp
016124 57 CF 11 00 		      	pop  	xlr
016128 57 FF 11 00 		      	pop  	lr
01612C 37 FF 01 00 		      	rtl  	#0
                	console_36:
016130 C6 FD 11 00 		      	lw   	lr,8[bp]
016134 E3 FD 21 00 		      	sw   	lr,16[bp]
016138 3A FC FF FF 		      	bra  	console_37
                	endpublic
                	
                	public code HomeCursor_:
01613C E7 EF 01 00 		      	push 	lr
016140 67 EE 01 00 		      	push 	xlr
016144 E7 ED 01 00 		      	push 	bp
016148 7C 01 00 00 		      	ldi  	xlr,#console_38
01614C 0A C0 19 C3 
016150 02 BF 01 1A 		      	mov  	bp,sp
016154 15 EF 11 00 		      	subui	sp,sp,#8
016158 E7 E5 01 00 		      	push 	r11
01615C 39 4B FA FF 		      	bsr  	GetJCBPtr_
016160 82 30 00 1A 		      	mov  	r3,r1
016164 82 B1 00 1A 		      	mov  	r11,r3
016168 E1 05 CC 0C 		      	sc   	r0,1638[r11]
01616C E1 05 C8 0C 		      	sc   	r0,1636[r11]
016170 39 EA FF FF 		      	bsr  	UpdateCursorPos_
                	console_39:
016174 57 BF 10 00 		      	pop  	r11
016178 82 ED 01 1A 		      	mov  	sp,bp
01617C 57 BF 11 00 		      	pop  	bp
016180 57 CF 11 00 		      	pop  	xlr
016184 57 FF 11 00 		      	pop  	lr
016188 37 FF 01 00 		      	rtl  	#0
                	console_38:
01618C C6 FD 11 00 		      	lw   	lr,8[bp]
016190 E3 FD 21 00 		      	sw   	lr,16[bp]
016194 3A FC FF FF 		      	bra  	console_39
                	endpublic
                	
                	public code CalcScreenLocation_:
016198 E7 EF 01 00 		      	push 	lr
01619C 67 EE 01 00 		      	push 	xlr
0161A0 E7 ED 01 00 		      	push 	bp
0161A4 7C 01 00 00 		      	ldi  	xlr,#console_40
0161A8 0A C0 51 C4 
0161AC 02 BF 01 1A 		      	mov  	bp,sp
0161B0 15 EF 21 00 		      	subui	sp,sp,#16
0161B4 E7 E5 01 00 		      	push 	r11
0161B8 B9 3F FA FF 		      	bsr  	GetJCBPtr_
0161BC 82 30 00 1A 		      	mov  	r3,r1
0161C0 82 B1 00 1A 		      	mov  	r11,r3
0161C4 C3 45 C8 0C 		      	lcu  	r4,1636[r11]
0161C8 C3 55 C4 0C 		      	lcu  	r5,1634[r11]
0161CC 02 42 0A 2E 		      	mulu 	r4,r4,r5
0161D0 C3 55 CC 0C 		      	lcu  	r5,1638[r11]
0161D4 02 32 0A 28 		      	addu 	r3,r4,r5
0161D8 82 31 00 22 		      	sxc  	r3,r3
0161DC E3 3D E0 FF 		      	sw   	r3,-16[bp]
0161E0 E6 ED E1 FF 		      	push 	-16[bp]
0161E4 65 E0 17 00 		      	push 	#11
0161E8 39 7E FF FF 		      	bsr  	SetVideoReg_
0161EC 14 EF 21 00 		      	addui	sp,sp,#16
0161F0 E7 E1 01 00 		      	push 	r3
0161F4 B9 5F FF FF 		      	bsr  	GetScreenLocation_
0161F8 57 3F 10 00 		      	pop  	r3
0161FC 82 40 00 1A 		      	mov  	r4,r1
016200 C6 6D E0 FF 		      	lw   	r6,-16[bp]
016204 02 53 04 70 		      	asli 	r5,r6,#2
016208 02 32 0A 28 		      	addu 	r3,r4,r5
01620C 82 11 00 1A 		      	mov  	r1,r3
                	console_41:
016210 57 BF 10 00 		      	pop  	r11
016214 82 ED 01 1A 		      	mov  	sp,bp
016218 57 BF 11 00 		      	pop  	bp
01621C 57 CF 11 00 		      	pop  	xlr
016220 57 FF 11 00 		      	pop  	lr
016224 37 FF 01 00 		      	rtl  	#0
                	console_40:
016228 C6 FD 11 00 		      	lw   	lr,8[bp]
01622C E3 FD 21 00 		      	sw   	lr,16[bp]
016230 3A FC FF FF 		      	bra  	console_41
                	endpublic
                	
                	public code ClearScreen_:
016234 E7 EF 01 00 		      	push 	lr
016238 67 EE 01 00 		      	push 	xlr
01623C E7 ED 01 00 		      	push 	bp
016240 7C 01 00 00 		      	ldi  	xlr,#console_42
016244 0A C0 D9 C5 
016248 02 BF 01 1A 		      	mov  	bp,sp
01624C 15 EF 51 00 		      	subui	sp,sp,#40
016250 E7 E5 01 00 		      	push 	r11
016254 39 2C FA FF 		      	bsr  	GetJCBPtr_
016258 82 30 00 1A 		      	mov  	r3,r1
01625C 82 B1 00 1A 		      	mov  	r11,r3
016260 39 52 FF FF 		      	bsr  	GetScreenLocation_
016264 82 30 00 1A 		      	mov  	r3,r1
016268 E3 3D F0 FF 		      	sw   	r3,-8[bp]
01626C C3 35 C0 0C 		      	lcu  	r3,1632[r11]
016270 C3 45 C4 0C 		      	lcu  	r4,1634[r11]
016274 82 31 08 0E 		      	mul  	r3,r3,r4
016278 E3 3D D0 FF 		      	sw   	r3,-24[bp]
01627C E7 E1 01 00 		      	push 	r3
016280 39 57 FF FF 		      	bsr  	GetCurrAttr_
016284 57 3F 10 00 		      	pop  	r3
016288 82 40 00 1A 		      	mov  	r4,r1
01628C E7 E1 01 00 		      	push 	r3
016290 67 E2 01 00 		      	push 	r4
016294 65 E0 41 00 		      	push 	#32
016298 39 A4 FF FF 		      	bsr  	AsciiToScreen_
01629C 14 EF 11 00 		      	addui	sp,sp,#8
0162A0 57 4F 10 00 		      	pop  	r4
0162A4 57 3F 10 00 		      	pop  	r3
0162A8 82 50 00 1A 		      	mov  	r5,r1
0162AC 82 52 00 22 		      	sxc  	r5,r5
0162B0 02 32 0A 1A 		      	or   	r3,r4,r5
0162B4 E2 3D B8 FF 		      	sh   	r3,-36[bp]
0162B8 E6 ED D1 FF 		      	push 	-24[bp]
0162BC C4 3D B8 FF 		      	lh   	r3,-36[bp]
0162C0 82 31 00 24 		      	sxh  	r3,r3
0162C4 E7 E1 01 00 		      	push 	r3
0162C8 E6 ED F1 FF 		      	push 	-8[bp]
0162CC B9 7B 03 00 		      	bsr  	memsetH_
0162D0 14 EF 31 00 		      	addui	sp,sp,#24
                	console_43:
0162D4 57 BF 10 00 		      	pop  	r11
0162D8 82 ED 01 1A 		      	mov  	sp,bp
0162DC 57 BF 11 00 		      	pop  	bp
0162E0 57 CF 11 00 		      	pop  	xlr
0162E4 57 FF 11 00 		      	pop  	lr
0162E8 37 FF 01 00 		      	rtl  	#0
                	console_42:
0162EC C6 FD 11 00 		      	lw   	lr,8[bp]
0162F0 E3 FD 21 00 		      	sw   	lr,16[bp]
0162F4 3A FC FF FF 		      	bra  	console_43
                	endpublic
                	
                	public code ClearBmpScreen_:
0162F8 E7 EF 01 00 		      	push 	lr
0162FC 67 EE 01 00 		      	push 	xlr
016300 E7 ED 01 00 		      	push 	bp
016304 7C 01 00 00 		      	ldi  	xlr,#console_44
016308 0A C0 81 C6 
01630C 02 BF 01 1A 		      	mov  	bp,sp
016310 7C 08 00 00 		      	push 	#524288
016314 65 E0 01 00 
016318 65 E0 01 00 		      	push 	#0
01631C 7C 40 00 00 		      	push 	#4194304
016320 65 E0 01 00 
016324 39 78 03 00 		      	bsr  	memsetW_
016328 14 EF 31 00 		      	addui	sp,sp,#24
                	console_45:
01632C 82 ED 01 1A 		      	mov  	sp,bp
016330 57 BF 11 00 		      	pop  	bp
016334 57 CF 11 00 		      	pop  	xlr
016338 57 FF 11 00 		      	pop  	lr
01633C 37 FF 01 00 		      	rtl  	#0
                	console_44:
016340 C6 FD 11 00 		      	lw   	lr,8[bp]
016344 E3 FD 21 00 		      	sw   	lr,16[bp]
016348 BA FC FF FF 		      	bra  	console_45
                	endpublic
                	
                	public code BlankLine_:
01634C E7 EF 01 00 		      	push 	lr
016350 67 EE 01 00 		      	push 	xlr
016354 E7 ED 01 00 		      	push 	bp
016358 7C 01 00 00 		      	ldi  	xlr,#console_46
01635C 0A C0 29 C8 
016360 02 BF 01 1A 		      	mov  	bp,sp
016364 15 EF 51 00 		      	subui	sp,sp,#40
016368 E7 E5 01 00 		      	push 	r11
01636C 39 09 FA FF 		      	bsr  	GetJCBPtr_
016370 82 30 00 1A 		      	mov  	r3,r1
016374 82 B1 00 1A 		      	mov  	r11,r3
016378 39 2F FF FF 		      	bsr  	GetScreenLocation_
01637C 82 30 00 1A 		      	mov  	r3,r1
016380 E3 3D F0 FF 		      	sw   	r3,-8[bp]
016384 C6 4D F0 FF 		      	lw   	r4,-8[bp]
016388 C3 65 C4 0C 		      	lcu  	r6,1634[r11]
01638C C6 7D 30 00 		      	lw   	r7,24[bp]
016390 02 63 0E 0E 		      	mul  	r6,r6,r7
016394 02 53 04 70 		      	asli 	r5,r6,#2
016398 02 32 0A 28 		      	addu 	r3,r4,r5
01639C E3 3D F0 FF 		      	sw   	r3,-8[bp]
0163A0 E7 E1 01 00 		      	push 	r3
0163A4 B9 32 FF FF 		      	bsr  	GetCurrAttr_
0163A8 57 3F 10 00 		      	pop  	r3
0163AC 82 40 00 1A 		      	mov  	r4,r1
0163B0 E7 E1 01 00 		      	push 	r3
0163B4 67 E2 01 00 		      	push 	r4
0163B8 65 E0 41 00 		      	push 	#32
0163BC B9 7F FF FF 		      	bsr  	AsciiToScreen_
0163C0 14 EF 11 00 		      	addui	sp,sp,#8
0163C4 57 4F 10 00 		      	pop  	r4
0163C8 57 3F 10 00 		      	pop  	r3
0163CC 82 50 00 1A 		      	mov  	r5,r1
0163D0 82 52 00 22 		      	sxc  	r5,r5
0163D4 02 32 0A 1A 		      	or   	r3,r4,r5
0163D8 E2 3D B8 FF 		      	sh   	r3,-36[bp]
0163DC C3 35 C4 0C 		      	lcu  	r3,1634[r11]
0163E0 E7 E1 01 00 		      	push 	r3
0163E4 C4 3D B8 FF 		      	lh   	r3,-36[bp]
0163E8 82 31 00 24 		      	sxh  	r3,r3
0163EC E7 E1 01 00 		      	push 	r3
0163F0 E6 ED F1 FF 		      	push 	-8[bp]
0163F4 B9 56 03 00 		      	bsr  	memsetH_
0163F8 14 EF 31 00 		      	addui	sp,sp,#24
                	console_47:
0163FC 57 BF 10 00 		      	pop  	r11
016400 82 ED 01 1A 		      	mov  	sp,bp
016404 57 BF 11 00 		      	pop  	bp
016408 57 CF 11 00 		      	pop  	xlr
01640C 57 FF 11 00 		      	pop  	lr
016410 37 FF 01 00 		      	rtl  	#0
                	console_46:
016414 C6 FD 11 00 		      	lw   	lr,8[bp]
016418 E3 FD 21 00 		      	sw   	lr,16[bp]
01641C 3A FC FF FF 		      	bra  	console_47
                	endpublic
                	
                	public code ScrollUp_:
016420 E7 EF 01 00 		      	     	         push  lr
016424 B9 04 F5 FF 	         bsr   VBScrollUp
016428 3B FF 11 00 	         rts
     
                	endpublic
                	
                	public code IncrementCursorRow_:
01642C E7 EF 01 00 		      	push 	lr
016430 67 EE 01 00 		      	push 	xlr
016434 E7 ED 01 00 		      	push 	bp
016438 7C 01 00 00 		      	ldi  	xlr,#console_50
01643C 0A C0 51 C9 
016440 02 BF 01 1A 		      	mov  	bp,sp
016444 15 EF 11 00 		      	subui	sp,sp,#8
016448 E7 E5 01 00 		      	push 	r11
01644C 39 ED F9 FF 		      	bsr  	GetJCBPtr_
016450 82 30 00 1A 		      	mov  	r3,r1
016454 82 B1 00 1A 		      	mov  	r11,r3
016458 C3 35 C8 0C 		      	lcu  	r3,1636[r11]
01645C 94 31 02 00 		      	addui	r3,r3,#1
016460 E1 35 C8 0C 		      	sc   	r3,1636[r11]
016464 C3 35 C8 0C 		      	lcu  	r3,1636[r11]
016468 C3 45 C0 0C 		      	lcu  	r4,1632[r11]
01646C 82 51 08 2C 		      	cmpu 	r5,r3,r4
016470 BD 32 10 00 		      	bge  	r5,console_51
016474 B9 89 FF FF 		      	bsr  	UpdateCursorPos_
                	console_53:
016478 57 BF 10 00 		      	pop  	r11
01647C 82 ED 01 1A 		      	mov  	sp,bp
016480 57 BF 11 00 		      	pop  	bp
016484 57 CF 11 00 		      	pop  	xlr
016488 57 FF 11 00 		      	pop  	lr
01648C 37 FF 01 00 		      	rtl  	#0
                	console_51:
016490 C3 35 C8 0C 		      	lcu  	r3,1636[r11]
016494 95 31 02 00 		      	subui	r3,r3,#1
016498 E1 35 C8 0C 		      	sc   	r3,1636[r11]
01649C B9 84 FF FF 		      	bsr  	UpdateCursorPos_
0164A0 39 F0 FF FF 		      	bsr  	ScrollUp_
0164A4 BA FA FF FF 		      	bra  	console_53
                	console_50:
0164A8 C6 FD 11 00 		      	lw   	lr,8[bp]
0164AC E3 FD 21 00 		      	sw   	lr,16[bp]
0164B0 3A F9 FF FF 		      	bra  	console_53
                	endpublic
                	
                	public code IncrementCursorPos_:
0164B4 E7 EF 01 00 		      	push 	lr
0164B8 67 EE 01 00 		      	push 	xlr
0164BC E7 ED 01 00 		      	push 	bp
0164C0 7C 01 00 00 		      	ldi  	xlr,#console_54
0164C4 0A C0 49 CA 
0164C8 02 BF 01 1A 		      	mov  	bp,sp
0164CC 15 EF 11 00 		      	subui	sp,sp,#8
0164D0 E7 E5 01 00 		      	push 	r11
0164D4 39 DC F9 FF 		      	bsr  	GetJCBPtr_
0164D8 82 30 00 1A 		      	mov  	r3,r1
0164DC 82 B1 00 1A 		      	mov  	r11,r3
0164E0 C3 35 CC 0C 		      	lcu  	r3,1638[r11]
0164E4 94 31 02 00 		      	addui	r3,r3,#1
0164E8 E1 35 CC 0C 		      	sc   	r3,1638[r11]
0164EC C3 35 CC 0C 		      	lcu  	r3,1638[r11]
0164F0 C3 45 C4 0C 		      	lcu  	r4,1634[r11]
0164F4 82 51 08 2C 		      	cmpu 	r5,r3,r4
0164F8 BD 32 10 00 		      	bge  	r5,console_55
0164FC B9 78 FF FF 		      	bsr  	UpdateCursorPos_
                	console_57:
016500 57 BF 10 00 		      	pop  	r11
016504 82 ED 01 1A 		      	mov  	sp,bp
016508 57 BF 11 00 		      	pop  	bp
01650C 57 CF 11 00 		      	pop  	xlr
016510 57 FF 11 00 		      	pop  	lr
016514 37 FF 01 00 		      	rtl  	#0
                	console_55:
016518 E1 05 CC 0C 		      	sc   	r0,1638[r11]
01651C 39 E2 FF FF 		      	bsr  	IncrementCursorRow_
016520 3A FC FF FF 		      	bra  	console_57
                	console_54:
016524 C6 FD 11 00 		      	lw   	lr,8[bp]
016528 E3 FD 21 00 		      	sw   	lr,16[bp]
01652C BA FA FF FF 		      	bra  	console_57
                	endpublic
                	
                	public code DisplayChar_:
016530 E7 EF 01 00 		      	push 	lr
016534 67 EE 01 00 		      	push 	xlr
016538 E7 ED 01 00 		      	push 	bp
01653C 7C 01 00 00 		      	ldi  	xlr,#console_58
016540 0A C0 79 D1 
016544 02 BF 01 1A 		      	mov  	bp,sp
016548 15 EF 31 00 		      	subui	sp,sp,#24
01654C E7 E5 01 00 		      	push 	r11
016550 67 E6 01 00 		      	push 	r12
016554 39 CC F9 FF 		      	bsr  	GetJCBPtr_
016558 82 30 00 1A 		      	mov  	r3,r1
01655C 82 B1 00 1A 		      	mov  	r11,r3
016560 C3 3D 30 00 		      	lcu  	r3,24[bp]
016564 86 41 1A 00 		      	cmp  	r4,r3,#13
016568 3D 02 2C 00 		      	beq  	r4,console_60
01656C 86 41 14 00 		      	cmp  	r4,r3,#10
016570 3D 02 2E 00 		      	beq  	r4,console_61
016574 86 41 22 01 		      	cmp  	r4,r3,#145
016578 3D 02 2E 00 		      	beq  	r4,console_62
01657C 86 41 20 01 		      	cmp  	r4,r3,#144
016580 3D 02 3E 00 		      	beq  	r4,console_63
016584 86 41 26 01 		      	cmp  	r4,r3,#147
016588 3D 02 4A 00 		      	beq  	r4,console_64
01658C 86 41 24 01 		      	cmp  	r4,r3,#146
016590 3D 02 56 00 		      	beq  	r4,console_65
016594 86 41 28 01 		      	cmp  	r4,r3,#148
016598 3D 02 66 00 		      	beq  	r4,console_66
01659C 86 41 32 01 		      	cmp  	r4,r3,#153
0165A0 3D 02 6E 00 		      	beq  	r4,console_67
0165A4 86 41 10 00 		      	cmp  	r4,r3,#8
0165A8 3D 02 C8 00 		      	beq  	r4,console_68
0165AC 86 41 18 00 		      	cmp  	r4,r3,#12
0165B0 3D 02 2E 01 		      	beq  	r4,console_69
0165B4 86 41 12 00 		      	cmp  	r4,r3,#9
0165B8 3D 02 30 01 		      	beq  	r4,console_70
0165BC 3A 52 00 00 		      	bra  	console_71
                	console_60:
0165C0 E1 05 CC 0C 		      	sc   	r0,1638[r11]
0165C4 B9 5F FF FF 		      	bsr  	UpdateCursorPos_
0165C8 3A 5B 00 00 		      	bra  	console_59
                	console_61:
0165CC 39 CC FF FF 		      	bsr  	IncrementCursorRow_
0165D0 3A 5A 00 00 		      	bra  	console_59
                	console_62:
0165D4 C3 35 CC 0C 		      	lcu  	r3,1638[r11]
0165D8 C3 55 C4 0C 		      	lcu  	r5,1634[r11]
0165DC 95 42 02 00 		      	subu 	r4,r5,#1
0165E0 82 51 08 2C 		      	cmpu 	r5,r3,r4
0165E4 BD 32 0A 00 		      	bge  	r5,console_72
0165E8 C3 35 CC 0C 		      	lcu  	r3,1638[r11]
0165EC 94 31 02 00 		      	addui	r3,r3,#1
0165F0 E1 35 CC 0C 		      	sc   	r3,1638[r11]
0165F4 B9 59 FF FF 		      	bsr  	UpdateCursorPos_
                	console_72:
0165F8 3A 55 00 00 		      	bra  	console_59
                	console_63:
0165FC C3 35 C8 0C 		      	lcu  	r3,1636[r11]
016600 96 41 00 00 		      	cmpu 	r4,r3,#0
016604 3D 52 0A 00 		      	ble  	r4,console_74
016608 C3 35 C8 0C 		      	lcu  	r3,1636[r11]
01660C 95 31 02 00 		      	subui	r3,r3,#1
016610 E1 35 C8 0C 		      	sc   	r3,1636[r11]
016614 B9 55 FF FF 		      	bsr  	UpdateCursorPos_
                	console_74:
016618 3A 51 00 00 		      	bra  	console_59
                	console_64:
01661C C3 35 CC 0C 		      	lcu  	r3,1638[r11]
016620 96 41 00 00 		      	cmpu 	r4,r3,#0
016624 3D 52 0A 00 		      	ble  	r4,console_76
016628 C3 35 CC 0C 		      	lcu  	r3,1638[r11]
01662C 95 31 02 00 		      	subui	r3,r3,#1
016630 E1 35 CC 0C 		      	sc   	r3,1638[r11]
016634 B9 51 FF FF 		      	bsr  	UpdateCursorPos_
                	console_76:
016638 3A 4D 00 00 		      	bra  	console_59
                	console_65:
01663C C3 35 C8 0C 		      	lcu  	r3,1636[r11]
016640 C3 55 C0 0C 		      	lcu  	r5,1632[r11]
016644 95 42 02 00 		      	subu 	r4,r5,#1
016648 82 51 08 2C 		      	cmpu 	r5,r3,r4
01664C BD 32 0A 00 		      	bge  	r5,console_78
016650 C3 35 C8 0C 		      	lcu  	r3,1636[r11]
016654 94 31 02 00 		      	addui	r3,r3,#1
016658 E1 35 C8 0C 		      	sc   	r3,1636[r11]
01665C B9 4C FF FF 		      	bsr  	UpdateCursorPos_
                	console_78:
016660 3A 48 00 00 		      	bra  	console_59
                	console_66:
016664 C3 35 CC 0C 		      	lcu  	r3,1638[r11]
016668 BD 11 04 00 		      	bne  	r3,console_80
01666C E1 05 C8 0C 		      	sc   	r0,1636[r11]
                	console_80:
016670 E1 05 CC 0C 		      	sc   	r0,1638[r11]
016674 B9 49 FF FF 		      	bsr  	UpdateCursorPos_
016678 3A 45 00 00 		      	bra  	console_59
                	console_67:
01667C B9 63 FF FF 		      	bsr  	CalcScreenLocation_
016680 82 30 00 1A 		      	mov  	r3,r1
016684 82 C1 00 1A 		      	mov  	r12,r3
016688 C3 35 CC 0C 		      	lcu  	r3,1638[r11]
01668C 82 31 00 22 		      	sxc  	r3,r3
016690 E3 3D E0 FF 		      	sw   	r3,-16[bp]
                	console_82:
016694 C6 3D E0 FF 		      	lw   	r3,-16[bp]
016698 C3 55 C4 0C 		      	lcu  	r5,1634[r11]
01669C 95 42 02 00 		      	subu 	r4,r5,#1
0166A0 82 51 08 0C 		      	cmp  	r5,r3,r4
0166A4 BD 32 20 00 		      	bge  	r5,console_83
0166A8 C6 6D E0 FF 		      	lw   	r6,-16[bp]
0166AC C3 75 CC 0C 		      	lcu  	r7,1638[r11]
0166B0 82 73 00 22 		      	sxc  	r7,r7
0166B4 02 53 0E 2A 		      	subu 	r5,r6,r7
0166B8 82 42 04 70 		      	asli 	r4,r5,#2
0166BC 02 32 18 28 		      	addu 	r3,r4,r12
0166C0 C6 6D E0 FF 		      	lw   	r6,-16[bp]
0166C4 C3 75 CC 0C 		      	lcu  	r7,1638[r11]
0166C8 82 73 00 22 		      	sxc  	r7,r7
0166CC 02 53 0E 2A 		      	subu 	r5,r6,r7
0166D0 82 42 04 70 		      	asli 	r4,r5,#2
0166D4 C4 51 08 00 		      	lh   	r5,4[r3]
0166D8 6A 56 08 00 		      	sh   	r5,0[r12+r4]
                	console_84:
0166DC E4 1D E0 FF 		      	inc  	-16[bp],#1
0166E0 BA F6 FF FF 		      	bra  	console_82
                	console_83:
0166E4 E7 E1 01 00 		      	push 	r3
0166E8 39 CA FE FF 		      	bsr  	GetCurrAttr_
0166EC 57 3F 10 00 		      	pop  	r3
0166F0 82 40 00 1A 		      	mov  	r4,r1
0166F4 E7 E1 01 00 		      	push 	r3
0166F8 67 E2 01 00 		      	push 	r4
0166FC 65 E0 41 00 		      	push 	#32
016700 39 17 FF FF 		      	bsr  	AsciiToScreen_
016704 14 EF 11 00 		      	addui	sp,sp,#8
016708 57 4F 10 00 		      	pop  	r4
01670C 57 3F 10 00 		      	pop  	r3
016710 82 50 00 1A 		      	mov  	r5,r1
016714 82 52 00 22 		      	sxc  	r5,r5
016718 02 32 0A 1A 		      	or   	r3,r4,r5
01671C C6 6D E0 FF 		      	lw   	r6,-16[bp]
016720 C3 75 CC 0C 		      	lcu  	r7,1638[r11]
016724 82 73 00 22 		      	sxc  	r7,r7
016728 02 53 0E 2A 		      	subu 	r5,r6,r7
01672C 82 42 04 70 		      	asli 	r4,r5,#2
016730 6A 36 08 00 		      	sh   	r3,0[r12+r4]
016734 BA 2D 00 00 		      	bra  	console_59
                	console_68:
016738 C3 35 CC 0C 		      	lcu  	r3,1638[r11]
01673C 96 41 00 00 		      	cmpu 	r4,r3,#0
016740 3D 52 64 00 		      	ble  	r4,console_85
016744 C3 35 CC 0C 		      	lcu  	r3,1638[r11]
016748 95 31 02 00 		      	subui	r3,r3,#1
01674C E1 35 CC 0C 		      	sc   	r3,1638[r11]
016750 39 49 FF FF 		      	bsr  	CalcScreenLocation_
016754 82 30 00 1A 		      	mov  	r3,r1
016758 82 C1 00 1A 		      	mov  	r12,r3
01675C C3 35 CC 0C 		      	lcu  	r3,1638[r11]
016760 82 31 00 22 		      	sxc  	r3,r3
016764 E3 3D E0 FF 		      	sw   	r3,-16[bp]
                	console_87:
016768 C6 3D E0 FF 		      	lw   	r3,-16[bp]
01676C C3 55 C4 0C 		      	lcu  	r5,1634[r11]
016770 95 42 02 00 		      	subu 	r4,r5,#1
016774 82 51 08 0C 		      	cmp  	r5,r3,r4
016778 BD 32 20 00 		      	bge  	r5,console_88
01677C C6 6D E0 FF 		      	lw   	r6,-16[bp]
016780 C3 75 CC 0C 		      	lcu  	r7,1638[r11]
016784 82 73 00 22 		      	sxc  	r7,r7
016788 02 53 0E 2A 		      	subu 	r5,r6,r7
01678C 82 42 04 70 		      	asli 	r4,r5,#2
016790 02 32 18 28 		      	addu 	r3,r4,r12
016794 C6 6D E0 FF 		      	lw   	r6,-16[bp]
016798 C3 75 CC 0C 		      	lcu  	r7,1638[r11]
01679C 82 73 00 22 		      	sxc  	r7,r7
0167A0 02 53 0E 2A 		      	subu 	r5,r6,r7
0167A4 82 42 04 70 		      	asli 	r4,r5,#2
0167A8 C4 51 08 00 		      	lh   	r5,4[r3]
0167AC 6A 56 08 00 		      	sh   	r5,0[r12+r4]
                	console_89:
0167B0 E4 1D E0 FF 		      	inc  	-16[bp],#1
0167B4 BA F6 FF FF 		      	bra  	console_87
                	console_88:
0167B8 E7 E1 01 00 		      	push 	r3
0167BC B9 AF FE FF 		      	bsr  	GetCurrAttr_
0167C0 57 3F 10 00 		      	pop  	r3
0167C4 82 40 00 1A 		      	mov  	r4,r1
0167C8 E7 E1 01 00 		      	push 	r3
0167CC 67 E2 01 00 		      	push 	r4
0167D0 65 E0 41 00 		      	push 	#32
0167D4 B9 FC FE FF 		      	bsr  	AsciiToScreen_
0167D8 14 EF 11 00 		      	addui	sp,sp,#8
0167DC 57 4F 10 00 		      	pop  	r4
0167E0 57 3F 10 00 		      	pop  	r3
0167E4 82 50 00 1A 		      	mov  	r5,r1
0167E8 82 52 00 22 		      	sxc  	r5,r5
0167EC 02 32 0A 1A 		      	or   	r3,r4,r5
0167F0 C6 6D E0 FF 		      	lw   	r6,-16[bp]
0167F4 C3 75 CC 0C 		      	lcu  	r7,1638[r11]
0167F8 82 73 00 22 		      	sxc  	r7,r7
0167FC 02 53 0E 2A 		      	subu 	r5,r6,r7
016800 82 42 04 70 		      	asli 	r4,r5,#2
016804 6A 36 08 00 		      	sh   	r3,0[r12+r4]
                	console_85:
016808 3A 13 00 00 		      	bra  	console_59
                	console_69:
01680C 39 45 FF FF 		      	bsr  	ClearScreen_
016810 B9 25 FF FF 		      	bsr  	HomeCursor_
016814 BA 11 00 00 		      	bra  	console_59
                	console_70:
016818 65 E0 41 00 		      	push 	#32
01681C B9 A2 FF FF 		      	bsr  	DisplayChar_
016820 14 EF 11 00 		      	addui	sp,sp,#8
016824 65 E0 41 00 		      	push 	#32
016828 39 A1 FF FF 		      	bsr  	DisplayChar_
01682C 14 EF 11 00 		      	addui	sp,sp,#8
016830 65 E0 41 00 		      	push 	#32
016834 B9 9F FF FF 		      	bsr  	DisplayChar_
016838 14 EF 11 00 		      	addui	sp,sp,#8
01683C 65 E0 41 00 		      	push 	#32
016840 39 9E FF FF 		      	bsr  	DisplayChar_
016844 14 EF 11 00 		      	addui	sp,sp,#8
016848 3A 0B 00 00 		      	bra  	console_59
                	console_71:
01684C B9 29 FF FF 		      	bsr  	CalcScreenLocation_
016850 82 30 00 1A 		      	mov  	r3,r1
016854 82 C1 00 1A 		      	mov  	r12,r3
016858 E7 E1 01 00 		      	push 	r3
01685C B9 9B FE FF 		      	bsr  	GetCurrAttr_
016860 57 3F 10 00 		      	pop  	r3
016864 82 40 00 1A 		      	mov  	r4,r1
016868 E7 E1 01 00 		      	push 	r3
01686C 67 E2 01 00 		      	push 	r4
016870 C3 5D 30 00 		      	lcu  	r5,24[bp]
016874 E7 E2 01 00 		      	push 	r5
016878 39 E8 FE FF 		      	bsr  	AsciiToScreen_
01687C 14 EF 11 00 		      	addui	sp,sp,#8
016880 57 4F 10 00 		      	pop  	r4
016884 57 3F 10 00 		      	pop  	r3
016888 82 50 00 1A 		      	mov  	r5,r1
01688C 82 52 00 22 		      	sxc  	r5,r5
016890 02 32 0A 1A 		      	or   	r3,r4,r5
016894 62 36 00 00 		      	sh   	r3,[r12]
016898 B9 83 FF FF 		      	bsr  	IncrementCursorPos_
01689C BA 00 00 00 		      	bra  	console_59
                	console_59:
                	console_90:
0168A0 57 CF 10 00 		      	pop  	r12
0168A4 57 BF 10 00 		      	pop  	r11
0168A8 82 ED 01 1A 		      	mov  	sp,bp
0168AC 57 BF 11 00 		      	pop  	bp
0168B0 57 CF 11 00 		      	pop  	xlr
0168B4 57 FF 11 00 		      	pop  	lr
0168B8 37 FF 01 00 		      	rtl  	#0
                	console_58:
0168BC C6 FD 11 00 		      	lw   	lr,8[bp]
0168C0 E3 FD 21 00 		      	sw   	lr,16[bp]
0168C4 BA FB FF FF 		      	bra  	console_90
                	endpublic
                	
                	public code CRLF_:
0168C8 E7 EF 01 00 		      	push 	lr
0168CC 67 EE 01 00 		      	push 	xlr
0168D0 E7 ED 01 00 		      	push 	bp
0168D4 7C 01 00 00 		      	ldi  	xlr,#console_91
0168D8 0A C0 19 D2 
0168DC 02 BF 01 1A 		      	mov  	bp,sp
0168E0 65 E0 1B 00 		      	push 	#13
0168E4 B9 89 FF FF 		      	bsr  	DisplayChar_
0168E8 14 EF 11 00 		      	addui	sp,sp,#8
0168EC 65 E0 15 00 		      	push 	#10
0168F0 39 88 FF FF 		      	bsr  	DisplayChar_
0168F4 14 EF 11 00 		      	addui	sp,sp,#8
                	console_92:
0168F8 82 ED 01 1A 		      	mov  	sp,bp
0168FC 57 BF 11 00 		      	pop  	bp
016900 57 CF 11 00 		      	pop  	xlr
016904 57 FF 11 00 		      	pop  	lr
016908 37 FF 01 00 		      	rtl  	#0
                	console_91:
01690C C6 FD 11 00 		      	lw   	lr,8[bp]
016910 E3 FD 21 00 		      	sw   	lr,16[bp]
016914 BA FC FF FF 		      	bra  	console_92
                	endpublic
                	
                	public code DisplayString_:
016918 E7 EF 01 00 		      	push 	lr
01691C 67 EE 01 00 		      	push 	xlr
016920 E7 ED 01 00 		      	push 	bp
016924 7C 01 00 00 		      	ldi  	xlr,#console_93
016928 0A C0 E1 D2 
01692C 02 BF 01 1A 		      	mov  	bp,sp
016930 E7 E5 01 00 		      	push 	r11
016934 C6 BD 30 00 		      	lw   	r11,24[bp]
                	console_94:
016938 C3 35 00 00 		      	lcu  	r3,[r11]
01693C BD 01 0E 00 		      	beq  	r3,console_95
016940 C3 35 00 00 		      	lcu  	r3,[r11]
016944 E7 E1 01 00 		      	push 	r3
016948 39 7D FF FF 		      	bsr  	DisplayChar_
01694C 14 EF 11 00 		      	addui	sp,sp,#8
016950 94 B5 04 00 		      	addui	r11,r11,#2
016954 BA FC FF FF 		      	bra  	console_94
                	console_95:
                	console_96:
016958 57 BF 10 00 		      	pop  	r11
01695C 82 ED 01 1A 		      	mov  	sp,bp
016960 57 BF 11 00 		      	pop  	bp
016964 57 CF 11 00 		      	pop  	xlr
016968 57 FF 11 00 		      	pop  	lr
01696C 37 FF 01 00 		      	rtl  	#0
                	console_93:
016970 C6 FD 11 00 		      	lw   	lr,8[bp]
016974 E3 FD 21 00 		      	sw   	lr,16[bp]
016978 3A FC FF FF 		      	bra  	console_96
                	endpublic
                	
                	public code DisplayStringCRLF_:
01697C E7 EF 01 00 		      	push 	lr
016980 67 EE 01 00 		      	push 	xlr
016984 E7 ED 01 00 		      	push 	bp
016988 7C 01 00 00 		      	ldi  	xlr,#console_97
01698C 0A C0 71 D3 
016990 02 BF 01 1A 		      	mov  	bp,sp
016994 E6 ED 31 00 		      	push 	24[bp]
016998 39 F0 FF FF 		      	bsr  	DisplayString_
01699C 14 EF 11 00 		      	addui	sp,sp,#8
0169A0 39 E5 FF FF 		      	bsr  	CRLF_
                	console_98:
0169A4 82 ED 01 1A 		      	mov  	sp,bp
0169A8 57 BF 11 00 		      	pop  	bp
0169AC 57 CF 11 00 		      	pop  	xlr
0169B0 57 FF 11 00 		      	pop  	lr
0169B4 37 FF 01 00 		      	rtl  	#0
                	console_97:
0169B8 C6 FD 11 00 		      	lw   	lr,8[bp]
0169BC E3 FD 21 00 		      	sw   	lr,16[bp]
0169C0 BA FC FF FF 		      	bra  	console_98
                	endpublic
                	
                		code
0169C4 00 00 00 00 		align	1
0169C8 00 00 00 00 
0169CC 00 00 00 00 
                	
                		code
                		align	16                	
                	public code KeybdIRQ_:
0169D0 7C 1E 01 00 		      	     	         lea   sp,keybd_irq_stack_+4088
0169D4 47 E0 31 88 
0169D8 63 1C 80 02 	         sw    r1,8+312[tr]
0169DC 63 2C 90 02 	         sw    r2,16+312[tr]
0169E0 63 3C A0 02 	         sw    r3,24+312[tr]
0169E4 63 4C B0 02 	         sw    r4,32+312[tr]
0169E8 63 5C C0 02 	         sw    r5,40+312[tr]
0169EC 63 6C D0 02 	         sw    r6,48+312[tr]
0169F0 63 7C E0 02 	         sw    r7,56+312[tr]
0169F4 63 8C F0 02 	         sw    r8,64+312[tr]
0169F8 63 9C 00 03 	         sw    r9,72+312[tr]
0169FC 63 AC 10 03 	         sw    r10,80+312[tr]
016A00 63 BC 20 03 	         sw    r11,88+312[tr]
016A04 63 CC 30 03 	         sw    r12,96+312[tr]
016A08 63 DC 40 03 	         sw    r13,104+312[tr]
016A0C 63 EC 50 03 	         sw    r14,112+312[tr]
016A10 63 FC 60 03 	         sw    r15,120+312[tr]
016A14 63 0C 71 03 	         sw    r16,128+312[tr]
016A18 63 1C 81 03 	         sw    r17,136+312[tr]
016A1C 63 2C 91 03 	         sw    r18,144+312[tr]
016A20 63 3C A1 03 	         sw    r19,152+312[tr]
016A24 63 4C B1 03 	         sw    r20,160+312[tr]
016A28 63 5C C1 03 	         sw    r21,168+312[tr]
016A2C 63 6C D1 03 	         sw    r22,176+312[tr]
016A30 63 7C E1 03 	         sw    r23,184+312[tr]
016A34 63 8C F1 03 	         sw    r24,192+312[tr]
016A38 63 9C 01 04 	         sw    r25,200+312[tr]
016A3C 63 AC 11 04 	         sw    r26,208+312[tr]
016A40 63 BC 21 04 	         sw    r27,216+312[tr]
016A44 63 CC 31 04 	         sw    r28,224+312[tr]
016A48 63 DC 41 04 	         sw    r29,232+312[tr]
016A4C 63 EC 51 04 	         sw    r30,240+312[tr]
016A50 63 FC 61 04 	         sw    r31,248+312[tr]
016A54 02 10 00 3E 	         mfspr r1,cr0
016A58 63 1C 60 02 	         sw    r1,304[tr]
                	     
016A5C E7 EF 01 00 		      	push 	lr
016A60 67 EE 01 00 		      	push 	xlr
016A64 E7 ED 01 00 		      	push 	bp
016A68 7C 01 00 00 		      	ldi  	xlr,#keybd_0
016A6C 0A C0 B1 D7 
016A70 02 BF 01 1A 		      	mov  	bp,sp
016A74 15 EF 21 00 		      	subui	sp,sp,#16
016A78 E7 E5 01 00 		      	push 	r11
016A7C B9 3C F6 FF 		      	bsr  	KeybdGetStatus_
016A80 82 30 00 1A 		      	mov  	r3,r1
016A84 BD 31 60 00 		      	bge  	r3,keybd_1
016A88 39 50 F6 FF 		      	bsr  	KeybdGetScancode_
016A8C 82 30 00 1A 		      	mov  	r3,r1
016A90 E0 3D FE FF 		      	sb   	r3,-1[bp]
016A94 7C 0D 01 00 		      	lw   	r11,IOFocusNdx_
016A98 46 B0 40 E0 
016A9C BD 05 54 00 		      	beq  	r11,keybd_3
016AA0 65 E0 21 4E 		      	push 	#10000
016AA4 7C 0D 01 00 		      	push 	#sys_sema_
016AA8 65 E0 C1 E0 
016AAC B9 C8 00 00 		      	bsr  	LockSemaphore_
016AB0 82 30 00 1A 		      	mov  	r3,r1
016AB4 BD 01 38 00 		      	beq  	r3,keybd_5
016AB8 B9 64 F6 FF 		      	bsr  	KeybdClearRcv_
016ABC C0 35 DE 0C 		      	lb   	r3,1647[r11]
016AC0 E0 3D FC FF 		      	sb   	r3,-2[bp]
016AC4 C0 35 E0 0C 		      	lb   	r3,1648[r11]
016AC8 E0 3D FA FF 		      	sb   	r3,-3[bp]
016ACC C0 3D FC FF 		      	lb   	r3,-2[bp]
016AD0 94 31 02 00 		      	addui	r3,r3,#1
016AD4 E0 3D FC FF 		      	sb   	r3,-2[bp]
016AD8 C0 3D FC FF 		      	lb   	r3,-2[bp]
016ADC 8C 31 1E 00 		      	andi 	r3,r3,#15
016AE0 E0 3D FC FF 		      	sb   	r3,-2[bp]
016AE4 C0 3D FC FF 		      	lb   	r3,-2[bp]
016AE8 C0 4D FA FF 		      	lb   	r4,-3[bp]
016AEC 82 51 08 0C 		      	cmp  	r5,r3,r4
016AF0 BD 02 14 00 		      	beq  	r5,keybd_7
016AF4 C0 3D FC FF 		      	lb   	r3,-2[bp]
016AF8 E0 35 DE 0C 		      	sb   	r3,1647[r11]
016AFC C0 3D FE FF 		      	lb   	r3,-1[bp]
016B00 82 31 00 20 		      	sxb  	r3,r3
016B04 C0 6D FC FF 		      	lb   	r6,-2[bp]
016B08 02 63 00 20 		      	sxb  	r6,r6
016B0C 02 53 02 70 		      	asli 	r5,r6,#1
016B10 82 42 16 28 		      	addu 	r4,r5,r11
016B14 61 32 E4 0C 		      	sc   	r3,1650[r4]
                	keybd_7:
016B18 7C 0D 01 00 		      	push 	#sys_sema_
016B1C 65 E0 C1 E0 
016B20 39 C8 00 00 		      	bsr  	UnlockSemaphore_
                	keybd_5:
016B24 C0 45 DA 0C 		      	lb   	r4,1645[r11]
016B28 0C 32 04 00 		      	and  	r3,r4,#2
016B2C BD 01 0C 00 		      	beq  	r3,keybd_9
016B30 C0 3D FE FF 		      	lb   	r3,-1[bp]
016B34 86 41 1A 00 		      	cmp  	r4,r3,#13
016B38 3D 12 06 00 		      	bne  	r4,keybd_9
016B3C 7C 0D 01 00 		      	inc  	iof_switch_,#1
016B40 64 10 90 E0 
                	keybd_9:
                	keybd_3:
                	keybd_1:
                	keybd_11:
016B44 57 BF 10 00 		      	pop  	r11
016B48 82 ED 01 1A 		      	mov  	sp,bp
016B4C 57 BF 11 00 		      	pop  	bp
016B50 57 CF 11 00 		      	pop  	xlr
016B54 57 FF 11 00 		      	pop  	lr
016B58 46 1C 60 02 		      	     	         lw    r1,304[tr]
016B5C 82 00 00 3C 	         mtspr cr0,r1
016B60 46 1C 80 02 	         lw    r1,8+312[tr]
016B64 46 2C 90 02 	         lw    r2,16+312[tr]
016B68 46 3C A0 02 	         lw    r3,24+312[tr]
016B6C 46 4C B0 02 	         lw    r4,32+312[tr]
016B70 46 5C C0 02 	         lw    r5,40+312[tr]
016B74 46 6C D0 02 	         lw    r6,48+312[tr]
016B78 46 7C E0 02 	         lw    r7,56+312[tr]
016B7C 46 8C F0 02 	         lw    r8,64+312[tr]
016B80 46 9C 00 03 	         lw    r9,72+312[tr]
016B84 46 AC 10 03 	         lw    r10,80+312[tr]
016B88 46 BC 20 03 	         lw    r11,88+312[tr]
016B8C 46 CC 30 03 	         lw    r12,96+312[tr]
016B90 46 DC 40 03 	         lw    r13,104+312[tr]
016B94 46 EC 50 03 	         lw    r14,112+312[tr]
016B98 46 FC 60 03 	         lw    r15,120+312[tr]
016B9C 46 0C 71 03 	         lw    r16,128+312[tr]
016BA0 46 1C 81 03 	         lw    r17,136+312[tr]
016BA4 46 2C 91 03 	         lw    r18,144+312[tr]
016BA8 46 3C A1 03 	         lw    r19,152+312[tr]
016BAC 46 4C B1 03 	         lw    r20,160+312[tr]
016BB0 46 5C C1 03 	         lw    r21,168+312[tr]
016BB4 46 6C D1 03 	         lw    r22,176+312[tr]
016BB8 46 7C E1 03 	         lw    r23,184+312[tr]
016BBC 46 9C 01 04 	         lw    r25,200+312[tr]
016BC0 46 AC 11 04 	         lw    r26,208+312[tr]
016BC4 46 BC 21 04 	         lw    r27,216+312[tr]
016BC8 46 CC 31 04 	         lw    r28,224+312[tr]
016BCC 46 DC 41 04 	         lw    r29,232+312[tr]
016BD0 46 FC 61 04 	         lw    r31,248+312[tr]
016BD4 02 E0 3F 6E 	         rti
                	     
                	keybd_0:
016BD8 C6 FD 11 00 		      	lw   	lr,8[bp]
016BDC E3 FD 21 00 		      	sw   	lr,16[bp]
016BE0 BA EC FF FF 		      	bra  	keybd_11
                	endpublic
                	
                	public code KeybdGetBufferStatus_:
016BE4 E7 EF 01 00 		      	push 	lr
016BE8 67 EE 01 00 		      	push 	xlr
016BEC E7 ED 01 00 		      	push 	bp
016BF0 7C 01 00 00 		      	ldi  	xlr,#keybd_12
016BF4 0A C0 F1 D8 
016BF8 02 BF 01 1A 		      	mov  	bp,sp
016BFC 15 EF 21 00 		      	subui	sp,sp,#16
016C00 E7 E5 01 00 		      	push 	r11
016C04 39 F6 F8 FF 		      	bsr  	GetJCBPtr_
016C08 82 30 00 1A 		      	mov  	r3,r1
016C0C 82 B1 00 1A 		      	mov  	r11,r3
016C10 65 E0 FF FF 		      	push 	#-1
016C14 7C 0D 01 00 		      	push 	#sys_sema_
016C18 65 E0 C1 E0 
016C1C B9 9A 00 00 		      	bsr  	LockSemaphore_
016C20 82 30 00 1A 		      	mov  	r3,r1
016C24 BD 01 10 00 		      	beq  	r3,keybd_13
016C28 C0 35 DE 0C 		      	lb   	r3,1647[r11]
016C2C E0 3D EE FF 		      	sb   	r3,-9[bp]
016C30 C0 35 E0 0C 		      	lb   	r3,1648[r11]
016C34 E0 3D EC FF 		      	sb   	r3,-10[bp]
016C38 7C 0D 01 00 		      	push 	#sys_sema_
016C3C 65 E0 C1 E0 
016C40 39 A4 00 00 		      	bsr  	UnlockSemaphore_
                	keybd_13:
016C44 C0 3D EE FF 		      	lb   	r3,-9[bp]
016C48 C0 4D EC FF 		      	lb   	r4,-10[bp]
016C4C 82 51 08 0C 		      	cmp  	r5,r3,r4
016C50 BD 02 10 00 		      	beq  	r5,keybd_15
016C54 0A 10 FE FF 		      	ldi  	r1,#-1
                	keybd_17:
016C58 57 BF 10 00 		      	pop  	r11
016C5C 82 ED 01 1A 		      	mov  	sp,bp
016C60 57 BF 11 00 		      	pop  	bp
016C64 57 CF 11 00 		      	pop  	xlr
016C68 57 FF 11 00 		      	pop  	lr
016C6C 37 FF 01 00 		      	rtl  	#0
                	keybd_15:
016C70 0A 10 00 00 		      	ldi  	r1,#0
016C74 BA FC FF FF 		      	bra  	keybd_17
                	keybd_12:
016C78 C6 FD 11 00 		      	lw   	lr,8[bp]
016C7C E3 FD 21 00 		      	sw   	lr,16[bp]
016C80 3A FB FF FF 		      	bra  	keybd_17
                	endpublic
                	
                	public code KeybdGetBufferedScancode_:
016C84 E7 EF 01 00 		      	push 	lr
016C88 67 EE 01 00 		      	push 	xlr
016C8C E7 ED 01 00 		      	push 	bp
016C90 7C 01 00 00 		      	ldi  	xlr,#keybd_18
016C94 0A C0 B9 DA 
016C98 02 BF 01 1A 		      	mov  	bp,sp
016C9C 15 EF 21 00 		      	subui	sp,sp,#16
016CA0 E7 E5 01 00 		      	push 	r11
016CA4 39 E2 F8 FF 		      	bsr  	GetJCBPtr_
016CA8 82 30 00 1A 		      	mov  	r3,r1
016CAC 82 B1 00 1A 		      	mov  	r11,r3
016CB0 65 E0 FF FF 		      	push 	#-1
016CB4 7C 0D 01 00 		      	push 	#sys_sema_
016CB8 65 E0 C1 E0 
016CBC B9 86 00 00 		      	bsr  	LockSemaphore_
016CC0 82 30 00 1A 		      	mov  	r3,r1
016CC4 BD 01 3A 00 		      	beq  	r3,keybd_19
016CC8 C0 35 DE 0C 		      	lb   	r3,1647[r11]
016CCC E0 3D EE FF 		      	sb   	r3,-9[bp]
016CD0 C0 35 E0 0C 		      	lb   	r3,1648[r11]
016CD4 E0 3D EC FF 		      	sb   	r3,-10[bp]
016CD8 C0 3D EE FF 		      	lb   	r3,-9[bp]
016CDC C0 4D EC FF 		      	lb   	r4,-10[bp]
016CE0 82 51 08 0C 		      	cmp  	r5,r3,r4
016CE4 BD 02 22 00 		      	beq  	r5,keybd_21
016CE8 C0 4D EC FF 		      	lb   	r4,-10[bp]
016CEC 02 42 00 20 		      	sxb  	r4,r4
016CF0 02 32 02 70 		      	asli 	r3,r4,#1
016CF4 94 45 E4 0C 		      	addu 	r4,r11,#1650
016CF8 4B 32 06 00 		      	lcu  	r3,0[r4+r3]
016CFC 82 31 00 22 		      	sxc  	r3,r3
016D00 E0 3D EA FF 		      	sb   	r3,-11[bp]
016D04 C0 3D EC FF 		      	lb   	r3,-10[bp]
016D08 94 31 02 00 		      	addui	r3,r3,#1
016D0C E0 3D EC FF 		      	sb   	r3,-10[bp]
016D10 C0 3D EC FF 		      	lb   	r3,-10[bp]
016D14 8C 31 1E 00 		      	andi 	r3,r3,#15
016D18 E0 3D EC FF 		      	sb   	r3,-10[bp]
016D1C C0 3D EC FF 		      	lb   	r3,-10[bp]
016D20 E0 35 E0 0C 		      	sb   	r3,1648[r11]
016D24 3A 01 00 00 		      	bra  	keybd_22
                	keybd_21:
016D28 E0 0D EA FF 		      	sb   	r0,-11[bp]
                	keybd_22:
016D2C 7C 0D 01 00 		      	push 	#sys_sema_
016D30 65 E0 C1 E0 
016D34 B9 85 00 00 		      	bsr  	UnlockSemaphore_
                	keybd_19:
016D38 C0 3D EA FF 		      	lb   	r3,-11[bp]
016D3C 82 31 00 20 		      	sxb  	r3,r3
016D40 82 11 00 1A 		      	mov  	r1,r3
                	keybd_23:
016D44 57 BF 10 00 		      	pop  	r11
016D48 82 ED 01 1A 		      	mov  	sp,bp
016D4C 57 BF 11 00 		      	pop  	bp
016D50 57 CF 11 00 		      	pop  	xlr
016D54 57 FF 11 00 		      	pop  	lr
016D58 37 FF 01 00 		      	rtl  	#0
                	keybd_18:
016D5C C6 FD 11 00 		      	lw   	lr,8[bp]
016D60 E3 FD 21 00 		      	sw   	lr,16[bp]
016D64 3A FC FF FF 		      	bra  	keybd_23
                	endpublic
                	
                		code
016D68 00 00 00 00 		align	1
016D6C 00 00 00 00 
                	
                	KeybdGetBufferedChar_:
016D70 E7 EF 01 00 		      	push 	lr
016D74 67 EE 01 00 		      	push 	xlr
016D78 E7 ED 01 00 		      	push 	bp
016D7C 7C 01 00 00 		      	ldi  	xlr,#keybd_25
016D80 0A C0 39 E0 
016D84 02 BF 01 1A 		      	mov  	bp,sp
016D88 15 EF 21 00 		      	subui	sp,sp,#16
016D8C E7 E5 01 00 		      	push 	r11
016D90 67 E6 01 00 		      	push 	r12
016D94 39 C4 F8 FF 		      	bsr  	GetJCBPtr_
016D98 82 30 00 1A 		      	mov  	r3,r1
016D9C 82 B1 00 1A 		      	mov  	r11,r3
                	keybd_26:
                	keybd_28:
016DA0 B9 C8 FF FF 		      	bsr  	KeybdGetBufferStatus_
016DA4 82 30 00 1A 		      	mov  	r3,r1
016DA8 BD 41 18 00 		      	blt  	r3,keybd_29
016DAC C0 35 DC 0C 		      	lb   	r3,1646[r11]
016DB0 BD 11 12 00 		      	bne  	r3,keybd_30
016DB4 0A 10 FE FF 		      	ldi  	r1,#-1
                	keybd_32:
016DB8 57 CF 10 00 		      	pop  	r12
016DBC 57 BF 10 00 		      	pop  	r11
016DC0 82 ED 01 1A 		      	mov  	sp,bp
016DC4 57 BF 11 00 		      	pop  	bp
016DC8 57 CF 11 00 		      	pop  	xlr
016DCC 57 FF 11 00 		      	pop  	lr
016DD0 37 FF 01 00 		      	rtl  	#0
                	keybd_30:
016DD4 BA F9 FF FF 		      	bra  	keybd_28
                	keybd_29:
016DD8 B9 D5 FF FF 		      	bsr  	KeybdGetBufferedScancode_
016DDC 82 30 00 1A 		      	mov  	r3,r1
016DE0 82 C1 00 1A 		      	mov  	r12,r3
016DE4 06 36 E0 01 		      	cmp  	r3,r12,#240
016DE8 BD 01 20 00 		      	beq  	r3,keybd_34
016DEC 06 36 C0 01 		      	cmp  	r3,r12,#224
016DF0 BD 01 22 00 		      	beq  	r3,keybd_35
016DF4 06 36 28 00 		      	cmp  	r3,r12,#20
016DF8 BD 01 2A 00 		      	beq  	r3,keybd_36
016DFC 06 36 B2 00 		      	cmp  	r3,r12,#89
016E00 BD 01 3C 00 		      	beq  	r3,keybd_37
016E04 06 36 EE 00 		      	cmp  	r3,r12,#119
016E08 BD 01 4E 00 		      	beq  	r3,keybd_38
016E0C 06 36 B0 00 		      	cmp  	r3,r12,#88
016E10 BD 01 54 00 		      	beq  	r3,keybd_39
016E14 06 36 FC 00 		      	cmp  	r3,r12,#126
016E18 BD 01 5A 00 		      	beq  	r3,keybd_40
016E1C 06 36 22 00 		      	cmp  	r3,r12,#17
016E20 BD 01 60 00 		      	beq  	r3,keybd_41
016E24 3A 1D 00 00 		      	bra  	keybd_42
                	keybd_34:
016E28 0A 30 FE FF 		      	ldi  	r3,#-1
016E2C E0 35 D8 0C 		      	sb   	r3,1644[r11]
016E30 BA 3C 00 00 		      	bra  	keybd_33
                	keybd_35:
016E34 C0 35 DA 0C 		      	lb   	r3,1645[r11]
016E38 8D 31 00 01 		      	ori  	r3,r3,#128
016E3C E0 35 DA 0C 		      	sb   	r3,1645[r11]
016E40 C0 35 DA 0C 		      	lb   	r3,1645[r11]
016E44 82 31 00 20 		      	sxb  	r3,r3
016E48 BA 39 00 00 		      	bra  	keybd_33
                	keybd_36:
016E4C C0 35 D8 0C 		      	lb   	r3,1644[r11]
016E50 BD 41 0A 00 		      	blt  	r3,keybd_43
016E54 C0 35 DA 0C 		      	lb   	r3,1645[r11]
016E58 8D 31 08 00 		      	ori  	r3,r3,#4
016E5C E0 35 DA 0C 		      	sb   	r3,1645[r11]
016E60 3A 02 00 00 		      	bra  	keybd_44
                	keybd_43:
016E64 C0 35 DA 0C 		      	lb   	r3,1645[r11]
016E68 8C 31 F6 FF 		      	andi 	r3,r3,#-5
016E6C E0 35 DA 0C 		      	sb   	r3,1645[r11]
                	keybd_44:
016E70 E0 05 D8 0C 		      	sb   	r0,1644[r11]
016E74 3A 34 00 00 		      	bra  	keybd_33
                	keybd_37:
016E78 C0 35 D8 0C 		      	lb   	r3,1644[r11]
016E7C BD 41 0A 00 		      	blt  	r3,keybd_45
016E80 C0 35 DA 0C 		      	lb   	r3,1645[r11]
016E84 8D 31 02 00 		      	ori  	r3,r3,#1
016E88 E0 35 DA 0C 		      	sb   	r3,1645[r11]
016E8C 3A 02 00 00 		      	bra  	keybd_46
                	keybd_45:
016E90 C0 35 DA 0C 		      	lb   	r3,1645[r11]
016E94 8C 31 FC FF 		      	andi 	r3,r3,#-2
016E98 E0 35 DA 0C 		      	sb   	r3,1645[r11]
                	keybd_46:
016E9C E0 05 D8 0C 		      	sb   	r0,1644[r11]
016EA0 BA 2E 00 00 		      	bra  	keybd_33
                	keybd_38:
016EA4 C6 3D F0 FF 		      	lw   	r3,-8[bp]
016EA8 C0 41 DA 0C 		      	lb   	r4,1645[r3]
016EAC 0E 42 20 00 		      	xori 	r4,r4,#16
016EB0 E0 41 DA 0C 		      	sb   	r4,1645[r3]
016EB4 3A 2C 00 00 		      	bra  	keybd_33
                	keybd_39:
016EB8 C6 3D F0 FF 		      	lw   	r3,-8[bp]
016EBC C0 41 DA 0C 		      	lb   	r4,1645[r3]
016EC0 0E 42 40 00 		      	xori 	r4,r4,#32
016EC4 E0 41 DA 0C 		      	sb   	r4,1645[r3]
016EC8 BA 29 00 00 		      	bra  	keybd_33
                	keybd_40:
016ECC C6 3D F0 FF 		      	lw   	r3,-8[bp]
016ED0 C0 41 DA 0C 		      	lb   	r4,1645[r3]
016ED4 0E 42 80 00 		      	xori 	r4,r4,#64
016ED8 E0 41 DA 0C 		      	sb   	r4,1645[r3]
016EDC 3A 27 00 00 		      	bra  	keybd_33
                	keybd_41:
016EE0 C0 35 D8 0C 		      	lb   	r3,1644[r11]
016EE4 BD 41 0A 00 		      	blt  	r3,keybd_47
016EE8 C0 35 DA 0C 		      	lb   	r3,1645[r11]
016EEC 8D 31 04 00 		      	ori  	r3,r3,#2
016EF0 E0 35 DA 0C 		      	sb   	r3,1645[r11]
016EF4 3A 02 00 00 		      	bra  	keybd_48
                	keybd_47:
016EF8 C0 35 DA 0C 		      	lb   	r3,1645[r11]
016EFC 8C 31 FA FF 		      	andi 	r3,r3,#-3
016F00 E0 35 DA 0C 		      	sb   	r3,1645[r11]
                	keybd_48:
016F04 E0 05 D8 0C 		      	sb   	r0,1644[r11]
016F08 BA 21 00 00 		      	bra  	keybd_33
                	keybd_42:
016F0C 06 36 1A 00 		      	cmp  	r3,r12,#13
016F10 BD 11 12 00 		      	bne  	r3,keybd_49
016F14 C0 45 DA 0C 		      	lb   	r4,1645[r11]
016F18 0C 32 04 00 		      	and  	r3,r4,#2
016F1C BD 01 0C 00 		      	beq  	r3,keybd_49
016F20 C0 35 D8 0C 		      	lb   	r3,1644[r11]
016F24 BD 11 08 00 		      	bne  	r3,keybd_49
016F28 7C 0D 01 00 		      	inc  	iof_switch_,#1
016F2C 64 10 90 E0 
016F30 BA 1C 00 00 		      	bra  	keybd_33
                	keybd_49:
016F34 C0 35 D8 0C 		      	lb   	r3,1644[r11]
016F38 BD 01 06 00 		      	beq  	r3,keybd_51
016F3C E0 05 D8 0C 		      	sb   	r0,1644[r11]
016F40 BA 1A 00 00 		      	bra  	keybd_33
                	keybd_51:
016F44 C0 45 DA 0C 		      	lb   	r4,1645[r11]
016F48 02 42 00 20 		      	sxb  	r4,r4
016F4C 0C 32 00 01 		      	and  	r3,r4,#128
016F50 BD 01 18 00 		      	beq  	r3,keybd_53
016F54 7C 01 00 00 		      	lbu  	r3,keybdExtendedCodes_[r12]
016F58 41 36 A0 4C 
016F5C 82 31 00 20 		      	sxb  	r3,r3
016F60 E1 3D E8 FF 		      	sc   	r3,-12[bp]
016F64 E0 05 D8 0C 		      	sb   	r0,1644[r11]
016F68 C0 35 DA 0C 		      	lb   	r3,1645[r11]
016F6C 8C 31 FE 00 		      	andi 	r3,r3,#127
016F70 E0 35 DA 0C 		      	sb   	r3,1645[r11]
016F74 C3 3D E8 FF 		      	lcu  	r3,-12[bp]
016F78 82 11 00 1A 		      	mov  	r1,r3
016F7C BA C7 FF FF 		      	bra  	keybd_32
                	keybd_53:
016F80 C0 45 DA 0C 		      	lb   	r4,1645[r11]
016F84 0C 32 08 00 		      	and  	r3,r4,#4
016F88 BD 01 1A 00 		      	beq  	r3,keybd_55
016F8C 7C 01 00 00 		      	lbu  	r3,keybdControlCodes_[r12]
016F90 41 36 A0 4B 
016F94 82 31 00 20 		      	sxb  	r3,r3
016F98 E1 3D E8 FF 		      	sc   	r3,-12[bp]
016F9C C0 35 DA 0C 		      	lb   	r3,1645[r11]
016FA0 8C 31 F6 01 		      	andi 	r3,r3,#251
016FA4 E0 35 DA 0C 		      	sb   	r3,1645[r11]
016FA8 C0 35 DA 0C 		      	lb   	r3,1645[r11]
016FAC 82 31 00 20 		      	sxb  	r3,r3
016FB0 C3 3D E8 FF 		      	lcu  	r3,-12[bp]
016FB4 82 11 00 1A 		      	mov  	r1,r3
016FB8 3A C0 FF FF 		      	bra  	keybd_32
                	keybd_55:
016FBC C0 45 DA 0C 		      	lb   	r4,1645[r11]
016FC0 0C 32 02 00 		      	and  	r3,r4,#1
016FC4 BD 01 1A 00 		      	beq  	r3,keybd_57
016FC8 7C 01 00 00 		      	lbu  	r3,shiftedScanCodes_[r12]
016FCC 41 36 A0 49 
016FD0 82 31 00 20 		      	sxb  	r3,r3
016FD4 E1 3D E8 FF 		      	sc   	r3,-12[bp]
016FD8 C0 35 DA 0C 		      	lb   	r3,1645[r11]
016FDC 8C 31 FC 01 		      	andi 	r3,r3,#254
016FE0 E0 35 DA 0C 		      	sb   	r3,1645[r11]
016FE4 C0 35 DA 0C 		      	lb   	r3,1645[r11]
016FE8 82 31 00 20 		      	sxb  	r3,r3
016FEC C3 3D E8 FF 		      	lcu  	r3,-12[bp]
016FF0 82 11 00 1A 		      	mov  	r1,r3
016FF4 BA B8 FF FF 		      	bra  	keybd_32
                	keybd_57:
016FF8 7C 01 00 00 		      	lbu  	r3,unshiftedScanCodes_[r12]
016FFC 41 36 A0 47 
017000 82 31 00 20 		      	sxb  	r3,r3
017004 E1 3D E8 FF 		      	sc   	r3,-12[bp]
017008 C3 3D E8 FF 		      	lcu  	r3,-12[bp]
01700C 82 11 00 1A 		      	mov  	r1,r3
017010 3A B5 FF FF 		      	bra  	keybd_32
                	keybd_58:
                	keybd_56:
                	keybd_54:
                	keybd_52:
                	keybd_50:
                	keybd_33:
017014 BA B1 FF FF 		      	bra  	keybd_26
                	keybd_27:
017018 3A B4 FF FF 		      	bra  	keybd_32
                	keybd_25:
01701C C6 FD 11 00 		      	lw   	lr,8[bp]
017020 E3 FD 21 00 		      	sw   	lr,16[bp]
017024 BA B2 FF FF 		      	bra  	keybd_32
                	public code KeybdGetBufferedCharWait_:
017028 E7 EF 01 00 		      	push 	lr
01702C 67 EE 01 00 		      	push 	xlr
017030 E7 ED 01 00 		      	push 	bp
017034 7C 01 00 00 		      	ldi  	xlr,#keybd_59
017038 0A C0 01 E1 
01703C 02 BF 01 1A 		      	mov  	bp,sp
017040 15 EF 11 00 		      	subui	sp,sp,#8
017044 E7 E5 01 00 		      	push 	r11
017048 B9 6D F8 FF 		      	bsr  	GetJCBPtr_
01704C 82 30 00 1A 		      	mov  	r3,r1
017050 82 B1 00 1A 		      	mov  	r11,r3
017054 0A 30 02 00 		      	ldi  	r3,#1
017058 E0 35 DC 0C 		      	sb   	r3,1646[r11]
01705C B9 A2 FF FF 		      	bsr  	KeybdGetBufferedChar_
017060 82 30 00 1A 		      	mov  	r3,r1
017064 82 11 00 1A 		      	mov  	r1,r3
                	keybd_60:
017068 57 BF 10 00 		      	pop  	r11
01706C 82 ED 01 1A 		      	mov  	sp,bp
017070 57 BF 11 00 		      	pop  	bp
017074 57 CF 11 00 		      	pop  	xlr
017078 57 FF 11 00 		      	pop  	lr
01707C 37 FF 01 00 		      	rtl  	#0
                	keybd_59:
017080 C6 FD 11 00 		      	lw   	lr,8[bp]
017084 E3 FD 21 00 		      	sw   	lr,16[bp]
017088 3A FC FF FF 		      	bra  	keybd_60
                	endpublic
                	
                	public code KeybdGetBufferedCharNoWait_:
01708C E7 EF 01 00 		      	push 	lr
017090 67 EE 01 00 		      	push 	xlr
017094 E7 ED 01 00 		      	push 	bp
017098 7C 01 00 00 		      	ldi  	xlr,#keybd_61
01709C 0A C0 C1 E1 
0170A0 02 BF 01 1A 		      	mov  	bp,sp
0170A4 15 EF 11 00 		      	subui	sp,sp,#8
0170A8 E7 E5 01 00 		      	push 	r11
0170AC 39 61 F8 FF 		      	bsr  	GetJCBPtr_
0170B0 82 30 00 1A 		      	mov  	r3,r1
0170B4 82 B1 00 1A 		      	mov  	r11,r3
0170B8 E0 05 DC 0C 		      	sb   	r0,1646[r11]
0170BC B9 96 FF FF 		      	bsr  	KeybdGetBufferedChar_
0170C0 82 30 00 1A 		      	mov  	r3,r1
0170C4 82 11 00 1A 		      	mov  	r1,r3
                	keybd_62:
0170C8 57 BF 10 00 		      	pop  	r11
0170CC 82 ED 01 1A 		      	mov  	sp,bp
0170D0 57 BF 11 00 		      	pop  	bp
0170D4 57 CF 11 00 		      	pop  	xlr
0170D8 57 FF 11 00 		      	pop  	lr
0170DC 37 FF 01 00 		      	rtl  	#0
                	keybd_61:
0170E0 C6 FD 11 00 		      	lw   	lr,8[bp]
0170E4 E3 FD 21 00 		      	sw   	lr,16[bp]
0170E8 3A FC FF FF 		      	bra  	keybd_62
                	endpublic
                	
                		code
0170EC 00 00 00 00 		align	1
                	
                	public code LockSemaphore_:
0170F0 15 EF 21 00 		      	subui	sp,sp,#16
0170F4 E7 ED 01 00 		      	push 	bp
0170F8 02 BF 01 1A 		      	mov  	bp,sp
0170FC C6 1D 30 00 		      	     	        lw      r1,24[bp]
017100 C6 2D 40 00 	        lw      r2,32[bp]
                	        ; Interrupts should be already enabled or there would be no way for a locked
                	        ; semaphore to clear. Let's enable interrupts just in case.
017104 02 00 00 6E 	        cli
                	    .0001:
017108 3D 01 20 00 	        beq     r2,.0004  
01710C 15 21 02 00 	        subui   r2,r2,#1  
017110 DC 30 00 00 	        lwar    r3,[r1]
017114 BD 01 0A 00 	        beq     r3,.0003            ; branch if free
017118 82 21 30 2C 	        cmpu    r2,r3,tr            ; test if already locked by this task
01711C 3D 01 12 00 	        beq     r2,.0002
017120 82 21 60 34 	        chk     r2,r3,b48           ; check if locked by a valid task
017124 3D 11 F2 FF 	        bne     r2,.0001
                	    .0003:
017128 EE 80 01 00 	        swcr    tr,[r1]             ; try and lock it
01712C 3F 00 00 00 	        nop                         ; cr0 needs time to update???
017130 3F 00 00 00 	        nop
017134 02 30 00 3E 	        mfspr   r3,cr0
017138 83 31 48 D2 	        bfextu  r3,r3,#36,#36       ; status is bit 36 of cr0
01713C BD 01 E6 FF 	        beq     r3,.0001            ; lock failed, go try again
                	    .0002:
017140 0A 10 02 00 	        ldi     r1,#1
017144 3A 01 00 00 	        bra     .0005
                	    .0004:
017148 0A 10 00 00 	        ldi     r1,#0
                	    .0005:
                	    
                	LockSemaphore_1:
01714C 82 ED 01 1A 		      	mov  	sp,bp
017150 57 BF 11 00 		      	pop  	bp
017154 37 FF 41 00 		      	rtl  	#32
                	endpublic
                	
                		code
017158 00 00 00 00 		align	1
01715C 00 00 00 00 
                	
                	public code UnlockSemaphore_:
017160 15 EF 21 00 		      	subui	sp,sp,#16
017164 E7 ED 01 00 		      	push 	bp
017168 02 BF 01 1A 		      	mov  	bp,sp
01716C C6 1D 30 00 		      	     	        lw      r1,24[bp]
                	    .0001:
017170 E3 00 00 00 	        sw      r0,[r1]
017174 C6 20 00 00 	        lw      r2,[r1]
017178 3D 01 0A 00 	        beq     r2,.0002  ; the semaphore is unlock, by this task or another
01717C 02 31 30 2C 	        cmpu    r3,r2,tr
017180 BD 01 F8 FF 	        beq     r3,.0001  ; ??? this task still has it locked - store failed
                	        ; Here the semaphore was locked, but not by this task anymore. Another task
                	        ; must have interceded amd locked the semaphore right after it was unlocked
                	        ; by this task. Make sure this is the case, and it's not just bad memory.
                	        ; Make sure the semaphore was locked by a valid task
017184 02 31 60 34 	        chk     r3,r2,b48
017188 BD 01 F4 FF 	        beq     r3,.0001
                	        ; Here the semaphore probably was validly locked by a different task.
                	        ; Assume the unlock must have been successful.
                	    .0002:
                	    
                	UnlockSemaphore_1:
01718C 82 ED 01 1A 		      	mov  	sp,bp
017190 57 BF 11 00 		      	pop  	bp
017194 37 FF 31 00 		      	rtl  	#24
                	endpublic
                	
                		code
017198 00 00 00 00 		align	1
01719C 00 00 00 00 
                	
                	public code ForceIOFocus_:
0171A0 E7 EF 01 00 		      	push 	lr
0171A4 67 EE 01 00 		      	push 	xlr
0171A8 E7 ED 01 00 		      	push 	bp
0171AC 7C 01 00 00 		      	ldi  	xlr,#IOFocusc_0
0171B0 0A C0 39 E4 
0171B4 02 BF 01 1A 		      	mov  	bp,sp
0171B8 E7 E5 01 00 		      	push 	r11
0171BC E6 ED 31 00 		      	push 	24[bp]
0171C0 39 23 00 00 		      	bsr  	RequestIOFocus_
0171C4 14 EF 11 00 		      	addui	sp,sp,#8
0171C8 39 F9 0D 00 		      	bsr  	LockIOF_
0171CC 7C 0D 01 00 		      	lw   	r3,IOFocusNdx_
0171D0 46 30 40 E0 
0171D4 82 45 06 0C 		      	cmp  	r4,r11,r3
0171D8 3D 02 14 00 		      	beq  	r4,IOFocusc_1
0171DC B9 7E 00 00 		      	bsr  	CopyScreenToVirtualScreen_
0171E0 C6 35 B0 0C 		      	lw   	r3,1624[r11]
0171E4 E3 35 A0 0C 		      	sw   	r3,1616[r11]
0171E8 7C 0D 01 00 		      	sw   	r11,IOFocusNdx_
0171EC 63 B0 40 E0 
0171F0 7C D0 FF 00 		      	ldi  	r3,#4291821568
0171F4 0A 30 00 00 
0171F8 E3 35 A0 0C 		      	sw   	r3,1616[r11]
0171FC 39 61 00 00 		      	bsr  	CopyVirtualScreenToScreen_
                	IOFocusc_1:
017200 B9 F5 0D 00 		      	bsr  	UnlockIOF_
                	IOFocusc_3:
017204 57 BF 10 00 		      	pop  	r11
017208 82 ED 01 1A 		      	mov  	sp,bp
01720C 57 BF 11 00 		      	pop  	bp
017210 57 CF 11 00 		      	pop  	xlr
017214 57 FF 11 00 		      	pop  	lr
017218 37 FF 01 00 		      	rtl  	#0
                	IOFocusc_0:
01721C C6 FD 11 00 		      	lw   	lr,8[bp]
017220 E3 FD 21 00 		      	sw   	lr,16[bp]
017224 3A FC FF FF 		      	bra  	IOFocusc_3
                	endpublic
                	
                	public code SwitchIOFocus_:
017228 E7 EF 01 00 		      	push 	lr
01722C 67 EE 01 00 		      	push 	xlr
017230 E7 ED 01 00 		      	push 	bp
017234 7C 01 00 00 		      	ldi  	xlr,#IOFocusc_4
017238 0A C0 99 E5 
01723C 02 BF 01 1A 		      	mov  	bp,sp
017240 15 EF 21 00 		      	subui	sp,sp,#16
017244 E7 E5 01 00 		      	push 	r11
017248 67 E6 01 00 		      	push 	r12
01724C 7C 0D 01 00 		      	ldi  	r12,#IOFocusNdx_
017250 0A C0 40 E0 
017254 B9 E7 0D 00 		      	bsr  	LockIOF_
017258 46 B6 00 00 		      	lw   	r11,[r12]
01725C BD 05 28 00 		      	beq  	r11,IOFocusc_5
017260 46 36 00 00 		      	lw   	r3,[r12]
017264 C6 41 00 00 		      	lw   	r4,[r3]
017268 E3 4D E0 FF 		      	sw   	r4,-16[bp]
01726C C6 3D E0 FF 		      	lw   	r3,-16[bp]
017270 46 46 00 00 		      	lw   	r4,[r12]
017274 82 51 08 0C 		      	cmp  	r5,r3,r4
017278 BD 02 1A 00 		      	beq  	r5,IOFocusc_7
01727C C6 3D E0 FF 		      	lw   	r3,-16[bp]
017280 BD 01 16 00 		      	beq  	r3,IOFocusc_9
017284 B9 69 00 00 		      	bsr  	CopyScreenToVirtualScreen_
017288 C6 35 B0 0C 		      	lw   	r3,1624[r11]
01728C E3 35 A0 0C 		      	sw   	r3,1616[r11]
017290 C6 3D E0 FF 		      	lw   	r3,-16[bp]
017294 63 36 00 00 		      	sw   	r3,[r12]
017298 C6 3D E0 FF 		      	lw   	r3,-16[bp]
01729C 7C D0 FF 00 		      	ldi  	r4,#4291821568
0172A0 0A 40 00 00 
0172A4 E3 41 A0 0C 		      	sw   	r4,1616[r3]
0172A8 B9 4B 00 00 		      	bsr  	CopyVirtualScreenToScreen_
                	IOFocusc_9:
                	IOFocusc_7:
                	IOFocusc_5:
0172AC 39 E0 0D 00 		      	bsr  	UnlockIOF_
                	IOFocusc_11:
0172B0 57 CF 10 00 		      	pop  	r12
0172B4 57 BF 10 00 		      	pop  	r11
0172B8 82 ED 01 1A 		      	mov  	sp,bp
0172BC 57 BF 11 00 		      	pop  	bp
0172C0 57 CF 11 00 		      	pop  	xlr
0172C4 57 FF 11 00 		      	pop  	lr
0172C8 37 FF 01 00 		      	rtl  	#0
                	IOFocusc_4:
0172CC C6 FD 11 00 		      	lw   	lr,8[bp]
0172D0 E3 FD 21 00 		      	sw   	lr,16[bp]
0172D4 BA FB FF FF 		      	bra  	IOFocusc_11
                	endpublic
                	
                	public code RequestIOFocus_:
0172D8 E7 EF 01 00 		      	push 	lr
0172DC 67 EE 01 00 		      	push 	xlr
0172E0 E7 ED 01 00 		      	push 	bp
0172E4 7C 01 00 00 		      	ldi  	xlr,#IOFocusc_12
0172E8 0A C0 71 E7 
0172EC 02 BF 01 1A 		      	mov  	bp,sp
0172F0 15 EF 21 00 		      	subui	sp,sp,#16
0172F4 E7 E5 01 00 		      	push 	r11
0172F8 67 E6 01 00 		      	push 	r12
0172FC C6 BD 30 00 		      	lw   	r11,24[bp]
017300 7C 0D 01 00 		      	ldi  	r12,#IOFocusNdx_
017304 0A C0 40 E0 
017308 C0 35 24 0D 		      	lb   	r3,1682[r11]
01730C 82 31 00 20 		      	sxb  	r3,r3
017310 E3 3D F0 FF 		      	sw   	r3,-8[bp]
017314 B9 CF 0D 00 		      	bsr  	LockIOF_
017318 7C 0D 01 00 		      	lw   	r5,IOFocusTbl_
01731C 46 50 50 E0 
017320 C6 6D F0 FF 		      	lw   	r6,-8[bp]
017324 82 42 0C 68 		      	asr  	r4,r5,r6
017328 0C 32 02 00 		      	and  	r3,r4,#1
01732C E3 3D E0 FF 		      	sw   	r3,-16[bp]
017330 C6 3D E0 FF 		      	lw   	r3,-16[bp]
017334 BD 11 32 00 		      	bne  	r3,IOFocusc_13
017338 46 36 00 00 		      	lw   	r3,[r12]
01733C BD 11 0A 00 		      	bne  	r3,IOFocusc_15
017340 63 B6 00 00 		      	sw   	r11,[r12]
017344 E3 B5 00 00 		      	sw   	r11,[r11]
017348 E3 B5 10 00 		      	sw   	r11,8[r11]
01734C BA 05 00 00 		      	bra  	IOFocusc_16
                	IOFocusc_15:
017350 46 36 00 00 		      	lw   	r3,[r12]
017354 C6 41 10 00 		      	lw   	r4,8[r3]
017358 E3 45 10 00 		      	sw   	r4,8[r11]
01735C 46 36 00 00 		      	lw   	r3,[r12]
017360 E3 35 00 00 		      	sw   	r3,[r11]
017364 46 36 00 00 		      	lw   	r3,[r12]
017368 C6 31 10 00 		      	lw   	r3,8[r3]
01736C E3 B1 00 00 		      	sw   	r11,[r3]
017370 46 36 00 00 		      	lw   	r3,[r12]
017374 E3 B1 10 00 		      	sw   	r11,8[r3]
                	IOFocusc_16:
017378 0A 40 02 00 		      	ldi  	r4,#1
01737C C6 5D F0 FF 		      	lw   	r5,-8[bp]
017380 02 32 0A 60 		      	asl  	r3,r4,r5
017384 7C 0D 01 00 		      	lw   	r4,IOFocusTbl_
017388 46 40 50 E0 
01738C 02 42 06 1A 		      	or   	r4,r4,r3
017390 7C 0D 01 00 		      	sw   	r4,IOFocusTbl_
017394 63 40 50 E0 
                	IOFocusc_13:
017398 B9 C2 0D 00 		      	bsr  	UnlockIOF_
                	IOFocusc_17:
01739C 57 CF 10 00 		      	pop  	r12
0173A0 57 BF 10 00 		      	pop  	r11
0173A4 82 ED 01 1A 		      	mov  	sp,bp
0173A8 57 BF 11 00 		      	pop  	bp
0173AC 57 CF 11 00 		      	pop  	xlr
0173B0 57 FF 11 00 		      	pop  	lr
0173B4 37 FF 01 00 		      	rtl  	#0
                	IOFocusc_12:
0173B8 C6 FD 11 00 		      	lw   	lr,8[bp]
0173BC E3 FD 21 00 		      	sw   	lr,16[bp]
0173C0 BA FB FF FF 		      	bra  	IOFocusc_17
                	endpublic
                	
                	public code ReleaseIOFocus_:
0173C4 E7 EF 01 00 		      	push 	lr
0173C8 67 EE 01 00 		      	push 	xlr
0173CC E7 ED 01 00 		      	push 	bp
0173D0 7C 01 00 00 		      	ldi  	xlr,#IOFocusc_18
0173D4 0A C0 09 E8 
0173D8 02 BF 01 1A 		      	mov  	bp,sp
0173DC 39 FB F7 FF 		      	bsr  	GetJCBPtr_
0173E0 82 30 00 1A 		      	mov  	r3,r1
0173E4 E7 E1 01 00 		      	push 	r3
0173E8 39 05 00 00 		      	bsr  	ForceReleaseIOFocus_
0173EC 14 EF 11 00 		      	addui	sp,sp,#8
                	IOFocusc_19:
0173F0 82 ED 01 1A 		      	mov  	sp,bp
0173F4 57 BF 11 00 		      	pop  	bp
0173F8 57 CF 11 00 		      	pop  	xlr
0173FC 57 FF 11 00 		      	pop  	lr
017400 37 FF 01 00 		      	rtl  	#0
                	IOFocusc_18:
017404 C6 FD 11 00 		      	lw   	lr,8[bp]
017408 E3 FD 21 00 		      	sw   	lr,16[bp]
01740C BA FC FF FF 		      	bra  	IOFocusc_19
                	endpublic
                	
                	public code ForceReleaseIOFocus_:
017410 E7 EF 01 00 		      	push 	lr
017414 67 EE 01 00 		      	push 	xlr
017418 E7 ED 01 00 		      	push 	bp
01741C 7C 01 00 00 		      	ldi  	xlr,#IOFocusc_20
017420 0A C0 F1 E9 
017424 02 BF 01 1A 		      	mov  	bp,sp
017428 15 EF 11 00 		      	subui	sp,sp,#8
01742C E7 E5 01 00 		      	push 	r11
017430 C6 BD 30 00 		      	lw   	r11,24[bp]
017434 B9 AB 0D 00 		      	bsr  	LockIOF_
017438 7C 0D 01 00 		      	lw   	r4,IOFocusTbl_
01743C 46 40 50 E0 
017440 0A 60 02 00 		      	ldi  	r6,#1
017444 C0 75 24 0D 		      	lb   	r7,1682[r11]
017448 82 73 00 20 		      	sxb  	r7,r7
01744C 02 53 0E 60 		      	asl  	r5,r6,r7
017450 02 32 0A 18 		      	and  	r3,r4,r5
017454 BD 01 44 00 		      	beq  	r3,IOFocusc_21
017458 0A 40 02 00 		      	ldi  	r4,#1
01745C C0 55 24 0D 		      	lb   	r5,1682[r11]
017460 82 52 00 20 		      	sxb  	r5,r5
017464 02 32 0A 60 		      	asl  	r3,r4,r5
017468 8E 31 FE FF 		      	com  	r3,r3
01746C 7C 0D 01 00 		      	lw   	r4,IOFocusTbl_
017470 46 40 50 E0 
017474 02 42 06 18 		      	and  	r4,r4,r3
017478 7C 0D 01 00 		      	sw   	r4,IOFocusTbl_
01747C 63 40 50 E0 
017480 7C 0D 01 00 		      	lw   	r3,IOFocusNdx_
017484 46 30 40 E0 
017488 82 45 06 0C 		      	cmp  	r4,r11,r3
01748C 3D 12 04 00 		      	bne  	r4,IOFocusc_23
017490 39 B3 FF FF 		      	bsr  	SwitchIOFocus_
                	IOFocusc_23:
017494 C6 35 00 00 		      	lw   	r3,[r11]
017498 E3 3D F0 FF 		      	sw   	r3,-8[bp]
01749C C6 3D F0 FF 		      	lw   	r3,-8[bp]
0174A0 BD 01 1E 00 		      	beq  	r3,IOFocusc_25
0174A4 C6 3D F0 FF 		      	lw   	r3,-8[bp]
0174A8 82 41 16 0C 		      	cmp  	r4,r3,r11
0174AC 3D 02 10 00 		      	beq  	r4,IOFocusc_27
0174B0 C6 3D F0 FF 		      	lw   	r3,-8[bp]
0174B4 C6 45 10 00 		      	lw   	r4,8[r11]
0174B8 E3 41 10 00 		      	sw   	r4,8[r3]
0174BC C6 35 10 00 		      	lw   	r3,8[r11]
0174C0 C6 4D F0 FF 		      	lw   	r4,-8[bp]
0174C4 E3 41 00 00 		      	sw   	r4,[r3]
0174C8 BA 01 00 00 		      	bra  	IOFocusc_28
                	IOFocusc_27:
0174CC 7C 0D 01 00 		      	sw   	r0,IOFocusNdx_
0174D0 63 00 40 E0 
                	IOFocusc_28:
0174D4 E3 05 00 00 		      	sw   	r0,[r11]
0174D8 E3 05 10 00 		      	sw   	r0,8[r11]
                	IOFocusc_25:
                	IOFocusc_21:
0174DC 39 9A 0D 00 		      	bsr  	UnlockIOF_
                	IOFocusc_29:
0174E0 57 BF 10 00 		      	pop  	r11
0174E4 82 ED 01 1A 		      	mov  	sp,bp
0174E8 57 BF 11 00 		      	pop  	bp
0174EC 57 CF 11 00 		      	pop  	xlr
0174F0 57 FF 11 00 		      	pop  	lr
0174F4 37 FF 01 00 		      	rtl  	#0
                	IOFocusc_20:
0174F8 C6 FD 11 00 		      	lw   	lr,8[bp]
0174FC E3 FD 21 00 		      	sw   	lr,16[bp]
017500 3A FC FF FF 		      	bra  	IOFocusc_29
                	endpublic
                	
                	public code CopyVirtualScreenToScreen_:
017504 E7 EF 01 00 		      	push 	lr
017508 67 EE 01 00 		      	push 	xlr
01750C E7 ED 01 00 		      	push 	bp
017510 7C 01 00 00 		      	ldi  	xlr,#IOFocusc_30
017514 0A C0 89 EB 
017518 02 BF 01 1A 		      	mov  	bp,sp
01751C 15 EF 51 00 		      	subui	sp,sp,#40
017520 E7 E5 01 00 		      	push 	r11
017524 67 E6 01 00 		      	push 	r12
017528 E7 E6 01 00 		      	push 	r13
01752C 7C 0D 01 00 		      	lw   	r11,IOFocusNdx_
017530 46 B0 40 E0 
017534 C6 D5 A0 0C 		      	lw   	r13,1616[r11]
017538 C6 C5 B0 0C 		      	lw   	r12,1624[r11]
01753C C3 35 C0 0C 		      	lcu  	r3,1632[r11]
017540 C3 45 C4 0C 		      	lcu  	r4,1634[r11]
017544 82 31 08 2E 		      	mulu 	r3,r3,r4
017548 82 31 00 22 		      	sxc  	r3,r3
01754C E3 3D C0 FF 		      	sw   	r3,-32[bp]
                	IOFocusc_31:
017550 C6 3D C0 FF 		      	lw   	r3,-32[bp]
017554 BD 41 12 00 		      	blt  	r3,IOFocusc_32
017558 C6 4D C0 FF 		      	lw   	r4,-32[bp]
01755C 02 32 04 70 		      	asli 	r3,r4,#2
017560 C6 5D C0 FF 		      	lw   	r5,-32[bp]
017564 82 42 04 70 		      	asli 	r4,r5,#2
017568 4C 56 06 00 		      	lh   	r5,0[r12+r3]
01756C EA 56 08 00 		      	sh   	r5,0[r13+r4]
                	IOFocusc_33:
017570 E4 FD C1 FF 		      	dec  	-32[bp],#1
017574 BA FB FF FF 		      	bra  	IOFocusc_31
                	IOFocusc_32:
017578 C3 45 C8 0C 		      	lcu  	r4,1636[r11]
01757C C3 55 C4 0C 		      	lcu  	r5,1634[r11]
017580 02 42 0A 2E 		      	mulu 	r4,r4,r5
017584 C3 55 CC 0C 		      	lcu  	r5,1638[r11]
017588 02 32 0A 28 		      	addu 	r3,r4,r5
01758C 82 31 00 22 		      	sxc  	r3,r3
017590 E3 3D B0 FF 		      	sw   	r3,-40[bp]
017594 E6 ED B1 FF 		      	push 	-40[bp]
017598 65 E0 17 00 		      	push 	#11
01759C B9 07 FD FF 		      	bsr  	SetVideoReg_
0175A0 14 EF 21 00 		      	addui	sp,sp,#16
                	IOFocusc_34:
0175A4 57 DF 10 00 		      	pop  	r13
0175A8 57 CF 10 00 		      	pop  	r12
0175AC 57 BF 10 00 		      	pop  	r11
0175B0 82 ED 01 1A 		      	mov  	sp,bp
0175B4 57 BF 11 00 		      	pop  	bp
0175B8 57 CF 11 00 		      	pop  	xlr
0175BC 57 FF 11 00 		      	pop  	lr
0175C0 37 FF 01 00 		      	rtl  	#0
                	IOFocusc_30:
0175C4 C6 FD 11 00 		      	lw   	lr,8[bp]
0175C8 E3 FD 21 00 		      	sw   	lr,16[bp]
0175CC 3A FB FF FF 		      	bra  	IOFocusc_34
                	endpublic
                	
                	public code CopyScreenToVirtualScreen_:
0175D0 15 EF 21 00 		      	subui	sp,sp,#16
0175D4 E7 ED 01 00 		      	push 	bp
0175D8 02 BF 01 1A 		      	mov  	bp,sp
0175DC 15 EF 41 00 		      	subui	sp,sp,#32
0175E0 E7 E5 01 00 		      	push 	r11
0175E4 67 E6 01 00 		      	push 	r12
0175E8 E7 E6 01 00 		      	push 	r13
0175EC 7C 0D 01 00 		      	lw   	r11,IOFocusNdx_
0175F0 46 B0 40 E0 
0175F4 C6 D5 A0 0C 		      	lw   	r13,1616[r11]
0175F8 C6 C5 B0 0C 		      	lw   	r12,1624[r11]
0175FC C3 35 C0 0C 		      	lcu  	r3,1632[r11]
017600 C3 45 C4 0C 		      	lcu  	r4,1634[r11]
017604 82 31 08 2E 		      	mulu 	r3,r3,r4
017608 82 31 00 22 		      	sxc  	r3,r3
01760C E3 3D C0 FF 		      	sw   	r3,-32[bp]
                	IOFocusc_36:
017610 C6 3D C0 FF 		      	lw   	r3,-32[bp]
017614 BD 41 12 00 		      	blt  	r3,IOFocusc_37
017618 C6 4D C0 FF 		      	lw   	r4,-32[bp]
01761C 02 32 04 70 		      	asli 	r3,r4,#2
017620 C6 5D C0 FF 		      	lw   	r5,-32[bp]
017624 82 42 04 70 		      	asli 	r4,r5,#2
017628 CC 56 06 00 		      	lh   	r5,0[r13+r3]
01762C 6A 56 08 00 		      	sh   	r5,0[r12+r4]
                	IOFocusc_38:
017630 E4 FD C1 FF 		      	dec  	-32[bp],#1
017634 BA FB FF FF 		      	bra  	IOFocusc_36
                	IOFocusc_37:
                	IOFocusc_39:
017638 57 DF 10 00 		      	pop  	r13
01763C 57 CF 10 00 		      	pop  	r12
017640 57 BF 10 00 		      	pop  	r11
017644 82 ED 01 1A 		      	mov  	sp,bp
017648 57 BF 11 00 		      	pop  	bp
01764C 37 FF 21 00 		      	rtl  	#16
                	endpublic
                	
                		code
                		align	16                	
                	public code putch_:
017650 15 EF 21 00 		      	subui	sp,sp,#16
017654 E7 ED 01 00 		      	push 	bp
017658 02 BF 01 1A 		      	mov  	bp,sp
01765C 67 E3 01 00 		      	     	        push    r6
017660 C6 1D 30 00 			lw		r1,24[bp]
017664 0A 60 1C 00 			ldi     r6,#14    ; Teletype output function
017668 38 0F 34 03 	        sys     #410      ; Video BIOS call
01766C 57 6F 10 00 	        pop     r6
                		
                	stdio_1:
017670 82 ED 01 1A 		      	mov  	sp,bp
017674 57 BF 11 00 		      	pop  	bp
017678 37 FF 31 00 		      	rtl  	#24
                	endpublic
                	
                	public code putnum_:
01767C E7 EF 01 00 		      	push 	lr
017680 67 EE 01 00 		      	push 	xlr
017684 E7 ED 01 00 		      	push 	bp
017688 7C 01 00 00 		      	ldi  	xlr,#stdio_2
01768C 0A C0 C9 EF 
017690 02 BF 01 1A 		      	mov  	bp,sp
017694 15 EF 51 03 		      	subui	sp,sp,#424
017698 E7 E5 01 00 		      	push 	r11
01769C C7 3D BC FC 		      	lea  	r3,-418[bp]
0176A0 82 B1 00 1A 		      	mov  	r11,r3
0176A4 C6 3D 40 00 		      	lw   	r3,32[bp]
0176A8 BD 41 08 00 		      	blt  	r3,stdio_5
0176AC C6 3D 40 00 		      	lw   	r3,32[bp]
0176B0 86 41 90 01 		      	cmp  	r4,r3,#200
0176B4 3D 52 04 00 		      	ble  	r4,stdio_3
                	stdio_5:
0176B8 E3 0D 40 00 		      	sw   	r0,32[bp]
                	stdio_3:
0176BC C6 3D 30 00 		      	lw   	r3,24[bp]
0176C0 BD 31 06 00 		      	bge  	r3,stdio_6
0176C4 0A 30 5A 00 		      	ldi  	r3,#45
0176C8 BA 01 00 00 		      	bra  	stdio_7
                	stdio_6:
0176CC 0A 40 56 00 		      	ldi  	r4,#43
0176D0 02 32 00 1A 		      	mov  	r3,r4
                	stdio_7:
0176D4 E1 3D DC FF 		      	sc   	r3,-18[bp]
0176D8 C6 3D 30 00 		      	lw   	r3,24[bp]
0176DC BD 31 08 00 		      	bge  	r3,stdio_8
0176E0 C6 3D 30 00 		      	lw   	r3,24[bp]
0176E4 02 30 06 2A 		      	neg  	r3,r3
0176E8 E3 3D 30 00 		      	sw   	r3,24[bp]
                	stdio_8:
0176EC E3 0D F0 FF 		      	sw   	r0,-8[bp]
                	stdio_10:
0176F0 C6 4D F0 FF 		      	lw   	r4,-8[bp]
0176F4 0C 32 06 00 		      	and  	r3,r4,#3
0176F8 86 41 06 00 		      	cmp  	r4,r3,#3
0176FC 3D 12 12 00 		      	bne  	r4,stdio_12
017700 C3 3D 50 00 		      	lcu  	r3,40[bp]
017704 82 31 00 22 		      	sxc  	r3,r3
017708 BD 01 0C 00 		      	beq  	r3,stdio_12
01770C C6 4D F0 FF 		      	lw   	r4,-8[bp]
017710 02 32 02 70 		      	asli 	r3,r4,#1
017714 C3 4D 50 00 		      	lcu  	r4,40[bp]
017718 E9 45 06 00 		      	sc   	r4,0[r11+r3]
01771C E4 1D F0 FF 		      	inc  	-8[bp],#1
                	stdio_12:
017720 C6 3D 30 00 		      	lw   	r3,24[bp]
017724 89 31 14 00 		      	mod  	r3,r3,#10
017728 E3 3D E0 FF 		      	sw   	r3,-16[bp]
01772C C6 4D E0 FF 		      	lw   	r4,-16[bp]
017730 14 32 60 00 		      	addu 	r3,r4,#48
017734 C6 5D F0 FF 		      	lw   	r5,-8[bp]
017738 82 42 02 70 		      	asli 	r4,r5,#1
01773C E9 35 08 00 		      	sc   	r3,0[r11+r4]
017740 C6 3D 30 00 		      	lw   	r3,24[bp]
017744 88 31 14 00 		      	divs 	r3,r3,#10
017748 E3 3D 30 00 		      	sw   	r3,24[bp]
01774C E4 1D F0 FF 		      	inc  	-8[bp],#1
017750 C6 3D 30 00 		      	lw   	r3,24[bp]
017754 BD 01 08 00 		      	beq  	r3,stdio_14
017758 C6 3D F0 FF 		      	lw   	r3,-8[bp]
01775C 86 41 24 00 		      	cmp  	r4,r3,#18
017760 3D 52 C8 FF 		      	ble  	r4,stdio_10
                	stdio_14:
                	stdio_11:
017764 C3 3D DC FF 		      	lcu  	r3,-18[bp]
017768 86 41 5A 00 		      	cmp  	r4,r3,#45
01776C 3D 12 0C 00 		      	bne  	r4,stdio_15
017770 C6 4D F0 FF 		      	lw   	r4,-8[bp]
017774 02 32 02 70 		      	asli 	r3,r4,#1
017778 C3 4D DC FF 		      	lcu  	r4,-18[bp]
01777C E9 45 06 00 		      	sc   	r4,0[r11+r3]
017780 E4 1D F0 FF 		      	inc  	-8[bp],#1
                	stdio_15:
                	stdio_17:
017784 C6 3D F0 FF 		      	lw   	r3,-8[bp]
017788 C6 4D 40 00 		      	lw   	r4,32[bp]
01778C 82 51 08 0C 		      	cmp  	r5,r3,r4
017790 BD 32 0C 00 		      	bge  	r5,stdio_18
017794 C3 3D 60 00 		      	lcu  	r3,48[bp]
017798 E7 E1 01 00 		      	push 	r3
01779C B9 D6 FF FF 		      	bsr  	putch_
                	stdio_19:
0177A0 E4 FD 41 00 		      	dec  	32[bp],#1
0177A4 3A FC FF FF 		      	bra  	stdio_17
                	stdio_18:
                	stdio_20:
0177A8 C6 3D F0 FF 		      	lw   	r3,-8[bp]
0177AC BD 51 10 00 		      	ble  	r3,stdio_21
0177B0 E4 FD F1 FF 		      	dec  	-8[bp],#1
0177B4 C6 4D F0 FF 		      	lw   	r4,-8[bp]
0177B8 02 32 02 70 		      	asli 	r3,r4,#1
0177BC CB 35 06 00 		      	lcu  	r3,0[r11+r3]
0177C0 E7 E1 01 00 		      	push 	r3
0177C4 B9 D1 FF FF 		      	bsr  	putch_
0177C8 3A FC FF FF 		      	bra  	stdio_20
                	stdio_21:
                	stdio_22:
0177CC 57 BF 10 00 		      	pop  	r11
0177D0 82 ED 01 1A 		      	mov  	sp,bp
0177D4 57 BF 11 00 		      	pop  	bp
0177D8 57 CF 11 00 		      	pop  	xlr
0177DC 57 FF 11 00 		      	pop  	lr
0177E0 37 FF 41 00 		      	rtl  	#32
                	stdio_2:
0177E4 C6 FD 11 00 		      	lw   	lr,8[bp]
0177E8 E3 FD 21 00 		      	sw   	lr,16[bp]
0177EC 3A FC FF FF 		      	bra  	stdio_22
                	endpublic
                	
                	public code puthexnum_:
0177F0 E7 EF 01 00 		      	push 	lr
0177F4 67 EE 01 00 		      	push 	xlr
0177F8 E7 ED 01 00 		      	push 	bp
0177FC 7C 01 00 00 		      	ldi  	xlr,#stdio_23
017800 0A C0 11 F3 
017804 02 BF 01 1A 		      	mov  	bp,sp
017808 15 EF 51 03 		      	subui	sp,sp,#424
01780C E7 E5 01 00 		      	push 	r11
017810 C7 3D BC FC 		      	lea  	r3,-418[bp]
017814 82 B1 00 1A 		      	mov  	r11,r3
017818 C6 3D 40 00 		      	lw   	r3,32[bp]
01781C BD 41 08 00 		      	blt  	r3,stdio_26
017820 C6 3D 40 00 		      	lw   	r3,32[bp]
017824 86 41 90 01 		      	cmp  	r4,r3,#200
017828 3D 52 04 00 		      	ble  	r4,stdio_24
                	stdio_26:
01782C E3 0D 40 00 		      	sw   	r0,32[bp]
                	stdio_24:
017830 E3 0D F0 FF 		      	sw   	r0,-8[bp]
017834 C6 3D 30 00 		      	lw   	r3,24[bp]
017838 BD 31 06 00 		      	bge  	r3,stdio_27
01783C 0A 30 5A 00 		      	ldi  	r3,#45
017840 BA 01 00 00 		      	bra  	stdio_28
                	stdio_27:
017844 0A 40 56 00 		      	ldi  	r4,#43
017848 02 32 00 1A 		      	mov  	r3,r4
                	stdio_28:
01784C E1 3D DC FF 		      	sc   	r3,-18[bp]
017850 C6 3D 30 00 		      	lw   	r3,24[bp]
017854 BD 31 08 00 		      	bge  	r3,stdio_29
017858 C6 3D 30 00 		      	lw   	r3,24[bp]
01785C 02 30 06 2A 		      	neg  	r3,r3
017860 E3 3D 30 00 		      	sw   	r3,24[bp]
                	stdio_29:
                	stdio_31:
017864 C6 4D 30 00 		      	lw   	r4,24[bp]
017868 0C 32 1E 00 		      	and  	r3,r4,#15
01786C E3 3D E0 FF 		      	sw   	r3,-16[bp]
017870 C6 3D E0 FF 		      	lw   	r3,-16[bp]
017874 86 41 14 00 		      	cmp  	r4,r3,#10
017878 3D 32 0E 00 		      	bge  	r4,stdio_33
01787C C6 4D E0 FF 		      	lw   	r4,-16[bp]
017880 14 32 60 00 		      	addu 	r3,r4,#48
017884 C6 5D F0 FF 		      	lw   	r5,-8[bp]
017888 82 42 02 70 		      	asli 	r4,r5,#1
01788C E9 35 08 00 		      	sc   	r3,0[r11+r4]
017890 3A 07 00 00 		      	bra  	stdio_34
                	stdio_33:
017894 C6 3D 50 00 		      	lw   	r3,40[bp]
017898 BD 01 0E 00 		      	beq  	r3,stdio_35
01789C C6 4D E0 FF 		      	lw   	r4,-16[bp]
0178A0 15 32 92 FF 		      	subu 	r3,r4,#-55
0178A4 C6 5D F0 FF 		      	lw   	r5,-8[bp]
0178A8 82 42 02 70 		      	asli 	r4,r5,#1
0178AC E9 35 08 00 		      	sc   	r3,0[r11+r4]
0178B0 3A 03 00 00 		      	bra  	stdio_36
                	stdio_35:
0178B4 C6 4D E0 FF 		      	lw   	r4,-16[bp]
0178B8 15 32 52 FF 		      	subu 	r3,r4,#-87
0178BC C6 5D F0 FF 		      	lw   	r5,-8[bp]
0178C0 82 42 02 70 		      	asli 	r4,r5,#1
0178C4 E9 35 08 00 		      	sc   	r3,0[r11+r4]
                	stdio_36:
                	stdio_34:
0178C8 C6 4D 30 00 		      	lw   	r4,24[bp]
0178CC 02 32 08 78 		      	asri 	r3,r4,#4
0178D0 E3 3D 30 00 		      	sw   	r3,24[bp]
0178D4 E4 1D F0 FF 		      	inc  	-8[bp],#1
0178D8 C6 3D 30 00 		      	lw   	r3,24[bp]
0178DC BD 01 08 00 		      	beq  	r3,stdio_37
0178E0 C6 3D F0 FF 		      	lw   	r3,-8[bp]
0178E4 86 41 24 00 		      	cmp  	r4,r3,#18
0178E8 3D 42 BE FF 		      	blt  	r4,stdio_31
                	stdio_37:
                	stdio_32:
0178EC C3 3D DC FF 		      	lcu  	r3,-18[bp]
0178F0 86 41 5A 00 		      	cmp  	r4,r3,#45
0178F4 3D 12 0C 00 		      	bne  	r4,stdio_38
0178F8 C6 4D F0 FF 		      	lw   	r4,-8[bp]
0178FC 02 32 02 70 		      	asli 	r3,r4,#1
017900 C3 4D DC FF 		      	lcu  	r4,-18[bp]
017904 E9 45 06 00 		      	sc   	r4,0[r11+r3]
017908 E4 1D F0 FF 		      	inc  	-8[bp],#1
                	stdio_38:
                	stdio_40:
01790C C6 3D F0 FF 		      	lw   	r3,-8[bp]
017910 C6 4D 40 00 		      	lw   	r4,32[bp]
017914 82 51 08 0C 		      	cmp  	r5,r3,r4
017918 BD 32 1A 00 		      	bge  	r5,stdio_41
01791C C3 3D DC FF 		      	lcu  	r3,-18[bp]
017920 86 41 5A 00 		      	cmp  	r4,r3,#45
017924 3D 12 06 00 		      	bne  	r4,stdio_42
017928 0A 30 40 00 		      	ldi  	r3,#32
01792C 3A 02 00 00 		      	bra  	stdio_43
                	stdio_42:
017930 C3 4D 60 00 		      	lcu  	r4,48[bp]
017934 02 42 00 22 		      	sxc  	r4,r4
017938 02 32 00 1A 		      	mov  	r3,r4
                	stdio_43:
01793C E7 E1 01 00 		      	push 	r3
017940 39 A2 FF FF 		      	bsr  	putch_
017944 E4 FD 41 00 		      	dec  	32[bp],#1
017948 BA F8 FF FF 		      	bra  	stdio_40
                	stdio_41:
                	stdio_44:
01794C C6 3D F0 FF 		      	lw   	r3,-8[bp]
017950 BD 51 10 00 		      	ble  	r3,stdio_45
017954 E4 FD F1 FF 		      	dec  	-8[bp],#1
017958 C6 4D F0 FF 		      	lw   	r4,-8[bp]
01795C 02 32 02 70 		      	asli 	r3,r4,#1
017960 CB 35 06 00 		      	lcu  	r3,0[r11+r3]
017964 E7 E1 01 00 		      	push 	r3
017968 39 9D FF FF 		      	bsr  	putch_
01796C 3A FC FF FF 		      	bra  	stdio_44
                	stdio_45:
                	stdio_46:
017970 57 BF 10 00 		      	pop  	r11
017974 82 ED 01 1A 		      	mov  	sp,bp
017978 57 BF 11 00 		      	pop  	bp
01797C 57 CF 11 00 		      	pop  	xlr
017980 57 FF 11 00 		      	pop  	lr
017984 37 FF 41 00 		      	rtl  	#32
                	stdio_23:
017988 C6 FD 11 00 		      	lw   	lr,8[bp]
01798C E3 FD 21 00 		      	sw   	lr,16[bp]
017990 3A FC FF FF 		      	bra  	stdio_46
                	endpublic
                	
                	public code putstr_:
017994 E7 EF 01 00 		      	push 	lr
017998 67 EE 01 00 		      	push 	xlr
01799C E7 ED 01 00 		      	push 	bp
0179A0 7C 01 00 00 		      	ldi  	xlr,#stdio_47
0179A4 0A C0 19 F4 
0179A8 02 BF 01 1A 		      	mov  	bp,sp
0179AC 15 EF 11 00 		      	subui	sp,sp,#8
0179B0 E7 E5 01 00 		      	push 	r11
0179B4 C6 BD 30 00 		      	lw   	r11,24[bp]
0179B8 E3 BD F0 FF 		      	sw   	r11,-8[bp]
                	stdio_48:
0179BC C3 35 00 00 		      	lcu  	r3,[r11]
0179C0 BD 01 12 00 		      	beq  	r3,stdio_49
0179C4 C6 3D 40 00 		      	lw   	r3,32[bp]
0179C8 BD 51 0E 00 		      	ble  	r3,stdio_49
0179CC C3 35 00 00 		      	lcu  	r3,[r11]
0179D0 E7 E1 01 00 		      	push 	r3
0179D4 B9 8F FF FF 		      	bsr  	putch_
                	stdio_50:
0179D8 94 B5 04 00 		      	addui	r11,r11,#2
0179DC E4 FD 41 00 		      	dec  	32[bp],#1
0179E0 BA FB FF FF 		      	bra  	stdio_48
                	stdio_49:
0179E4 C6 5D F0 FF 		      	lw   	r5,-8[bp]
0179E8 82 45 0A 2A 		      	subu 	r4,r11,r5
0179EC 02 32 02 72 		      	lsri 	r3,r4,#1
0179F0 82 11 00 1A 		      	mov  	r1,r3
                	stdio_51:
0179F4 57 BF 10 00 		      	pop  	r11
0179F8 82 ED 01 1A 		      	mov  	sp,bp
0179FC 57 BF 11 00 		      	pop  	bp
017A00 57 CF 11 00 		      	pop  	xlr
017A04 57 FF 11 00 		      	pop  	lr
017A08 37 FF 21 00 		      	rtl  	#16
                	stdio_47:
017A0C C6 FD 11 00 		      	lw   	lr,8[bp]
017A10 E3 FD 21 00 		      	sw   	lr,16[bp]
017A14 3A FC FF FF 		      	bra  	stdio_51
                	endpublic
                	
                	public code putstr2_:
017A18 15 EF 21 00 		      	subui	sp,sp,#16
017A1C E7 ED 01 00 		      	push 	bp
017A20 02 BF 01 1A 		      	mov  	bp,sp
017A24 67 E3 01 00 		      	     	        push    r6
017A28 C6 1D 30 00 	        lw      r1,24[bp]
017A2C 0A 60 36 00 	        ldi     r6,#$1B   ; Video BIOS DisplayString16 function
017A30 38 0F 34 03 	        sys     #410
017A34 57 6F 10 00 	        pop     r6
                	    
                	stdio_53:
017A38 82 ED 01 1A 		      	mov  	sp,bp
017A3C 57 BF 11 00 		      	pop  	bp
017A40 37 FF 31 00 		      	rtl  	#24
                	endpublic
                	
                	public code getcharNoWait_:
017A44 E7 EF 01 00 		      	     	        push    lr
017A48 B9 C8 FE FF 	        bsr     KeybdGetBufferedCharNoWait_
017A4C 57 FF 11 00 	        pop     lr
017A50 37 FF 01 00 	        rtl
        push    r6
017A54 67 E3 01 00 
                	        ld      r6,#3    ; KeybdGetCharNoWait
017A58 38 0F 14 00 	        sys     #10
017A5C 57 6F 10 00 	        pop     r6
017A60 37 FF 01 00 	        rtl
	
                	endpublic
                	
                	public code getchar_:
017A64 E7 EF 01 00 		      	push 	lr
017A68 67 EE 01 00 		      	push 	xlr
017A6C E7 ED 01 00 		      	push 	bp
017A70 7C 01 00 00 		      	ldi  	xlr,#stdio_56
017A74 0A C0 71 F5 
017A78 02 BF 01 1A 		      	mov  	bp,sp
017A7C 15 EF 11 00 		      	subui	sp,sp,#8
                	stdio_57:
017A80 B9 F8 FF FF 		      	bsr  	getcharNoWait_
017A84 82 30 00 1A 		      	mov  	r3,r1
017A88 E3 3D F0 FF 		      	sw   	r3,-8[bp]
017A8C C6 3D F0 FF 		      	lw   	r3,-8[bp]
017A90 86 41 FE FF 		      	cmp  	r4,r3,#-1
017A94 3D 02 F6 FF 		      	beq  	r4,stdio_57
                	stdio_58:
017A98 C6 4D F0 FF 		      	lw   	r4,-8[bp]
017A9C 0C 32 FE 01 		      	and  	r3,r4,#255
017AA0 82 11 00 1A 		      	mov  	r1,r3
                	stdio_59:
017AA4 82 ED 01 1A 		      	mov  	sp,bp
017AA8 57 BF 11 00 		      	pop  	bp
017AAC 57 CF 11 00 		      	pop  	xlr
017AB0 57 FF 11 00 		      	pop  	lr
017AB4 37 FF 01 00 		      	rtl  	#0
                	stdio_56:
017AB8 C6 FD 11 00 		      	lw   	lr,8[bp]
017ABC E3 FD 21 00 		      	sw   	lr,16[bp]
017AC0 BA FC FF FF 		      	bra  	stdio_59
                	endpublic
                	
                	public code printf_:
017AC4 E7 EF 01 00 		      	push 	lr
017AC8 67 EE 01 00 		      	push 	xlr
017ACC E7 ED 01 00 		      	push 	bp
017AD0 7C 01 00 00 		      	ldi  	xlr,#stdio_61
017AD4 0A C0 19 FB 
017AD8 02 BF 01 1A 		      	mov  	bp,sp
017ADC 15 EF 51 00 		      	subui	sp,sp,#40
017AE0 E7 E5 01 00 		      	push 	r11
017AE4 67 E6 01 00 		      	push 	r12
017AE8 C7 3D 30 00 		      	lea  	r3,24[bp]
017AEC 82 B1 00 1A 		      	mov  	r11,r3
017AF0 82 C5 00 1A 		      	mov  	r12,r11
                	stdio_62:
017AF4 C6 35 00 00 		      	lw   	r3,[r11]
017AF8 C3 31 00 00 		      	lcu  	r3,[r3]
017AFC BD 01 3A 01 		      	beq  	r3,stdio_63
017B00 0A 30 40 00 		      	ldi  	r3,#32
017B04 E1 3D BC FF 		      	sc   	r3,-34[bp]
017B08 C6 35 00 00 		      	lw   	r3,[r11]
017B0C C3 31 00 00 		      	lcu  	r3,[r3]
017B10 86 41 4A 00 		      	cmp  	r4,r3,#37
017B14 3D 12 22 01 		      	bne  	r4,stdio_65
017B18 E3 0D E0 FF 		      	sw   	r0,-16[bp]
017B1C FC 00 00 00 		      	ldi  	r3,#65535
017B20 0A 30 FE FF 
017B24 E3 3D D0 FF 		      	sw   	r3,-24[bp]
017B28 E4 25 00 00 		      	inc  	[r11],#2
                	stdio_60:
017B2C C6 35 00 00 		      	lw   	r3,[r11]
017B30 C3 31 00 00 		      	lcu  	r3,[r3]
017B34 86 41 4A 00 		      	cmp  	r4,r3,#37
017B38 3D 02 44 00 		      	beq  	r4,stdio_68
017B3C 86 41 C6 00 		      	cmp  	r4,r3,#99
017B40 3D 02 46 00 		      	beq  	r4,stdio_69
017B44 86 41 C8 00 		      	cmp  	r4,r3,#100
017B48 3D 02 4A 00 		      	beq  	r4,stdio_70
017B4C 86 41 F0 00 		      	cmp  	r4,r3,#120
017B50 3D 02 56 00 		      	beq  	r4,stdio_71
017B54 86 41 B0 00 		      	cmp  	r4,r3,#88
017B58 3D 02 62 00 		      	beq  	r4,stdio_72
017B5C 86 41 E6 00 		      	cmp  	r4,r3,#115
017B60 3D 02 6E 00 		      	beq  	r4,stdio_73
017B64 86 41 60 00 		      	cmp  	r4,r3,#48
017B68 3D 02 78 00 		      	beq  	r4,stdio_74
017B6C 86 41 72 00 		      	cmp  	r4,r3,#57
017B70 3D 02 78 00 		      	beq  	r4,stdio_75
017B74 86 41 70 00 		      	cmp  	r4,r3,#56
017B78 3D 02 74 00 		      	beq  	r4,stdio_75
017B7C 86 41 6E 00 		      	cmp  	r4,r3,#55
017B80 3D 02 70 00 		      	beq  	r4,stdio_75
017B84 86 41 6C 00 		      	cmp  	r4,r3,#54
017B88 3D 02 6C 00 		      	beq  	r4,stdio_75
017B8C 86 41 6A 00 		      	cmp  	r4,r3,#53
017B90 3D 02 68 00 		      	beq  	r4,stdio_75
017B94 86 41 68 00 		      	cmp  	r4,r3,#52
017B98 3D 02 64 00 		      	beq  	r4,stdio_75
017B9C 86 41 66 00 		      	cmp  	r4,r3,#51
017BA0 3D 02 60 00 		      	beq  	r4,stdio_75
017BA4 86 41 64 00 		      	cmp  	r4,r3,#50
017BA8 3D 02 5C 00 		      	beq  	r4,stdio_75
017BAC 86 41 62 00 		      	cmp  	r4,r3,#49
017BB0 3D 02 58 00 		      	beq  	r4,stdio_75
017BB4 86 41 5C 00 		      	cmp  	r4,r3,#46
017BB8 3D 02 8C 00 		      	beq  	r4,stdio_76
017BBC 3A 33 00 00 		      	bra  	stdio_67
                	stdio_68:
017BC0 65 E0 4B 00 		      	push 	#37
017BC4 B9 51 FF FF 		      	bsr  	putch_
017BC8 BA 31 00 00 		      	bra  	stdio_67
                	stdio_69:
017BCC 14 C6 10 00 		      	addui	r12,r12,#8
017BD0 66 E6 01 00 		      	push 	[r12]
017BD4 B9 4F FF FF 		      	bsr  	putch_
017BD8 BA 2F 00 00 		      	bra  	stdio_67
                	stdio_70:
017BDC 14 C6 10 00 		      	addui	r12,r12,#8
017BE0 C3 3D BC FF 		      	lcu  	r3,-34[bp]
017BE4 E7 E1 01 00 		      	push 	r3
017BE8 65 E0 01 00 		      	push 	#0
017BEC E6 ED E1 FF 		      	push 	-16[bp]
017BF0 66 E6 01 00 		      	push 	[r12]
017BF4 39 51 FF FF 		      	bsr  	putnum_
017BF8 BA 2B 00 00 		      	bra  	stdio_67
                	stdio_71:
017BFC 14 C6 10 00 		      	addui	r12,r12,#8
017C00 C3 3D BC FF 		      	lcu  	r3,-34[bp]
017C04 E7 E1 01 00 		      	push 	r3
017C08 65 E0 01 00 		      	push 	#0
017C0C E6 ED E1 FF 		      	push 	-16[bp]
017C10 66 E6 01 00 		      	push 	[r12]
017C14 B9 7B FF FF 		      	bsr  	puthexnum_
017C18 BA 27 00 00 		      	bra  	stdio_67
                	stdio_72:
017C1C 14 C6 10 00 		      	addui	r12,r12,#8
017C20 C3 3D BC FF 		      	lcu  	r3,-34[bp]
017C24 E7 E1 01 00 		      	push 	r3
017C28 65 E0 03 00 		      	push 	#1
017C2C E6 ED E1 FF 		      	push 	-16[bp]
017C30 66 E6 01 00 		      	push 	[r12]
017C34 B9 77 FF FF 		      	bsr  	puthexnum_
017C38 BA 23 00 00 		      	bra  	stdio_67
                	stdio_73:
017C3C 14 C6 10 00 		      	addui	r12,r12,#8
017C40 E6 ED D1 FF 		      	push 	-24[bp]
017C44 66 E6 01 00 		      	push 	[r12]
017C48 B9 A9 FF FF 		      	bsr  	putstr_
017C4C 82 30 00 1A 		      	mov  	r3,r1
017C50 E3 3D C0 FF 		      	sw   	r3,-32[bp]
017C54 3A 20 00 00 		      	bra  	stdio_67
                	stdio_74:
017C58 0A 30 60 00 		      	ldi  	r3,#48
017C5C E1 3D BC FF 		      	sc   	r3,-34[bp]
                	stdio_75:
017C60 C6 45 00 00 		      	lw   	r4,[r11]
017C64 43 42 00 00 		      	lcu  	r4,[r4]
017C68 15 32 60 00 		      	subu 	r3,r4,#48
017C6C E3 3D E0 FF 		      	sw   	r3,-16[bp]
017C70 E4 25 00 00 		      	inc  	[r11],#2
                	stdio_77:
017C74 C6 35 00 00 		      	lw   	r3,[r11]
017C78 C3 31 00 00 		      	lcu  	r3,[r3]
017C7C E7 E1 01 00 		      	push 	r3
017C80 B9 BF 00 00 		      	bsr  	isdigit_
017C84 14 EF 11 00 		      	addui	sp,sp,#8
017C88 82 30 00 1A 		      	mov  	r3,r1
017C8C BD 01 18 00 		      	beq  	r3,stdio_78
017C90 C6 3D E0 FF 		      	lw   	r3,-16[bp]
017C94 87 31 14 00 		      	muli 	r3,r3,#10
017C98 E3 3D E0 FF 		      	sw   	r3,-16[bp]
017C9C C6 45 00 00 		      	lw   	r4,[r11]
017CA0 43 42 00 00 		      	lcu  	r4,[r4]
017CA4 15 32 60 00 		      	subu 	r3,r4,#48
017CA8 C6 4D E0 FF 		      	lw   	r4,-16[bp]
017CAC 02 42 06 28 		      	addu 	r4,r4,r3
017CB0 E3 4D E0 FF 		      	sw   	r4,-16[bp]
017CB4 E4 25 00 00 		      	inc  	[r11],#2
017CB8 BA F7 FF FF 		      	bra  	stdio_77
                	stdio_78:
017CBC C6 35 00 00 		      	lw   	r3,[r11]
017CC0 C3 31 00 00 		      	lcu  	r3,[r3]
017CC4 86 41 5C 00 		      	cmp  	r4,r3,#46
017CC8 3D 02 04 00 		      	beq  	r4,stdio_79
017CCC 3A CC FF FF 		      	bra  	stdio_60
                	stdio_79:
                	stdio_76:
017CD0 E4 25 00 00 		      	inc  	[r11],#2
017CD4 C6 35 00 00 		      	lw   	r3,[r11]
017CD8 C3 31 00 00 		      	lcu  	r3,[r3]
017CDC E7 E1 01 00 		      	push 	r3
017CE0 B9 B3 00 00 		      	bsr  	isdigit_
017CE4 14 EF 11 00 		      	addui	sp,sp,#8
017CE8 82 30 00 1A 		      	mov  	r3,r1
017CEC BD 11 04 00 		      	bne  	r3,stdio_81
017CF0 BA C7 FF FF 		      	bra  	stdio_60
                	stdio_81:
017CF4 C6 45 00 00 		      	lw   	r4,[r11]
017CF8 43 42 00 00 		      	lcu  	r4,[r4]
017CFC 15 32 60 00 		      	subu 	r3,r4,#48
017D00 E3 3D D0 FF 		      	sw   	r3,-24[bp]
017D04 E4 25 00 00 		      	inc  	[r11],#2
                	stdio_83:
017D08 C6 35 00 00 		      	lw   	r3,[r11]
017D0C C3 31 00 00 		      	lcu  	r3,[r3]
017D10 E7 E1 01 00 		      	push 	r3
017D14 39 AD 00 00 		      	bsr  	isdigit_
017D18 14 EF 11 00 		      	addui	sp,sp,#8
017D1C 82 30 00 1A 		      	mov  	r3,r1
017D20 BD 01 18 00 		      	beq  	r3,stdio_84
017D24 C6 3D D0 FF 		      	lw   	r3,-24[bp]
017D28 87 31 14 00 		      	muli 	r3,r3,#10
017D2C E3 3D D0 FF 		      	sw   	r3,-24[bp]
017D30 C6 45 00 00 		      	lw   	r4,[r11]
017D34 43 42 00 00 		      	lcu  	r4,[r4]
017D38 15 32 60 00 		      	subu 	r3,r4,#48
017D3C C6 4D D0 FF 		      	lw   	r4,-24[bp]
017D40 02 42 06 28 		      	addu 	r4,r4,r3
017D44 E3 4D D0 FF 		      	sw   	r4,-24[bp]
017D48 E4 25 00 00 		      	inc  	[r11],#2
017D4C BA F7 FF FF 		      	bra  	stdio_83
                	stdio_84:
017D50 BA BB FF FF 		      	bra  	stdio_60
                	stdio_67:
017D54 BA 02 00 00 		      	bra  	stdio_66
                	stdio_65:
017D58 C6 35 00 00 		      	lw   	r3,[r11]
017D5C C3 31 00 00 		      	lcu  	r3,[r3]
017D60 E7 E1 01 00 		      	push 	r3
017D64 B9 1D FF FF 		      	bsr  	putch_
                	stdio_66:
                	stdio_64:
017D68 E4 25 00 00 		      	inc  	[r11],#2
017D6C 3A B1 FF FF 		      	bra  	stdio_62
                	stdio_63:
                	stdio_85:
017D70 57 CF 10 00 		      	pop  	r12
017D74 57 BF 10 00 		      	pop  	r11
017D78 82 ED 01 1A 		      	mov  	sp,bp
017D7C 57 BF 11 00 		      	pop  	bp
017D80 57 CF 11 00 		      	pop  	xlr
017D84 57 FF 11 00 		      	pop  	lr
017D88 37 FF 01 00 		      	rtl  	#0
                	stdio_61:
017D8C C6 FD 11 00 		      	lw   	lr,8[bp]
017D90 E3 FD 21 00 		      	sw   	lr,16[bp]
017D94 BA FB FF FF 		      	bra  	stdio_85
                	endpublic
                	
                		code
017D98 00 00 00 00 		align	1
017D9C 00 00 00 00 
                	
                	public code memcpy_:
017DA0 15 EF 21 00 		      	subui	sp,sp,#16
017DA4 E7 ED 01 00 		      	push 	bp
017DA8 02 BF 01 1A 		      	mov  	bp,sp
017DAC C6 1D 40 00 		      	     	        lw    r1,32[bp]
017DB0 C6 2D 30 00 	        lw    r2,24[bp]
017DB4 C6 3D 50 00 	        lw    r3,40[bp]
                	    .0001:
017DB8 C0 40 00 00 	        lb    r4,[r1]
017DBC 60 41 00 00 	        sb    r4,[r2]
017DC0 94 10 02 00 	        addui r1,r1,#1
017DC4 14 21 02 00 	        addui r2,r2,#1
017DC8 95 31 02 00 	        subui r3,r3,#1
017DCC BD 21 F6 FF 	        bgt   r3,.0001
                	    
017DD0 C6 3D 30 00 		      	lw   	r3,24[bp]
017DD4 82 11 00 1A 		      	mov  	r1,r3
                	string_1:
017DD8 82 ED 01 1A 		      	mov  	sp,bp
017DDC 57 BF 11 00 		      	pop  	bp
017DE0 37 FF 21 00 		      	rtl  	#16
                	endpublic
                	
                	public code memcpyH_:
017DE4 15 EF 21 00 		      	subui	sp,sp,#16
017DE8 E7 ED 01 00 		      	push 	bp
017DEC 02 BF 01 1A 		      	mov  	bp,sp
017DF0 C6 1D 40 00 		      	     	        lw    r1,32[bp]
017DF4 C6 2D 30 00 	        lw    r2,24[bp]
017DF8 C6 3D 50 00 	        lw    r3,40[bp]
                	    .0001:
017DFC C4 40 00 00 	        lh    r4,[r1]
017E00 62 41 00 00 	        sh    r4,[r2]
017E04 94 10 08 00 	        addui r1,r1,#4
017E08 14 21 08 00 	        addui r2,r2,#4
017E0C 95 31 02 00 	        subui r3,r3,#1
017E10 BD 21 F6 FF 	        bgt   r3,.0001
                	    
017E14 C6 3D 30 00 		      	lw   	r3,24[bp]
017E18 82 11 00 1A 		      	mov  	r1,r3
                	string_3:
017E1C 82 ED 01 1A 		      	mov  	sp,bp
017E20 57 BF 11 00 		      	pop  	bp
017E24 37 FF 21 00 		      	rtl  	#16
                	endpublic
                	
                	public code memcpyW_:
017E28 15 EF 21 00 		      	subui	sp,sp,#16
017E2C E7 ED 01 00 		      	push 	bp
017E30 02 BF 01 1A 		      	mov  	bp,sp
017E34 C6 1D 40 00 		      	     	        lw    r1,32[bp]
017E38 C6 2D 30 00 	        lw    r2,24[bp]
017E3C C6 3D 50 00 	        lw    r3,40[bp]
                	    .0001:
017E40 C6 40 00 00 	        lw    r4,[r1]
017E44 63 41 00 00 	        sw    r4,[r2]
017E48 94 10 10 00 	        addui r1,r1,#8
017E4C 14 21 10 00 	        addui r2,r2,#8
017E50 95 31 02 00 	        subui r3,r3,#1
017E54 BD 21 F6 FF 	        bgt   r3,.0001
                	    
017E58 C6 3D 30 00 		      	lw   	r3,24[bp]
017E5C 82 11 00 1A 		      	mov  	r1,r3
                	string_5:
017E60 82 ED 01 1A 		      	mov  	sp,bp
017E64 57 BF 11 00 		      	pop  	bp
017E68 37 FF 21 00 		      	rtl  	#16
                	endpublic
                	
                	public code memset_:
017E6C 15 EF 21 00 		      	subui	sp,sp,#16
017E70 E7 ED 01 00 		      	push 	bp
017E74 02 BF 01 1A 		      	mov  	bp,sp
017E78 C6 1D 30 00 		      	     	        lw    r1,24[bp]
017E7C C6 2D 40 00 	        lw    r2,32[bp]
017E80 C6 3D 50 00 	        lw    r3,40[bp]
                	.0001:
017E84 E0 20 00 00 	        sb    r2,[r1]
017E88 94 10 02 00 	        addui r1,r1,#1
017E8C 95 31 02 00 	        subui r3,r3,#1
017E90 BD 21 FA FF 	        bgt   r3,.0001
                	    
017E94 C6 3D 30 00 		      	lw   	r3,24[bp]
017E98 82 11 00 1A 		      	mov  	r1,r3
                	string_7:
017E9C 82 ED 01 1A 		      	mov  	sp,bp
017EA0 57 BF 11 00 		      	pop  	bp
017EA4 37 FF 21 00 		      	rtl  	#16
                	endpublic
                	
                	public code memsetH_:
017EA8 15 EF 21 00 		      	subui	sp,sp,#16
017EAC E7 ED 01 00 		      	push 	bp
017EB0 02 BF 01 1A 		      	mov  	bp,sp
017EB4 C6 1D 30 00 		      	     	        lw    r1,24[bp]
017EB8 C6 2D 40 00 	        lw    r2,32[bp]
017EBC C6 3D 50 00 	        lw    r3,40[bp]
                	.0001:
017EC0 E2 20 00 00 	        sh    r2,[r1]
017EC4 94 10 08 00 	        addui r1,r1,#4
017EC8 95 31 02 00 	        subui r3,r3,#1
017ECC BD 21 FA FF 	        bgt   r3,.0001
                	    
017ED0 C6 3D 30 00 		      	lw   	r3,24[bp]
017ED4 82 11 00 1A 		      	mov  	r1,r3
                	string_9:
017ED8 82 ED 01 1A 		      	mov  	sp,bp
017EDC 57 BF 11 00 		      	pop  	bp
017EE0 37 FF 21 00 		      	rtl  	#16
                	endpublic
                	
                	public code memsetW_:
017EE4 15 EF 21 00 		      	subui	sp,sp,#16
017EE8 E7 ED 01 00 		      	push 	bp
017EEC 02 BF 01 1A 		      	mov  	bp,sp
017EF0 C6 1D 30 00 		      	     	        lw    r1,24[bp]
017EF4 C6 2D 40 00 	        lw    r2,32[bp]
017EF8 C6 3D 50 00 	        lw    r3,40[bp]
                	.0001:
017EFC E3 20 00 00 	        sw    r2,[r1]
017F00 94 10 10 00 	        addui r1,r1,#8
017F04 95 31 02 00 	        subui r3,r3,#1
017F08 BD 21 FA FF 	        bgt   r3,.0001
                	    
017F0C C6 3D 30 00 		      	lw   	r3,24[bp]
017F10 82 11 00 1A 		      	mov  	r1,r3
                	string_11:
017F14 82 ED 01 1A 		      	mov  	sp,bp
017F18 57 BF 11 00 		      	pop  	bp
017F1C 37 FF 21 00 		      	rtl  	#16
                	endpublic
                	
                	public code memchr_:
017F20 15 EF 21 00 		      	subui	sp,sp,#16
017F24 E7 ED 01 00 		      	push 	bp
017F28 02 BF 01 1A 		      	mov  	bp,sp
017F2C 15 EF 11 00 		      	subui	sp,sp,#8
017F30 C6 3D 30 00 		      	lw   	r3,24[bp]
017F34 E3 3D F0 FF 		      	sw   	r3,-8[bp]
                	string_13:
017F38 C6 3D 50 00 		      	lw   	r3,40[bp]
017F3C BD 51 1C 00 		      	ble  	r3,string_14
017F40 C6 3D F0 FF 		      	lw   	r3,-8[bp]
017F44 C1 31 00 00 		      	lbu  	r3,[r3]
017F48 C1 4D 40 00 		      	lbu  	r4,32[bp]
017F4C 82 51 08 0C 		      	cmp  	r5,r3,r4
017F50 BD 12 0C 00 		      	bne  	r5,string_16
017F54 C6 3D F0 FF 		      	lw   	r3,-8[bp]
017F58 82 11 00 1A 		      	mov  	r1,r3
                	string_18:
017F5C 82 ED 01 1A 		      	mov  	sp,bp
017F60 57 BF 11 00 		      	pop  	bp
017F64 37 FF 21 00 		      	rtl  	#16
                	string_16:
                	string_15:
017F68 E4 1D F0 FF 		      	inc  	-8[bp],#1
017F6C E4 FD 51 00 		      	dec  	40[bp],#1
017F70 3A F9 FF FF 		      	bra  	string_13
                	string_14:
017F74 0A 10 00 00 		      	ldi  	r1,#0
017F78 BA FC FF FF 		      	bra  	string_18
                	endpublic
                	
                	public code strlen_:
017F7C 15 EF 21 00 		      	subui	sp,sp,#16
017F80 E7 ED 01 00 		      	push 	bp
017F84 02 BF 01 1A 		      	mov  	bp,sp
017F88 15 EF 11 00 		      	subui	sp,sp,#8
017F8C E7 E5 01 00 		      	push 	r11
017F90 C6 BD 30 00 		      	lw   	r11,24[bp]
017F94 BD 15 0C 00 		      	bne  	r11,string_20
017F98 0A 10 00 00 		      	ldi  	r1,#0
                	string_22:
017F9C 57 BF 10 00 		      	pop  	r11
017FA0 82 ED 01 1A 		      	mov  	sp,bp
017FA4 57 BF 11 00 		      	pop  	bp
017FA8 37 FF 21 00 		      	rtl  	#16
                	string_20:
017FAC E3 0D F0 FF 		      	sw   	r0,-8[bp]
                	string_23:
017FB0 C6 4D F0 FF 		      	lw   	r4,-8[bp]
017FB4 02 32 02 70 		      	asli 	r3,r4,#1
017FB8 CB 35 06 00 		      	lcu  	r3,0[r11+r3]
017FBC BD 01 06 00 		      	beq  	r3,string_24
                	string_25:
017FC0 E4 1D F0 FF 		      	inc  	-8[bp],#1
017FC4 BA FD FF FF 		      	bra  	string_23
                	string_24:
017FC8 C6 3D F0 FF 		      	lw   	r3,-8[bp]
017FCC 82 11 00 1A 		      	mov  	r1,r3
017FD0 BA F9 FF FF 		      	bra  	string_22
                	endpublic
                	
                	public code strcpy_:
017FD4 15 EF 21 00 		      	subui	sp,sp,#16
017FD8 E7 ED 01 00 		      	push 	bp
017FDC 02 BF 01 1A 		      	mov  	bp,sp
017FE0 15 EF 11 00 		      	subui	sp,sp,#8
017FE4 E7 E5 01 00 		      	push 	r11
017FE8 67 E6 01 00 		      	push 	r12
017FEC C6 BD 30 00 		      	lw   	r11,24[bp]
017FF0 C6 CD 40 00 		      	lw   	r12,32[bp]
017FF4 E3 0D F0 FF 		      	sw   	r0,-8[bp]
                	string_27:
017FF8 C6 4D F0 FF 		      	lw   	r4,-8[bp]
017FFC 02 32 02 70 		      	asli 	r3,r4,#1
018000 4B 36 06 00 		      	lcu  	r3,0[r12+r3]
018004 BD 01 12 00 		      	beq  	r3,string_28
018008 C6 4D F0 FF 		      	lw   	r4,-8[bp]
01800C 02 32 02 70 		      	asli 	r3,r4,#1
018010 C6 5D F0 FF 		      	lw   	r5,-8[bp]
018014 82 42 02 70 		      	asli 	r4,r5,#1
018018 4B 56 06 00 		      	lcu  	r5,0[r12+r3]
01801C E9 55 08 00 		      	sc   	r5,0[r11+r4]
                	string_29:
018020 E4 1D F0 FF 		      	inc  	-8[bp],#1
018024 BA FA FF FF 		      	bra  	string_27
                	string_28:
018028 C6 4D F0 FF 		      	lw   	r4,-8[bp]
01802C 02 32 02 70 		      	asli 	r3,r4,#1
018030 E9 05 06 00 		      	sc   	r0,0[r11+r3]
018034 82 15 00 1A 		      	mov  	r1,r11
                	string_30:
018038 57 CF 10 00 		      	pop  	r12
01803C 57 BF 10 00 		      	pop  	r11
018040 82 ED 01 1A 		      	mov  	sp,bp
018044 57 BF 11 00 		      	pop  	bp
018048 37 FF 21 00 		      	rtl  	#16
                	endpublic
                	
                	public code strncpy_:
01804C 15 EF 21 00 		      	subui	sp,sp,#16
018050 E7 ED 01 00 		      	push 	bp
018054 02 BF 01 1A 		      	mov  	bp,sp
018058 15 EF 11 00 		      	subui	sp,sp,#8
01805C E7 E5 01 00 		      	push 	r11
018060 67 E6 01 00 		      	push 	r12
018064 C6 BD 30 00 		      	lw   	r11,24[bp]
018068 C6 CD 40 00 		      	lw   	r12,32[bp]
01806C E3 0D F0 FF 		      	sw   	r0,-8[bp]
                	string_32:
018070 C6 3D F0 FF 		      	lw   	r3,-8[bp]
018074 C6 4D 50 00 		      	lw   	r4,40[bp]
018078 82 51 08 0C 		      	cmp  	r5,r3,r4
01807C BD 32 1C 00 		      	bge  	r5,string_33
018080 C6 4D F0 FF 		      	lw   	r4,-8[bp]
018084 02 32 02 70 		      	asli 	r3,r4,#1
018088 C6 5D F0 FF 		      	lw   	r5,-8[bp]
01808C 82 42 02 70 		      	asli 	r4,r5,#1
018090 4B 56 06 00 		      	lcu  	r5,0[r12+r3]
018094 E9 55 08 00 		      	sc   	r5,0[r11+r4]
018098 C6 4D F0 FF 		      	lw   	r4,-8[bp]
01809C 02 32 02 70 		      	asli 	r3,r4,#1
0180A0 4B 36 06 00 		      	lcu  	r3,0[r12+r3]
0180A4 BD 11 04 00 		      	bne  	r3,string_35
0180A8 BA 01 00 00 		      	bra  	string_33
                	string_35:
                	string_34:
0180AC E4 1D F0 FF 		      	inc  	-8[bp],#1
0180B0 3A F8 FF FF 		      	bra  	string_32
                	string_33:
                	string_37:
0180B4 C6 3D F0 FF 		      	lw   	r3,-8[bp]
0180B8 C6 4D 50 00 		      	lw   	r4,40[bp]
0180BC 82 51 08 0C 		      	cmp  	r5,r3,r4
0180C0 BD 32 0C 00 		      	bge  	r5,string_38
0180C4 C6 4D F0 FF 		      	lw   	r4,-8[bp]
0180C8 02 32 02 70 		      	asli 	r3,r4,#1
0180CC E9 05 06 00 		      	sc   	r0,0[r11+r3]
                	string_39:
0180D0 E4 1D F0 FF 		      	inc  	-8[bp],#1
0180D4 3A FC FF FF 		      	bra  	string_37
                	string_38:
0180D8 82 15 00 1A 		      	mov  	r1,r11
                	string_40:
0180DC 57 CF 10 00 		      	pop  	r12
0180E0 57 BF 10 00 		      	pop  	r11
0180E4 82 ED 01 1A 		      	mov  	sp,bp
0180E8 57 BF 11 00 		      	pop  	bp
0180EC 37 FF 21 00 		      	rtl  	#16
                	endpublic
                	
                	public code strncmp_:
0180F0 15 EF 21 00 		      	subui	sp,sp,#16
0180F4 E7 ED 01 00 		      	push 	bp
0180F8 02 BF 01 1A 		      	mov  	bp,sp
0180FC 15 EF 21 00 		      	subui	sp,sp,#16
018100 E7 E5 01 00 		      	push 	r11
018104 67 E6 01 00 		      	push 	r12
018108 C6 BD 30 00 		      	lw   	r11,24[bp]
01810C C6 CD 40 00 		      	lw   	r12,32[bp]
018110 82 35 18 0C 		      	cmp  	r3,r11,r12
018114 BD 11 0E 00 		      	bne  	r3,string_42
018118 0A 10 00 00 		      	ldi  	r1,#0
                	string_44:
01811C 57 CF 10 00 		      	pop  	r12
018120 57 BF 10 00 		      	pop  	r11
018124 82 ED 01 1A 		      	mov  	sp,bp
018128 57 BF 11 00 		      	pop  	bp
01812C 37 FF 21 00 		      	rtl  	#16
                	string_42:
                	string_45:
018130 C6 3D 50 00 		      	lw   	r3,40[bp]
018134 BD 51 2E 00 		      	ble  	r3,string_46
018138 C3 35 00 00 		      	lcu  	r3,[r11]
01813C 43 46 00 00 		      	lcu  	r4,[r12]
018140 82 51 08 0C 		      	cmp  	r5,r3,r4
018144 BD 02 16 00 		      	beq  	r5,string_48
018148 C3 35 00 00 		      	lcu  	r3,[r11]
01814C 43 46 00 00 		      	lcu  	r4,[r12]
018150 82 51 08 2C 		      	cmpu 	r5,r3,r4
018154 BD 32 06 00 		      	bge  	r5,string_50
018158 0A 30 FE FF 		      	ldi  	r3,#-1
01815C BA 01 00 00 		      	bra  	string_51
                	string_50:
018160 0A 40 02 00 		      	ldi  	r4,#1
018164 02 32 00 1A 		      	mov  	r3,r4
                	string_51:
018168 82 11 00 1A 		      	mov  	r1,r3
01816C 3A F6 FF FF 		      	bra  	string_44
                	string_48:
018170 C3 35 00 00 		      	lcu  	r3,[r11]
018174 BD 11 06 00 		      	bne  	r3,string_52
018178 0A 10 00 00 		      	ldi  	r1,#0
01817C 3A F4 FF FF 		      	bra  	string_44
                	string_52:
                	string_49:
                	string_47:
018180 94 B5 04 00 		      	addui	r11,r11,#2
018184 14 C6 04 00 		      	addui	r12,r12,#2
018188 E4 FD 51 00 		      	dec  	40[bp],#1
01818C BA F4 FF FF 		      	bra  	string_45
                	string_46:
018190 0A 10 00 00 		      	ldi  	r1,#0
018194 3A F1 FF FF 		      	bra  	string_44
                	endpublic
                	
                	public code strchr_:
018198 15 EF 21 00 		      	subui	sp,sp,#16
01819C E7 ED 01 00 		      	push 	bp
0181A0 02 BF 01 1A 		      	mov  	bp,sp
0181A4 15 EF 11 00 		      	subui	sp,sp,#8
0181A8 C6 3D 30 00 		      	lw   	r3,24[bp]
0181AC E3 3D F0 FF 		      	sw   	r3,-8[bp]
                	string_55:
0181B0 C6 3D 50 00 		      	lw   	r3,40[bp]
0181B4 BD 51 1C 00 		      	ble  	r3,string_56
0181B8 C6 3D F0 FF 		      	lw   	r3,-8[bp]
0181BC C3 31 00 00 		      	lcu  	r3,[r3]
0181C0 C3 4D 40 00 		      	lcu  	r4,32[bp]
0181C4 82 51 08 0C 		      	cmp  	r5,r3,r4
0181C8 BD 12 0C 00 		      	bne  	r5,string_58
0181CC C6 3D F0 FF 		      	lw   	r3,-8[bp]
0181D0 82 11 00 1A 		      	mov  	r1,r3
                	string_60:
0181D4 82 ED 01 1A 		      	mov  	sp,bp
0181D8 57 BF 11 00 		      	pop  	bp
0181DC 37 FF 21 00 		      	rtl  	#16
                	string_58:
                	string_57:
0181E0 E4 2D F0 FF 		      	inc  	-8[bp],#2
0181E4 E4 FD 51 00 		      	dec  	40[bp],#1
0181E8 3A F9 FF FF 		      	bra  	string_55
                	string_56:
0181EC 0A 10 00 00 		      	ldi  	r1,#0
0181F0 BA FC FF FF 		      	bra  	string_60
                	endpublic
                	
                		code
0181F4 00 00 00 00 		align	1
0181F8 00 00 00 00 
0181FC 00 00 00 00 
                	
                	public code isxdigit_:
018200 15 EF 21 00 		      	subui	sp,sp,#16
018204 E7 ED 01 00 		      	push 	bp
018208 02 BF 01 1A 		      	mov  	bp,sp
01820C C3 3D 30 00 		      	lcu  	r3,24[bp]
018210 96 41 82 00 		      	cmpu 	r4,r3,#65
018214 3D 42 10 00 		      	blt  	r4,ctype_1
018218 C3 3D 30 00 		      	lcu  	r3,24[bp]
01821C 96 41 8C 00 		      	cmpu 	r4,r3,#70
018220 3D 22 0A 00 		      	bgt  	r4,ctype_1
018224 0A 10 02 00 		      	ldi  	r1,#1
                	ctype_3:
018228 82 ED 01 1A 		      	mov  	sp,bp
01822C 57 BF 11 00 		      	pop  	bp
018230 37 FF 21 00 		      	rtl  	#16
                	ctype_1:
018234 C3 3D 30 00 		      	lcu  	r3,24[bp]
018238 96 41 C2 00 		      	cmpu 	r4,r3,#97
01823C 3D 42 0C 00 		      	blt  	r4,ctype_4
018240 C3 3D 30 00 		      	lcu  	r3,24[bp]
018244 96 41 CC 00 		      	cmpu 	r4,r3,#102
018248 3D 22 06 00 		      	bgt  	r4,ctype_4
01824C 0A 10 02 00 		      	ldi  	r1,#1
018250 3A FB FF FF 		      	bra  	ctype_3
                	ctype_4:
018254 C3 3D 30 00 		      	lcu  	r3,24[bp]
018258 96 41 60 00 		      	cmpu 	r4,r3,#48
01825C 3D 42 0C 00 		      	blt  	r4,ctype_6
018260 C3 3D 30 00 		      	lcu  	r3,24[bp]
018264 96 41 72 00 		      	cmpu 	r4,r3,#57
018268 3D 22 06 00 		      	bgt  	r4,ctype_6
01826C 0A 10 02 00 		      	ldi  	r1,#1
018270 3A F7 FF FF 		      	bra  	ctype_3
                	ctype_6:
018274 0A 10 00 00 		      	ldi  	r1,#0
018278 3A F6 FF FF 		      	bra  	ctype_3
                	endpublic
                	
                	public code isdigit_:
01827C 15 EF 21 00 		      	subui	sp,sp,#16
018280 E7 ED 01 00 		      	push 	bp
018284 02 BF 01 1A 		      	mov  	bp,sp
018288 C3 3D 30 00 		      	lcu  	r3,24[bp]
01828C 96 41 60 00 		      	cmpu 	r4,r3,#48
018290 3D 42 10 00 		      	blt  	r4,ctype_9
018294 C3 3D 30 00 		      	lcu  	r3,24[bp]
018298 96 41 72 00 		      	cmpu 	r4,r3,#57
01829C 3D 22 0A 00 		      	bgt  	r4,ctype_9
0182A0 0A 10 02 00 		      	ldi  	r1,#1
                	ctype_11:
0182A4 82 ED 01 1A 		      	mov  	sp,bp
0182A8 57 BF 11 00 		      	pop  	bp
0182AC 37 FF 21 00 		      	rtl  	#16
                	ctype_9:
0182B0 0A 10 00 00 		      	ldi  	r1,#0
0182B4 3A FE FF FF 		      	bra  	ctype_11
                	endpublic
                	
                	public code isalpha_:
0182B8 15 EF 21 00 		      	subui	sp,sp,#16
0182BC E7 ED 01 00 		      	push 	bp
0182C0 02 BF 01 1A 		      	mov  	bp,sp
0182C4 C3 3D 30 00 		      	lcu  	r3,24[bp]
0182C8 96 41 C2 00 		      	cmpu 	r4,r3,#97
0182CC 3D 42 10 00 		      	blt  	r4,ctype_13
0182D0 C3 3D 30 00 		      	lcu  	r3,24[bp]
0182D4 96 41 F4 00 		      	cmpu 	r4,r3,#122
0182D8 3D 22 0A 00 		      	bgt  	r4,ctype_13
0182DC 0A 10 02 00 		      	ldi  	r1,#1
                	ctype_15:
0182E0 82 ED 01 1A 		      	mov  	sp,bp
0182E4 57 BF 11 00 		      	pop  	bp
0182E8 37 FF 21 00 		      	rtl  	#16
                	ctype_13:
0182EC C3 3D 30 00 		      	lcu  	r3,24[bp]
0182F0 96 41 82 00 		      	cmpu 	r4,r3,#65
0182F4 3D 42 0C 00 		      	blt  	r4,ctype_16
0182F8 C3 3D 30 00 		      	lcu  	r3,24[bp]
0182FC 96 41 B4 00 		      	cmpu 	r4,r3,#90
018300 3D 22 06 00 		      	bgt  	r4,ctype_16
018304 0A 10 02 00 		      	ldi  	r1,#1
018308 3A FB FF FF 		      	bra  	ctype_15
                	ctype_16:
01830C 0A 10 00 00 		      	ldi  	r1,#0
018310 3A FA FF FF 		      	bra  	ctype_15
                	endpublic
                	
                	public code isalnum_:
018314 15 EF 21 00 		      	subui	sp,sp,#16
018318 E7 ED 01 00 		      	push 	bp
01831C 02 BF 01 1A 		      	mov  	bp,sp
018320 C3 3D 30 00 		      	lcu  	r3,24[bp]
018324 96 41 60 00 		      	cmpu 	r4,r3,#48
018328 3D 42 10 00 		      	blt  	r4,ctype_19
01832C C3 3D 30 00 		      	lcu  	r3,24[bp]
018330 96 41 72 00 		      	cmpu 	r4,r3,#57
018334 3D 22 0A 00 		      	bgt  	r4,ctype_19
018338 0A 10 02 00 		      	ldi  	r1,#1
                	ctype_21:
01833C 82 ED 01 1A 		      	mov  	sp,bp
018340 57 BF 11 00 		      	pop  	bp
018344 37 FF 21 00 		      	rtl  	#16
                	ctype_19:
018348 C3 3D 30 00 		      	lcu  	r3,24[bp]
01834C 96 41 C2 00 		      	cmpu 	r4,r3,#97
018350 3D 42 0C 00 		      	blt  	r4,ctype_22
018354 C3 3D 30 00 		      	lcu  	r3,24[bp]
018358 96 41 F4 00 		      	cmpu 	r4,r3,#122
01835C 3D 22 06 00 		      	bgt  	r4,ctype_22
018360 0A 10 02 00 		      	ldi  	r1,#1
018364 3A FB FF FF 		      	bra  	ctype_21
                	ctype_22:
018368 C3 3D 30 00 		      	lcu  	r3,24[bp]
01836C 96 41 82 00 		      	cmpu 	r4,r3,#65
018370 3D 42 0C 00 		      	blt  	r4,ctype_24
018374 C3 3D 30 00 		      	lcu  	r3,24[bp]
018378 96 41 B4 00 		      	cmpu 	r4,r3,#90
01837C 3D 22 06 00 		      	bgt  	r4,ctype_24
018380 0A 10 02 00 		      	ldi  	r1,#1
018384 3A F7 FF FF 		      	bra  	ctype_21
                	ctype_24:
018388 0A 10 00 00 		      	ldi  	r1,#0
01838C 3A F6 FF FF 		      	bra  	ctype_21
                	endpublic
                	
                	public code isspace_:
018390 15 EF 21 00 		      	subui	sp,sp,#16
018394 E7 ED 01 00 		      	push 	bp
018398 02 BF 01 1A 		      	mov  	bp,sp
01839C C3 3D 30 00 		      	lcu  	r3,24[bp]
0183A0 86 41 40 00 		      	cmp  	r4,r3,#32
0183A4 3D 12 0A 00 		      	bne  	r4,ctype_27
0183A8 0A 10 02 00 		      	ldi  	r1,#1
                	ctype_29:
0183AC 82 ED 01 1A 		      	mov  	sp,bp
0183B0 57 BF 11 00 		      	pop  	bp
0183B4 37 FF 21 00 		      	rtl  	#16
                	ctype_27:
0183B8 C3 3D 30 00 		      	lcu  	r3,24[bp]
0183BC 86 41 12 00 		      	cmp  	r4,r3,#9
0183C0 3D 12 06 00 		      	bne  	r4,ctype_30
0183C4 0A 10 02 00 		      	ldi  	r1,#1
0183C8 BA FC FF FF 		      	bra  	ctype_29
                	ctype_30:
0183CC C3 3D 30 00 		      	lcu  	r3,24[bp]
0183D0 86 41 14 00 		      	cmp  	r4,r3,#10
0183D4 3D 12 06 00 		      	bne  	r4,ctype_32
0183D8 0A 10 02 00 		      	ldi  	r1,#1
0183DC 3A FA FF FF 		      	bra  	ctype_29
                	ctype_32:
0183E0 C3 3D 30 00 		      	lcu  	r3,24[bp]
0183E4 86 41 1A 00 		      	cmp  	r4,r3,#13
0183E8 3D 12 06 00 		      	bne  	r4,ctype_34
0183EC 0A 10 02 00 		      	ldi  	r1,#1
0183F0 BA F7 FF FF 		      	bra  	ctype_29
                	ctype_34:
0183F4 C3 3D 30 00 		      	lcu  	r3,24[bp]
0183F8 86 41 18 00 		      	cmp  	r4,r3,#12
0183FC 3D 12 06 00 		      	bne  	r4,ctype_36
018400 0A 10 02 00 		      	ldi  	r1,#1
018404 3A F5 FF FF 		      	bra  	ctype_29
                	ctype_36:
018408 0A 10 00 00 		      	ldi  	r1,#0
01840C 3A F4 FF FF 		      	bra  	ctype_29
                	endpublic
                	
                	public code tolower_:
018410 15 EF 21 00 		      	subui	sp,sp,#16
018414 E7 ED 01 00 		      	push 	bp
018418 02 BF 01 1A 		      	mov  	bp,sp
01841C C3 3D 30 00 		      	lcu  	r3,24[bp]
018420 96 41 82 00 		      	cmpu 	r4,r3,#65
018424 3D 42 0E 00 		      	blt  	r4,ctype_39
018428 C3 3D 30 00 		      	lcu  	r3,24[bp]
01842C 96 41 B4 00 		      	cmpu 	r4,r3,#90
018430 3D 22 08 00 		      	bgt  	r4,ctype_39
018434 C3 4D 30 00 		      	lcu  	r4,24[bp]
018438 14 32 40 00 		      	addu 	r3,r4,#32
01843C E1 3D 30 00 		      	sc   	r3,24[bp]
                	ctype_39:
018440 C3 3D 30 00 		      	lcu  	r3,24[bp]
018444 82 11 00 1A 		      	mov  	r1,r3
                	ctype_41:
018448 82 ED 01 1A 		      	mov  	sp,bp
01844C 57 BF 11 00 		      	pop  	bp
018450 37 FF 21 00 		      	rtl  	#16
                	endpublic
                	
                	public code toupper_:
018454 15 EF 21 00 		      	subui	sp,sp,#16
018458 E7 ED 01 00 		      	push 	bp
01845C 02 BF 01 1A 		      	mov  	bp,sp
018460 C3 3D 30 00 		      	lcu  	r3,24[bp]
018464 96 41 C2 00 		      	cmpu 	r4,r3,#97
018468 3D 42 0E 00 		      	blt  	r4,ctype_43
01846C C3 3D 30 00 		      	lcu  	r3,24[bp]
018470 96 41 C2 00 		      	cmpu 	r4,r3,#97
018474 3D 22 08 00 		      	bgt  	r4,ctype_43
018478 C3 4D 30 00 		      	lcu  	r4,24[bp]
01847C 14 32 C0 FF 		      	addu 	r3,r4,#-32
018480 E1 3D 30 00 		      	sc   	r3,24[bp]
                	ctype_43:
018484 C3 3D 30 00 		      	lcu  	r3,24[bp]
018488 82 11 00 1A 		      	mov  	r1,r3
                	ctype_45:
01848C 82 ED 01 1A 		      	mov  	sp,bp
018490 57 BF 11 00 		      	pop  	bp
018494 37 FF 21 00 		      	rtl  	#16
                	endpublic
                	
                	public code isupper_:
018498 15 EF 21 00 		      	subui	sp,sp,#16
01849C E7 ED 01 00 		      	push 	bp
0184A0 02 BF 01 1A 		      	mov  	bp,sp
0184A4 C3 3D 30 00 		      	lcu  	r3,24[bp]
0184A8 96 41 82 00 		      	cmpu 	r4,r3,#65
0184AC 3D 42 0C 00 		      	blt  	r4,ctype_47
0184B0 C3 3D 30 00 		      	lcu  	r3,24[bp]
0184B4 96 41 B4 00 		      	cmpu 	r4,r3,#90
0184B8 3D 22 06 00 		      	bgt  	r4,ctype_47
0184BC 0A 30 02 00 		      	ldi  	r3,#1
0184C0 3A 01 00 00 		      	bra  	ctype_48
                	ctype_47:
0184C4 0A 30 00 00 		      	ldi  	r3,#0
                	ctype_48:
0184C8 82 11 00 1A 		      	mov  	r1,r3
                	ctype_49:
0184CC 82 ED 01 1A 		      	mov  	sp,bp
0184D0 57 BF 11 00 		      	pop  	bp
0184D4 37 FF 21 00 		      	rtl  	#16
                	endpublic
                	
                	public code islower_:
0184D8 15 EF 21 00 		      	subui	sp,sp,#16
0184DC E7 ED 01 00 		      	push 	bp
0184E0 02 BF 01 1A 		      	mov  	bp,sp
0184E4 C3 3D 30 00 		      	lcu  	r3,24[bp]
0184E8 96 41 C2 00 		      	cmpu 	r4,r3,#97
0184EC 3D 42 0C 00 		      	blt  	r4,ctype_51
0184F0 C3 3D 30 00 		      	lcu  	r3,24[bp]
0184F4 96 41 F4 00 		      	cmpu 	r4,r3,#122
0184F8 3D 22 06 00 		      	bgt  	r4,ctype_51
0184FC 0A 30 02 00 		      	ldi  	r3,#1
018500 3A 01 00 00 		      	bra  	ctype_52
                	ctype_51:
018504 0A 30 00 00 		      	ldi  	r3,#0
                	ctype_52:
018508 82 11 00 1A 		      	mov  	r1,r3
                	ctype_53:
01850C 82 ED 01 1A 		      	mov  	sp,bp
018510 57 BF 11 00 		      	pop  	bp
018514 37 FF 21 00 		      	rtl  	#16
                	endpublic
                	
                	public code ispunct_:
018518 15 EF 21 00 		      	subui	sp,sp,#16
01851C E7 ED 01 00 		      	push 	bp
018520 02 BF 01 1A 		      	mov  	bp,sp
018524 C3 3D 30 00 		      	lcu  	r3,24[bp]
018528 86 41 BC 00 		      	cmp  	r4,r3,#94
01852C 3D 02 60 00 		      	beq  	r4,ctype_56
018530 86 41 74 00 		      	cmp  	r4,r3,#58
018534 3D 02 5C 00 		      	beq  	r4,ctype_56
018538 86 41 5E 00 		      	cmp  	r4,r3,#47
01853C 3D 02 58 00 		      	beq  	r4,ctype_56
018540 86 41 5C 00 		      	cmp  	r4,r3,#46
018544 3D 02 54 00 		      	beq  	r4,ctype_56
018548 86 41 5A 00 		      	cmp  	r4,r3,#45
01854C 3D 02 50 00 		      	beq  	r4,ctype_56
018550 86 41 58 00 		      	cmp  	r4,r3,#44
018554 3D 02 4C 00 		      	beq  	r4,ctype_56
018558 86 41 56 00 		      	cmp  	r4,r3,#43
01855C 3D 02 48 00 		      	beq  	r4,ctype_56
018560 86 41 54 00 		      	cmp  	r4,r3,#42
018564 3D 02 44 00 		      	beq  	r4,ctype_56
018568 86 41 BA 00 		      	cmp  	r4,r3,#93
01856C 3D 02 40 00 		      	beq  	r4,ctype_56
018570 86 41 B8 00 		      	cmp  	r4,r3,#92
018574 3D 02 3C 00 		      	beq  	r4,ctype_56
018578 86 41 B6 00 		      	cmp  	r4,r3,#91
01857C 3D 02 38 00 		      	beq  	r4,ctype_56
018580 86 41 7E 00 		      	cmp  	r4,r3,#63
018584 3D 02 34 00 		      	beq  	r4,ctype_56
018588 86 41 7C 00 		      	cmp  	r4,r3,#62
01858C 3D 02 30 00 		      	beq  	r4,ctype_56
018590 86 41 7A 00 		      	cmp  	r4,r3,#61
018594 3D 02 2C 00 		      	beq  	r4,ctype_56
018598 86 41 78 00 		      	cmp  	r4,r3,#60
01859C 3D 02 28 00 		      	beq  	r4,ctype_56
0185A0 86 41 76 00 		      	cmp  	r4,r3,#59
0185A4 3D 02 24 00 		      	beq  	r4,ctype_56
0185A8 86 41 52 00 		      	cmp  	r4,r3,#41
0185AC 3D 02 20 00 		      	beq  	r4,ctype_56
0185B0 86 41 50 00 		      	cmp  	r4,r3,#40
0185B4 3D 02 1C 00 		      	beq  	r4,ctype_56
0185B8 86 41 4E 00 		      	cmp  	r4,r3,#39
0185BC 3D 02 18 00 		      	beq  	r4,ctype_56
0185C0 86 41 4C 00 		      	cmp  	r4,r3,#38
0185C4 3D 02 14 00 		      	beq  	r4,ctype_56
0185C8 86 41 4A 00 		      	cmp  	r4,r3,#37
0185CC 3D 02 10 00 		      	beq  	r4,ctype_56
0185D0 86 41 46 00 		      	cmp  	r4,r3,#35
0185D4 3D 02 0C 00 		      	beq  	r4,ctype_56
0185D8 86 41 44 00 		      	cmp  	r4,r3,#34
0185DC 3D 02 08 00 		      	beq  	r4,ctype_56
0185E0 86 41 42 00 		      	cmp  	r4,r3,#33
0185E4 3D 02 04 00 		      	beq  	r4,ctype_56
0185E8 BA 02 00 00 		      	bra  	ctype_57
                	ctype_56:
0185EC 0A 10 02 00 		      	ldi  	r1,#1
                	ctype_58:
0185F0 82 ED 01 1A 		      	mov  	sp,bp
0185F4 57 BF 11 00 		      	pop  	bp
0185F8 37 FF 21 00 		      	rtl  	#16
                	ctype_57:
0185FC 0A 10 00 00 		      	ldi  	r1,#0
018600 3A FE FF FF 		      	bra  	ctype_58
                	ctype_55:
018604 BA FD FF FF 		      	bra  	ctype_58
                	endpublic
                	
                	public code isgraph_:
018608 E7 EF 01 00 		      	push 	lr
01860C 67 EE 01 00 		      	push 	xlr
018610 E7 ED 01 00 		      	push 	bp
018614 FC 01 00 00 		      	ldi  	xlr,#ctype_59
018618 0A C0 E9 0C 
01861C 02 BF 01 1A 		      	mov  	bp,sp
018620 C3 3D 30 00 		      	lcu  	r3,24[bp]
018624 E7 E1 01 00 		      	push 	r3
018628 39 DE FF FF 		      	bsr  	ispunct_
01862C 14 EF 11 00 		      	addui	sp,sp,#8
018630 82 30 00 1A 		      	mov  	r3,r1
018634 BD 11 0E 00 		      	bne  	r3,ctype_62
018638 C3 3D 30 00 		      	lcu  	r3,24[bp]
01863C E7 E1 01 00 		      	push 	r3
018640 B9 9A FF FF 		      	bsr  	isalnum_
018644 14 EF 11 00 		      	addui	sp,sp,#8
018648 82 30 00 1A 		      	mov  	r3,r1
01864C BD 01 06 00 		      	beq  	r3,ctype_60
                	ctype_62:
018650 0A 30 02 00 		      	ldi  	r3,#1
018654 3A 01 00 00 		      	bra  	ctype_61
                	ctype_60:
018658 0A 30 00 00 		      	ldi  	r3,#0
                	ctype_61:
01865C 82 11 00 1A 		      	mov  	r1,r3
                	ctype_63:
018660 82 ED 01 1A 		      	mov  	sp,bp
018664 57 BF 11 00 		      	pop  	bp
018668 57 CF 11 00 		      	pop  	xlr
01866C 57 FF 11 00 		      	pop  	lr
018670 37 FF 01 00 		      	rtl  	#0
                	ctype_59:
018674 C6 FD 11 00 		      	lw   	lr,8[bp]
018678 E3 FD 21 00 		      	sw   	lr,16[bp]
01867C BA FC FF FF 		      	bra  	ctype_63
                	endpublic
                	
                	public code isprint_:
018680 E7 EF 01 00 		      	push 	lr
018684 67 EE 01 00 		      	push 	xlr
018688 E7 ED 01 00 		      	push 	bp
01868C FC 01 00 00 		      	ldi  	xlr,#ctype_64
018690 0A C0 C1 0D 
018694 02 BF 01 1A 		      	mov  	bp,sp
018698 C3 3D 30 00 		      	lcu  	r3,24[bp]
01869C E7 E1 01 00 		      	push 	r3
0186A0 39 ED FF FF 		      	bsr  	isgraph_
0186A4 14 EF 11 00 		      	addui	sp,sp,#8
0186A8 82 30 00 1A 		      	mov  	r3,r1
0186AC BD 11 08 00 		      	bne  	r3,ctype_67
0186B0 C3 3D 30 00 		      	lcu  	r3,24[bp]
0186B4 86 41 40 00 		      	cmp  	r4,r3,#32
0186B8 3D 12 06 00 		      	bne  	r4,ctype_65
                	ctype_67:
0186BC 0A 30 02 00 		      	ldi  	r3,#1
0186C0 3A 01 00 00 		      	bra  	ctype_66
                	ctype_65:
0186C4 0A 30 00 00 		      	ldi  	r3,#0
                	ctype_66:
0186C8 82 11 00 1A 		      	mov  	r1,r3
                	ctype_68:
0186CC 82 ED 01 1A 		      	mov  	sp,bp
0186D0 57 BF 11 00 		      	pop  	bp
0186D4 57 CF 11 00 		      	pop  	xlr
0186D8 57 FF 11 00 		      	pop  	lr
0186DC 37 FF 01 00 		      	rtl  	#0
                	ctype_64:
0186E0 C6 FD 11 00 		      	lw   	lr,8[bp]
0186E4 E3 FD 21 00 		      	sw   	lr,16[bp]
0186E8 BA FC FF FF 		      	bra  	ctype_68
                	endpublic
                	
                	public code iscntrl_:
0186EC 15 EF 21 00 		      	subui	sp,sp,#16
0186F0 E7 ED 01 00 		      	push 	bp
0186F4 02 BF 01 1A 		      	mov  	bp,sp
0186F8 C3 3D 30 00 		      	lcu  	r3,24[bp]
0186FC 86 41 0E 00 		      	cmp  	r4,r3,#7
018700 3D 02 18 00 		      	beq  	r4,ctype_71
018704 86 41 10 00 		      	cmp  	r4,r3,#8
018708 3D 02 14 00 		      	beq  	r4,ctype_71
01870C 86 41 14 00 		      	cmp  	r4,r3,#10
018710 3D 02 10 00 		      	beq  	r4,ctype_71
018714 86 41 1A 00 		      	cmp  	r4,r3,#13
018718 3D 02 0C 00 		      	beq  	r4,ctype_71
01871C 86 41 18 00 		      	cmp  	r4,r3,#12
018720 3D 02 08 00 		      	beq  	r4,ctype_71
018724 86 41 12 00 		      	cmp  	r4,r3,#9
018728 3D 02 04 00 		      	beq  	r4,ctype_71
01872C BA 02 00 00 		      	bra  	ctype_72
                	ctype_71:
018730 0A 10 02 00 		      	ldi  	r1,#1
                	ctype_73:
018734 82 ED 01 1A 		      	mov  	sp,bp
018738 57 BF 11 00 		      	pop  	bp
01873C 37 FF 21 00 		      	rtl  	#16
                	ctype_72:
018740 0A 10 00 00 		      	ldi  	r1,#0
018744 3A FE FF FF 		      	bra  	ctype_73
                	ctype_70:
018748 BA FD FF FF 		      	bra  	ctype_73
                	endpublic
                	
                		code
01874C 00 00 00 00 		align	1
                	
                	public code getCPU_:
018750 02 10 00 6C 		      	     	         cpuid r1,r0,#0
018754 37 FF 01 00 	         rtl
     
                	endpublic
                	
                		code
018758 00 00 00 00 		align	1
01875C 00 00 00 00 
                	
                	public code outb_:
018760 15 EF 21 00 		      	subui	sp,sp,#16
018764 E7 ED 01 00 		      	push 	bp
018768 02 BF 01 1A 		      	mov  	bp,sp
01876C C6 1D 30 00 		      	     	        lw    r1,24[bp]
018770 C6 2D 40 00 	        lw    r2,32[bp]
018774 E0 20 00 00 	        sb    r2,[r1]
                	     
                	outb_1:
018778 82 ED 01 1A 		      	mov  	sp,bp
01877C 57 BF 11 00 		      	pop  	bp
018780 37 FF 21 00 		      	rtl  	#16
                	endpublic
                	
                		code
018784 00 00 00 00 		align	1
018788 00 00 00 00 
01878C 00 00 00 00 
                	
                	public code outc_:
018790 15 EF 21 00 		      	subui	sp,sp,#16
018794 E7 ED 01 00 		      	push 	bp
018798 02 BF 01 1A 		      	mov  	bp,sp
01879C C6 1D 30 00 		      	     	        lw    r1,24[bp]
0187A0 C6 2D 40 00 	        lw    r2,32[bp]
0187A4 E1 20 00 00 	        sc    r2,[r1]
                	     
                	outc_1:
0187A8 82 ED 01 1A 		      	mov  	sp,bp
0187AC 57 BF 11 00 		      	pop  	bp
0187B0 37 FF 21 00 		      	rtl  	#16
                	endpublic
                	
                		code
0187B4 00 00 00 00 		align	1
0187B8 00 00 00 00 
0187BC 00 00 00 00 
                	
                	public code outh_:
0187C0 15 EF 21 00 		      	subui	sp,sp,#16
0187C4 E7 ED 01 00 		      	push 	bp
0187C8 02 BF 01 1A 		      	mov  	bp,sp
0187CC C6 1D 30 00 		      	     	        lw    r1,24[bp]
0187D0 C6 2D 40 00 	        lw    r2,32[bp]
0187D4 E2 20 00 00 	        sh    r2,[r1]
                	     
                	outh_1:
0187D8 82 ED 01 1A 		      	mov  	sp,bp
0187DC 57 BF 11 00 		      	pop  	bp
0187E0 37 FF 21 00 		      	rtl  	#16
                	endpublic
                	
                		code
0187E4 00 00 00 00 		align	1
0187E8 00 00 00 00 
0187EC 00 00 00 00 
                	
                	public code outw_:
0187F0 15 EF 21 00 		      	subui	sp,sp,#16
0187F4 E7 ED 01 00 		      	push 	bp
0187F8 02 BF 01 1A 		      	mov  	bp,sp
0187FC C6 1D 30 00 		      	     	        lw    r1,24[bp]
018800 C6 2D 40 00 	        lw    r2,32[bp]
018804 E3 20 00 00 	        sw    r2,[r1]
                	     
                	outw_1:
018808 82 ED 01 1A 		      	mov  	sp,bp
01880C 57 BF 11 00 		      	pop  	bp
018810 37 FF 21 00 		      	rtl  	#16
                	endpublic
                	
                		code
018814 00 00 00 00 		align	1
018818 00 00 00 00 
01881C 00 00 00 00 
                	
                	public code SetNormAttr_:
018820 15 EF 21 00 		      	subui	sp,sp,#16
018824 E7 ED 01 00 		      	push 	bp
018828 02 BF 01 1A 		      	mov  	bp,sp
01882C 67 E3 01 00 		      	     	         push  r6
018830 C6 1D 30 00 	         lw    r1,24[bp]
018834 0A 60 44 00 	         ldi   r6,#$22
018838 38 0F 34 03 	         sys   #410
01883C 57 6F 10 00 	         pop   r6
                	     
                	disassem_386:
018840 82 ED 01 1A 		      	mov  	sp,bp
018844 57 BF 11 00 		      	pop  	bp
018848 37 FF 21 00 		      	rtl  	#16
                	endpublic
                	
                	public code GetNormAttr_:
01884C 15 EF 21 00 		      	subui	sp,sp,#16
018850 E7 ED 01 00 		      	push 	bp
018854 02 BF 01 1A 		      	mov  	bp,sp
018858 67 E3 01 00 		      	     	         push  r6
01885C 0A 60 46 00 	         ldi   r6,#$23
018860 38 0F 34 03 	         sys   #410
018864 57 6F 10 00 	         pop   r6
                	     
                	disassem_388:
018868 82 ED 01 1A 		      	mov  	sp,bp
01886C 57 BF 11 00 		      	pop  	bp
018870 37 FF 21 00 		      	rtl  	#16
                	endpublic
                	
                	public code reverse_video_:
018874 E7 EF 01 00 		      	push 	lr
018878 67 EE 01 00 		      	push 	xlr
01887C E7 ED 01 00 		      	push 	bp
018880 FC 01 00 00 		      	ldi  	xlr,#disassem_389
018884 0A C0 F1 11 
018888 02 BF 01 1A 		      	mov  	bp,sp
01888C 15 EF 11 00 		      	subui	sp,sp,#8
018890 B9 F7 FF FF 		      	bsr  	GetNormAttr_
018894 82 30 00 1A 		      	mov  	r3,r1
018898 FC FF FF 00 		      	andi 	r3,r3,#4294967295
01889C 8C 31 FE FF 
0188A0 E2 3D F8 FF 		      	sh   	r3,-4[bp]
0188A4 C5 6D F8 FF 		      	lhu  	r6,-4[bp]
0188A8 FC FF FF 00 		      	andi 	r6,r6,#4294967295
0188AC 0C 63 FE FF 
0188B0 02 53 14 78 		      	asri 	r5,r6,#10
0188B4 82 42 26 70 		      	asli 	r4,r5,#19
0188B8 C5 7D F8 FF 		      	lhu  	r7,-4[bp]
0188BC FC FF FF 00 		      	andi 	r7,r7,#4294967295
0188C0 8C 73 FE FF 
0188C4 82 63 26 78 		      	asri 	r6,r7,#19
0188C8 02 53 14 70 		      	asli 	r5,r6,#10
0188CC 02 32 0A 1A 		      	or   	r3,r4,r5
0188D0 E2 3D F8 FF 		      	sh   	r3,-4[bp]
0188D4 C5 3D F8 FF 		      	lhu  	r3,-4[bp]
0188D8 E7 E1 01 00 		      	push 	r3
0188DC B9 E8 FF FF 		      	bsr  	SetNormAttr_
0188E0 14 EF 11 00 		      	addui	sp,sp,#8
                	disassem_390:
0188E4 82 ED 01 1A 		      	mov  	sp,bp
0188E8 57 BF 11 00 		      	pop  	bp
0188EC 57 CF 11 00 		      	pop  	xlr
0188F0 57 FF 11 00 		      	pop  	lr
0188F4 37 FF 01 00 		      	rtl  	#0
                	disassem_389:
0188F8 C6 FD 11 00 		      	lw   	lr,8[bp]
0188FC E3 FD 21 00 		      	sw   	lr,16[bp]
018900 BA FC FF FF 		      	bra  	disassem_390
                	endpublic
                	
                	public code DumpInsnBytes_:
018904 E7 EF 01 00 		      	push 	lr
018908 67 EE 01 00 		      	push 	xlr
01890C E7 ED 01 00 		      	push 	bp
018910 FC 01 00 00 		      	ldi  	xlr,#disassem_392
018914 0A C0 01 13 
018918 02 BF 01 1A 		      	mov  	bp,sp
01891C C6 5D 40 00 		      	lw   	r5,32[bp]
018920 82 42 30 78 		      	asri 	r4,r5,#24
018924 0C 32 FE 01 		      	and  	r3,r4,#255
018928 E7 E1 01 00 		      	push 	r3
01892C C6 5D 40 00 		      	lw   	r5,32[bp]
018930 82 42 20 78 		      	asri 	r4,r5,#16
018934 0C 32 FE 01 		      	and  	r3,r4,#255
018938 E7 E1 01 00 		      	push 	r3
01893C C6 5D 40 00 		      	lw   	r5,32[bp]
018940 82 42 10 78 		      	asri 	r4,r5,#8
018944 0C 32 FE 01 		      	and  	r3,r4,#255
018948 E7 E1 01 00 		      	push 	r3
01894C C6 4D 40 00 		      	lw   	r4,32[bp]
018950 0C 32 FE 01 		      	and  	r3,r4,#255
018954 E7 E1 01 00 		      	push 	r3
018958 E6 ED 31 00 		      	push 	24[bp]
01895C FC 01 00 00 		      	push 	#disassem_391
018960 65 E0 A1 D2 
018964 39 2C FE FF 		      	bsr  	printf_
018968 14 EF 61 00 		      	addui	sp,sp,#48
                	disassem_393:
01896C 82 ED 01 1A 		      	mov  	sp,bp
018970 57 BF 11 00 		      	pop  	bp
018974 57 CF 11 00 		      	pop  	xlr
018978 57 FF 11 00 		      	pop  	lr
01897C 37 FF 01 00 		      	rtl  	#0
                	disassem_392:
018980 C6 FD 11 00 		      	lw   	lr,8[bp]
018984 E3 FD 21 00 		      	sw   	lr,16[bp]
018988 BA FC FF FF 		      	bra  	disassem_393
                	endpublic
                	
                	DispRst_:
01898C E7 EF 01 00 		      	push 	lr
018990 67 EE 01 00 		      	push 	xlr
018994 E7 ED 01 00 		      	push 	bp
018998 FC 01 00 00 		      	ldi  	xlr,#disassem_396
01899C 0A C0 B1 13 
0189A0 02 BF 01 1A 		      	mov  	bp,sp
0189A4 C6 5D 30 00 		      	lw   	r5,24[bp]
0189A8 82 42 18 78 		      	asri 	r4,r5,#12
0189AC 0C 32 3E 00 		      	and  	r3,r4,#31
0189B0 E7 E1 01 00 		      	push 	r3
0189B4 FC 01 00 00 		      	push 	#disassem_395
0189B8 65 E0 91 D2 
0189BC 39 21 FE FF 		      	bsr  	printf_
0189C0 14 EF 21 00 		      	addui	sp,sp,#16
                	disassem_397:
0189C4 82 ED 01 1A 		      	mov  	sp,bp
0189C8 57 BF 11 00 		      	pop  	bp
0189CC 57 CF 11 00 		      	pop  	xlr
0189D0 57 FF 11 00 		      	pop  	lr
0189D4 37 FF 01 00 		      	rtl  	#0
                	disassem_396:
0189D8 C6 FD 11 00 		      	lw   	lr,8[bp]
0189DC E3 FD 21 00 		      	sw   	lr,16[bp]
0189E0 BA FC FF FF 		      	bra  	disassem_397
                	DispRstc_:
0189E4 E7 EF 01 00 		      	push 	lr
0189E8 67 EE 01 00 		      	push 	xlr
0189EC E7 ED 01 00 		      	push 	bp
0189F0 FC 01 00 00 		      	ldi  	xlr,#disassem_400
0189F4 0A C0 61 14 
0189F8 02 BF 01 1A 		      	mov  	bp,sp
0189FC C6 5D 30 00 		      	lw   	r5,24[bp]
018A00 82 42 18 78 		      	asri 	r4,r5,#12
018A04 0C 32 3E 00 		      	and  	r3,r4,#31
018A08 E7 E1 01 00 		      	push 	r3
018A0C FC 01 00 00 		      	push 	#disassem_399
018A10 65 E0 7D D2 
018A14 39 16 FE FF 		      	bsr  	printf_
018A18 14 EF 21 00 		      	addui	sp,sp,#16
                	disassem_401:
018A1C 82 ED 01 1A 		      	mov  	sp,bp
018A20 57 BF 11 00 		      	pop  	bp
018A24 57 CF 11 00 		      	pop  	xlr
018A28 57 FF 11 00 		      	pop  	lr
018A2C 37 FF 01 00 		      	rtl  	#0
                	disassem_400:
018A30 C6 FD 11 00 		      	lw   	lr,8[bp]
018A34 E3 FD 21 00 		      	sw   	lr,16[bp]
018A38 BA FC FF FF 		      	bra  	disassem_401
                	DispRac_:
018A3C E7 EF 01 00 		      	push 	lr
018A40 67 EE 01 00 		      	push 	xlr
018A44 E7 ED 01 00 		      	push 	bp
018A48 FC 01 00 00 		      	ldi  	xlr,#disassem_404
018A4C 0A C0 11 15 
018A50 02 BF 01 1A 		      	mov  	bp,sp
018A54 C6 5D 30 00 		      	lw   	r5,24[bp]
018A58 82 42 0E 78 		      	asri 	r4,r5,#7
018A5C 0C 32 3E 00 		      	and  	r3,r4,#31
018A60 E7 E1 01 00 		      	push 	r3
018A64 FC 01 00 00 		      	push 	#disassem_403
018A68 65 E0 69 D2 
018A6C 39 0B FE FF 		      	bsr  	printf_
018A70 14 EF 21 00 		      	addui	sp,sp,#16
                	disassem_405:
018A74 82 ED 01 1A 		      	mov  	sp,bp
018A78 57 BF 11 00 		      	pop  	bp
018A7C 57 CF 11 00 		      	pop  	xlr
018A80 57 FF 11 00 		      	pop  	lr
018A84 37 FF 01 00 		      	rtl  	#0
                	disassem_404:
018A88 C6 FD 11 00 		      	lw   	lr,8[bp]
018A8C E3 FD 21 00 		      	sw   	lr,16[bp]
018A90 BA FC FF FF 		      	bra  	disassem_405
                	DispRa_:
018A94 E7 EF 01 00 		      	push 	lr
018A98 67 EE 01 00 		      	push 	xlr
018A9C E7 ED 01 00 		      	push 	bp
018AA0 FC 01 00 00 		      	ldi  	xlr,#disassem_408
018AA4 0A C0 C1 15 
018AA8 02 BF 01 1A 		      	mov  	bp,sp
018AAC C6 5D 30 00 		      	lw   	r5,24[bp]
018AB0 82 42 0E 78 		      	asri 	r4,r5,#7
018AB4 0C 32 3E 00 		      	and  	r3,r4,#31
018AB8 E7 E1 01 00 		      	push 	r3
018ABC FC 01 00 00 		      	push 	#disassem_407
018AC0 65 E0 59 D2 
018AC4 39 00 FE FF 		      	bsr  	printf_
018AC8 14 EF 21 00 		      	addui	sp,sp,#16
                	disassem_409:
018ACC 82 ED 01 1A 		      	mov  	sp,bp
018AD0 57 BF 11 00 		      	pop  	bp
018AD4 57 CF 11 00 		      	pop  	xlr
018AD8 57 FF 11 00 		      	pop  	lr
018ADC 37 FF 01 00 		      	rtl  	#0
                	disassem_408:
018AE0 C6 FD 11 00 		      	lw   	lr,8[bp]
018AE4 E3 FD 21 00 		      	sw   	lr,16[bp]
018AE8 BA FC FF FF 		      	bra  	disassem_409
                	DispRb_:
018AEC E7 EF 01 00 		      	push 	lr
018AF0 67 EE 01 00 		      	push 	xlr
018AF4 E7 ED 01 00 		      	push 	bp
018AF8 FC 01 00 00 		      	ldi  	xlr,#disassem_412
018AFC 0A C0 71 16 
018B00 02 BF 01 1A 		      	mov  	bp,sp
018B04 C6 5D 30 00 		      	lw   	r5,24[bp]
018B08 82 42 22 78 		      	asri 	r4,r5,#17
018B0C 0C 32 3E 00 		      	and  	r3,r4,#31
018B10 E7 E1 01 00 		      	push 	r3
018B14 FC 01 00 00 		      	push 	#disassem_411
018B18 65 E0 49 D2 
018B1C 39 F5 FD FF 		      	bsr  	printf_
018B20 14 EF 21 00 		      	addui	sp,sp,#16
                	disassem_413:
018B24 82 ED 01 1A 		      	mov  	sp,bp
018B28 57 BF 11 00 		      	pop  	bp
018B2C 57 CF 11 00 		      	pop  	xlr
018B30 57 FF 11 00 		      	pop  	lr
018B34 37 FF 01 00 		      	rtl  	#0
                	disassem_412:
018B38 C6 FD 11 00 		      	lw   	lr,8[bp]
018B3C E3 FD 21 00 		      	sw   	lr,16[bp]
018B40 BA FC FF FF 		      	bra  	disassem_413
                	DispSpr_:
018B44 E7 EF 01 00 		      	push 	lr
018B48 67 EE 01 00 		      	push 	xlr
018B4C E7 ED 01 00 		      	push 	bp
018B50 FC 01 00 00 		      	ldi  	xlr,#disassem_430
018B54 0A C0 51 1A 
018B58 02 BF 01 1A 		      	mov  	bp,sp
018B5C 15 EF 11 00 		      	subui	sp,sp,#8
018B60 C6 5D 30 00 		      	lw   	r5,24[bp]
018B64 82 42 22 78 		      	asri 	r4,r5,#17
018B68 0C 32 FE 01 		      	and  	r3,r4,#255
018B6C E3 3D F0 FF 		      	sw   	r3,-8[bp]
018B70 C6 3D F0 FF 		      	lw   	r3,-8[bp]
018B74 86 41 00 00 		      	cmp  	r4,r3,#0
018B78 3D 02 38 00 		      	beq  	r4,disassem_432
018B7C 86 41 06 00 		      	cmp  	r4,r3,#3
018B80 3D 02 3E 00 		      	beq  	r4,disassem_433
018B84 86 41 08 00 		      	cmp  	r4,r3,#4
018B88 3D 02 44 00 		      	beq  	r4,disassem_434
018B8C 86 41 0C 00 		      	cmp  	r4,r3,#6
018B90 3D 02 4A 00 		      	beq  	r4,disassem_435
018B94 86 41 0E 00 		      	cmp  	r4,r3,#7
018B98 3D 02 50 00 		      	beq  	r4,disassem_436
018B9C 86 41 10 00 		      	cmp  	r4,r3,#8
018BA0 3D 02 56 00 		      	beq  	r4,disassem_437
018BA4 86 41 12 00 		      	cmp  	r4,r3,#9
018BA8 3D 02 5C 00 		      	beq  	r4,disassem_438
018BAC 86 41 14 00 		      	cmp  	r4,r3,#10
018BB0 3D 02 62 00 		      	beq  	r4,disassem_439
018BB4 86 41 64 00 		      	cmp  	r4,r3,#50
018BB8 3D 02 68 00 		      	beq  	r4,disassem_440
018BBC 86 41 66 00 		      	cmp  	r4,r3,#51
018BC0 3D 02 6E 00 		      	beq  	r4,disassem_441
018BC4 86 41 68 00 		      	cmp  	r4,r3,#52
018BC8 3D 02 74 00 		      	beq  	r4,disassem_442
018BCC 86 41 6A 00 		      	cmp  	r4,r3,#53
018BD0 3D 02 7A 00 		      	beq  	r4,disassem_443
018BD4 86 41 6C 00 		      	cmp  	r4,r3,#54
018BD8 3D 02 80 00 		      	beq  	r4,disassem_444
018BDC 86 41 6E 00 		      	cmp  	r4,r3,#55
018BE0 3D 02 86 00 		      	beq  	r4,disassem_445
018BE4 BA 23 00 00 		      	bra  	disassem_446
                	disassem_432:
018BE8 FC 01 00 00 		      	push 	#disassem_415
018BEC 65 E0 39 D2 
018BF0 B9 DA FD FF 		      	bsr  	printf_
018BF4 14 EF 11 00 		      	addui	sp,sp,#8
018BF8 BA 23 00 00 		      	bra  	disassem_431
                	disassem_433:
018BFC FC 01 00 00 		      	push 	#disassem_416
018C00 65 E0 29 D2 
018C04 39 D8 FD FF 		      	bsr  	printf_
018C08 14 EF 11 00 		      	addui	sp,sp,#8
018C0C 3A 21 00 00 		      	bra  	disassem_431
                	disassem_434:
018C10 FC 01 00 00 		      	push 	#disassem_417
018C14 65 E0 15 D2 
018C18 B9 D5 FD FF 		      	bsr  	printf_
018C1C 14 EF 11 00 		      	addui	sp,sp,#8
018C20 BA 1E 00 00 		      	bra  	disassem_431
                	disassem_435:
018C24 FC 01 00 00 		      	push 	#disassem_418
018C28 65 E0 05 D2 
018C2C 39 D3 FD FF 		      	bsr  	printf_
018C30 14 EF 11 00 		      	addui	sp,sp,#8
018C34 3A 1C 00 00 		      	bra  	disassem_431
                	disassem_436:
018C38 FC 01 00 00 		      	push 	#disassem_419
018C3C 65 E0 F5 D1 
018C40 B9 D0 FD FF 		      	bsr  	printf_
018C44 14 EF 11 00 		      	addui	sp,sp,#8
018C48 BA 19 00 00 		      	bra  	disassem_431
                	disassem_437:
018C4C FC 01 00 00 		      	push 	#disassem_420
018C50 65 E0 E5 D1 
018C54 39 CE FD FF 		      	bsr  	printf_
018C58 14 EF 11 00 		      	addui	sp,sp,#8
018C5C 3A 17 00 00 		      	bra  	disassem_431
                	disassem_438:
018C60 FC 01 00 00 		      	push 	#disassem_421
018C64 65 E0 D5 D1 
018C68 B9 CB FD FF 		      	bsr  	printf_
018C6C 14 EF 11 00 		      	addui	sp,sp,#8
018C70 BA 14 00 00 		      	bra  	disassem_431
                	disassem_439:
018C74 FC 01 00 00 		      	push 	#disassem_422
018C78 65 E0 C5 D1 
018C7C 39 C9 FD FF 		      	bsr  	printf_
018C80 14 EF 11 00 		      	addui	sp,sp,#8
018C84 3A 12 00 00 		      	bra  	disassem_431
                	disassem_440:
018C88 FC 01 00 00 		      	push 	#disassem_423
018C8C 65 E0 AD D1 
018C90 B9 C6 FD FF 		      	bsr  	printf_
018C94 14 EF 11 00 		      	addui	sp,sp,#8
018C98 BA 0F 00 00 		      	bra  	disassem_431
                	disassem_441:
018C9C FC 01 00 00 		      	push 	#disassem_424
018CA0 65 E0 95 D1 
018CA4 39 C4 FD FF 		      	bsr  	printf_
018CA8 14 EF 11 00 		      	addui	sp,sp,#8
018CAC 3A 0D 00 00 		      	bra  	disassem_431
                	disassem_442:
018CB0 FC 01 00 00 		      	push 	#disassem_425
018CB4 65 E0 7D D1 
018CB8 B9 C1 FD FF 		      	bsr  	printf_
018CBC 14 EF 11 00 		      	addui	sp,sp,#8
018CC0 BA 0A 00 00 		      	bra  	disassem_431
                	disassem_443:
018CC4 FC 01 00 00 		      	push 	#disassem_426
018CC8 65 E0 65 D1 
018CCC 39 BF FD FF 		      	bsr  	printf_
018CD0 14 EF 11 00 		      	addui	sp,sp,#8
018CD4 3A 08 00 00 		      	bra  	disassem_431
                	disassem_444:
018CD8 FC 01 00 00 		      	push 	#disassem_427
018CDC 65 E0 49 D1 
018CE0 B9 BC FD FF 		      	bsr  	printf_
018CE4 14 EF 11 00 		      	addui	sp,sp,#8
018CE8 BA 05 00 00 		      	bra  	disassem_431
                	disassem_445:
018CEC FC 01 00 00 		      	push 	#disassem_428
018CF0 65 E0 2D D1 
018CF4 39 BA FD FF 		      	bsr  	printf_
018CF8 14 EF 11 00 		      	addui	sp,sp,#8
018CFC 3A 03 00 00 		      	bra  	disassem_431
                	disassem_446:
018D00 E6 ED F1 FF 		      	push 	-8[bp]
018D04 FC 01 00 00 		      	push 	#disassem_429
018D08 65 E0 15 D1 
018D0C 39 B7 FD FF 		      	bsr  	printf_
018D10 14 EF 21 00 		      	addui	sp,sp,#16
                	disassem_431:
                	disassem_447:
018D14 82 ED 01 1A 		      	mov  	sp,bp
018D18 57 BF 11 00 		      	pop  	bp
018D1C 57 CF 11 00 		      	pop  	xlr
018D20 57 FF 11 00 		      	pop  	lr
018D24 37 FF 01 00 		      	rtl  	#0
                	disassem_430:
018D28 C6 FD 11 00 		      	lw   	lr,8[bp]
018D2C E3 FD 21 00 		      	sw   	lr,16[bp]
018D30 BA FC FF FF 		      	bra  	disassem_447
                	DispMemAddress_:
018D34 E7 EF 01 00 		      	push 	lr
018D38 67 EE 01 00 		      	push 	xlr
018D3C E7 ED 01 00 		      	push 	bp
018D40 FC 01 00 00 		      	ldi  	xlr,#disassem_453
018D44 0A C0 09 1C 
018D48 02 BF 01 1A 		      	mov  	bp,sp
018D4C 15 EF 11 00 		      	subui	sp,sp,#8
018D50 C6 3D 50 00 		      	lw   	r3,40[bp]
018D54 E2 3D F8 FF 		      	sh   	r3,-4[bp]
018D58 C6 3D 30 00 		      	lw   	r3,24[bp]
018D5C BD 01 18 00 		      	beq  	r3,disassem_454
018D60 C6 5D 40 00 		      	lw   	r5,32[bp]
018D64 82 42 1E 70 		      	asli 	r4,r5,#15
018D68 C6 6D 50 00 		      	lw   	r6,40[bp]
018D6C 02 53 22 78 		      	asri 	r5,r6,#17
018D70 02 32 0A 1A 		      	or   	r3,r4,r5
018D74 E7 E1 01 00 		      	push 	r3
018D78 FC 01 00 00 		      	push 	#disassem_449
018D7C 65 E0 05 D1 
018D80 B9 A8 FD FF 		      	bsr  	printf_
018D84 14 EF 21 00 		      	addui	sp,sp,#16
018D88 BA 04 00 00 		      	bra  	disassem_455
                	disassem_454:
018D8C C4 4D F8 FF 		      	lh   	r4,-4[bp]
018D90 02 42 00 24 		      	sxh  	r4,r4
018D94 02 32 22 78 		      	asri 	r3,r4,#17
018D98 E7 E1 01 00 		      	push 	r3
018D9C FC 01 00 00 		      	push 	#disassem_450
018DA0 65 E0 F5 D0 
018DA4 39 A4 FD FF 		      	bsr  	printf_
018DA8 14 EF 21 00 		      	addui	sp,sp,#16
                	disassem_455:
018DAC C6 5D 50 00 		      	lw   	r5,40[bp]
018DB0 82 42 0E 78 		      	asri 	r4,r5,#7
018DB4 0C 32 3E 00 		      	and  	r3,r4,#31
018DB8 BD 01 14 00 		      	beq  	r3,disassem_456
018DBC C6 5D 50 00 		      	lw   	r5,40[bp]
018DC0 82 42 0E 78 		      	asri 	r4,r5,#7
018DC4 0C 32 3E 00 		      	and  	r3,r4,#31
018DC8 E7 E1 01 00 		      	push 	r3
018DCC FC 01 00 00 		      	push 	#disassem_451
018DD0 65 E0 D5 D0 
018DD4 39 9E FD FF 		      	bsr  	printf_
018DD8 14 EF 21 00 		      	addui	sp,sp,#16
018DDC BA 02 00 00 		      	bra  	disassem_457
                	disassem_456:
018DE0 FC 01 00 00 		      	push 	#disassem_452
018DE4 65 E0 C9 D0 
018DE8 B9 9B FD FF 		      	bsr  	printf_
018DEC 14 EF 11 00 		      	addui	sp,sp,#8
                	disassem_457:
                	disassem_458:
018DF0 82 ED 01 1A 		      	mov  	sp,bp
018DF4 57 BF 11 00 		      	pop  	bp
018DF8 57 CF 11 00 		      	pop  	xlr
018DFC 57 FF 11 00 		      	pop  	lr
018E00 37 FF 01 00 		      	rtl  	#0
                	disassem_453:
018E04 C6 FD 11 00 		      	lw   	lr,8[bp]
018E08 E3 FD 21 00 		      	sw   	lr,16[bp]
018E0C BA FC FF FF 		      	bra  	disassem_458
                		code
                		align	16                	
                	DispInc_:
018E10 E7 EF 01 00 		      	push 	lr
018E14 67 EE 01 00 		      	push 	xlr
018E18 E7 ED 01 00 		      	push 	bp
018E1C FC 01 00 00 		      	ldi  	xlr,#disassem_467
018E20 0A C0 99 1E 
018E24 02 BF 01 1A 		      	mov  	bp,sp
018E28 15 EF 31 00 		      	subui	sp,sp,#24
018E2C C6 3D 50 00 		      	lw   	r3,40[bp]
018E30 E2 3D F8 FF 		      	sh   	r3,-4[bp]
018E34 C6 5D 50 00 		      	lw   	r5,40[bp]
018E38 82 42 0E 78 		      	asri 	r4,r5,#7
018E3C 0C 32 3E 00 		      	and  	r3,r4,#31
018E40 E3 3D E0 FF 		      	sw   	r3,-16[bp]
018E44 C6 5D 50 00 		      	lw   	r5,40[bp]
018E48 82 42 18 78 		      	asri 	r4,r5,#12
018E4C 0C 32 3E 00 		      	and  	r3,r4,#31
018E50 E3 3D D0 FF 		      	sw   	r3,-24[bp]
018E54 C6 4D D0 FF 		      	lw   	r4,-24[bp]
018E58 0C 32 20 00 		      	and  	r3,r4,#16
018E5C 86 41 20 00 		      	cmp  	r4,r3,#16
018E60 3D 12 18 00 		      	bne  	r4,disassem_468
018E64 C6 3D D0 FF 		      	lw   	r3,-24[bp]
018E68 8D 31 E0 FF 		      	ori  	r3,r3,#-16
018E6C E3 3D D0 FF 		      	sw   	r3,-24[bp]
018E70 C6 3D D0 FF 		      	lw   	r3,-24[bp]
018E74 02 30 06 2A 		      	neg  	r3,r3
018E78 E3 3D D0 FF 		      	sw   	r3,-24[bp]
018E7C FC 01 00 00 		      	push 	#disassem_460
018E80 65 E0 AD D0 
018E84 39 88 FD FF 		      	bsr  	printf_
018E88 14 EF 11 00 		      	addui	sp,sp,#8
018E8C BA 02 00 00 		      	bra  	disassem_469
                	disassem_468:
018E90 FC 01 00 00 		      	push 	#disassem_461
018E94 65 E0 91 D0 
018E98 B9 85 FD FF 		      	bsr  	printf_
018E9C 14 EF 11 00 		      	addui	sp,sp,#8
                	disassem_469:
018EA0 C6 3D 30 00 		      	lw   	r3,24[bp]
018EA4 BD 01 18 00 		      	beq  	r3,disassem_470
018EA8 C6 5D 40 00 		      	lw   	r5,32[bp]
018EAC 82 42 1E 70 		      	asli 	r4,r5,#15
018EB0 C6 6D 50 00 		      	lw   	r6,40[bp]
018EB4 02 53 22 78 		      	asri 	r5,r6,#17
018EB8 02 32 0A 1A 		      	or   	r3,r4,r5
018EBC E7 E1 01 00 		      	push 	r3
018EC0 FC 01 00 00 		      	push 	#disassem_462
018EC4 65 E0 81 D0 
018EC8 B9 7F FD FF 		      	bsr  	printf_
018ECC 14 EF 21 00 		      	addui	sp,sp,#16
018ED0 BA 04 00 00 		      	bra  	disassem_471
                	disassem_470:
018ED4 C4 4D F8 FF 		      	lh   	r4,-4[bp]
018ED8 02 42 00 24 		      	sxh  	r4,r4
018EDC 02 32 22 78 		      	asri 	r3,r4,#17
018EE0 E7 E1 01 00 		      	push 	r3
018EE4 FC 01 00 00 		      	push 	#disassem_463
018EE8 65 E0 71 D0 
018EEC 39 7B FD FF 		      	bsr  	printf_
018EF0 14 EF 21 00 		      	addui	sp,sp,#16
                	disassem_471:
018EF4 C6 3D E0 FF 		      	lw   	r3,-16[bp]
018EF8 BD 11 0C 00 		      	bne  	r3,disassem_472
018EFC FC 01 00 00 		      	push 	#disassem_464
018F00 65 E0 69 D0 
018F04 39 78 FD FF 		      	bsr  	printf_
018F08 14 EF 11 00 		      	addui	sp,sp,#8
018F0C 3A 03 00 00 		      	bra  	disassem_473
                	disassem_472:
018F10 E6 ED E1 FF 		      	push 	-16[bp]
018F14 FC 01 00 00 		      	push 	#disassem_465
018F18 65 E0 4D D0 
018F1C 39 75 FD FF 		      	bsr  	printf_
018F20 14 EF 21 00 		      	addui	sp,sp,#16
                	disassem_473:
018F24 E6 ED D1 FF 		      	push 	-24[bp]
018F28 FC 01 00 00 		      	push 	#disassem_466
018F2C 65 E0 35 D0 
018F30 B9 72 FD FF 		      	bsr  	printf_
018F34 14 EF 21 00 		      	addui	sp,sp,#16
                	disassem_474:
018F38 82 ED 01 1A 		      	mov  	sp,bp
018F3C 57 BF 11 00 		      	pop  	bp
018F40 57 CF 11 00 		      	pop  	xlr
018F44 57 FF 11 00 		      	pop  	lr
018F48 37 FF 01 00 		      	rtl  	#0
                	disassem_467:
018F4C C6 FD 11 00 		      	lw   	lr,8[bp]
018F50 E3 FD 21 00 		      	sw   	lr,16[bp]
018F54 BA FC FF FF 		      	bra  	disassem_474
                	PrintSc_:
018F58 E7 EF 01 00 		      	push 	lr
018F5C 67 EE 01 00 		      	push 	xlr
018F60 E7 ED 01 00 		      	push 	bp
018F64 FC 01 00 00 		      	ldi  	xlr,#disassem_478
018F68 0A C0 71 1F 
018F6C 02 BF 01 1A 		      	mov  	bp,sp
018F70 C6 3D 30 00 		      	lw   	r3,24[bp]
018F74 86 41 02 00 		      	cmp  	r4,r3,#1
018F78 3D 52 0E 00 		      	ble  	r4,disassem_479
018F7C E6 ED 31 00 		      	push 	24[bp]
018F80 FC 01 00 00 		      	push 	#disassem_476
018F84 65 E0 19 D0 
018F88 B9 67 FD FF 		      	bsr  	printf_
018F8C 14 EF 21 00 		      	addui	sp,sp,#16
018F90 BA 02 00 00 		      	bra  	disassem_480
                	disassem_479:
018F94 FC 01 00 00 		      	push 	#disassem_477
018F98 65 E0 09 D0 
018F9C 39 65 FD FF 		      	bsr  	printf_
018FA0 14 EF 11 00 		      	addui	sp,sp,#8
                	disassem_480:
                	disassem_481:
018FA4 82 ED 01 1A 		      	mov  	sp,bp
018FA8 57 BF 11 00 		      	pop  	bp
018FAC 57 CF 11 00 		      	pop  	xlr
018FB0 57 FF 11 00 		      	pop  	lr
018FB4 37 FF 01 00 		      	rtl  	#0
                	disassem_478:
018FB8 C6 FD 11 00 		      	lw   	lr,8[bp]
018FBC E3 FD 21 00 		      	sw   	lr,16[bp]
018FC0 BA FC FF FF 		      	bra  	disassem_481
                	DispBrk_:
018FC4 E7 EF 01 00 		      	push 	lr
018FC8 67 EE 01 00 		      	push 	xlr
018FCC E7 ED 01 00 		      	push 	bp
018FD0 FC 01 00 00 		      	ldi  	xlr,#disassem_487
018FD4 0A C0 39 21 
018FD8 02 BF 01 1A 		      	mov  	bp,sp
018FDC 15 EF 21 00 		      	subui	sp,sp,#16
018FE0 C5 5D 30 00 		      	lhu  	r5,24[bp]
018FE4 FC FF FF 00 		      	andi 	r5,r5,#4294967295
018FE8 8C 52 FE FF 
018FEC 82 42 3C 78 		      	asri 	r4,r5,#30
018FF0 0C 32 06 00 		      	and  	r3,r4,#3
018FF4 E3 3D F0 FF 		      	sw   	r3,-8[bp]
018FF8 C5 5D 30 00 		      	lhu  	r5,24[bp]
018FFC FC FF FF 00 		      	andi 	r5,r5,#4294967295
019000 8C 52 FE FF 
019004 82 42 22 78 		      	asri 	r4,r5,#17
019008 0C 32 FE 03 		      	and  	r3,r4,#511
01900C E3 3D E0 FF 		      	sw   	r3,-16[bp]
019010 C6 3D F0 FF 		      	lw   	r3,-8[bp]
019014 86 41 00 00 		      	cmp  	r4,r3,#0
019018 3D 02 10 00 		      	beq  	r4,disassem_489
01901C 86 41 02 00 		      	cmp  	r4,r3,#1
019020 3D 02 16 00 		      	beq  	r4,disassem_490
019024 86 41 04 00 		      	cmp  	r4,r3,#2
019028 3D 02 1C 00 		      	beq  	r4,disassem_491
01902C 86 41 06 00 		      	cmp  	r4,r3,#3
019030 3D 02 22 00 		      	beq  	r4,disassem_492
019034 BA 0A 00 00 		      	bra  	disassem_488
                	disassem_489:
019038 E6 ED E1 FF 		      	push 	-16[bp]
01903C FC 01 00 00 		      	push 	#disassem_483
019040 65 E0 D9 CF 
019044 39 50 FD FF 		      	bsr  	printf_
019048 14 EF 21 00 		      	addui	sp,sp,#16
                	disassem_490:
01904C E6 ED E1 FF 		      	push 	-16[bp]
019050 FC 01 00 00 		      	push 	#disassem_484
019054 65 E0 A9 CF 
019058 B9 4D FD FF 		      	bsr  	printf_
01905C 14 EF 21 00 		      	addui	sp,sp,#16
                	disassem_491:
019060 E6 ED E1 FF 		      	push 	-16[bp]
019064 FC 01 00 00 		      	push 	#disassem_485
019068 65 E0 79 CF 
01906C 39 4B FD FF 		      	bsr  	printf_
019070 14 EF 21 00 		      	addui	sp,sp,#16
                	disassem_492:
019074 E6 ED E1 FF 		      	push 	-16[bp]
019078 FC 01 00 00 		      	push 	#disassem_486
01907C 65 E0 49 CF 
019080 B9 48 FD FF 		      	bsr  	printf_
019084 14 EF 21 00 		      	addui	sp,sp,#16
                	disassem_488:
                	disassem_493:
019088 82 ED 01 1A 		      	mov  	sp,bp
01908C 57 BF 11 00 		      	pop  	bp
019090 57 CF 11 00 		      	pop  	xlr
019094 57 FF 11 00 		      	pop  	lr
019098 37 FF 01 00 		      	rtl  	#0
                	disassem_487:
01909C C6 FD 11 00 		      	lw   	lr,8[bp]
0190A0 E3 FD 21 00 		      	sw   	lr,16[bp]
0190A4 BA FC FF FF 		      	bra  	disassem_493
                	DispIndexedAddr_:
0190A8 E7 EF 01 00 		      	push 	lr
0190AC 67 EE 01 00 		      	push 	xlr
0190B0 E7 ED 01 00 		      	push 	bp
0190B4 FC 01 00 00 		      	ldi  	xlr,#disassem_500
0190B8 0A C0 31 24 
0190BC 02 BF 01 1A 		      	mov  	bp,sp
0190C0 15 EF 51 00 		      	subui	sp,sp,#40
0190C4 C5 4D 50 00 		      	lhu  	r4,40[bp]
0190C8 FC FF FF 00 		      	andi 	r4,r4,#4294967295
0190CC 0C 42 FE FF 
0190D0 02 32 30 78 		      	asri 	r3,r4,#24
0190D4 E3 3D F0 FF 		      	sw   	r3,-8[bp]
0190D8 C5 5D 50 00 		      	lhu  	r5,40[bp]
0190DC FC FF FF 00 		      	andi 	r5,r5,#4294967295
0190E0 8C 52 FE FF 
0190E4 82 42 0E 78 		      	asri 	r4,r5,#7
0190E8 0C 32 3E 00 		      	and  	r3,r4,#31
0190EC E3 3D E0 FF 		      	sw   	r3,-16[bp]
0190F0 C5 5D 50 00 		      	lhu  	r5,40[bp]
0190F4 FC FF FF 00 		      	andi 	r5,r5,#4294967295
0190F8 8C 52 FE FF 
0190FC 82 42 18 78 		      	asri 	r4,r5,#12
019100 0C 32 3E 00 		      	and  	r3,r4,#31
019104 E3 3D C0 FF 		      	sw   	r3,-32[bp]
019108 C5 5D 50 00 		      	lhu  	r5,40[bp]
01910C FC FF FF 00 		      	andi 	r5,r5,#4294967295
019110 8C 52 FE FF 
019114 82 42 22 78 		      	asri 	r4,r5,#17
019118 0C 32 3E 00 		      	and  	r3,r4,#31
01911C E3 3D D0 FF 		      	sw   	r3,-24[bp]
019120 C5 5D 50 00 		      	lhu  	r5,40[bp]
019124 FC FF FF 00 		      	andi 	r5,r5,#4294967295
019128 8C 52 FE FF 
01912C 82 42 2C 78 		      	asri 	r4,r5,#22
019130 0C 32 06 00 		      	and  	r3,r4,#3
019134 E3 3D B0 FF 		      	sw   	r3,-40[bp]
019138 0A 40 02 00 		      	ldi  	r4,#1
01913C C6 5D B0 FF 		      	lw   	r5,-40[bp]
019140 02 32 0A 60 		      	asl  	r3,r4,r5
019144 E3 3D B0 FF 		      	sw   	r3,-40[bp]
019148 C5 3D 50 00 		      	lhu  	r3,40[bp]
01914C E7 E1 01 00 		      	push 	r3
019150 E6 ED 31 00 		      	push 	24[bp]
019154 39 F6 FE FF 		      	bsr  	DumpInsnBytes_
019158 14 EF 21 00 		      	addui	sp,sp,#16
01915C E6 ED C1 FF 		      	push 	-32[bp]
019160 E6 ED 41 00 		      	push 	32[bp]
019164 FC 01 00 00 		      	push 	#disassem_495
019168 65 E0 29 CF 
01916C 39 2B FD FF 		      	bsr  	printf_
019170 14 EF 31 00 		      	addui	sp,sp,#24
019174 C6 3D F0 FF 		      	lw   	r3,-8[bp]
019178 BD 01 0C 00 		      	beq  	r3,disassem_501
01917C E6 ED F1 FF 		      	push 	-8[bp]
019180 FC 01 00 00 		      	push 	#disassem_496
019184 65 E0 19 CF 
019188 B9 27 FD FF 		      	bsr  	printf_
01918C 14 EF 21 00 		      	addui	sp,sp,#16
                	disassem_501:
019190 C6 3D E0 FF 		      	lw   	r3,-16[bp]
019194 BD 01 16 00 		      	beq  	r3,disassem_503
019198 C6 3D D0 FF 		      	lw   	r3,-24[bp]
01919C BD 01 12 00 		      	beq  	r3,disassem_503
0191A0 FC 01 00 00 		      	push 	#disassem_497
0191A4 65 E0 F5 CE 
0191A8 B9 23 FD FF 		      	bsr  	printf_
0191AC 14 EF 11 00 		      	addui	sp,sp,#8
0191B0 E6 ED B1 FF 		      	push 	-40[bp]
0191B4 B9 B4 FF FF 		      	bsr  	PrintSc_
0191B8 14 EF 11 00 		      	addui	sp,sp,#8
0191BC 3A 09 00 00 		      	bra  	disassem_504
                	disassem_503:
0191C0 C6 3D E0 FF 		      	lw   	r3,-16[bp]
0191C4 BD 11 14 00 		      	bne  	r3,disassem_505
0191C8 E6 ED D1 FF 		      	push 	-24[bp]
0191CC FC 01 00 00 		      	push 	#disassem_498
0191D0 65 E0 E1 CE 
0191D4 39 1E FD FF 		      	bsr  	printf_
0191D8 14 EF 21 00 		      	addui	sp,sp,#16
0191DC E6 ED B1 FF 		      	push 	-40[bp]
0191E0 39 AF FF FF 		      	bsr  	PrintSc_
0191E4 14 EF 11 00 		      	addui	sp,sp,#8
0191E8 BA 03 00 00 		      	bra  	disassem_506
                	disassem_505:
0191EC C6 3D D0 FF 		      	lw   	r3,-24[bp]
0191F0 BD 11 0A 00 		      	bne  	r3,disassem_507
0191F4 FC 01 00 00 		      	push 	#disassem_499
0191F8 65 E0 C1 CE 
0191FC 39 19 FD FF 		      	bsr  	printf_
019200 14 EF 11 00 		      	addui	sp,sp,#8
                	disassem_507:
                	disassem_506:
                	disassem_504:
                	disassem_509:
019204 82 ED 01 1A 		      	mov  	sp,bp
019208 57 BF 11 00 		      	pop  	bp
01920C 57 CF 11 00 		      	pop  	xlr
019210 57 FF 11 00 		      	pop  	lr
019214 37 FF 01 00 		      	rtl  	#0
                	disassem_500:
019218 C6 FD 11 00 		      	lw   	lr,8[bp]
01921C E3 FD 21 00 		      	sw   	lr,16[bp]
019220 BA FC FF FF 		      	bra  	disassem_509
                	DispLS_:
019224 E7 EF 01 00 		      	push 	lr
019228 67 EE 01 00 		      	push 	xlr
01922C E7 ED 01 00 		      	push 	bp
019230 FC 01 00 00 		      	ldi  	xlr,#disassem_512
019234 0A C0 29 25 
019238 02 BF 01 1A 		      	mov  	bp,sp
01923C E6 ED 71 00 		      	push 	56[bp]
019240 E6 ED 31 00 		      	push 	24[bp]
019244 39 D8 FE FF 		      	bsr  	DumpInsnBytes_
019248 14 EF 21 00 		      	addui	sp,sp,#16
01924C E6 ED 41 00 		      	push 	32[bp]
019250 FC 01 00 00 		      	push 	#disassem_511
019254 65 E0 B1 CE 
019258 B9 0D FD FF 		      	bsr  	printf_
01925C 14 EF 21 00 		      	addui	sp,sp,#16
019260 E6 ED 71 00 		      	push 	56[bp]
019264 39 F0 FE FF 		      	bsr  	DispRstc_
019268 14 EF 11 00 		      	addui	sp,sp,#8
01926C E6 ED 71 00 		      	push 	56[bp]
019270 E6 ED 61 00 		      	push 	48[bp]
019274 E6 ED 51 00 		      	push 	40[bp]
019278 B9 57 FF FF 		      	bsr  	DispMemAddress_
01927C 14 EF 31 00 		      	addui	sp,sp,#24
                	disassem_513:
019280 82 ED 01 1A 		      	mov  	sp,bp
019284 57 BF 11 00 		      	pop  	bp
019288 57 CF 11 00 		      	pop  	xlr
01928C 57 FF 11 00 		      	pop  	lr
019290 37 FF 01 00 		      	rtl  	#0
                	disassem_512:
019294 C6 FD 11 00 		      	lw   	lr,8[bp]
019298 E3 FD 21 00 		      	sw   	lr,16[bp]
01929C BA FC FF FF 		      	bra  	disassem_513
                	DispRI_:
0192A0 E7 EF 01 00 		      	push 	lr
0192A4 67 EE 01 00 		      	push 	xlr
0192A8 E7 ED 01 00 		      	push 	bp
0192AC FC 01 00 00 		      	ldi  	xlr,#disassem_518
0192B0 0A C0 D1 26 
0192B4 02 BF 01 1A 		      	mov  	bp,sp
0192B8 15 EF 11 00 		      	subui	sp,sp,#8
0192BC C6 3D 70 00 		      	lw   	r3,56[bp]
0192C0 E2 3D F8 FF 		      	sh   	r3,-4[bp]
0192C4 E6 ED 71 00 		      	push 	56[bp]
0192C8 E6 ED 31 00 		      	push 	24[bp]
0192CC 39 C7 FE FF 		      	bsr  	DumpInsnBytes_
0192D0 14 EF 21 00 		      	addui	sp,sp,#16
0192D4 E6 ED 41 00 		      	push 	32[bp]
0192D8 FC 01 00 00 		      	push 	#disassem_515
0192DC 65 E0 A1 CE 
0192E0 B9 FC FC FF 		      	bsr  	printf_
0192E4 14 EF 21 00 		      	addui	sp,sp,#16
0192E8 E6 ED 71 00 		      	push 	56[bp]
0192EC 39 DF FE FF 		      	bsr  	DispRstc_
0192F0 14 EF 11 00 		      	addui	sp,sp,#8
0192F4 E6 ED 71 00 		      	push 	56[bp]
0192F8 B9 E8 FE FF 		      	bsr  	DispRac_
0192FC 14 EF 11 00 		      	addui	sp,sp,#8
019300 C6 3D 50 00 		      	lw   	r3,40[bp]
019304 BD 01 18 00 		      	beq  	r3,disassem_519
019308 C6 5D 60 00 		      	lw   	r5,48[bp]
01930C 82 42 1E 70 		      	asli 	r4,r5,#15
019310 C6 6D 70 00 		      	lw   	r6,56[bp]
019314 02 53 22 78 		      	asri 	r5,r6,#17
019318 02 32 0A 1A 		      	or   	r3,r4,r5
01931C E7 E1 01 00 		      	push 	r3
019320 FC 01 00 00 		      	push 	#disassem_516
019324 65 E0 85 CE 
019328 B9 F3 FC FF 		      	bsr  	printf_
01932C 14 EF 21 00 		      	addui	sp,sp,#16
019330 BA 04 00 00 		      	bra  	disassem_520
                	disassem_519:
019334 C4 4D F8 FF 		      	lh   	r4,-4[bp]
019338 02 42 00 24 		      	sxh  	r4,r4
01933C 02 32 22 78 		      	asri 	r3,r4,#17
019340 E7 E1 01 00 		      	push 	r3
019344 FC 01 00 00 		      	push 	#disassem_517
019348 65 E0 69 CE 
01934C 39 EF FC FF 		      	bsr  	printf_
019350 14 EF 21 00 		      	addui	sp,sp,#16
                	disassem_520:
                	disassem_521:
019354 82 ED 01 1A 		      	mov  	sp,bp
019358 57 BF 11 00 		      	pop  	bp
01935C 57 CF 11 00 		      	pop  	xlr
019360 57 FF 11 00 		      	pop  	lr
019364 37 FF 01 00 		      	rtl  	#0
                	disassem_518:
019368 C6 FD 11 00 		      	lw   	lr,8[bp]
01936C E3 FD 21 00 		      	sw   	lr,16[bp]
019370 BA FC FF FF 		      	bra  	disassem_521
                	public code DispBcc_:
019374 E7 EF 01 00 		      	push 	lr
019378 67 EE 01 00 		      	push 	xlr
01937C E7 ED 01 00 		      	push 	bp
019380 FC 01 00 00 		      	ldi  	xlr,#disassem_524
019384 0A C0 59 28 
019388 02 BF 01 1A 		      	mov  	bp,sp
01938C 15 EF 21 00 		      	subui	sp,sp,#16
019390 C6 6D 50 00 		      	lw   	r6,40[bp]
019394 02 53 22 78 		      	asri 	r5,r6,#17
019398 7C 00 00 00 		      	and  	r4,r5,#32767
01939C 8C 42 FE FF 
0193A0 02 32 04 70 		      	asli 	r3,r4,#2
0193A4 E3 3D E0 FF 		      	sw   	r3,-16[bp]
0193A8 C6 4D 50 00 		      	lw   	r4,40[bp]
0193AC 7C 00 80 00 		      	and  	r3,r4,#2147483648
0193B0 0C 32 00 00 
0193B4 BD 01 0A 00 		      	beq  	r3,disassem_525
0193B8 C6 3D E0 FF 		      	lw   	r3,-16[bp]
0193BC 7C FF FF FF 		      	ori  	r3,r3,#-65536
0193C0 8D 31 00 00 
0193C4 E3 3D E0 FF 		      	sw   	r3,-16[bp]
                	disassem_525:
0193C8 E6 ED 51 00 		      	push 	40[bp]
0193CC E6 ED 31 00 		      	push 	24[bp]
0193D0 B9 A6 FE FF 		      	bsr  	DumpInsnBytes_
0193D4 14 EF 21 00 		      	addui	sp,sp,#16
0193D8 E6 ED 41 00 		      	push 	32[bp]
0193DC FC 01 00 00 		      	push 	#disassem_522
0193E0 65 E0 59 CE 
0193E4 39 DC FC FF 		      	bsr  	printf_
0193E8 14 EF 21 00 		      	addui	sp,sp,#16
0193EC E6 ED 51 00 		      	push 	40[bp]
0193F0 B9 C9 FE FF 		      	bsr  	DispRac_
0193F4 14 EF 11 00 		      	addui	sp,sp,#8
0193F8 C6 4D 30 00 		      	lw   	r4,24[bp]
0193FC C6 5D E0 FF 		      	lw   	r5,-16[bp]
019400 02 32 0A 28 		      	addu 	r3,r4,r5
019404 E7 E1 01 00 		      	push 	r3
019408 FC 01 00 00 		      	push 	#disassem_523
01940C 65 E0 3D CE 
019410 B9 D6 FC FF 		      	bsr  	printf_
019414 14 EF 21 00 		      	addui	sp,sp,#16
                	disassem_527:
019418 82 ED 01 1A 		      	mov  	sp,bp
01941C 57 BF 11 00 		      	pop  	bp
019420 57 CF 11 00 		      	pop  	xlr
019424 57 FF 11 00 		      	pop  	lr
019428 37 FF 01 00 		      	rtl  	#0
                	disassem_524:
01942C C6 FD 11 00 		      	lw   	lr,8[bp]
019430 E3 FD 21 00 		      	sw   	lr,16[bp]
019434 BA FC FF FF 		      	bra  	disassem_527
                	endpublic
                	
                	public code DispRR_:
019438 E7 EF 01 00 		      	push 	lr
01943C 67 EE 01 00 		      	push 	xlr
019440 E7 ED 01 00 		      	push 	bp
019444 FC 01 00 00 		      	ldi  	xlr,#disassem_532
019448 0A C0 A9 2A 
01944C 02 BF 01 1A 		      	mov  	bp,sp
019450 15 EF 21 00 		      	subui	sp,sp,#16
019454 C5 4D 50 00 		      	lhu  	r4,40[bp]
019458 FC FF FF 00 		      	andi 	r4,r4,#4294967295
01945C 0C 42 FE FF 
019460 02 32 32 78 		      	asri 	r3,r4,#25
019464 E3 3D F0 FF 		      	sw   	r3,-8[bp]
019468 C5 5D 50 00 		      	lhu  	r5,40[bp]
01946C FC FF FF 00 		      	andi 	r5,r5,#4294967295
019470 8C 52 FE FF 
019474 82 42 22 78 		      	asri 	r4,r5,#17
019478 0C 32 3E 00 		      	and  	r3,r4,#31
01947C E3 3D E0 FF 		      	sw   	r3,-16[bp]
019480 C5 3D 50 00 		      	lhu  	r3,40[bp]
019484 E7 E1 01 00 		      	push 	r3
019488 E6 ED 31 00 		      	push 	24[bp]
01948C 39 8F FE FF 		      	bsr  	DumpInsnBytes_
019490 14 EF 21 00 		      	addui	sp,sp,#16
019494 C6 3D F0 FF 		      	lw   	r3,-8[bp]
019498 86 41 1A 00 		      	cmp  	r4,r3,#13
01949C 3D 12 30 00 		      	bne  	r4,disassem_533
0194A0 C6 3D E0 FF 		      	lw   	r3,-16[bp]
0194A4 BD 11 2C 00 		      	bne  	r3,disassem_533
0194A8 FC 01 00 00 		      	push 	#disassem_528
0194AC 65 E0 21 CE 
0194B0 B9 C2 FC FF 		      	bsr  	printf_
0194B4 14 EF 11 00 		      	addui	sp,sp,#8
0194B8 C5 3D 50 00 		      	lhu  	r3,40[bp]
0194BC E7 E1 01 00 		      	push 	r3
0194C0 B9 A4 FE FF 		      	bsr  	DispRstc_
0194C4 14 EF 11 00 		      	addui	sp,sp,#8
0194C8 C5 3D 50 00 		      	lhu  	r3,40[bp]
0194CC E7 E1 01 00 		      	push 	r3
0194D0 B9 B8 FE FF 		      	bsr  	DispRa_
0194D4 14 EF 11 00 		      	addui	sp,sp,#8
0194D8 FC 01 00 00 		      	push 	#disassem_529
0194DC 65 E0 15 CE 
0194E0 B9 BC FC FF 		      	bsr  	printf_
0194E4 14 EF 11 00 		      	addui	sp,sp,#8
                	disassem_535:
0194E8 82 ED 01 1A 		      	mov  	sp,bp
0194EC 57 BF 11 00 		      	pop  	bp
0194F0 57 CF 11 00 		      	pop  	xlr
0194F4 57 FF 11 00 		      	pop  	lr
0194F8 37 FF 01 00 		      	rtl  	#0
                	disassem_533:
0194FC E6 ED 41 00 		      	push 	32[bp]
019500 FC 01 00 00 		      	push 	#disassem_530
019504 65 E0 05 CE 
019508 B9 B7 FC FF 		      	bsr  	printf_
01950C 14 EF 21 00 		      	addui	sp,sp,#16
019510 C5 3D 50 00 		      	lhu  	r3,40[bp]
019514 E7 E1 01 00 		      	push 	r3
019518 B9 99 FE FF 		      	bsr  	DispRstc_
01951C 14 EF 11 00 		      	addui	sp,sp,#8
019520 C5 3D 50 00 		      	lhu  	r3,40[bp]
019524 E7 E1 01 00 		      	push 	r3
019528 B9 A2 FE FF 		      	bsr  	DispRac_
01952C 14 EF 11 00 		      	addui	sp,sp,#8
019530 C5 3D 50 00 		      	lhu  	r3,40[bp]
019534 E7 E1 01 00 		      	push 	r3
019538 B9 B6 FE FF 		      	bsr  	DispRb_
01953C 14 EF 11 00 		      	addui	sp,sp,#8
019540 FC 01 00 00 		      	push 	#disassem_531
019544 65 E0 F9 CD 
019548 B9 AF FC FF 		      	bsr  	printf_
01954C 14 EF 11 00 		      	addui	sp,sp,#8
019550 3A F3 FF FF 		      	bra  	disassem_535
                	disassem_532:
019554 C6 FD 11 00 		      	lw   	lr,8[bp]
019558 E3 FD 21 00 		      	sw   	lr,16[bp]
01955C BA F1 FF FF 		      	bra  	disassem_535
                	endpublic
                	
                	public code DispJALI_:
019560 E7 EF 01 00 		      	push 	lr
019564 67 EE 01 00 		      	push 	xlr
019568 E7 ED 01 00 		      	push 	bp
01956C FC 01 00 00 		      	ldi  	xlr,#disassem_544
019570 0A C0 C1 2D 
019574 02 BF 01 1A 		      	mov  	bp,sp
019578 15 EF 31 00 		      	subui	sp,sp,#24
01957C C4 3D 40 00 		      	lh   	r3,32[bp]
019580 E2 3D D8 FF 		      	sh   	r3,-20[bp]
019584 C5 5D 40 00 		      	lhu  	r5,32[bp]
019588 FC FF FF 00 		      	andi 	r5,r5,#4294967295
01958C 8C 52 FE FF 
019590 82 42 18 78 		      	asri 	r4,r5,#12
019594 0C 32 3E 00 		      	and  	r3,r4,#31
019598 E3 3D F0 FF 		      	sw   	r3,-8[bp]
01959C C5 5D 40 00 		      	lhu  	r5,32[bp]
0195A0 FC FF FF 00 		      	andi 	r5,r5,#4294967295
0195A4 8C 52 FE FF 
0195A8 82 42 0E 78 		      	asri 	r4,r5,#7
0195AC 0C 32 3E 00 		      	and  	r3,r4,#31
0195B0 E3 3D E0 FF 		      	sw   	r3,-16[bp]
0195B4 C5 3D 40 00 		      	lhu  	r3,32[bp]
0195B8 E7 E1 01 00 		      	push 	r3
0195BC E6 ED 31 00 		      	push 	24[bp]
0195C0 B9 68 FE FF 		      	bsr  	DumpInsnBytes_
0195C4 14 EF 21 00 		      	addui	sp,sp,#16
0195C8 C6 3D F0 FF 		      	lw   	r3,-8[bp]
0195CC BD 01 2C 00 		      	beq  	r3,disassem_545
0195D0 C6 3D F0 FF 		      	lw   	r3,-8[bp]
0195D4 86 41 3E 00 		      	cmp  	r4,r3,#31
0195D8 3D 02 1C 00 		      	beq  	r4,disassem_547
0195DC FC 01 00 00 		      	push 	#disassem_536
0195E0 65 E0 DD CD 
0195E4 39 9C FC FF 		      	bsr  	printf_
0195E8 14 EF 11 00 		      	addui	sp,sp,#8
0195EC C5 3D 40 00 		      	lhu  	r3,32[bp]
0195F0 E7 E1 01 00 		      	push 	r3
0195F4 39 7E FE FF 		      	bsr  	DispRstc_
0195F8 14 EF 11 00 		      	addui	sp,sp,#8
0195FC FC 01 00 00 		      	push 	#disassem_537
019600 65 E0 D5 CD 
019604 39 98 FC FF 		      	bsr  	printf_
019608 14 EF 11 00 		      	addui	sp,sp,#8
01960C BA 02 00 00 		      	bra  	disassem_548
                	disassem_547:
019610 FC 01 00 00 		      	push 	#disassem_538
019614 65 E0 B5 CD 
019618 B9 95 FC FF 		      	bsr  	printf_
01961C 14 EF 11 00 		      	addui	sp,sp,#8
                	disassem_548:
019620 BA 02 00 00 		      	bra  	disassem_546
                	disassem_545:
019624 FC 01 00 00 		      	push 	#disassem_539
019628 65 E0 95 CD 
01962C 39 93 FC FF 		      	bsr  	printf_
019630 14 EF 11 00 		      	addui	sp,sp,#8
                	disassem_546:
019634 C6 3D 50 00 		      	lw   	r3,40[bp]
019638 BD 01 1C 00 		      	beq  	r3,disassem_549
01963C C6 5D 60 00 		      	lw   	r5,48[bp]
019640 82 42 1E 70 		      	asli 	r4,r5,#15
019644 C5 6D 40 00 		      	lhu  	r6,32[bp]
019648 FC FF FF 00 		      	andi 	r6,r6,#4294967295
01964C 0C 63 FE FF 
019650 02 53 22 78 		      	asri 	r5,r6,#17
019654 02 32 0A 1A 		      	or   	r3,r4,r5
019658 E7 E1 01 00 		      	push 	r3
01965C FC 01 00 00 		      	push 	#disassem_540
019660 65 E0 85 CD 
019664 39 8C FC FF 		      	bsr  	printf_
019668 14 EF 21 00 		      	addui	sp,sp,#16
01966C BA 06 00 00 		      	bra  	disassem_550
                	disassem_549:
019670 C4 4D D8 FF 		      	lh   	r4,-20[bp]
019674 02 42 00 24 		      	sxh  	r4,r4
019678 02 32 22 78 		      	asri 	r3,r4,#17
01967C BD 01 12 00 		      	beq  	r3,disassem_551
019680 C4 4D D8 FF 		      	lh   	r4,-20[bp]
019684 02 42 00 24 		      	sxh  	r4,r4
019688 02 32 22 78 		      	asri 	r3,r4,#17
01968C E7 E1 01 00 		      	push 	r3
019690 FC 01 00 00 		      	push 	#disassem_541
019694 65 E0 75 CD 
019698 B9 85 FC FF 		      	bsr  	printf_
01969C 14 EF 21 00 		      	addui	sp,sp,#16
                	disassem_551:
                	disassem_550:
0196A0 C6 3D E0 FF 		      	lw   	r3,-16[bp]
0196A4 BD 01 0C 00 		      	beq  	r3,disassem_553
0196A8 E6 ED E1 FF 		      	push 	-16[bp]
0196AC FC 01 00 00 		      	push 	#disassem_542
0196B0 65 E0 5D CD 
0196B4 39 82 FC FF 		      	bsr  	printf_
0196B8 14 EF 21 00 		      	addui	sp,sp,#16
                	disassem_553:
0196BC FC 01 00 00 		      	push 	#disassem_543
0196C0 65 E0 4D CD 
0196C4 39 80 FC FF 		      	bsr  	printf_
0196C8 14 EF 11 00 		      	addui	sp,sp,#8
                	disassem_555:
0196CC 82 ED 01 1A 		      	mov  	sp,bp
0196D0 57 BF 11 00 		      	pop  	bp
0196D4 57 CF 11 00 		      	pop  	xlr
0196D8 57 FF 11 00 		      	pop  	lr
0196DC 37 FF 01 00 		      	rtl  	#0
                	disassem_544:
0196E0 C6 FD 11 00 		      	lw   	lr,8[bp]
0196E4 E3 FD 21 00 		      	sw   	lr,16[bp]
0196E8 BA FC FF FF 		      	bra  	disassem_555
                	endpublic
                	
                		code
0196EC 00 00 00 00 		align	1
                	
                	public code disassem_:
0196F0 E7 EF 01 00 		      	push 	lr
0196F4 67 EE 01 00 		      	push 	xlr
0196F8 E7 ED 01 00 		      	push 	bp
0196FC FC 01 00 00 		      	ldi  	xlr,#disassem_641
019700 0A C0 39 51 
019704 02 BF 01 1A 		      	mov  	bp,sp
019708 15 EF C1 00 		      	subui	sp,sp,#96
01970C E7 E5 01 00 		      	push 	r11
019710 67 E6 01 00 		      	push 	r12
019714 C6 BD 30 00 		      	lw   	r11,24[bp]
019718 0A C0 00 00 		      	ldi  	r12,#0
01971C E3 0D B0 FF 		      	sw   	r0,-40[bp]
019720 E3 0D A0 FF 		      	sw   	r0,-48[bp]
019724 0A 30 02 00 		      	ldi  	r3,#1
019728 E3 3D 50 FF 		      	sw   	r3,-88[bp]
01972C E3 0D 40 FF 		      	sw   	r0,-96[bp]
                	disassem_642:
019730 C6 35 00 00 		      	lw   	r3,[r11]
019734 C6 4D 40 00 		      	lw   	r4,32[bp]
019738 82 51 08 0C 		      	cmp  	r5,r3,r4
01973C BD 12 08 00 		      	bne  	r5,disassem_644
019740 B9 26 FE FF 		      	bsr  	reverse_video_
019744 0A 30 02 00 		      	ldi  	r3,#1
019748 E3 3D 40 FF 		      	sw   	r3,-96[bp]
                	disassem_644:
01974C C6 45 00 00 		      	lw   	r4,[r11]
019750 02 32 04 78 		      	asri 	r3,r4,#2
019754 E3 3D 70 FF 		      	sw   	r3,-72[bp]
019758 C6 4D 70 FF 		      	lw   	r4,-72[bp]
01975C 02 32 04 70 		      	asli 	r3,r4,#2
019760 4D 46 06 00 		      	lhu  	r4,0[r12+r3]
019764 E2 4D E8 FF 		      	sh   	r4,-12[bp]
019768 C4 3D E8 FF 		      	lh   	r3,-12[bp]
01976C E2 3D 68 FF 		      	sh   	r3,-76[bp]
019770 C5 4D E8 FF 		      	lhu  	r4,-12[bp]
019774 0C 32 FE 00 		      	and  	r3,r4,#127
019778 E3 3D D0 FF 		      	sw   	r3,-24[bp]
01977C C5 5D E8 FF 		      	lhu  	r5,-12[bp]
019780 FC FF FF 00 		      	andi 	r5,r5,#4294967295
019784 8C 52 FE FF 
019788 82 42 32 78 		      	asri 	r4,r5,#25
01978C 0C 32 FE 00 		      	and  	r3,r4,#127
019790 E3 3D C0 FF 		      	sw   	r3,-32[bp]
019794 C6 3D D0 FF 		      	lw   	r3,-24[bp]
019798 86 41 F8 00 		      	cmp  	r4,r3,#124
01979C 3D 02 D4 00 		      	beq  	r4,disassem_647
0197A0 86 41 04 00 		      	cmp  	r4,r3,#2
0197A4 3D 02 18 01 		      	beq  	r4,disassem_648
0197A8 86 41 08 00 		      	cmp  	r4,r3,#4
0197AC 3D 02 3C 03 		      	beq  	r4,disassem_649
0197B0 86 41 28 00 		      	cmp  	r4,r3,#20
0197B4 3D 02 4C 03 		      	beq  	r4,disassem_650
0197B8 86 41 0A 00 		      	cmp  	r4,r3,#5
0197BC 3D 02 5C 03 		      	beq  	r4,disassem_651
0197C0 86 41 2A 00 		      	cmp  	r4,r3,#21
0197C4 3D 02 6C 03 		      	beq  	r4,disassem_652
0197C8 86 41 0C 00 		      	cmp  	r4,r3,#6
0197CC 3D 02 7C 03 		      	beq  	r4,disassem_653
0197D0 86 41 2C 00 		      	cmp  	r4,r3,#22
0197D4 3D 02 8C 03 		      	beq  	r4,disassem_654
0197D8 86 41 0E 00 		      	cmp  	r4,r3,#7
0197DC 3D 02 9C 03 		      	beq  	r4,disassem_655
0197E0 86 41 2E 00 		      	cmp  	r4,r3,#23
0197E4 3D 02 AC 03 		      	beq  	r4,disassem_656
0197E8 86 41 10 00 		      	cmp  	r4,r3,#8
0197EC 3D 02 BC 03 		      	beq  	r4,disassem_657
0197F0 86 41 30 00 		      	cmp  	r4,r3,#24
0197F4 3D 02 CC 03 		      	beq  	r4,disassem_658
0197F8 86 41 18 00 		      	cmp  	r4,r3,#12
0197FC 3D 02 DC 03 		      	beq  	r4,disassem_659
019800 86 41 1A 00 		      	cmp  	r4,r3,#13
019804 3D 02 EC 03 		      	beq  	r4,disassem_660
019808 86 41 1C 00 		      	cmp  	r4,r3,#14
01980C 3D 02 FC 03 		      	beq  	r4,disassem_661
019810 86 41 7A 00 		      	cmp  	r4,r3,#61
019814 3D 02 0C 04 		      	beq  	r4,disassem_662
019818 86 41 7C 00 		      	cmp  	r4,r3,#62
01981C 3D 02 A6 04 		      	beq  	r4,disassem_663
019820 86 41 70 00 		      	cmp  	r4,r3,#56
019824 3D 02 B2 04 		      	beq  	r4,disassem_664
019828 86 41 72 00 		      	cmp  	r4,r3,#57
01982C 3D 02 B8 04 		      	beq  	r4,disassem_665
019830 86 41 74 00 		      	cmp  	r4,r3,#58
019834 3D 02 EE 04 		      	beq  	r4,disassem_666
019838 86 41 6E 00 		      	cmp  	r4,r3,#55
01983C 3D 02 24 05 		      	beq  	r4,disassem_667
019840 86 41 76 00 		      	cmp  	r4,r3,#59
019844 3D 02 40 05 		      	beq  	r4,disassem_668
019848 86 41 80 00 		      	cmp  	r4,r3,#64
01984C 3D 02 5C 05 		      	beq  	r4,disassem_669
019850 86 41 82 00 		      	cmp  	r4,r3,#65
019854 3D 02 6C 05 		      	beq  	r4,disassem_670
019858 86 41 84 00 		      	cmp  	r4,r3,#66
01985C 3D 02 7C 05 		      	beq  	r4,disassem_671
019860 86 41 86 00 		      	cmp  	r4,r3,#67
019864 3D 02 8C 05 		      	beq  	r4,disassem_672
019868 86 41 88 00 		      	cmp  	r4,r3,#68
01986C 3D 02 9C 05 		      	beq  	r4,disassem_673
019870 86 41 8A 00 		      	cmp  	r4,r3,#69
019874 3D 02 AC 05 		      	beq  	r4,disassem_674
019878 86 41 8C 00 		      	cmp  	r4,r3,#70
01987C 3D 02 BC 05 		      	beq  	r4,disassem_675
019880 86 41 8E 00 		      	cmp  	r4,r3,#71
019884 3D 02 CC 05 		      	beq  	r4,disassem_676
019888 86 41 90 00 		      	cmp  	r4,r3,#72
01988C 3D 02 DC 05 		      	beq  	r4,disassem_677
019890 86 41 92 00 		      	cmp  	r4,r3,#73
019894 3D 02 E8 05 		      	beq  	r4,disassem_678
019898 86 41 94 00 		      	cmp  	r4,r3,#74
01989C 3D 02 F4 05 		      	beq  	r4,disassem_679
0198A0 86 41 96 00 		      	cmp  	r4,r3,#75
0198A4 3D 02 00 06 		      	beq  	r4,disassem_680
0198A8 86 41 98 00 		      	cmp  	r4,r3,#76
0198AC 3D 02 0C 06 		      	beq  	r4,disassem_681
0198B0 86 41 9A 00 		      	cmp  	r4,r3,#77
0198B4 3D 02 18 06 		      	beq  	r4,disassem_682
0198B8 86 41 9C 00 		      	cmp  	r4,r3,#78
0198BC 3D 02 24 06 		      	beq  	r4,disassem_683
0198C0 86 41 9E 00 		      	cmp  	r4,r3,#79
0198C4 3D 02 30 06 		      	beq  	r4,disassem_684
0198C8 86 41 C8 00 		      	cmp  	r4,r3,#100
0198CC 3D 02 3C 06 		      	beq  	r4,disassem_685
0198D0 86 41 C0 00 		      	cmp  	r4,r3,#96
0198D4 3D 02 50 06 		      	beq  	r4,disassem_686
0198D8 86 41 C2 00 		      	cmp  	r4,r3,#97
0198DC 3D 02 60 06 		      	beq  	r4,disassem_687
0198E0 86 41 C4 00 		      	cmp  	r4,r3,#98
0198E4 3D 02 70 06 		      	beq  	r4,disassem_688
0198E8 86 41 C6 00 		      	cmp  	r4,r3,#99
0198EC 3D 02 80 06 		      	beq  	r4,disassem_689
0198F0 86 41 D0 00 		      	cmp  	r4,r3,#104
0198F4 3D 02 90 06 		      	beq  	r4,disassem_690
0198F8 86 41 D2 00 		      	cmp  	r4,r3,#105
0198FC 3D 02 9C 06 		      	beq  	r4,disassem_691
019900 86 41 D4 00 		      	cmp  	r4,r3,#106
019904 3D 02 A8 06 		      	beq  	r4,disassem_692
019908 86 41 D6 00 		      	cmp  	r4,r3,#107
01990C 3D 02 B4 06 		      	beq  	r4,disassem_693
019910 86 41 B8 00 		      	cmp  	r4,r3,#92
019914 3D 02 C0 06 		      	beq  	r4,disassem_694
019918 86 41 DC 00 		      	cmp  	r4,r3,#110
01991C 3D 02 D0 06 		      	beq  	r4,disassem_695
019920 86 41 CE 00 		      	cmp  	r4,r3,#103
019924 3D 02 E0 06 		      	beq  	r4,disassem_696
019928 86 41 AE 00 		      	cmp  	r4,r3,#87
01992C 3D 02 00 07 		      	beq  	r4,disassem_697
019930 86 41 7E 00 		      	cmp  	r4,r3,#63
019934 3D 02 20 07 		      	beq  	r4,disassem_698
019938 86 41 14 00 		      	cmp  	r4,r3,#10
01993C 3D 02 30 07 		      	beq  	r4,disassem_699
019940 3A DE 01 00 		      	bra  	disassem_700
                	disassem_647:
019944 0A 30 02 00 		      	ldi  	r3,#1
019948 E3 3D B0 FF 		      	sw   	r3,-40[bp]
01994C C6 3D 50 FF 		      	lw   	r3,-88[bp]
019950 BD 01 1C 00 		      	beq  	r3,disassem_701
019954 C4 4D 68 FF 		      	lh   	r4,-76[bp]
019958 02 42 00 24 		      	sxh  	r4,r4
01995C 02 32 0E 78 		      	asri 	r3,r4,#7
019960 E3 3D A0 FF 		      	sw   	r3,-48[bp]
019964 C6 4D A0 FF 		      	lw   	r4,-48[bp]
019968 7C 00 01 00 		      	and  	r3,r4,#16777216
01996C 0C 32 00 00 
019970 BD 01 0A 00 		      	beq  	r3,disassem_703
019974 C6 3D A0 FF 		      	lw   	r3,-48[bp]
019978 7C 00 FF FF 		      	ori  	r3,r3,#-16777216
01997C 8D 31 00 00 
019980 E3 3D A0 FF 		      	sw   	r3,-48[bp]
                	disassem_703:
019984 BA 04 00 00 		      	bra  	disassem_702
                	disassem_701:
019988 C6 5D A0 FF 		      	lw   	r5,-48[bp]
01998C 82 42 32 70 		      	asli 	r4,r5,#25
019990 C5 6D E8 FF 		      	lhu  	r6,-12[bp]
019994 FC FF FF 00 		      	andi 	r6,r6,#4294967295
019998 0C 63 FE FF 
01999C 02 53 0E 78 		      	asri 	r5,r6,#7
0199A0 02 32 0A 1A 		      	or   	r3,r4,r5
0199A4 E3 3D A0 FF 		      	sw   	r3,-48[bp]
                	disassem_702:
0199A8 C5 3D E8 FF 		      	lhu  	r3,-12[bp]
0199AC E7 E1 01 00 		      	push 	r3
0199B0 E6 E5 01 00 		      	push 	[r11]
0199B4 39 EA FD FF 		      	bsr  	DumpInsnBytes_
0199B8 14 EF 21 00 		      	addui	sp,sp,#16
0199BC FC 01 00 00 		      	push 	#disassem_556
0199C0 65 E0 35 CD 
0199C4 39 20 FC FF 		      	bsr  	printf_
0199C8 14 EF 11 00 		      	addui	sp,sp,#8
0199CC E3 0D 50 FF 		      	sw   	r0,-88[bp]
0199D0 3A D1 01 00 		      	bra  	disassem_646
                	disassem_648:
0199D4 C6 3D C0 FF 		      	lw   	r3,-32[bp]
0199D8 86 41 6E 00 		      	cmp  	r4,r3,#55
0199DC 3D 02 40 00 		      	beq  	r4,disassem_706
0199E0 86 41 08 00 		      	cmp  	r4,r3,#4
0199E4 3D 02 EE 00 		      	beq  	r4,disassem_707
0199E8 86 41 28 00 		      	cmp  	r4,r3,#20
0199EC 3D 02 FA 00 		      	beq  	r4,disassem_708
0199F0 86 41 0A 00 		      	cmp  	r4,r3,#5
0199F4 3D 02 06 01 		      	beq  	r4,disassem_709
0199F8 86 41 2A 00 		      	cmp  	r4,r3,#21
0199FC 3D 02 12 01 		      	beq  	r4,disassem_710
019A00 86 41 0C 00 		      	cmp  	r4,r3,#6
019A04 3D 02 1E 01 		      	beq  	r4,disassem_711
019A08 86 41 2C 00 		      	cmp  	r4,r3,#22
019A0C 3D 02 2A 01 		      	beq  	r4,disassem_712
019A10 86 41 0E 00 		      	cmp  	r4,r3,#7
019A14 3D 02 36 01 		      	beq  	r4,disassem_713
019A18 86 41 2E 00 		      	cmp  	r4,r3,#23
019A1C 3D 02 42 01 		      	beq  	r4,disassem_714
019A20 86 41 10 00 		      	cmp  	r4,r3,#8
019A24 3D 02 4E 01 		      	beq  	r4,disassem_715
019A28 86 41 30 00 		      	cmp  	r4,r3,#24
019A2C 3D 02 5A 01 		      	beq  	r4,disassem_716
019A30 86 41 18 00 		      	cmp  	r4,r3,#12
019A34 3D 02 66 01 		      	beq  	r4,disassem_717
019A38 86 41 1A 00 		      	cmp  	r4,r3,#13
019A3C 3D 02 72 01 		      	beq  	r4,disassem_718
019A40 86 41 1C 00 		      	cmp  	r4,r3,#14
019A44 3D 02 7E 01 		      	beq  	r4,disassem_719
019A48 86 41 3E 00 		      	cmp  	r4,r3,#31
019A4C 3D 02 8A 01 		      	beq  	r4,disassem_720
019A50 86 41 3C 00 		      	cmp  	r4,r3,#30
019A54 3D 02 B2 01 		      	beq  	r4,disassem_721
019A58 3A 79 00 00 		      	bra  	disassem_705
                	disassem_706:
019A5C C5 5D E8 FF 		      	lhu  	r5,-12[bp]
019A60 FC FF FF 00 		      	andi 	r5,r5,#4294967295
019A64 8C 52 FE FF 
019A68 82 42 22 78 		      	asri 	r4,r5,#17
019A6C 0C 32 3E 00 		      	and  	r3,r4,#31
019A70 86 41 00 00 		      	cmp  	r4,r3,#0
019A74 3D 02 18 00 		      	beq  	r4,disassem_723
019A78 86 41 02 00 		      	cmp  	r4,r3,#1
019A7C 3D 02 28 00 		      	beq  	r4,disassem_724
019A80 86 41 06 00 		      	cmp  	r4,r3,#3
019A84 3D 02 38 00 		      	beq  	r4,disassem_725
019A88 86 41 3A 00 		      	cmp  	r4,r3,#29
019A8C 3D 02 48 00 		      	beq  	r4,disassem_726
019A90 86 41 3C 00 		      	cmp  	r4,r3,#30
019A94 3D 02 58 00 		      	beq  	r4,disassem_727
019A98 86 41 3E 00 		      	cmp  	r4,r3,#31
019A9C 3D 02 68 00 		      	beq  	r4,disassem_728
019AA0 BA 1E 00 00 		      	bra  	disassem_729
                	disassem_723:
019AA4 C5 3D E8 FF 		      	lhu  	r3,-12[bp]
019AA8 E7 E1 01 00 		      	push 	r3
019AAC E6 E5 01 00 		      	push 	[r11]
019AB0 B9 CA FD FF 		      	bsr  	DumpInsnBytes_
019AB4 14 EF 21 00 		      	addui	sp,sp,#16
019AB8 FC 01 00 00 		      	push 	#disassem_557
019ABC 65 E0 1D CD 
019AC0 B9 00 FC FF 		      	bsr  	printf_
019AC4 14 EF 11 00 		      	addui	sp,sp,#8
019AC8 BA 1E 00 00 		      	bra  	disassem_722
                	disassem_724:
019ACC C5 3D E8 FF 		      	lhu  	r3,-12[bp]
019AD0 E7 E1 01 00 		      	push 	r3
019AD4 E6 E5 01 00 		      	push 	[r11]
019AD8 B9 C5 FD FF 		      	bsr  	DumpInsnBytes_
019ADC 14 EF 21 00 		      	addui	sp,sp,#16
019AE0 FC 01 00 00 		      	push 	#disassem_558
019AE4 65 E0 05 CD 
019AE8 B9 FB FB FF 		      	bsr  	printf_
019AEC 14 EF 11 00 		      	addui	sp,sp,#8
019AF0 BA 19 00 00 		      	bra  	disassem_722
                	disassem_725:
019AF4 C5 3D E8 FF 		      	lhu  	r3,-12[bp]
019AF8 E7 E1 01 00 		      	push 	r3
019AFC E6 E5 01 00 		      	push 	[r11]
019B00 B9 C0 FD FF 		      	bsr  	DumpInsnBytes_
019B04 14 EF 21 00 		      	addui	sp,sp,#16
019B08 FC 01 00 00 		      	push 	#disassem_559
019B0C 65 E0 ED CC 
019B10 B9 F6 FB FF 		      	bsr  	printf_
019B14 14 EF 11 00 		      	addui	sp,sp,#8
019B18 BA 14 00 00 		      	bra  	disassem_722
                	disassem_726:
019B1C C5 3D E8 FF 		      	lhu  	r3,-12[bp]
019B20 E7 E1 01 00 		      	push 	r3
019B24 E6 E5 01 00 		      	push 	[r11]
019B28 B9 BB FD FF 		      	bsr  	DumpInsnBytes_
019B2C 14 EF 21 00 		      	addui	sp,sp,#16
019B30 FC 01 00 00 		      	push 	#disassem_560
019B34 65 E0 D5 CC 
019B38 B9 F1 FB FF 		      	bsr  	printf_
019B3C 14 EF 11 00 		      	addui	sp,sp,#8
019B40 BA 0F 00 00 		      	bra  	disassem_722
                	disassem_727:
019B44 C5 3D E8 FF 		      	lhu  	r3,-12[bp]
019B48 E7 E1 01 00 		      	push 	r3
019B4C E6 E5 01 00 		      	push 	[r11]
019B50 B9 B6 FD FF 		      	bsr  	DumpInsnBytes_
019B54 14 EF 21 00 		      	addui	sp,sp,#16
019B58 FC 01 00 00 		      	push 	#disassem_561
019B5C 65 E0 BD CC 
019B60 B9 EC FB FF 		      	bsr  	printf_
019B64 14 EF 11 00 		      	addui	sp,sp,#8
019B68 BA 0A 00 00 		      	bra  	disassem_722
                	disassem_728:
019B6C C5 3D E8 FF 		      	lhu  	r3,-12[bp]
019B70 E7 E1 01 00 		      	push 	r3
019B74 E6 E5 01 00 		      	push 	[r11]
019B78 B9 B1 FD FF 		      	bsr  	DumpInsnBytes_
019B7C 14 EF 21 00 		      	addui	sp,sp,#16
019B80 FC 01 00 00 		      	push 	#disassem_562
019B84 65 E0 A5 CC 
019B88 B9 E7 FB FF 		      	bsr  	printf_
019B8C 14 EF 11 00 		      	addui	sp,sp,#8
019B90 BA 05 00 00 		      	bra  	disassem_722
                	disassem_729:
019B94 C5 3D E8 FF 		      	lhu  	r3,-12[bp]
019B98 E7 E1 01 00 		      	push 	r3
019B9C E6 E5 01 00 		      	push 	[r11]
019BA0 B9 AC FD FF 		      	bsr  	DumpInsnBytes_
019BA4 14 EF 21 00 		      	addui	sp,sp,#16
019BA8 FC 01 00 00 		      	push 	#disassem_563
019BAC 65 E0 8D CC 
019BB0 B9 E2 FB FF 		      	bsr  	printf_
019BB4 14 EF 11 00 		      	addui	sp,sp,#8
019BB8 BA 00 00 00 		      	bra  	disassem_722
                	disassem_722:
019BBC BA 4C 00 00 		      	bra  	disassem_705
                	disassem_707:
019BC0 C5 3D E8 FF 		      	lhu  	r3,-12[bp]
019BC4 E7 E1 01 00 		      	push 	r3
019BC8 FC 01 00 00 		      	push 	#disassem_564
019BCC 65 E0 75 CC 
019BD0 E6 E5 01 00 		      	push 	[r11]
019BD4 B9 0C FF FF 		      	bsr  	DispRR_
019BD8 14 EF 31 00 		      	addui	sp,sp,#24
019BDC BA 48 00 00 		      	bra  	disassem_705
                	disassem_708:
019BE0 C5 3D E8 FF 		      	lhu  	r3,-12[bp]
019BE4 E7 E1 01 00 		      	push 	r3
019BE8 FC 01 00 00 		      	push 	#disassem_565
019BEC 65 E0 5D CC 
019BF0 E6 E5 01 00 		      	push 	[r11]
019BF4 B9 08 FF FF 		      	bsr  	DispRR_
019BF8 14 EF 31 00 		      	addui	sp,sp,#24
019BFC BA 44 00 00 		      	bra  	disassem_705
                	disassem_709:
019C00 C5 3D E8 FF 		      	lhu  	r3,-12[bp]
019C04 E7 E1 01 00 		      	push 	r3
019C08 FC 01 00 00 		      	push 	#disassem_566
019C0C 65 E0 45 CC 
019C10 E6 E5 01 00 		      	push 	[r11]
019C14 B9 04 FF FF 		      	bsr  	DispRR_
019C18 14 EF 31 00 		      	addui	sp,sp,#24
019C1C BA 40 00 00 		      	bra  	disassem_705
                	disassem_710:
019C20 C5 3D E8 FF 		      	lhu  	r3,-12[bp]
019C24 E7 E1 01 00 		      	push 	r3
019C28 FC 01 00 00 		      	push 	#disassem_567
019C2C 65 E0 2D CC 
019C30 E6 E5 01 00 		      	push 	[r11]
019C34 B9 00 FF FF 		      	bsr  	DispRR_
019C38 14 EF 31 00 		      	addui	sp,sp,#24
019C3C BA 3C 00 00 		      	bra  	disassem_705
                	disassem_711:
019C40 C5 3D E8 FF 		      	lhu  	r3,-12[bp]
019C44 E7 E1 01 00 		      	push 	r3
019C48 FC 01 00 00 		      	push 	#disassem_568
019C4C 65 E0 15 CC 
019C50 E6 E5 01 00 		      	push 	[r11]
019C54 B9 FC FE FF 		      	bsr  	DispRR_
019C58 14 EF 31 00 		      	addui	sp,sp,#24
019C5C BA 38 00 00 		      	bra  	disassem_705
                	disassem_712:
019C60 C5 3D E8 FF 		      	lhu  	r3,-12[bp]
019C64 E7 E1 01 00 		      	push 	r3
019C68 FC 01 00 00 		      	push 	#disassem_569
019C6C 65 E0 FD CB 
019C70 E6 E5 01 00 		      	push 	[r11]
019C74 B9 F8 FE FF 		      	bsr  	DispRR_
019C78 14 EF 31 00 		      	addui	sp,sp,#24
019C7C BA 34 00 00 		      	bra  	disassem_705
                	disassem_713:
019C80 C5 3D E8 FF 		      	lhu  	r3,-12[bp]
019C84 E7 E1 01 00 		      	push 	r3
019C88 FC 01 00 00 		      	push 	#disassem_570
019C8C 65 E0 E5 CB 
019C90 E6 E5 01 00 		      	push 	[r11]
019C94 B9 F4 FE FF 		      	bsr  	DispRR_
019C98 14 EF 31 00 		      	addui	sp,sp,#24
019C9C BA 30 00 00 		      	bra  	disassem_705
                	disassem_714:
019CA0 C5 3D E8 FF 		      	lhu  	r3,-12[bp]
019CA4 E7 E1 01 00 		      	push 	r3
019CA8 FC 01 00 00 		      	push 	#disassem_571
019CAC 65 E0 CD CB 
019CB0 E6 E5 01 00 		      	push 	[r11]
019CB4 B9 F0 FE FF 		      	bsr  	DispRR_
019CB8 14 EF 31 00 		      	addui	sp,sp,#24
019CBC BA 2C 00 00 		      	bra  	disassem_705
                	disassem_715:
019CC0 C5 3D E8 FF 		      	lhu  	r3,-12[bp]
019CC4 E7 E1 01 00 		      	push 	r3
019CC8 FC 01 00 00 		      	push 	#disassem_572
019CCC 65 E0 B5 CB 
019CD0 E6 E5 01 00 		      	push 	[r11]
019CD4 B9 EC FE FF 		      	bsr  	DispRR_
019CD8 14 EF 31 00 		      	addui	sp,sp,#24
019CDC BA 28 00 00 		      	bra  	disassem_705
                	disassem_716:
019CE0 C5 3D E8 FF 		      	lhu  	r3,-12[bp]
019CE4 E7 E1 01 00 		      	push 	r3
019CE8 FC 01 00 00 		      	push 	#disassem_573
019CEC 65 E0 9D CB 
019CF0 E6 E5 01 00 		      	push 	[r11]
019CF4 B9 E8 FE FF 		      	bsr  	DispRR_
019CF8 14 EF 31 00 		      	addui	sp,sp,#24
019CFC BA 24 00 00 		      	bra  	disassem_705
                	disassem_717:
019D00 C5 3D E8 FF 		      	lhu  	r3,-12[bp]
019D04 E7 E1 01 00 		      	push 	r3
019D08 FC 01 00 00 		      	push 	#disassem_574
019D0C 65 E0 85 CB 
019D10 E6 E5 01 00 		      	push 	[r11]
019D14 B9 E4 FE FF 		      	bsr  	DispRR_
019D18 14 EF 31 00 		      	addui	sp,sp,#24
019D1C BA 20 00 00 		      	bra  	disassem_705
                	disassem_718:
019D20 C5 3D E8 FF 		      	lhu  	r3,-12[bp]
019D24 E7 E1 01 00 		      	push 	r3
019D28 FC 01 00 00 		      	push 	#disassem_575
019D2C 65 E0 6D CB 
019D30 E6 E5 01 00 		      	push 	[r11]
019D34 B9 E0 FE FF 		      	bsr  	DispRR_
019D38 14 EF 31 00 		      	addui	sp,sp,#24
019D3C BA 1C 00 00 		      	bra  	disassem_705
                	disassem_719:
019D40 C5 3D E8 FF 		      	lhu  	r3,-12[bp]
019D44 E7 E1 01 00 		      	push 	r3
019D48 FC 01 00 00 		      	push 	#disassem_576
019D4C 65 E0 55 CB 
019D50 E6 E5 01 00 		      	push 	[r11]
019D54 B9 DC FE FF 		      	bsr  	DispRR_
019D58 14 EF 31 00 		      	addui	sp,sp,#24
019D5C BA 18 00 00 		      	bra  	disassem_705
                	disassem_720:
019D60 C5 3D E8 FF 		      	lhu  	r3,-12[bp]
019D64 E7 E1 01 00 		      	push 	r3
019D68 E6 E5 01 00 		      	push 	[r11]
019D6C 39 73 FD FF 		      	bsr  	DumpInsnBytes_
019D70 14 EF 21 00 		      	addui	sp,sp,#16
019D74 FC 01 00 00 		      	push 	#disassem_577
019D78 65 E0 39 CB 
019D7C 39 A9 FB FF 		      	bsr  	printf_
019D80 14 EF 11 00 		      	addui	sp,sp,#8
019D84 C5 3D E8 FF 		      	lhu  	r3,-12[bp]
019D88 E7 E1 01 00 		      	push 	r3
019D8C 39 8B FD FF 		      	bsr  	DispRstc_
019D90 14 EF 11 00 		      	addui	sp,sp,#8
019D94 C5 3D E8 FF 		      	lhu  	r3,-12[bp]
019D98 E7 E1 01 00 		      	push 	r3
019D9C 39 B5 FD FF 		      	bsr  	DispSpr_
019DA0 14 EF 11 00 		      	addui	sp,sp,#8
019DA4 FC 01 00 00 		      	push 	#disassem_578
019DA8 65 E0 2D CB 
019DAC 39 A3 FB FF 		      	bsr  	printf_
019DB0 14 EF 11 00 		      	addui	sp,sp,#8
019DB4 BA 0D 00 00 		      	bra  	disassem_705
                	disassem_721:
019DB8 C5 3D E8 FF 		      	lhu  	r3,-12[bp]
019DBC E7 E1 01 00 		      	push 	r3
019DC0 E6 E5 01 00 		      	push 	[r11]
019DC4 39 68 FD FF 		      	bsr  	DumpInsnBytes_
019DC8 14 EF 21 00 		      	addui	sp,sp,#16
019DCC FC 01 00 00 		      	push 	#disassem_579
019DD0 65 E0 11 CB 
019DD4 39 9E FB FF 		      	bsr  	printf_
019DD8 14 EF 11 00 		      	addui	sp,sp,#8
019DDC C5 3D E8 FF 		      	lhu  	r3,-12[bp]
019DE0 E7 E1 01 00 		      	push 	r3
019DE4 39 AC FD FF 		      	bsr  	DispSpr_
019DE8 14 EF 11 00 		      	addui	sp,sp,#8
019DEC FC 01 00 00 		      	push 	#disassem_580
019DF0 65 E0 09 CB 
019DF4 39 9A FB FF 		      	bsr  	printf_
019DF8 14 EF 11 00 		      	addui	sp,sp,#8
019DFC C5 3D E8 FF 		      	lhu  	r3,-12[bp]
019E00 E7 E1 01 00 		      	push 	r3
019E04 39 92 FD FF 		      	bsr  	DispRa_
019E08 14 EF 11 00 		      	addui	sp,sp,#8
019E0C FC 01 00 00 		      	push 	#disassem_581
019E10 65 E0 FD CA 
019E14 39 96 FB FF 		      	bsr  	printf_
019E18 14 EF 11 00 		      	addui	sp,sp,#8
019E1C BA 00 00 00 		      	bra  	disassem_705
                	disassem_705:
019E20 3A 47 01 00 		      	bra  	disassem_646
                	disassem_649:
019E24 C5 3D E8 FF 		      	lhu  	r3,-12[bp]
019E28 E7 E1 01 00 		      	push 	r3
019E2C E6 ED A1 FF 		      	push 	-48[bp]
019E30 E6 ED B1 FF 		      	push 	-40[bp]
019E34 FC 01 00 00 		      	push 	#disassem_582
019E38 65 E0 E5 CA 
019E3C E6 E5 01 00 		      	push 	[r11]
019E40 39 8C FE FF 		      	bsr  	DispRI_
019E44 14 EF 51 00 		      	addui	sp,sp,#40
019E48 3A 42 01 00 		      	bra  	disassem_646
                	disassem_650:
019E4C C5 3D E8 FF 		      	lhu  	r3,-12[bp]
019E50 E7 E1 01 00 		      	push 	r3
019E54 E6 ED A1 FF 		      	push 	-48[bp]
019E58 E6 ED B1 FF 		      	push 	-40[bp]
019E5C FC 01 00 00 		      	push 	#disassem_583
019E60 65 E0 CD CA 
019E64 E6 E5 01 00 		      	push 	[r11]
019E68 39 87 FE FF 		      	bsr  	DispRI_
019E6C 14 EF 51 00 		      	addui	sp,sp,#40
019E70 3A 3D 01 00 		      	bra  	disassem_646
                	disassem_651:
019E74 C5 3D E8 FF 		      	lhu  	r3,-12[bp]
019E78 E7 E1 01 00 		      	push 	r3
019E7C E6 ED A1 FF 		      	push 	-48[bp]
019E80 E6 ED B1 FF 		      	push 	-40[bp]
019E84 FC 01 00 00 		      	push 	#disassem_584
019E88 65 E0 B5 CA 
019E8C E6 E5 01 00 		      	push 	[r11]
019E90 39 82 FE FF 		      	bsr  	DispRI_
019E94 14 EF 51 00 		      	addui	sp,sp,#40
019E98 3A 38 01 00 		      	bra  	disassem_646
                	disassem_652:
019E9C C5 3D E8 FF 		      	lhu  	r3,-12[bp]
019EA0 E7 E1 01 00 		      	push 	r3
019EA4 E6 ED A1 FF 		      	push 	-48[bp]
019EA8 E6 ED B1 FF 		      	push 	-40[bp]
019EAC FC 01 00 00 		      	push 	#disassem_585
019EB0 65 E0 9D CA 
019EB4 E6 E5 01 00 		      	push 	[r11]
019EB8 39 7D FE FF 		      	bsr  	DispRI_
019EBC 14 EF 51 00 		      	addui	sp,sp,#40
019EC0 3A 33 01 00 		      	bra  	disassem_646
                	disassem_653:
019EC4 C5 3D E8 FF 		      	lhu  	r3,-12[bp]
019EC8 E7 E1 01 00 		      	push 	r3
019ECC E6 ED A1 FF 		      	push 	-48[bp]
019ED0 E6 ED B1 FF 		      	push 	-40[bp]
019ED4 FC 01 00 00 		      	push 	#disassem_586
019ED8 65 E0 85 CA 
019EDC E6 E5 01 00 		      	push 	[r11]
019EE0 39 78 FE FF 		      	bsr  	DispRI_
019EE4 14 EF 51 00 		      	addui	sp,sp,#40
019EE8 3A 2E 01 00 		      	bra  	disassem_646
                	disassem_654:
019EEC C5 3D E8 FF 		      	lhu  	r3,-12[bp]
019EF0 E7 E1 01 00 		      	push 	r3
019EF4 E6 ED A1 FF 		      	push 	-48[bp]
019EF8 E6 ED B1 FF 		      	push 	-40[bp]
019EFC FC 01 00 00 		      	push 	#disassem_587
019F00 65 E0 6D CA 
019F04 E6 E5 01 00 		      	push 	[r11]
019F08 39 73 FE FF 		      	bsr  	DispRI_
019F0C 14 EF 51 00 		      	addui	sp,sp,#40
019F10 3A 29 01 00 		      	bra  	disassem_646
                	disassem_655:
019F14 C5 3D E8 FF 		      	lhu  	r3,-12[bp]
019F18 E7 E1 01 00 		      	push 	r3
019F1C E6 ED A1 FF 		      	push 	-48[bp]
019F20 E6 ED B1 FF 		      	push 	-40[bp]
019F24 FC 01 00 00 		      	push 	#disassem_588
019F28 65 E0 55 CA 
019F2C E6 E5 01 00 		      	push 	[r11]
019F30 39 6E FE FF 		      	bsr  	DispRI_
019F34 14 EF 51 00 		      	addui	sp,sp,#40
019F38 3A 24 01 00 		      	bra  	disassem_646
                	disassem_656:
019F3C C5 3D E8 FF 		      	lhu  	r3,-12[bp]
019F40 E7 E1 01 00 		      	push 	r3
019F44 E6 ED A1 FF 		      	push 	-48[bp]
019F48 E6 ED B1 FF 		      	push 	-40[bp]
019F4C FC 01 00 00 		      	push 	#disassem_589
019F50 65 E0 3D CA 
019F54 E6 E5 01 00 		      	push 	[r11]
019F58 39 69 FE FF 		      	bsr  	DispRI_
019F5C 14 EF 51 00 		      	addui	sp,sp,#40
019F60 3A 1F 01 00 		      	bra  	disassem_646
                	disassem_657:
019F64 C5 3D E8 FF 		      	lhu  	r3,-12[bp]
019F68 E7 E1 01 00 		      	push 	r3
019F6C E6 ED A1 FF 		      	push 	-48[bp]
019F70 E6 ED B1 FF 		      	push 	-40[bp]
019F74 FC 01 00 00 		      	push 	#disassem_590
019F78 65 E0 25 CA 
019F7C E6 E5 01 00 		      	push 	[r11]
019F80 39 64 FE FF 		      	bsr  	DispRI_
019F84 14 EF 51 00 		      	addui	sp,sp,#40
019F88 3A 1A 01 00 		      	bra  	disassem_646
                	disassem_658:
019F8C C5 3D E8 FF 		      	lhu  	r3,-12[bp]
019F90 E7 E1 01 00 		      	push 	r3
019F94 E6 ED A1 FF 		      	push 	-48[bp]
019F98 E6 ED B1 FF 		      	push 	-40[bp]
019F9C FC 01 00 00 		      	push 	#disassem_591
019FA0 65 E0 0D CA 
019FA4 E6 E5 01 00 		      	push 	[r11]
019FA8 39 5F FE FF 		      	bsr  	DispRI_
019FAC 14 EF 51 00 		      	addui	sp,sp,#40
019FB0 3A 15 01 00 		      	bra  	disassem_646
                	disassem_659:
019FB4 C5 3D E8 FF 		      	lhu  	r3,-12[bp]
019FB8 E7 E1 01 00 		      	push 	r3
019FBC E6 ED A1 FF 		      	push 	-48[bp]
019FC0 E6 ED B1 FF 		      	push 	-40[bp]
019FC4 FC 01 00 00 		      	push 	#disassem_592
019FC8 65 E0 F5 C9 
019FCC E6 E5 01 00 		      	push 	[r11]
019FD0 39 5A FE FF 		      	bsr  	DispRI_
019FD4 14 EF 51 00 		      	addui	sp,sp,#40
019FD8 3A 10 01 00 		      	bra  	disassem_646
                	disassem_660:
019FDC C5 3D E8 FF 		      	lhu  	r3,-12[bp]
019FE0 E7 E1 01 00 		      	push 	r3
019FE4 E6 ED A1 FF 		      	push 	-48[bp]
019FE8 E6 ED B1 FF 		      	push 	-40[bp]
019FEC FC 01 00 00 		      	push 	#disassem_593
019FF0 65 E0 DD C9 
019FF4 E6 E5 01 00 		      	push 	[r11]
019FF8 39 55 FE FF 		      	bsr  	DispRI_
019FFC 14 EF 51 00 		      	addui	sp,sp,#40
01A000 3A 0B 01 00 		      	bra  	disassem_646
                	disassem_661:
01A004 C5 3D E8 FF 		      	lhu  	r3,-12[bp]
01A008 E7 E1 01 00 		      	push 	r3
01A00C E6 ED A1 FF 		      	push 	-48[bp]
01A010 E6 ED B1 FF 		      	push 	-40[bp]
01A014 FC 01 00 00 		      	push 	#disassem_594
01A018 65 E0 C5 C9 
01A01C E6 E5 01 00 		      	push 	[r11]
01A020 39 50 FE FF 		      	bsr  	DispRI_
01A024 14 EF 51 00 		      	addui	sp,sp,#40
01A028 3A 06 01 00 		      	bra  	disassem_646
                	disassem_662:
01A02C C5 5D E8 FF 		      	lhu  	r5,-12[bp]
01A030 FC FF FF 00 		      	andi 	r5,r5,#4294967295
01A034 8C 52 FE FF 
01A038 82 42 18 78 		      	asri 	r4,r5,#12
01A03C 0C 32 0E 00 		      	and  	r3,r4,#7
01A040 86 41 00 00 		      	cmp  	r4,r3,#0
01A044 3D 02 20 00 		      	beq  	r4,disassem_731
01A048 86 41 02 00 		      	cmp  	r4,r3,#1
01A04C 3D 02 2C 00 		      	beq  	r4,disassem_732
01A050 86 41 08 00 		      	cmp  	r4,r3,#4
01A054 3D 02 38 00 		      	beq  	r4,disassem_733
01A058 86 41 0A 00 		      	cmp  	r4,r3,#5
01A05C 3D 02 44 00 		      	beq  	r4,disassem_734
01A060 86 41 04 00 		      	cmp  	r4,r3,#2
01A064 3D 02 50 00 		      	beq  	r4,disassem_735
01A068 86 41 06 00 		      	cmp  	r4,r3,#3
01A06C 3D 02 5C 00 		      	beq  	r4,disassem_736
01A070 86 41 0C 00 		      	cmp  	r4,r3,#6
01A074 3D 02 68 00 		      	beq  	r4,disassem_737
01A078 86 41 0E 00 		      	cmp  	r4,r3,#7
01A07C 3D 02 64 00 		      	beq  	r4,disassem_737
01A080 BA 1C 00 00 		      	bra  	disassem_730
                	disassem_731:
01A084 C5 3D E8 FF 		      	lhu  	r3,-12[bp]
01A088 E7 E1 01 00 		      	push 	r3
01A08C FC 01 00 00 		      	push 	#disassem_595
01A090 65 E0 AD C9 
01A094 E6 E5 01 00 		      	push 	[r11]
01A098 B9 5B FE FF 		      	bsr  	DispBcc_
01A09C 14 EF 31 00 		      	addui	sp,sp,#24
01A0A0 BA 18 00 00 		      	bra  	disassem_730
                	disassem_732:
01A0A4 C5 3D E8 FF 		      	lhu  	r3,-12[bp]
01A0A8 E7 E1 01 00 		      	push 	r3
01A0AC FC 01 00 00 		      	push 	#disassem_596
01A0B0 65 E0 95 C9 
01A0B4 E6 E5 01 00 		      	push 	[r11]
01A0B8 B9 57 FE FF 		      	bsr  	DispBcc_
01A0BC 14 EF 31 00 		      	addui	sp,sp,#24
01A0C0 BA 14 00 00 		      	bra  	disassem_730
                	disassem_733:
01A0C4 C5 3D E8 FF 		      	lhu  	r3,-12[bp]
01A0C8 E7 E1 01 00 		      	push 	r3
01A0CC FC 01 00 00 		      	push 	#disassem_597
01A0D0 65 E0 7D C9 
01A0D4 E6 E5 01 00 		      	push 	[r11]
01A0D8 B9 53 FE FF 		      	bsr  	DispBcc_
01A0DC 14 EF 31 00 		      	addui	sp,sp,#24
01A0E0 BA 10 00 00 		      	bra  	disassem_730
                	disassem_734:
01A0E4 C5 3D E8 FF 		      	lhu  	r3,-12[bp]
01A0E8 E7 E1 01 00 		      	push 	r3
01A0EC FC 01 00 00 		      	push 	#disassem_598
01A0F0 65 E0 65 C9 
01A0F4 E6 E5 01 00 		      	push 	[r11]
01A0F8 B9 4F FE FF 		      	bsr  	DispBcc_
01A0FC 14 EF 31 00 		      	addui	sp,sp,#24
01A100 BA 0C 00 00 		      	bra  	disassem_730
                	disassem_735:
01A104 C5 3D E8 FF 		      	lhu  	r3,-12[bp]
01A108 E7 E1 01 00 		      	push 	r3
01A10C FC 01 00 00 		      	push 	#disassem_599
01A110 65 E0 4D C9 
01A114 E6 E5 01 00 		      	push 	[r11]
01A118 B9 4B FE FF 		      	bsr  	DispBcc_
01A11C 14 EF 31 00 		      	addui	sp,sp,#24
01A120 BA 08 00 00 		      	bra  	disassem_730
                	disassem_736:
01A124 C5 3D E8 FF 		      	lhu  	r3,-12[bp]
01A128 E7 E1 01 00 		      	push 	r3
01A12C FC 01 00 00 		      	push 	#disassem_600
01A130 65 E0 35 C9 
01A134 E6 E5 01 00 		      	push 	[r11]
01A138 B9 47 FE FF 		      	bsr  	DispBcc_
01A13C 14 EF 31 00 		      	addui	sp,sp,#24
01A140 BA 04 00 00 		      	bra  	disassem_730
                	disassem_737:
01A144 C5 3D E8 FF 		      	lhu  	r3,-12[bp]
01A148 E7 E1 01 00 		      	push 	r3
01A14C FC 01 00 00 		      	push 	#disassem_601
01A150 65 E0 1D C9 
01A154 E6 E5 01 00 		      	push 	[r11]
01A158 B9 43 FE FF 		      	bsr  	DispBcc_
01A15C 14 EF 31 00 		      	addui	sp,sp,#24
01A160 BA 00 00 00 		      	bra  	disassem_730
                	disassem_730:
01A164 BA DE 00 00 		      	bra  	disassem_646
                	disassem_663:
01A168 E6 ED A1 FF 		      	push 	-48[bp]
01A16C E6 ED B1 FF 		      	push 	-40[bp]
01A170 C5 3D E8 FF 		      	lhu  	r3,-12[bp]
01A174 E7 E1 01 00 		      	push 	r3
01A178 E6 E5 01 00 		      	push 	[r11]
01A17C B9 7C FE FF 		      	bsr  	DispJALI_
01A180 14 EF 41 00 		      	addui	sp,sp,#32
01A184 BA DA 00 00 		      	bra  	disassem_646
                	disassem_664:
01A188 C5 3D E8 FF 		      	lhu  	r3,-12[bp]
01A18C E7 E1 01 00 		      	push 	r3
01A190 B9 C6 FD FF 		      	bsr  	DispBrk_
01A194 14 EF 11 00 		      	addui	sp,sp,#8
01A198 3A D8 00 00 		      	bra  	disassem_646
                	disassem_665:
01A19C C5 3D E8 FF 		      	lhu  	r3,-12[bp]
01A1A0 E7 E1 01 00 		      	push 	r3
01A1A4 E6 E5 01 00 		      	push 	[r11]
01A1A8 B9 EB FC FF 		      	bsr  	DumpInsnBytes_
01A1AC 14 EF 21 00 		      	addui	sp,sp,#16
01A1B0 C5 4D E8 FF 		      	lhu  	r4,-12[bp]
01A1B4 FC FF FF 00 		      	andi 	r4,r4,#4294967295
01A1B8 0C 42 FE FF 
01A1BC 02 32 0E 78 		      	asri 	r3,r4,#7
01A1C0 E3 3D 80 FF 		      	sw   	r3,-64[bp]
01A1C4 C5 4D E8 FF 		      	lhu  	r4,-12[bp]
01A1C8 7C 00 80 00 		      	and  	r3,r4,#2147483648
01A1CC 0C 32 00 00 
01A1D0 BD 01 0A 00 		      	beq  	r3,disassem_738
01A1D4 C6 3D 80 FF 		      	lw   	r3,-64[bp]
01A1D8 7C 00 FF FF 		      	ori  	r3,r3,#-16777216
01A1DC 8D 31 00 00 
01A1E0 E3 3D 80 FF 		      	sw   	r3,-64[bp]
                	disassem_738:
01A1E4 C6 45 00 00 		      	lw   	r4,[r11]
01A1E8 C6 6D 80 FF 		      	lw   	r6,-64[bp]
01A1EC 02 53 04 70 		      	asli 	r5,r6,#2
01A1F0 02 32 0A 28 		      	addu 	r3,r4,r5
01A1F4 E3 3D 90 FF 		      	sw   	r3,-56[bp]
01A1F8 E6 ED 91 FF 		      	push 	-56[bp]
01A1FC FC 01 00 00 		      	push 	#disassem_602
01A200 65 E0 ED C8 
01A204 39 18 FB FF 		      	bsr  	printf_
01A208 14 EF 21 00 		      	addui	sp,sp,#16
01A20C BA C9 00 00 		      	bra  	disassem_646
                	disassem_666:
01A210 C5 3D E8 FF 		      	lhu  	r3,-12[bp]
01A214 E7 E1 01 00 		      	push 	r3
01A218 E6 E5 01 00 		      	push 	[r11]
01A21C 39 DD FC FF 		      	bsr  	DumpInsnBytes_
01A220 14 EF 21 00 		      	addui	sp,sp,#16
01A224 C5 4D E8 FF 		      	lhu  	r4,-12[bp]
01A228 FC FF FF 00 		      	andi 	r4,r4,#4294967295
01A22C 0C 42 FE FF 
01A230 02 32 0E 78 		      	asri 	r3,r4,#7
01A234 E3 3D 80 FF 		      	sw   	r3,-64[bp]
01A238 C5 4D E8 FF 		      	lhu  	r4,-12[bp]
01A23C 7C 00 80 00 		      	and  	r3,r4,#2147483648
01A240 0C 32 00 00 
01A244 BD 01 0A 00 		      	beq  	r3,disassem_740
01A248 C6 3D 80 FF 		      	lw   	r3,-64[bp]
01A24C 7C 00 FF FF 		      	ori  	r3,r3,#-16777216
01A250 8D 31 00 00 
01A254 E3 3D 80 FF 		      	sw   	r3,-64[bp]
                	disassem_740:
01A258 C6 45 00 00 		      	lw   	r4,[r11]
01A25C C6 6D 80 FF 		      	lw   	r6,-64[bp]
01A260 02 53 04 70 		      	asli 	r5,r6,#2
01A264 02 32 0A 28 		      	addu 	r3,r4,r5
01A268 E3 3D 90 FF 		      	sw   	r3,-56[bp]
01A26C E6 ED 91 FF 		      	push 	-56[bp]
01A270 FC 01 00 00 		      	push 	#disassem_603
01A274 65 E0 BD C8 
01A278 B9 09 FB FF 		      	bsr  	printf_
01A27C 14 EF 21 00 		      	addui	sp,sp,#16
01A280 3A BB 00 00 		      	bra  	disassem_646
                	disassem_667:
01A284 C5 3D E8 FF 		      	lhu  	r3,-12[bp]
01A288 E7 E1 01 00 		      	push 	r3
01A28C E6 E5 01 00 		      	push 	[r11]
01A290 B9 CE FC FF 		      	bsr  	DumpInsnBytes_
01A294 14 EF 21 00 		      	addui	sp,sp,#16
01A298 C5 4D E8 FF 		      	lhu  	r4,-12[bp]
01A29C FC FF FF 00 		      	andi 	r4,r4,#4294967295
01A2A0 0C 42 FE FF 
01A2A4 02 32 22 78 		      	asri 	r3,r4,#17
01A2A8 E3 3D 90 FF 		      	sw   	r3,-56[bp]
01A2AC E6 ED 91 FF 		      	push 	-56[bp]
01A2B0 FC 01 00 00 		      	push 	#disassem_604
01A2B4 65 E0 8D C8 
01A2B8 B9 01 FB FF 		      	bsr  	printf_
01A2BC 14 EF 21 00 		      	addui	sp,sp,#16
01A2C0 3A B3 00 00 		      	bra  	disassem_646
                	disassem_668:
01A2C4 C5 3D E8 FF 		      	lhu  	r3,-12[bp]
01A2C8 E7 E1 01 00 		      	push 	r3
01A2CC E6 E5 01 00 		      	push 	[r11]
01A2D0 B9 C6 FC FF 		      	bsr  	DumpInsnBytes_
01A2D4 14 EF 21 00 		      	addui	sp,sp,#16
01A2D8 C5 4D E8 FF 		      	lhu  	r4,-12[bp]
01A2DC FC FF FF 00 		      	andi 	r4,r4,#4294967295
01A2E0 0C 42 FE FF 
01A2E4 02 32 22 78 		      	asri 	r3,r4,#17
01A2E8 E3 3D 90 FF 		      	sw   	r3,-56[bp]
01A2EC E6 ED 91 FF 		      	push 	-56[bp]
01A2F0 FC 01 00 00 		      	push 	#disassem_605
01A2F4 65 E0 5D C8 
01A2F8 B9 F9 FA FF 		      	bsr  	printf_
01A2FC 14 EF 21 00 		      	addui	sp,sp,#16
01A300 3A AB 00 00 		      	bra  	disassem_646
                	disassem_669:
01A304 C5 3D E8 FF 		      	lhu  	r3,-12[bp]
01A308 E7 E1 01 00 		      	push 	r3
01A30C E6 ED A1 FF 		      	push 	-48[bp]
01A310 E6 ED B1 FF 		      	push 	-40[bp]
01A314 FC 01 00 00 		      	push 	#disassem_606
01A318 65 E0 45 C8 
01A31C E6 E5 01 00 		      	push 	[r11]
01A320 B9 E0 FD FF 		      	bsr  	DispLS_
01A324 14 EF 51 00 		      	addui	sp,sp,#40
01A328 3A A6 00 00 		      	bra  	disassem_646
                	disassem_670:
01A32C C5 3D E8 FF 		      	lhu  	r3,-12[bp]
01A330 E7 E1 01 00 		      	push 	r3
01A334 E6 ED A1 FF 		      	push 	-48[bp]
01A338 E6 ED B1 FF 		      	push 	-40[bp]
01A33C FC 01 00 00 		      	push 	#disassem_607
01A340 65 E0 2D C8 
01A344 E6 E5 01 00 		      	push 	[r11]
01A348 B9 DB FD FF 		      	bsr  	DispLS_
01A34C 14 EF 51 00 		      	addui	sp,sp,#40
01A350 3A A1 00 00 		      	bra  	disassem_646
                	disassem_671:
01A354 C5 3D E8 FF 		      	lhu  	r3,-12[bp]
01A358 E7 E1 01 00 		      	push 	r3
01A35C E6 ED A1 FF 		      	push 	-48[bp]
01A360 E6 ED B1 FF 		      	push 	-40[bp]
01A364 FC 01 00 00 		      	push 	#disassem_608
01A368 65 E0 15 C8 
01A36C E6 E5 01 00 		      	push 	[r11]
01A370 B9 D6 FD FF 		      	bsr  	DispLS_
01A374 14 EF 51 00 		      	addui	sp,sp,#40
01A378 3A 9C 00 00 		      	bra  	disassem_646
                	disassem_672:
01A37C C5 3D E8 FF 		      	lhu  	r3,-12[bp]
01A380 E7 E1 01 00 		      	push 	r3
01A384 E6 ED A1 FF 		      	push 	-48[bp]
01A388 E6 ED B1 FF 		      	push 	-40[bp]
01A38C FC 01 00 00 		      	push 	#disassem_609
01A390 65 E0 FD C7 
01A394 E6 E5 01 00 		      	push 	[r11]
01A398 B9 D1 FD FF 		      	bsr  	DispLS_
01A39C 14 EF 51 00 		      	addui	sp,sp,#40
01A3A0 3A 97 00 00 		      	bra  	disassem_646
                	disassem_673:
01A3A4 C5 3D E8 FF 		      	lhu  	r3,-12[bp]
01A3A8 E7 E1 01 00 		      	push 	r3
01A3AC E6 ED A1 FF 		      	push 	-48[bp]
01A3B0 E6 ED B1 FF 		      	push 	-40[bp]
01A3B4 FC 01 00 00 		      	push 	#disassem_610
01A3B8 65 E0 E5 C7 
01A3BC E6 E5 01 00 		      	push 	[r11]
01A3C0 B9 CC FD FF 		      	bsr  	DispLS_
01A3C4 14 EF 51 00 		      	addui	sp,sp,#40
01A3C8 3A 92 00 00 		      	bra  	disassem_646
                	disassem_674:
01A3CC C5 3D E8 FF 		      	lhu  	r3,-12[bp]
01A3D0 E7 E1 01 00 		      	push 	r3
01A3D4 E6 ED A1 FF 		      	push 	-48[bp]
01A3D8 E6 ED B1 FF 		      	push 	-40[bp]
01A3DC FC 01 00 00 		      	push 	#disassem_611
01A3E0 65 E0 CD C7 
01A3E4 E6 E5 01 00 		      	push 	[r11]
01A3E8 B9 C7 FD FF 		      	bsr  	DispLS_
01A3EC 14 EF 51 00 		      	addui	sp,sp,#40
01A3F0 3A 8D 00 00 		      	bra  	disassem_646
                	disassem_675:
01A3F4 C5 3D E8 FF 		      	lhu  	r3,-12[bp]
01A3F8 E7 E1 01 00 		      	push 	r3
01A3FC E6 ED A1 FF 		      	push 	-48[bp]
01A400 E6 ED B1 FF 		      	push 	-40[bp]
01A404 FC 01 00 00 		      	push 	#disassem_612
01A408 65 E0 B5 C7 
01A40C E6 E5 01 00 		      	push 	[r11]
01A410 B9 C2 FD FF 		      	bsr  	DispLS_
01A414 14 EF 51 00 		      	addui	sp,sp,#40
01A418 3A 88 00 00 		      	bra  	disassem_646
                	disassem_676:
01A41C C5 3D E8 FF 		      	lhu  	r3,-12[bp]
01A420 E7 E1 01 00 		      	push 	r3
01A424 E6 ED A1 FF 		      	push 	-48[bp]
01A428 E6 ED B1 FF 		      	push 	-40[bp]
01A42C FC 01 00 00 		      	push 	#disassem_613
01A430 65 E0 9D C7 
01A434 E6 E5 01 00 		      	push 	[r11]
01A438 B9 BD FD FF 		      	bsr  	DispLS_
01A43C 14 EF 51 00 		      	addui	sp,sp,#40
01A440 3A 83 00 00 		      	bra  	disassem_646
                	disassem_677:
01A444 C5 3D E8 FF 		      	lhu  	r3,-12[bp]
01A448 E7 E1 01 00 		      	push 	r3
01A44C FC 01 00 00 		      	push 	#disassem_614
01A450 65 E0 85 C7 
01A454 E6 E5 01 00 		      	push 	[r11]
01A458 39 8A FD FF 		      	bsr  	DispIndexedAddr_
01A45C 14 EF 31 00 		      	addui	sp,sp,#24
01A460 3A 7F 00 00 		      	bra  	disassem_646
                	disassem_678:
01A464 C5 3D E8 FF 		      	lhu  	r3,-12[bp]
01A468 E7 E1 01 00 		      	push 	r3
01A46C FC 01 00 00 		      	push 	#disassem_615
01A470 65 E0 6D C7 
01A474 E6 E5 01 00 		      	push 	[r11]
01A478 39 86 FD FF 		      	bsr  	DispIndexedAddr_
01A47C 14 EF 31 00 		      	addui	sp,sp,#24
01A480 3A 7B 00 00 		      	bra  	disassem_646
                	disassem_679:
01A484 C5 3D E8 FF 		      	lhu  	r3,-12[bp]
01A488 E7 E1 01 00 		      	push 	r3
01A48C FC 01 00 00 		      	push 	#disassem_616
01A490 65 E0 55 C7 
01A494 E6 E5 01 00 		      	push 	[r11]
01A498 39 82 FD FF 		      	bsr  	DispIndexedAddr_
01A49C 14 EF 31 00 		      	addui	sp,sp,#24
01A4A0 3A 77 00 00 		      	bra  	disassem_646
                	disassem_680:
01A4A4 C5 3D E8 FF 		      	lhu  	r3,-12[bp]
01A4A8 E7 E1 01 00 		      	push 	r3
01A4AC FC 01 00 00 		      	push 	#disassem_617
01A4B0 65 E0 3D C7 
01A4B4 E6 E5 01 00 		      	push 	[r11]
01A4B8 39 7E FD FF 		      	bsr  	DispIndexedAddr_
01A4BC 14 EF 31 00 		      	addui	sp,sp,#24
01A4C0 3A 73 00 00 		      	bra  	disassem_646
                	disassem_681:
01A4C4 C5 3D E8 FF 		      	lhu  	r3,-12[bp]
01A4C8 E7 E1 01 00 		      	push 	r3
01A4CC FC 01 00 00 		      	push 	#disassem_618
01A4D0 65 E0 25 C7 
01A4D4 E6 E5 01 00 		      	push 	[r11]
01A4D8 39 7A FD FF 		      	bsr  	DispIndexedAddr_
01A4DC 14 EF 31 00 		      	addui	sp,sp,#24
01A4E0 3A 6F 00 00 		      	bra  	disassem_646
                	disassem_682:
01A4E4 C5 3D E8 FF 		      	lhu  	r3,-12[bp]
01A4E8 E7 E1 01 00 		      	push 	r3
01A4EC FC 01 00 00 		      	push 	#disassem_619
01A4F0 65 E0 0D C7 
01A4F4 E6 E5 01 00 		      	push 	[r11]
01A4F8 39 76 FD FF 		      	bsr  	DispIndexedAddr_
01A4FC 14 EF 31 00 		      	addui	sp,sp,#24
01A500 3A 6B 00 00 		      	bra  	disassem_646
                	disassem_683:
01A504 C5 3D E8 FF 		      	lhu  	r3,-12[bp]
01A508 E7 E1 01 00 		      	push 	r3
01A50C FC 01 00 00 		      	push 	#disassem_620
01A510 65 E0 F5 C6 
01A514 E6 E5 01 00 		      	push 	[r11]
01A518 39 72 FD FF 		      	bsr  	DispIndexedAddr_
01A51C 14 EF 31 00 		      	addui	sp,sp,#24
01A520 3A 67 00 00 		      	bra  	disassem_646
                	disassem_684:
01A524 C5 3D E8 FF 		      	lhu  	r3,-12[bp]
01A528 E7 E1 01 00 		      	push 	r3
01A52C FC 01 00 00 		      	push 	#disassem_621
01A530 65 E0 DD C6 
01A534 E6 E5 01 00 		      	push 	[r11]
01A538 39 6E FD FF 		      	bsr  	DispIndexedAddr_
01A53C 14 EF 31 00 		      	addui	sp,sp,#24
01A540 3A 63 00 00 		      	bra  	disassem_646
                	disassem_685:
01A544 C5 3D E8 FF 		      	lhu  	r3,-12[bp]
01A548 E7 E1 01 00 		      	push 	r3
01A54C E6 E5 01 00 		      	push 	[r11]
01A550 B9 76 FC FF 		      	bsr  	DumpInsnBytes_
01A554 14 EF 21 00 		      	addui	sp,sp,#16
01A558 C5 3D E8 FF 		      	lhu  	r3,-12[bp]
01A55C E7 E1 01 00 		      	push 	r3
01A560 E6 ED A1 FF 		      	push 	-48[bp]
01A564 E6 ED B1 FF 		      	push 	-40[bp]
01A568 39 15 FD FF 		      	bsr  	DispInc_
01A56C 14 EF 31 00 		      	addui	sp,sp,#24
01A570 3A 5D 00 00 		      	bra  	disassem_646
                	disassem_686:
01A574 C5 3D E8 FF 		      	lhu  	r3,-12[bp]
01A578 E7 E1 01 00 		      	push 	r3
01A57C E6 ED A1 FF 		      	push 	-48[bp]
01A580 E6 ED B1 FF 		      	push 	-40[bp]
01A584 FC 01 00 00 		      	push 	#disassem_622
01A588 65 E0 C5 C6 
01A58C E6 E5 01 00 		      	push 	[r11]
01A590 B9 92 FD FF 		      	bsr  	DispLS_
01A594 14 EF 51 00 		      	addui	sp,sp,#40
01A598 3A 58 00 00 		      	bra  	disassem_646
                	disassem_687:
01A59C C5 3D E8 FF 		      	lhu  	r3,-12[bp]
01A5A0 E7 E1 01 00 		      	push 	r3
01A5A4 E6 ED A1 FF 		      	push 	-48[bp]
01A5A8 E6 ED B1 FF 		      	push 	-40[bp]
01A5AC FC 01 00 00 		      	push 	#disassem_623
01A5B0 65 E0 AD C6 
01A5B4 E6 E5 01 00 		      	push 	[r11]
01A5B8 B9 8D FD FF 		      	bsr  	DispLS_
01A5BC 14 EF 51 00 		      	addui	sp,sp,#40
01A5C0 3A 53 00 00 		      	bra  	disassem_646
                	disassem_688:
01A5C4 C5 3D E8 FF 		      	lhu  	r3,-12[bp]
01A5C8 E7 E1 01 00 		      	push 	r3
01A5CC E6 ED A1 FF 		      	push 	-48[bp]
01A5D0 E6 ED B1 FF 		      	push 	-40[bp]
01A5D4 FC 01 00 00 		      	push 	#disassem_624
01A5D8 65 E0 95 C6 
01A5DC E6 E5 01 00 		      	push 	[r11]
01A5E0 B9 88 FD FF 		      	bsr  	DispLS_
01A5E4 14 EF 51 00 		      	addui	sp,sp,#40
01A5E8 3A 4E 00 00 		      	bra  	disassem_646
                	disassem_689:
01A5EC C5 3D E8 FF 		      	lhu  	r3,-12[bp]
01A5F0 E7 E1 01 00 		      	push 	r3
01A5F4 E6 ED A1 FF 		      	push 	-48[bp]
01A5F8 E6 ED B1 FF 		      	push 	-40[bp]
01A5FC FC 01 00 00 		      	push 	#disassem_625
01A600 65 E0 7D C6 
01A604 E6 E5 01 00 		      	push 	[r11]
01A608 B9 83 FD FF 		      	bsr  	DispLS_
01A60C 14 EF 51 00 		      	addui	sp,sp,#40
01A610 3A 49 00 00 		      	bra  	disassem_646
                	disassem_690:
01A614 C5 3D E8 FF 		      	lhu  	r3,-12[bp]
01A618 E7 E1 01 00 		      	push 	r3
01A61C FC 01 00 00 		      	push 	#disassem_626
01A620 65 E0 65 C6 
01A624 E6 E5 01 00 		      	push 	[r11]
01A628 39 50 FD FF 		      	bsr  	DispIndexedAddr_
01A62C 14 EF 31 00 		      	addui	sp,sp,#24
01A630 3A 45 00 00 		      	bra  	disassem_646
                	disassem_691:
01A634 C5 3D E8 FF 		      	lhu  	r3,-12[bp]
01A638 E7 E1 01 00 		      	push 	r3
01A63C FC 01 00 00 		      	push 	#disassem_627
01A640 65 E0 4D C6 
01A644 E6 E5 01 00 		      	push 	[r11]
01A648 39 4C FD FF 		      	bsr  	DispIndexedAddr_
01A64C 14 EF 31 00 		      	addui	sp,sp,#24
01A650 3A 41 00 00 		      	bra  	disassem_646
                	disassem_692:
01A654 C5 3D E8 FF 		      	lhu  	r3,-12[bp]
01A658 E7 E1 01 00 		      	push 	r3
01A65C FC 01 00 00 		      	push 	#disassem_628
01A660 65 E0 35 C6 
01A664 E6 E5 01 00 		      	push 	[r11]
01A668 39 48 FD FF 		      	bsr  	DispIndexedAddr_
01A66C 14 EF 31 00 		      	addui	sp,sp,#24
01A670 3A 3D 00 00 		      	bra  	disassem_646
                	disassem_693:
01A674 C5 3D E8 FF 		      	lhu  	r3,-12[bp]
01A678 E7 E1 01 00 		      	push 	r3
01A67C FC 01 00 00 		      	push 	#disassem_629
01A680 65 E0 1D C6 
01A684 E6 E5 01 00 		      	push 	[r11]
01A688 39 44 FD FF 		      	bsr  	DispIndexedAddr_
01A68C 14 EF 31 00 		      	addui	sp,sp,#24
01A690 3A 39 00 00 		      	bra  	disassem_646
                	disassem_694:
01A694 C5 3D E8 FF 		      	lhu  	r3,-12[bp]
01A698 E7 E1 01 00 		      	push 	r3
01A69C E6 ED A1 FF 		      	push 	-48[bp]
01A6A0 E6 ED B1 FF 		      	push 	-40[bp]
01A6A4 FC 01 00 00 		      	push 	#disassem_630
01A6A8 65 E0 05 C6 
01A6AC E6 E5 01 00 		      	push 	[r11]
01A6B0 B9 6E FD FF 		      	bsr  	DispLS_
01A6B4 14 EF 51 00 		      	addui	sp,sp,#40
01A6B8 3A 34 00 00 		      	bra  	disassem_646
                	disassem_695:
01A6BC C5 3D E8 FF 		      	lhu  	r3,-12[bp]
01A6C0 E7 E1 01 00 		      	push 	r3
01A6C4 E6 ED A1 FF 		      	push 	-48[bp]
01A6C8 E6 ED B1 FF 		      	push 	-40[bp]
01A6CC FC 01 00 00 		      	push 	#disassem_631
01A6D0 65 E0 ED C5 
01A6D4 E6 E5 01 00 		      	push 	[r11]
01A6D8 B9 69 FD FF 		      	bsr  	DispLS_
01A6DC 14 EF 51 00 		      	addui	sp,sp,#40
01A6E0 3A 2F 00 00 		      	bra  	disassem_646
                	disassem_696:
01A6E4 C5 3D E8 FF 		      	lhu  	r3,-12[bp]
01A6E8 E7 E1 01 00 		      	push 	r3
01A6EC E6 E5 01 00 		      	push 	[r11]
01A6F0 B9 42 FC FF 		      	bsr  	DumpInsnBytes_
01A6F4 14 EF 21 00 		      	addui	sp,sp,#16
01A6F8 FC 01 00 00 		      	push 	#disassem_632
01A6FC 65 E0 D1 C5 
01A700 B9 78 FA FF 		      	bsr  	printf_
01A704 14 EF 11 00 		      	addui	sp,sp,#8
01A708 C5 3D E8 FF 		      	lhu  	r3,-12[bp]
01A70C E7 E1 01 00 		      	push 	r3
01A710 B9 70 FC FF 		      	bsr  	DispRa_
01A714 14 EF 11 00 		      	addui	sp,sp,#8
01A718 FC 01 00 00 		      	push 	#disassem_633
01A71C 65 E0 C5 C5 
01A720 B9 74 FA FF 		      	bsr  	printf_
01A724 14 EF 11 00 		      	addui	sp,sp,#8
01A728 3A 26 00 00 		      	bra  	disassem_646
                	disassem_697:
01A72C C5 3D E8 FF 		      	lhu  	r3,-12[bp]
01A730 E7 E1 01 00 		      	push 	r3
01A734 E6 E5 01 00 		      	push 	[r11]
01A738 B9 39 FC FF 		      	bsr  	DumpInsnBytes_
01A73C 14 EF 21 00 		      	addui	sp,sp,#16
01A740 FC 01 00 00 		      	push 	#disassem_634
01A744 65 E0 A9 C5 
01A748 B9 6F FA FF 		      	bsr  	printf_
01A74C 14 EF 11 00 		      	addui	sp,sp,#8
01A750 C5 3D E8 FF 		      	lhu  	r3,-12[bp]
01A754 E7 E1 01 00 		      	push 	r3
01A758 B9 46 FC FF 		      	bsr  	DispRst_
01A75C 14 EF 11 00 		      	addui	sp,sp,#8
01A760 FC 01 00 00 		      	push 	#disassem_635
01A764 65 E0 9D C5 
01A768 B9 6B FA FF 		      	bsr  	printf_
01A76C 14 EF 11 00 		      	addui	sp,sp,#8
01A770 3A 1D 00 00 		      	bra  	disassem_646
                	disassem_698:
01A774 C5 3D E8 FF 		      	lhu  	r3,-12[bp]
01A778 E7 E1 01 00 		      	push 	r3
01A77C E6 E5 01 00 		      	push 	[r11]
01A780 B9 30 FC FF 		      	bsr  	DumpInsnBytes_
01A784 14 EF 21 00 		      	addui	sp,sp,#16
01A788 FC 01 00 00 		      	push 	#disassem_636
01A78C 65 E0 85 C5 
01A790 B9 66 FA FF 		      	bsr  	printf_
01A794 14 EF 11 00 		      	addui	sp,sp,#8
01A798 3A 18 00 00 		      	bra  	disassem_646
                	disassem_699:
01A79C C5 3D E8 FF 		      	lhu  	r3,-12[bp]
01A7A0 E7 E1 01 00 		      	push 	r3
01A7A4 E6 E5 01 00 		      	push 	[r11]
01A7A8 B9 2B FC FF 		      	bsr  	DumpInsnBytes_
01A7AC 14 EF 21 00 		      	addui	sp,sp,#16
01A7B0 FC 01 00 00 		      	push 	#disassem_637
01A7B4 65 E0 69 C5 
01A7B8 B9 61 FA FF 		      	bsr  	printf_
01A7BC 14 EF 11 00 		      	addui	sp,sp,#8
01A7C0 C5 3D E8 FF 		      	lhu  	r3,-12[bp]
01A7C4 E7 E1 01 00 		      	push 	r3
01A7C8 B9 43 FC FF 		      	bsr  	DispRstc_
01A7CC 14 EF 11 00 		      	addui	sp,sp,#8
01A7D0 C6 3D B0 FF 		      	lw   	r3,-40[bp]
01A7D4 BD 01 1C 00 		      	beq  	r3,disassem_742
01A7D8 C6 5D A0 FF 		      	lw   	r5,-48[bp]
01A7DC 82 42 1E 70 		      	asli 	r4,r5,#15
01A7E0 C5 6D E8 FF 		      	lhu  	r6,-12[bp]
01A7E4 FC FF FF 00 		      	andi 	r6,r6,#4294967295
01A7E8 0C 63 FE FF 
01A7EC 02 53 22 78 		      	asri 	r5,r6,#17
01A7F0 02 32 0A 1A 		      	or   	r3,r4,r5
01A7F4 E7 E1 01 00 		      	push 	r3
01A7F8 FC 01 00 00 		      	push 	#disassem_638
01A7FC 65 E0 4D C5 
01A800 B9 58 FA FF 		      	bsr  	printf_
01A804 14 EF 21 00 		      	addui	sp,sp,#16
01A808 BA 04 00 00 		      	bra  	disassem_743
                	disassem_742:
01A80C C4 4D 68 FF 		      	lh   	r4,-76[bp]
01A810 02 42 00 24 		      	sxh  	r4,r4
01A814 02 32 22 78 		      	asri 	r3,r4,#17
01A818 E7 E1 01 00 		      	push 	r3
01A81C FC 01 00 00 		      	push 	#disassem_639
01A820 65 E0 31 C5 
01A824 39 54 FA FF 		      	bsr  	printf_
01A828 14 EF 21 00 		      	addui	sp,sp,#16
                	disassem_743:
01A82C BA 05 00 00 		      	bra  	disassem_646
                	disassem_700:
01A830 C5 3D E8 FF 		      	lhu  	r3,-12[bp]
01A834 E7 E1 01 00 		      	push 	r3
01A838 E6 E5 01 00 		      	push 	[r11]
01A83C 39 19 FC FF 		      	bsr  	DumpInsnBytes_
01A840 14 EF 21 00 		      	addui	sp,sp,#16
01A844 FC 01 00 00 		      	push 	#disassem_640
01A848 65 E0 11 C5 
01A84C 39 4F FA FF 		      	bsr  	printf_
01A850 14 EF 11 00 		      	addui	sp,sp,#8
01A854 BA 00 00 00 		      	bra  	disassem_646
                	disassem_646:
01A858 C6 45 00 00 		      	lw   	r4,[r11]
01A85C 14 32 08 00 		      	addu 	r3,r4,#4
01A860 E3 35 00 00 		      	sw   	r3,[r11]
01A864 C6 3D 40 FF 		      	lw   	r3,-96[bp]
01A868 BD 01 06 00 		      	beq  	r3,disassem_744
01A86C 39 01 FC FF 		      	bsr  	reverse_video_
01A870 E3 0D 40 FF 		      	sw   	r0,-96[bp]
                	disassem_744:
01A874 C6 3D D0 FF 		      	lw   	r3,-24[bp]
01A878 86 41 F8 00 		      	cmp  	r4,r3,#124
01A87C 3D 02 5A F7 		      	beq  	r4,disassem_642
                	disassem_643:
                	disassem_746:
01A880 57 CF 10 00 		      	pop  	r12
01A884 57 BF 10 00 		      	pop  	r11
01A888 82 ED 01 1A 		      	mov  	sp,bp
01A88C 57 BF 11 00 		      	pop  	bp
01A890 57 CF 11 00 		      	pop  	xlr
01A894 57 FF 11 00 		      	pop  	lr
01A898 37 FF 01 00 		      	rtl  	#0
                	disassem_641:
01A89C C6 FD 11 00 		      	lw   	lr,8[bp]
01A8A0 E3 FD 21 00 		      	sw   	lr,16[bp]
01A8A4 BA FB FF FF 		      	bra  	disassem_746
                	endpublic
                	
                	public code disassem20_:
01A8A8 E7 EF 01 00 		      	push 	lr
01A8AC 67 EE 01 00 		      	push 	xlr
01A8B0 E7 ED 01 00 		      	push 	bp
01A8B4 FC 01 00 00 		      	ldi  	xlr,#disassem_748
01A8B8 0A C0 21 52 
01A8BC 02 BF 01 1A 		      	mov  	bp,sp
01A8C0 15 EF 21 00 		      	subui	sp,sp,#16
01A8C4 FC 01 00 00 		      	push 	#disassem_747
01A8C8 65 E0 E1 C4 
01A8CC 39 3F FA FF 		      	bsr  	printf_
01A8D0 14 EF 11 00 		      	addui	sp,sp,#8
01A8D4 E3 0D F0 FF 		      	sw   	r0,-8[bp]
                	disassem_749:
01A8D8 C6 3D F0 FF 		      	lw   	r3,-8[bp]
01A8DC 86 41 20 00 		      	cmp  	r4,r3,#16
01A8E0 3D 32 0E 00 		      	bge  	r4,disassem_750
01A8E4 E6 ED 41 00 		      	push 	32[bp]
01A8E8 E5 ED 31 00 		      	pea  	24[bp]
01A8EC B9 C0 FD FF 		      	bsr  	disassem_
01A8F0 14 EF 21 00 		      	addui	sp,sp,#16
                	disassem_751:
01A8F4 E4 1D F0 FF 		      	inc  	-8[bp],#1
01A8F8 3A FC FF FF 		      	bra  	disassem_749
                	disassem_750:
                	disassem_752:
01A8FC 82 ED 01 1A 		      	mov  	sp,bp
01A900 57 BF 11 00 		      	pop  	bp
01A904 57 CF 11 00 		      	pop  	xlr
01A908 57 FF 11 00 		      	pop  	lr
01A90C 37 FF 01 00 		      	rtl  	#0
                	disassem_748:
01A910 C6 FD 11 00 		      	lw   	lr,8[bp]
01A914 E3 FD 21 00 		      	sw   	lr,16[bp]
01A918 BA FC FF FF 		      	bra  	disassem_752
                	endpublic
                	
                		code
01A91C 00 00 00 00 		align	1
                	
                	dbg_DisplayHelp_:
01A920 E7 EF 01 00 		      	push 	lr
01A924 67 EE 01 00 		      	push 	xlr
01A928 E7 ED 01 00 		      	push 	bp
01A92C FC 01 00 00 		      	ldi  	xlr,#debugger_16
01A930 0A C0 79 54 
01A934 02 BF 01 1A 		      	mov  	bp,sp
01A938 FC 01 00 00 		      	push 	#debugger_1
01A93C 65 E0 C1 E4 
01A940 B9 30 FA FF 		      	bsr  	printf_
01A944 14 EF 11 00 		      	addui	sp,sp,#8
01A948 FC 01 00 00 		      	push 	#debugger_2
01A94C 65 E0 99 E4 
01A950 B9 2E FA FF 		      	bsr  	printf_
01A954 14 EF 11 00 		      	addui	sp,sp,#8
01A958 FC 01 00 00 		      	push 	#debugger_3
01A95C 65 E0 BD E3 
01A960 B9 2C FA FF 		      	bsr  	printf_
01A964 14 EF 11 00 		      	addui	sp,sp,#8
01A968 FC 01 00 00 		      	push 	#debugger_4
01A96C 65 E0 6D E3 
01A970 B9 2A FA FF 		      	bsr  	printf_
01A974 14 EF 11 00 		      	addui	sp,sp,#8
01A978 FC 01 00 00 		      	push 	#debugger_5
01A97C 65 E0 A9 E2 
01A980 B9 28 FA FF 		      	bsr  	printf_
01A984 14 EF 11 00 		      	addui	sp,sp,#8
01A988 FC 01 00 00 		      	push 	#debugger_6
01A98C 65 E0 C9 E1 
01A990 B9 26 FA FF 		      	bsr  	printf_
01A994 14 EF 11 00 		      	addui	sp,sp,#8
01A998 FC 01 00 00 		      	push 	#debugger_7
01A99C 65 E0 E9 E0 
01A9A0 B9 24 FA FF 		      	bsr  	printf_
01A9A4 14 EF 11 00 		      	addui	sp,sp,#8
01A9A8 FC 01 00 00 		      	push 	#debugger_8
01A9AC 65 E0 15 E0 
01A9B0 B9 22 FA FF 		      	bsr  	printf_
01A9B4 14 EF 11 00 		      	addui	sp,sp,#8
01A9B8 FC 01 00 00 		      	push 	#debugger_9
01A9BC 65 E0 3D DF 
01A9C0 B9 20 FA FF 		      	bsr  	printf_
01A9C4 14 EF 11 00 		      	addui	sp,sp,#8
01A9C8 FC 01 00 00 		      	push 	#debugger_10
01A9CC 65 E0 99 DE 
01A9D0 B9 1E FA FF 		      	bsr  	printf_
01A9D4 14 EF 11 00 		      	addui	sp,sp,#8
01A9D8 FC 01 00 00 		      	push 	#debugger_11
01A9DC 65 E0 B9 DD 
01A9E0 B9 1C FA FF 		      	bsr  	printf_
01A9E4 14 EF 11 00 		      	addui	sp,sp,#8
01A9E8 FC 01 00 00 		      	push 	#debugger_12
01A9EC 65 E0 DD DC 
01A9F0 B9 1A FA FF 		      	bsr  	printf_
01A9F4 14 EF 11 00 		      	addui	sp,sp,#8
01A9F8 FC 01 00 00 		      	push 	#debugger_13
01A9FC 65 E0 2D DC 
01AA00 B9 18 FA FF 		      	bsr  	printf_
01AA04 14 EF 11 00 		      	addui	sp,sp,#8
01AA08 FC 01 00 00 		      	push 	#debugger_14
01AA0C 65 E0 DD DB 
01AA10 B9 16 FA FF 		      	bsr  	printf_
01AA14 14 EF 11 00 		      	addui	sp,sp,#8
01AA18 FC 01 00 00 		      	push 	#debugger_15
01AA1C 65 E0 C1 DB 
01AA20 B9 14 FA FF 		      	bsr  	printf_
01AA24 14 EF 11 00 		      	addui	sp,sp,#8
                	debugger_17:
01AA28 82 ED 01 1A 		      	mov  	sp,bp
01AA2C 57 BF 11 00 		      	pop  	bp
01AA30 57 CF 11 00 		      	pop  	xlr
01AA34 57 FF 11 00 		      	pop  	lr
01AA38 37 FF 01 00 		      	rtl  	#0
                	debugger_16:
01AA3C C6 FD 11 00 		      	lw   	lr,8[bp]
01AA40 E3 FD 21 00 		      	sw   	lr,16[bp]
01AA44 BA FC FF FF 		      	bra  	debugger_17
                	public code dbg_GetCursorRow_:
01AA48 15 EF 21 00 		      	subui	sp,sp,#16
01AA4C E7 ED 01 00 		      	push 	bp
01AA50 02 BF 01 1A 		      	mov  	bp,sp
01AA54 0A 60 06 00 		      	     	        ldi    r6,#3   ; Get cursor position
01AA58 38 0F 34 03 	        sys    #410
01AA5C 82 10 10 72 	        lsr    r1,r1,#8
                	    
                	debugger_19:
01AA60 82 ED 01 1A 		      	mov  	sp,bp
01AA64 57 BF 11 00 		      	pop  	bp
01AA68 37 FF 21 00 		      	rtl  	#16
                	endpublic
                	
                	public code dbg_GetCursorCol_:
01AA6C 15 EF 21 00 		      	subui	sp,sp,#16
01AA70 E7 ED 01 00 		      	push 	bp
01AA74 02 BF 01 1A 		      	mov  	bp,sp
01AA78 0A 60 06 00 		      	     	        ldi    r6,#3
01AA7C 38 0F 34 03 	        sys    #410
01AA80 8C 10 FE 01 	        and    r1,r1,#$FF
                	    
                	debugger_21:
01AA84 82 ED 01 1A 		      	mov  	sp,bp
01AA88 57 BF 11 00 		      	pop  	bp
01AA8C 37 FF 21 00 		      	rtl  	#16
                	endpublic
                	
                	public code dbg_HomeCursor_:
01AA90 15 EF 21 00 		      	subui	sp,sp,#16
01AA94 E7 ED 01 00 		      	push 	bp
01AA98 02 BF 01 1A 		      	mov  	bp,sp
01AA9C 0A 60 04 00 		      	     	         ldi   r6,#2
01AAA0 0A 10 00 00 	         ldi   r1,#0
01AAA4 0A 20 00 00 	         ldi   r2,#0
01AAA8 38 0F 34 03 	         sys   #410
                	     
                	debugger_23:
01AAAC 82 ED 01 1A 		      	mov  	sp,bp
01AAB0 57 BF 11 00 		      	pop  	bp
01AAB4 37 FF 21 00 		      	rtl  	#16
                	endpublic
                	
                	public code dbg_GetDBAD_:
01AAB8 15 EF 21 00 		      	subui	sp,sp,#16
01AABC E7 ED 01 00 		      	push 	bp
01AAC0 02 BF 01 1A 		      	mov  	bp,sp
01AAC4 C6 3D 30 00 		      	lw   	r3,24[bp]
01AAC8 86 41 00 00 		      	cmp  	r4,r3,#0
01AACC 3D 02 10 00 		      	beq  	r4,debugger_26
01AAD0 86 41 02 00 		      	cmp  	r4,r3,#1
01AAD4 3D 02 10 00 		      	beq  	r4,debugger_27
01AAD8 86 41 04 00 		      	cmp  	r4,r3,#2
01AADC 3D 02 10 00 		      	beq  	r4,debugger_28
01AAE0 86 41 06 00 		      	cmp  	r4,r3,#3
01AAE4 3D 02 10 00 		      	beq  	r4,debugger_29
01AAE8 3A 06 00 00 		      	bra  	debugger_25
                	debugger_26:
01AAEC 02 10 64 3E 		      	     	mfspr  r1,dbad0  
01AAF0 3A 05 00 00 		      	bra  	debugger_25
                	debugger_27:
01AAF4 02 10 66 3E 		      	     	mfspr  r1,dbad1  
01AAF8 3A 04 00 00 		      	bra  	debugger_25
                	debugger_28:
01AAFC 02 10 68 3E 		      	     	mfspr  r1,dbad2  
01AB00 3A 03 00 00 		      	bra  	debugger_25
                	debugger_29:
01AB04 02 10 6A 3E 		      	     	mfspr  r1,dbad3  
01AB08 3A 02 00 00 		      	bra  	debugger_25
                	debugger_30:
01AB0C 82 ED 01 1A 		      	mov  	sp,bp
01AB10 57 BF 11 00 		      	pop  	bp
01AB14 37 FF 31 00 		      	rtl  	#24
                	debugger_25:
01AB18 BA FE FF FF 		      	bra  	debugger_30
                	endpublic
                	
                	public code dbg_SetDBAD_:
01AB1C 15 EF 21 00 		      	subui	sp,sp,#16
01AB20 E7 ED 01 00 		      	push 	bp
01AB24 02 BF 01 1A 		      	mov  	bp,sp
01AB28 C6 3D 30 00 		      	lw   	r3,24[bp]
01AB2C 86 41 00 00 		      	cmp  	r4,r3,#0
01AB30 3D 02 10 00 		      	beq  	r4,debugger_33
01AB34 86 41 02 00 		      	cmp  	r4,r3,#1
01AB38 3D 02 12 00 		      	beq  	r4,debugger_34
01AB3C 86 41 04 00 		      	cmp  	r4,r3,#2
01AB40 3D 02 14 00 		      	beq  	r4,debugger_35
01AB44 86 41 06 00 		      	cmp  	r4,r3,#3
01AB48 3D 02 16 00 		      	beq  	r4,debugger_36
01AB4C BA 06 00 00 		      	bra  	debugger_32
                	debugger_33:
01AB50 C6 1D 40 00 		      	     	          lw    r1,32[bp]
01AB54 82 00 64 3C 	          mtspr dbad0,r1
                	          
01AB58 3A 05 00 00 		      	bra  	debugger_32
                	debugger_34:
01AB5C C6 1D 40 00 		      	     	          lw    r1,32[bp]
01AB60 82 00 66 3C 	          mtspr dbad1,r1
                	          
01AB64 BA 03 00 00 		      	bra  	debugger_32
                	debugger_35:
01AB68 C6 1D 40 00 		      	     	          lw    r1,32[bp]
01AB6C 82 00 68 3C 	          mtspr dbad2,r1
                	          
01AB70 3A 02 00 00 		      	bra  	debugger_32
                	debugger_36:
01AB74 C6 1D 40 00 		      	     	          lw    r1,32[bp]
01AB78 82 00 6A 3C 	          mtspr dbad3,r1
                	          
01AB7C BA 00 00 00 		      	bra  	debugger_32
                	debugger_32:
                	debugger_37:
01AB80 82 ED 01 1A 		      	mov  	sp,bp
01AB84 57 BF 11 00 		      	pop  	bp
01AB88 37 FF 41 00 		      	rtl  	#32
                	endpublic
                	
                	public code dbg_arm_:
01AB8C 15 EF 21 00 		      	subui	sp,sp,#16
01AB90 E7 ED 01 00 		      	push 	bp
01AB94 02 BF 01 1A 		      	mov  	bp,sp
01AB98 C6 1D 30 00 		      	     	         lw    r1,24[bp]
01AB9C 82 00 6C 3C 	         mtspr dbctrl,r1
                	     
                	debugger_39:
01ABA0 82 ED 01 1A 		      	mov  	sp,bp
01ABA4 57 BF 11 00 		      	pop  	bp
01ABA8 37 FF 31 00 		      	rtl  	#24
                	endpublic
                	
                	public code CvtScreenToAscii_:
01ABAC 15 EF 21 00 		      	subui	sp,sp,#16
01ABB0 E7 ED 01 00 		      	push 	bp
01ABB4 02 BF 01 1A 		      	mov  	bp,sp
01ABB8 C6 1D 30 00 		      	     	         lw    r1,24[bp]
01ABBC 0A 60 42 00 	         ldi   r6,#$21         ; screen to ascii
01ABC0 38 0F 34 03 	         sys   #410
                	     
                	debugger_41:
01ABC4 82 ED 01 1A 		      	mov  	sp,bp
01ABC8 57 BF 11 00 		      	pop  	bp
01ABCC 37 FF 31 00 		      	rtl  	#24
                	endpublic
                	
                	public code dbg_getchar_:
01ABD0 15 EF 21 00 		      	subui	sp,sp,#16
01ABD4 E7 ED 01 00 		      	push 	bp
01ABD8 02 BF 01 1A 		      	mov  	bp,sp
01ABDC 15 EF 11 00 		      	subui	sp,sp,#8
01ABE0 E7 E5 01 00 		      	push 	r11
01ABE4 7C 1E 01 00 		      	ldi  	r11,#linendx_
01ABE8 0A B0 40 88 
01ABEC 0A 30 FE FF 		      	ldi  	r3,#-1
01ABF0 E1 3D FC FF 		      	sc   	r3,-2[bp]
01ABF4 C6 35 00 00 		      	lw   	r3,[r11]
01ABF8 86 41 A8 00 		      	cmp  	r4,r3,#84
01ABFC 3D 32 0E 00 		      	bge  	r4,debugger_43
01AC00 C6 45 00 00 		      	lw   	r4,[r11]
01AC04 02 32 02 70 		      	asli 	r3,r4,#1
01AC08 7C 1E 01 00 		      	lcu  	r4,linebuf_[r3]
01AC0C C3 41 50 88 
01AC10 E1 4D FC FF 		      	sc   	r4,-2[bp]
01AC14 E4 15 00 00 		      	inc  	[r11],#1
                	debugger_43:
01AC18 C3 3D FC FF 		      	lcu  	r3,-2[bp]
01AC1C 82 11 00 1A 		      	mov  	r1,r3
                	debugger_45:
01AC20 57 BF 10 00 		      	pop  	r11
01AC24 82 ED 01 1A 		      	mov  	sp,bp
01AC28 57 BF 11 00 		      	pop  	bp
01AC2C 37 FF 21 00 		      	rtl  	#16
                	endpublic
                	
                	public code ignore_blanks_:
01AC30 15 EF 21 00 		      	subui	sp,sp,#16
01AC34 E7 ED 01 00 		      	push 	bp
01AC38 02 BF 01 1A 		      	mov  	bp,sp
01AC3C 15 EF 11 00 		      	subui	sp,sp,#8
                	debugger_47:
01AC40 7C 1E 01 00 		      	lw   	r4,linendx_
01AC44 46 40 40 88 
01AC48 02 32 02 70 		      	asli 	r3,r4,#1
01AC4C 7C 1E 01 00 		      	lcu  	r4,linebuf_[r3]
01AC50 C3 41 50 88 
01AC54 E1 4D FC FF 		      	sc   	r4,-2[bp]
01AC58 7C 1E 01 00 		      	inc  	linendx_,#1
01AC5C 64 10 40 88 
01AC60 C3 3D FC FF 		      	lcu  	r3,-2[bp]
01AC64 86 41 40 00 		      	cmp  	r4,r3,#32
01AC68 3D 02 EC FF 		      	beq  	r4,debugger_47
                	debugger_48:
                	debugger_49:
01AC6C 82 ED 01 1A 		      	mov  	sp,bp
01AC70 57 BF 11 00 		      	pop  	bp
01AC74 37 FF 21 00 		      	rtl  	#16
                	endpublic
                	
                	public code dbg_ungetch_:
01AC78 15 EF 21 00 		      	subui	sp,sp,#16
01AC7C E7 ED 01 00 		      	push 	bp
01AC80 02 BF 01 1A 		      	mov  	bp,sp
01AC84 7C 1E 01 00 		      	lw   	r3,linendx_
01AC88 46 30 40 88 
01AC8C BD 51 06 00 		      	ble  	r3,debugger_51
01AC90 7C 1E 01 00 		      	dec  	linendx_,#1
01AC94 64 F0 41 88 
                	debugger_51:
                	debugger_53:
01AC98 82 ED 01 1A 		      	mov  	sp,bp
01AC9C 57 BF 11 00 		      	pop  	bp
01ACA0 37 FF 21 00 		      	rtl  	#16
                	endpublic
                	
                	public code dbg_nextNonSpace_:
01ACA4 E7 EF 01 00 		      	push 	lr
01ACA8 67 EE 01 00 		      	push 	xlr
01ACAC E7 ED 01 00 		      	push 	bp
01ACB0 FC 01 00 00 		      	ldi  	xlr,#debugger_54
01ACB4 0A C0 41 5A 
01ACB8 02 BF 01 1A 		      	mov  	bp,sp
01ACBC 15 EF 11 00 		      	subui	sp,sp,#8
                	debugger_55:
01ACC0 7C 1E 01 00 		      	lw   	r3,linendx_
01ACC4 46 30 40 88 
01ACC8 86 41 A8 00 		      	cmp  	r4,r3,#84
01ACCC 3D 32 26 00 		      	bge  	r4,debugger_56
01ACD0 39 E0 FF FF 		      	bsr  	dbg_getchar_
01ACD4 82 30 00 1A 		      	mov  	r3,r1
01ACD8 82 31 00 22 		      	sxc  	r3,r3
01ACDC E1 3D FC FF 		      	sc   	r3,-2[bp]
01ACE0 C3 3D FC FF 		      	lcu  	r3,-2[bp]
01ACE4 86 41 40 00 		      	cmp  	r4,r3,#32
01ACE8 3D 12 08 00 		      	bne  	r4,debugger_59
01ACEC C3 3D FC FF 		      	lcu  	r3,-2[bp]
01ACF0 86 41 FE FF 		      	cmp  	r4,r3,#-1
01ACF4 3D 12 10 00 		      	bne  	r4,debugger_57
                	debugger_59:
01ACF8 C3 3D FC FF 		      	lcu  	r3,-2[bp]
01ACFC 82 11 00 1A 		      	mov  	r1,r3
                	debugger_60:
01AD00 82 ED 01 1A 		      	mov  	sp,bp
01AD04 57 BF 11 00 		      	pop  	bp
01AD08 57 CF 11 00 		      	pop  	xlr
01AD0C 57 FF 11 00 		      	pop  	lr
01AD10 37 FF 01 00 		      	rtl  	#0
                	debugger_57:
01AD14 BA F5 FF FF 		      	bra  	debugger_55
                	debugger_56:
01AD18 0A 10 FE FF 		      	ldi  	r1,#-1
01AD1C BA FC FF FF 		      	bra  	debugger_60
                	debugger_54:
01AD20 C6 FD 11 00 		      	lw   	lr,8[bp]
01AD24 E3 FD 21 00 		      	sw   	lr,16[bp]
01AD28 3A FB FF FF 		      	bra  	debugger_60
                	endpublic
                	
                	public code dbg_nextSpace_:
01AD2C E7 EF 01 00 		      	push 	lr
01AD30 67 EE 01 00 		      	push 	xlr
01AD34 E7 ED 01 00 		      	push 	bp
01AD38 FC 01 00 00 		      	ldi  	xlr,#debugger_61
01AD3C 0A C0 21 5B 
01AD40 02 BF 01 1A 		      	mov  	bp,sp
01AD44 15 EF 11 00 		      	subui	sp,sp,#8
                	debugger_62:
01AD48 39 D1 FF FF 		      	bsr  	dbg_getchar_
01AD4C 82 30 00 1A 		      	mov  	r3,r1
01AD50 82 31 00 22 		      	sxc  	r3,r3
01AD54 E1 3D FC FF 		      	sc   	r3,-2[bp]
01AD58 C3 3D FC FF 		      	lcu  	r3,-2[bp]
01AD5C 86 41 FE FF 		      	cmp  	r4,r3,#-1
01AD60 3D 12 04 00 		      	bne  	r4,debugger_64
01AD64 3A 02 00 00 		      	bra  	debugger_63
                	debugger_64:
01AD68 C3 3D FC FF 		      	lcu  	r3,-2[bp]
01AD6C 86 41 40 00 		      	cmp  	r4,r3,#32
01AD70 3D 12 EC FF 		      	bne  	r4,debugger_62
                	debugger_63:
01AD74 C3 3D FC FF 		      	lcu  	r3,-2[bp]
01AD78 82 11 00 1A 		      	mov  	r1,r3
                	debugger_66:
01AD7C 82 ED 01 1A 		      	mov  	sp,bp
01AD80 57 BF 11 00 		      	pop  	bp
01AD84 57 CF 11 00 		      	pop  	xlr
01AD88 57 FF 11 00 		      	pop  	lr
01AD8C 37 FF 01 00 		      	rtl  	#0
                	debugger_61:
01AD90 C6 FD 11 00 		      	lw   	lr,8[bp]
01AD94 E3 FD 21 00 		      	sw   	lr,16[bp]
01AD98 BA FC FF FF 		      	bra  	debugger_66
                	endpublic
                	
                		code
01AD9C 00 00 00 00 		align	1
                	
                	public code dbg_getHexNumber_:
01ADA0 E7 EF 01 00 		      	push 	lr
01ADA4 67 EE 01 00 		      	push 	xlr
01ADA8 E7 ED 01 00 		      	push 	bp
01ADAC FC 01 00 00 		      	ldi  	xlr,#debugger_67
01ADB0 0A C0 81 5D 
01ADB4 02 BF 01 1A 		      	mov  	bp,sp
01ADB8 15 EF 31 00 		      	subui	sp,sp,#24
01ADBC E3 0D E0 FF 		      	sw   	r0,-16[bp]
01ADC0 E3 0D D0 FF 		      	sw   	r0,-24[bp]
01ADC4 39 DC FF FF 		      	bsr  	dbg_nextNonSpace_
01ADC8 7C 1E 01 00 		      	dec  	linendx_,#1
01ADCC 64 F0 41 88 
                	debugger_68:
01ADD0 0A 30 02 00 		      	ldi  	r3,#1
01ADD4 BD 01 74 00 		      	beq  	r3,debugger_69
01ADD8 39 BF FF FF 		      	bsr  	dbg_getchar_
01ADDC 82 30 00 1A 		      	mov  	r3,r1
01ADE0 82 31 00 22 		      	sxc  	r3,r3
01ADE4 E1 3D FC FF 		      	sc   	r3,-2[bp]
01ADE8 C3 3D FC FF 		      	lcu  	r3,-2[bp]
01ADEC 96 41 60 00 		      	cmpu 	r4,r3,#48
01ADF0 3D 42 16 00 		      	blt  	r4,debugger_70
01ADF4 C3 3D FC FF 		      	lcu  	r3,-2[bp]
01ADF8 96 41 72 00 		      	cmpu 	r4,r3,#57
01ADFC 3D 22 10 00 		      	bgt  	r4,debugger_70
01AE00 C6 5D E0 FF 		      	lw   	r5,-16[bp]
01AE04 82 42 08 70 		      	asli 	r4,r5,#4
01AE08 C3 6D FC FF 		      	lcu  	r6,-2[bp]
01AE0C 15 53 60 00 		      	subu 	r5,r6,#48
01AE10 02 32 0A 1A 		      	or   	r3,r4,r5
01AE14 E3 3D E0 FF 		      	sw   	r3,-16[bp]
01AE18 BA 12 00 00 		      	bra  	debugger_71
                	debugger_70:
01AE1C C3 3D FC FF 		      	lcu  	r3,-2[bp]
01AE20 96 41 82 00 		      	cmpu 	r4,r3,#65
01AE24 3D 42 16 00 		      	blt  	r4,debugger_72
01AE28 C3 3D FC FF 		      	lcu  	r3,-2[bp]
01AE2C 96 41 8C 00 		      	cmpu 	r4,r3,#70
01AE30 3D 22 10 00 		      	bgt  	r4,debugger_72
01AE34 C6 5D E0 FF 		      	lw   	r5,-16[bp]
01AE38 82 42 08 70 		      	asli 	r4,r5,#4
01AE3C C3 6D FC FF 		      	lcu  	r6,-2[bp]
01AE40 14 53 92 FF 		      	addu 	r5,r6,#-55
01AE44 02 32 0A 1A 		      	or   	r3,r4,r5
01AE48 E3 3D E0 FF 		      	sw   	r3,-16[bp]
01AE4C 3A 0C 00 00 		      	bra  	debugger_73
                	debugger_72:
01AE50 C3 3D FC FF 		      	lcu  	r3,-2[bp]
01AE54 96 41 C2 00 		      	cmpu 	r4,r3,#97
01AE58 3D 42 16 00 		      	blt  	r4,debugger_74
01AE5C C3 3D FC FF 		      	lcu  	r3,-2[bp]
01AE60 96 41 CC 00 		      	cmpu 	r4,r3,#102
01AE64 3D 22 10 00 		      	bgt  	r4,debugger_74
01AE68 C6 5D E0 FF 		      	lw   	r5,-16[bp]
01AE6C 82 42 08 70 		      	asli 	r4,r5,#4
01AE70 C3 6D FC FF 		      	lcu  	r6,-2[bp]
01AE74 14 53 52 FF 		      	addu 	r5,r6,#-87
01AE78 02 32 0A 1A 		      	or   	r3,r4,r5
01AE7C E3 3D E0 FF 		      	sw   	r3,-16[bp]
01AE80 BA 05 00 00 		      	bra  	debugger_75
                	debugger_74:
01AE84 C6 3D 30 00 		      	lw   	r3,24[bp]
01AE88 C6 4D E0 FF 		      	lw   	r4,-16[bp]
01AE8C E3 41 00 00 		      	sw   	r4,[r3]
01AE90 C6 3D D0 FF 		      	lw   	r3,-24[bp]
01AE94 82 11 00 1A 		      	mov  	r1,r3
                	debugger_76:
01AE98 82 ED 01 1A 		      	mov  	sp,bp
01AE9C 57 BF 11 00 		      	pop  	bp
01AEA0 57 CF 11 00 		      	pop  	xlr
01AEA4 57 FF 11 00 		      	pop  	lr
01AEA8 37 FF 11 00 		      	rtl  	#8
                	debugger_75:
                	debugger_73:
                	debugger_71:
01AEAC C6 4D D0 FF 		      	lw   	r4,-24[bp]
01AEB0 14 32 02 00 		      	addu 	r3,r4,#1
01AEB4 E3 3D D0 FF 		      	sw   	r3,-24[bp]
01AEB8 3A E3 FF FF 		      	bra  	debugger_68
                	debugger_69:
01AEBC BA FB FF FF 		      	bra  	debugger_76
                	debugger_67:
01AEC0 C6 FD 11 00 		      	lw   	lr,8[bp]
01AEC4 E3 FD 21 00 		      	sw   	lr,16[bp]
01AEC8 3A FA FF FF 		      	bra  	debugger_76
                	endpublic
                	
                		code
01AECC 00 00 00 00 		align	1
                	
                	public code dbg_ReadSetIB_:
01AED0 E7 EF 01 00 		      	push 	lr
01AED4 67 EE 01 00 		      	push 	xlr
01AED8 E7 ED 01 00 		      	push 	bp
01AEDC FC 01 00 00 		      	ldi  	xlr,#debugger_79
01AEE0 0A C0 F1 60 
01AEE4 02 BF 01 1A 		      	mov  	bp,sp
01AEE8 15 EF 21 00 		      	subui	sp,sp,#16
01AEEC E7 E5 01 00 		      	push 	r11
01AEF0 7C 1E 01 00 		      	ldi  	r11,#dbg_dbctrl_
01AEF4 0A B0 E0 C9 
01AEF8 C6 3D 30 00 		      	lw   	r3,24[bp]
01AEFC 96 41 06 00 		      	cmpu 	r4,r3,#3
01AF00 3D 52 0E 00 		      	ble  	r4,debugger_80
                	debugger_82:
01AF04 57 BF 10 00 		      	pop  	r11
01AF08 82 ED 01 1A 		      	mov  	sp,bp
01AF0C 57 BF 11 00 		      	pop  	bp
01AF10 57 CF 11 00 		      	pop  	xlr
01AF14 57 FF 11 00 		      	pop  	lr
01AF18 37 FF 11 00 		      	rtl  	#8
                	debugger_80:
01AF1C 39 B1 FF FF 		      	bsr  	dbg_nextNonSpace_
01AF20 82 30 00 1A 		      	mov  	r3,r1
01AF24 82 31 00 22 		      	sxc  	r3,r3
01AF28 E1 3D FC FF 		      	sc   	r3,-2[bp]
01AF2C C3 3D FC FF 		      	lcu  	r3,-2[bp]
01AF30 86 41 7A 00 		      	cmp  	r4,r3,#61
01AF34 3D 12 58 00 		      	bne  	r4,debugger_83
01AF38 E5 ED E1 FF 		      	pea  	-16[bp]
01AF3C B9 CC FF FF 		      	bsr  	dbg_getHexNumber_
01AF40 82 30 00 1A 		      	mov  	r3,r1
01AF44 BD 51 28 00 		      	ble  	r3,debugger_85
01AF48 E6 ED E1 FF 		      	push 	-16[bp]
01AF4C E6 ED 31 00 		      	push 	24[bp]
01AF50 B9 79 FF FF 		      	bsr  	dbg_SetDBAD_
01AF54 0A 40 02 00 		      	ldi  	r4,#1
01AF58 C6 5D 30 00 		      	lw   	r5,24[bp]
01AF5C 02 32 0A 60 		      	asl  	r3,r4,r5
01AF60 C6 45 00 00 		      	lw   	r4,[r11]
01AF64 02 42 06 1A 		      	or   	r4,r4,r3
01AF68 E3 45 00 00 		      	sw   	r4,[r11]
01AF6C 7C 03 00 00 		      	ldi  	r4,#196608
01AF70 0A 40 00 00 
01AF74 C6 6D 30 00 		      	lw   	r6,24[bp]
01AF78 02 53 02 70 		      	asli 	r5,r6,#1
01AF7C 02 32 0A 60 		      	asl  	r3,r4,r5
01AF80 8E 31 FE FF 		      	com  	r3,r3
01AF84 C6 45 00 00 		      	lw   	r4,[r11]
01AF88 02 42 06 18 		      	and  	r4,r4,r3
01AF8C E3 45 00 00 		      	sw   	r4,[r11]
01AF90 3A 0A 00 00 		      	bra  	debugger_86
                	debugger_85:
01AF94 65 E0 01 00 		      	push 	#0
01AF98 E6 ED 31 00 		      	push 	24[bp]
01AF9C 39 70 FF FF 		      	bsr  	dbg_SetDBAD_
01AFA0 0A 40 02 00 		      	ldi  	r4,#1
01AFA4 C6 5D 30 00 		      	lw   	r5,24[bp]
01AFA8 02 32 0A 60 		      	asl  	r3,r4,r5
01AFAC 8E 31 FE FF 		      	com  	r3,r3
01AFB0 C6 45 00 00 		      	lw   	r4,[r11]
01AFB4 02 42 06 18 		      	and  	r4,r4,r3
01AFB8 E3 45 00 00 		      	sw   	r4,[r11]
01AFBC 7C 03 00 00 		      	ldi  	r4,#196608
01AFC0 0A 40 00 00 
01AFC4 C6 6D 30 00 		      	lw   	r6,24[bp]
01AFC8 02 53 02 70 		      	asli 	r5,r6,#1
01AFCC 02 32 0A 60 		      	asl  	r3,r4,r5
01AFD0 8E 31 FE FF 		      	com  	r3,r3
01AFD4 C6 45 00 00 		      	lw   	r4,[r11]
01AFD8 02 42 06 18 		      	and  	r4,r4,r3
01AFDC E3 45 00 00 		      	sw   	r4,[r11]
                	debugger_86:
01AFE0 BA 12 00 00 		      	bra  	debugger_84
                	debugger_83:
01AFE4 C3 3D FC FF 		      	lcu  	r3,-2[bp]
01AFE8 86 41 7E 00 		      	cmp  	r4,r3,#63
01AFEC 3D 12 44 00 		      	bne  	r4,debugger_87
01AFF0 C6 45 00 00 		      	lw   	r4,[r11]
01AFF4 7C 03 00 00 		      	ldi  	r6,#196608
01AFF8 0A 60 00 00 
01AFFC C6 8D 30 00 		      	lw   	r8,24[bp]
01B000 02 74 02 70 		      	asli 	r7,r8,#1
01B004 02 53 0E 60 		      	asl  	r5,r6,r7
01B008 02 32 0A 18 		      	and  	r3,r4,r5
01B00C BD 11 2A 00 		      	bne  	r3,debugger_89
01B010 C6 45 00 00 		      	lw   	r4,[r11]
01B014 0A 60 02 00 		      	ldi  	r6,#1
01B018 C6 7D 30 00 		      	lw   	r7,24[bp]
01B01C 02 53 0E 60 		      	asl  	r5,r6,r7
01B020 0A 70 02 00 		      	ldi  	r7,#1
01B024 C6 8D 30 00 		      	lw   	r8,24[bp]
01B028 82 63 10 60 		      	asl  	r6,r7,r8
01B02C 82 52 0C 40 		      	seq  	r5,r5,r6
01B030 02 32 0A 18 		      	and  	r3,r4,r5
01B034 BD 01 16 00 		      	beq  	r3,debugger_89
01B038 E6 ED 31 00 		      	push 	24[bp]
01B03C B9 4F FF FF 		      	bsr  	dbg_GetDBAD_
01B040 82 30 00 1A 		      	mov  	r3,r1
01B044 E7 E1 01 00 		      	push 	r3
01B048 E6 ED 31 00 		      	push 	24[bp]
01B04C FC 01 00 00 		      	push 	#debugger_77
01B050 65 E0 7D DB 
01B054 39 4E F9 FF 		      	bsr  	printf_
01B058 14 EF 31 00 		      	addui	sp,sp,#24
01B05C 3A 03 00 00 		      	bra  	debugger_90
                	debugger_89:
01B060 E6 ED 31 00 		      	push 	24[bp]
01B064 FC 01 00 00 		      	push 	#debugger_78
01B068 65 E0 2D DB 
01B06C 39 4B F9 FF 		      	bsr  	printf_
01B070 14 EF 21 00 		      	addui	sp,sp,#16
                	debugger_90:
                	debugger_87:
                	debugger_84:
01B074 3A D2 FF FF 		      	bra  	debugger_82
                	debugger_79:
01B078 C6 FD 11 00 		      	lw   	lr,8[bp]
01B07C E3 FD 21 00 		      	sw   	lr,16[bp]
01B080 BA D0 FF FF 		      	bra  	debugger_82
                	endpublic
                	
                		code
01B084 00 00 00 00 		align	1
01B088 00 00 00 00 
01B08C 00 00 00 00 
                	
                	public code dbg_ReadSetDB_:
01B090 E7 EF 01 00 		      	push 	lr
01B094 67 EE 01 00 		      	push 	xlr
01B098 E7 ED 01 00 		      	push 	bp
01B09C FC 01 00 00 		      	ldi  	xlr,#debugger_95
01B0A0 0A C0 E1 64 
01B0A4 02 BF 01 1A 		      	mov  	bp,sp
01B0A8 15 EF 21 00 		      	subui	sp,sp,#16
01B0AC E7 E5 01 00 		      	push 	r11
01B0B0 7C 1E 01 00 		      	ldi  	r11,#dbg_dbctrl_
01B0B4 0A B0 E0 C9 
01B0B8 C6 3D 30 00 		      	lw   	r3,24[bp]
01B0BC 96 41 06 00 		      	cmpu 	r4,r3,#3
01B0C0 3D 52 0E 00 		      	ble  	r4,debugger_96
                	debugger_98:
01B0C4 57 BF 10 00 		      	pop  	r11
01B0C8 82 ED 01 1A 		      	mov  	sp,bp
01B0CC 57 BF 11 00 		      	pop  	bp
01B0D0 57 CF 11 00 		      	pop  	xlr
01B0D4 57 FF 11 00 		      	pop  	lr
01B0D8 37 FF 11 00 		      	rtl  	#8
                	debugger_96:
01B0DC 39 79 FF FF 		      	bsr  	dbg_nextNonSpace_
01B0E0 82 30 00 1A 		      	mov  	r3,r1
01B0E4 82 31 00 22 		      	sxc  	r3,r3
01B0E8 E1 3D FC FF 		      	sc   	r3,-2[bp]
01B0EC C3 3D FC FF 		      	lcu  	r3,-2[bp]
01B0F0 86 41 7A 00 		      	cmp  	r4,r3,#61
01B0F4 3D 12 68 00 		      	bne  	r4,debugger_99
01B0F8 E5 ED E1 FF 		      	pea  	-16[bp]
01B0FC B9 94 FF FF 		      	bsr  	dbg_getHexNumber_
01B100 82 30 00 1A 		      	mov  	r3,r1
01B104 BD 51 38 00 		      	ble  	r3,debugger_101
01B108 E6 ED E1 FF 		      	push 	-16[bp]
01B10C E6 ED 31 00 		      	push 	24[bp]
01B110 B9 41 FF FF 		      	bsr  	dbg_SetDBAD_
01B114 0A 40 02 00 		      	ldi  	r4,#1
01B118 C6 5D 30 00 		      	lw   	r5,24[bp]
01B11C 02 32 0A 60 		      	asl  	r3,r4,r5
01B120 C6 45 00 00 		      	lw   	r4,[r11]
01B124 02 42 06 1A 		      	or   	r4,r4,r3
01B128 E3 45 00 00 		      	sw   	r4,[r11]
01B12C 7C 03 00 00 		      	ldi  	r4,#196608
01B130 0A 40 00 00 
01B134 C6 6D 30 00 		      	lw   	r6,24[bp]
01B138 02 53 02 70 		      	asli 	r5,r6,#1
01B13C 02 32 0A 60 		      	asl  	r3,r4,r5
01B140 8E 31 FE FF 		      	com  	r3,r3
01B144 C6 45 00 00 		      	lw   	r4,[r11]
01B148 02 42 06 18 		      	and  	r4,r4,r3
01B14C E3 45 00 00 		      	sw   	r4,[r11]
01B150 7C 03 00 00 		      	ldi  	r4,#196608
01B154 0A 40 00 00 
01B158 C6 6D 30 00 		      	lw   	r6,24[bp]
01B15C 02 53 02 70 		      	asli 	r5,r6,#1
01B160 02 32 0A 60 		      	asl  	r3,r4,r5
01B164 C6 45 00 00 		      	lw   	r4,[r11]
01B168 02 42 06 1A 		      	or   	r4,r4,r3
01B16C E3 45 00 00 		      	sw   	r4,[r11]
01B170 3A 0A 00 00 		      	bra  	debugger_102
                	debugger_101:
01B174 65 E0 01 00 		      	push 	#0
01B178 E6 ED 31 00 		      	push 	24[bp]
01B17C 39 34 FF FF 		      	bsr  	dbg_SetDBAD_
01B180 0A 40 02 00 		      	ldi  	r4,#1
01B184 C6 5D 30 00 		      	lw   	r5,24[bp]
01B188 02 32 0A 60 		      	asl  	r3,r4,r5
01B18C 8E 31 FE FF 		      	com  	r3,r3
01B190 C6 45 00 00 		      	lw   	r4,[r11]
01B194 02 42 06 18 		      	and  	r4,r4,r3
01B198 E3 45 00 00 		      	sw   	r4,[r11]
01B19C 7C 03 00 00 		      	ldi  	r4,#196608
01B1A0 0A 40 00 00 
01B1A4 C6 6D 30 00 		      	lw   	r6,24[bp]
01B1A8 02 53 02 70 		      	asli 	r5,r6,#1
01B1AC 02 32 0A 60 		      	asl  	r3,r4,r5
01B1B0 8E 31 FE FF 		      	com  	r3,r3
01B1B4 C6 45 00 00 		      	lw   	r4,[r11]
01B1B8 02 42 06 18 		      	and  	r4,r4,r3
01B1BC E3 45 00 00 		      	sw   	r4,[r11]
                	debugger_102:
01B1C0 BA 15 00 00 		      	bra  	debugger_100
                	debugger_99:
01B1C4 C3 3D FC FF 		      	lcu  	r3,-2[bp]
01B1C8 86 41 7E 00 		      	cmp  	r4,r3,#63
01B1CC 3D 12 50 00 		      	bne  	r4,debugger_103
01B1D0 C6 45 00 00 		      	lw   	r4,[r11]
01B1D4 7C 03 00 00 		      	ldi  	r6,#196608
01B1D8 0A 60 00 00 
01B1DC C6 8D 30 00 		      	lw   	r8,24[bp]
01B1E0 02 74 02 70 		      	asli 	r7,r8,#1
01B1E4 02 53 0E 60 		      	asl  	r5,r6,r7
01B1E8 02 32 0A 18 		      	and  	r3,r4,r5
01B1EC 7C 03 00 00 		      	ldi  	r5,#196608
01B1F0 0A 50 00 00 
01B1F4 C6 7D 30 00 		      	lw   	r7,24[bp]
01B1F8 82 63 02 70 		      	asli 	r6,r7,#1
01B1FC 82 42 0C 60 		      	asl  	r4,r5,r6
01B200 82 51 08 0C 		      	cmp  	r5,r3,r4
01B204 BD 12 2A 00 		      	bne  	r5,debugger_105
01B208 C6 45 00 00 		      	lw   	r4,[r11]
01B20C 0A 60 02 00 		      	ldi  	r6,#1
01B210 C6 7D 30 00 		      	lw   	r7,24[bp]
01B214 02 53 0E 60 		      	asl  	r5,r6,r7
01B218 0A 70 02 00 		      	ldi  	r7,#1
01B21C C6 8D 30 00 		      	lw   	r8,24[bp]
01B220 82 63 10 60 		      	asl  	r6,r7,r8
01B224 82 52 0C 40 		      	seq  	r5,r5,r6
01B228 02 32 0A 18 		      	and  	r3,r4,r5
01B22C BD 01 16 00 		      	beq  	r3,debugger_105
01B230 E6 ED 31 00 		      	push 	24[bp]
01B234 B9 10 FF FF 		      	bsr  	dbg_GetDBAD_
01B238 82 30 00 1A 		      	mov  	r3,r1
01B23C E7 E1 01 00 		      	push 	r3
01B240 E6 ED 31 00 		      	push 	24[bp]
01B244 FC 01 00 00 		      	push 	#debugger_93
01B248 65 E0 E9 DA 
01B24C 39 0F F9 FF 		      	bsr  	printf_
01B250 14 EF 31 00 		      	addui	sp,sp,#24
01B254 3A 03 00 00 		      	bra  	debugger_106
                	debugger_105:
01B258 E6 ED 31 00 		      	push 	24[bp]
01B25C FC 01 00 00 		      	push 	#debugger_94
01B260 65 E0 99 DA 
01B264 39 0C F9 FF 		      	bsr  	printf_
01B268 14 EF 21 00 		      	addui	sp,sp,#16
                	debugger_106:
                	debugger_103:
                	debugger_100:
01B26C 3A CB FF FF 		      	bra  	debugger_98
                	debugger_95:
01B270 C6 FD 11 00 		      	lw   	lr,8[bp]
01B274 E3 FD 21 00 		      	sw   	lr,16[bp]
01B278 BA C9 FF FF 		      	bra  	debugger_98
                	endpublic
                	
                		code
01B27C 00 00 00 00 		align	1
                	
                	public code dbg_ReadSetDSB_:
01B280 E7 EF 01 00 		      	push 	lr
01B284 67 EE 01 00 		      	push 	xlr
01B288 E7 ED 01 00 		      	push 	bp
01B28C FC 01 00 00 		      	ldi  	xlr,#debugger_111
01B290 0A C0 C1 68 
01B294 02 BF 01 1A 		      	mov  	bp,sp
01B298 15 EF 21 00 		      	subui	sp,sp,#16
01B29C E7 E5 01 00 		      	push 	r11
01B2A0 7C 1E 01 00 		      	ldi  	r11,#dbg_dbctrl_
01B2A4 0A B0 E0 C9 
01B2A8 C6 3D 30 00 		      	lw   	r3,24[bp]
01B2AC 96 41 06 00 		      	cmpu 	r4,r3,#3
01B2B0 3D 52 0E 00 		      	ble  	r4,debugger_112
                	debugger_114:
01B2B4 57 BF 10 00 		      	pop  	r11
01B2B8 82 ED 01 1A 		      	mov  	sp,bp
01B2BC 57 BF 11 00 		      	pop  	bp
01B2C0 57 CF 11 00 		      	pop  	xlr
01B2C4 57 FF 11 00 		      	pop  	lr
01B2C8 37 FF 11 00 		      	rtl  	#8
                	debugger_112:
01B2CC 39 3B FF FF 		      	bsr  	dbg_nextNonSpace_
01B2D0 82 30 00 1A 		      	mov  	r3,r1
01B2D4 82 31 00 22 		      	sxc  	r3,r3
01B2D8 E1 3D FC FF 		      	sc   	r3,-2[bp]
01B2DC C3 3D FC FF 		      	lcu  	r3,-2[bp]
01B2E0 86 41 7A 00 		      	cmp  	r4,r3,#61
01B2E4 3D 12 68 00 		      	bne  	r4,debugger_115
01B2E8 E5 ED E1 FF 		      	pea  	-16[bp]
01B2EC B9 56 FF FF 		      	bsr  	dbg_getHexNumber_
01B2F0 82 30 00 1A 		      	mov  	r3,r1
01B2F4 BD 51 38 00 		      	ble  	r3,debugger_117
01B2F8 E6 ED E1 FF 		      	push 	-16[bp]
01B2FC E6 ED 31 00 		      	push 	24[bp]
01B300 B9 03 FF FF 		      	bsr  	dbg_SetDBAD_
01B304 0A 40 02 00 		      	ldi  	r4,#1
01B308 C6 5D 30 00 		      	lw   	r5,24[bp]
01B30C 02 32 0A 60 		      	asl  	r3,r4,r5
01B310 C6 45 00 00 		      	lw   	r4,[r11]
01B314 02 42 06 1A 		      	or   	r4,r4,r3
01B318 E3 45 00 00 		      	sw   	r4,[r11]
01B31C 7C 03 00 00 		      	ldi  	r4,#196608
01B320 0A 40 00 00 
01B324 C6 6D 30 00 		      	lw   	r6,24[bp]
01B328 02 53 02 70 		      	asli 	r5,r6,#1
01B32C 02 32 0A 60 		      	asl  	r3,r4,r5
01B330 8E 31 FE FF 		      	com  	r3,r3
01B334 C6 45 00 00 		      	lw   	r4,[r11]
01B338 02 42 06 18 		      	and  	r4,r4,r3
01B33C E3 45 00 00 		      	sw   	r4,[r11]
01B340 7C 01 00 00 		      	ldi  	r4,#65536
01B344 0A 40 00 00 
01B348 C6 6D 30 00 		      	lw   	r6,24[bp]
01B34C 02 53 02 70 		      	asli 	r5,r6,#1
01B350 02 32 0A 60 		      	asl  	r3,r4,r5
01B354 C6 45 00 00 		      	lw   	r4,[r11]
01B358 02 42 06 1A 		      	or   	r4,r4,r3
01B35C E3 45 00 00 		      	sw   	r4,[r11]
01B360 3A 0A 00 00 		      	bra  	debugger_118
                	debugger_117:
01B364 65 E0 01 00 		      	push 	#0
01B368 E6 ED 31 00 		      	push 	24[bp]
01B36C 39 F6 FE FF 		      	bsr  	dbg_SetDBAD_
01B370 0A 40 02 00 		      	ldi  	r4,#1
01B374 C6 5D 30 00 		      	lw   	r5,24[bp]
01B378 02 32 0A 60 		      	asl  	r3,r4,r5
01B37C 8E 31 FE FF 		      	com  	r3,r3
01B380 C6 45 00 00 		      	lw   	r4,[r11]
01B384 02 42 06 18 		      	and  	r4,r4,r3
01B388 E3 45 00 00 		      	sw   	r4,[r11]
01B38C 7C 03 00 00 		      	ldi  	r4,#196608
01B390 0A 40 00 00 
01B394 C6 6D 30 00 		      	lw   	r6,24[bp]
01B398 02 53 02 70 		      	asli 	r5,r6,#1
01B39C 02 32 0A 60 		      	asl  	r3,r4,r5
01B3A0 8E 31 FE FF 		      	com  	r3,r3
01B3A4 C6 45 00 00 		      	lw   	r4,[r11]
01B3A8 02 42 06 18 		      	and  	r4,r4,r3
01B3AC E3 45 00 00 		      	sw   	r4,[r11]
                	debugger_118:
01B3B0 BA 15 00 00 		      	bra  	debugger_116
                	debugger_115:
01B3B4 C3 3D FC FF 		      	lcu  	r3,-2[bp]
01B3B8 86 41 7E 00 		      	cmp  	r4,r3,#63
01B3BC 3D 12 50 00 		      	bne  	r4,debugger_119
01B3C0 C6 45 00 00 		      	lw   	r4,[r11]
01B3C4 7C 03 00 00 		      	ldi  	r6,#196608
01B3C8 0A 60 00 00 
01B3CC C6 8D 30 00 		      	lw   	r8,24[bp]
01B3D0 02 74 02 70 		      	asli 	r7,r8,#1
01B3D4 02 53 0E 60 		      	asl  	r5,r6,r7
01B3D8 02 32 0A 18 		      	and  	r3,r4,r5
01B3DC 7C 01 00 00 		      	ldi  	r5,#65536
01B3E0 0A 50 00 00 
01B3E4 C6 7D 30 00 		      	lw   	r7,24[bp]
01B3E8 82 63 02 70 		      	asli 	r6,r7,#1
01B3EC 82 42 0C 60 		      	asl  	r4,r5,r6
01B3F0 82 51 08 0C 		      	cmp  	r5,r3,r4
01B3F4 BD 12 2A 00 		      	bne  	r5,debugger_121
01B3F8 C6 45 00 00 		      	lw   	r4,[r11]
01B3FC 0A 60 02 00 		      	ldi  	r6,#1
01B400 C6 7D 30 00 		      	lw   	r7,24[bp]
01B404 02 53 0E 60 		      	asl  	r5,r6,r7
01B408 0A 70 02 00 		      	ldi  	r7,#1
01B40C C6 8D 30 00 		      	lw   	r8,24[bp]
01B410 82 63 10 60 		      	asl  	r6,r7,r8
01B414 82 52 0C 40 		      	seq  	r5,r5,r6
01B418 02 32 0A 18 		      	and  	r3,r4,r5
01B41C BD 01 16 00 		      	beq  	r3,debugger_121
01B420 E6 ED 31 00 		      	push 	24[bp]
01B424 B9 D2 FE FF 		      	bsr  	dbg_GetDBAD_
01B428 82 30 00 1A 		      	mov  	r3,r1
01B42C E7 E1 01 00 		      	push 	r3
01B430 E6 ED 31 00 		      	push 	24[bp]
01B434 FC 01 00 00 		      	push 	#debugger_109
01B438 65 E0 51 DA 
01B43C 39 D1 F8 FF 		      	bsr  	printf_
01B440 14 EF 31 00 		      	addui	sp,sp,#24
01B444 3A 03 00 00 		      	bra  	debugger_122
                	debugger_121:
01B448 E6 ED 31 00 		      	push 	24[bp]
01B44C FC 01 00 00 		      	push 	#debugger_110
01B450 65 E0 FD D9 
01B454 39 CE F8 FF 		      	bsr  	printf_
01B458 14 EF 21 00 		      	addui	sp,sp,#16
                	debugger_122:
                	debugger_119:
                	debugger_116:
01B45C 3A CB FF FF 		      	bra  	debugger_114
                	debugger_111:
01B460 C6 FD 11 00 		      	lw   	lr,8[bp]
01B464 E3 FD 21 00 		      	sw   	lr,16[bp]
01B468 BA C9 FF FF 		      	bra  	debugger_114
                	endpublic
                	
                	DispRegs_:
01B46C E7 EF 01 00 		      	push 	lr
01B470 67 EE 01 00 		      	push 	xlr
01B474 E7 ED 01 00 		      	push 	bp
01B478 FC 01 00 00 		      	ldi  	xlr,#debugger_134
01B47C 0A C0 49 6B 
01B480 02 BF 01 1A 		      	mov  	bp,sp
01B484 E7 E5 01 00 		      	push 	r11
01B488 7C 1E 01 00 		      	ldi  	r11,#regs_
01B48C 0A B0 F0 C9 
01B490 E6 E5 41 00 		      	push 	32[r11]
01B494 E6 E5 31 00 		      	push 	24[r11]
01B498 E6 E5 21 00 		      	push 	16[r11]
01B49C E6 E5 11 00 		      	push 	8[r11]
01B4A0 FC 01 00 00 		      	push 	#debugger_126
01B4A4 65 E0 8D D9 
01B4A8 B9 C3 F8 FF 		      	bsr  	printf_
01B4AC 14 EF 51 00 		      	addui	sp,sp,#40
01B4B0 E6 E5 81 00 		      	push 	64[r11]
01B4B4 E6 E5 71 00 		      	push 	56[r11]
01B4B8 E6 E5 61 00 		      	push 	48[r11]
01B4BC E6 E5 51 00 		      	push 	40[r11]
01B4C0 FC 01 00 00 		      	push 	#debugger_127
01B4C4 65 E0 25 D9 
01B4C8 B9 BF F8 FF 		      	bsr  	printf_
01B4CC 14 EF 51 00 		      	addui	sp,sp,#40
01B4D0 E6 E5 C1 00 		      	push 	96[r11]
01B4D4 E6 E5 B1 00 		      	push 	88[r11]
01B4D8 E6 E5 A1 00 		      	push 	80[r11]
01B4DC E6 E5 91 00 		      	push 	72[r11]
01B4E0 FC 01 00 00 		      	push 	#debugger_128
01B4E4 65 E0 B1 D8 
01B4E8 B9 BB F8 FF 		      	bsr  	printf_
01B4EC 14 EF 51 00 		      	addui	sp,sp,#40
01B4F0 E6 E5 01 01 		      	push 	128[r11]
01B4F4 E6 E5 F1 00 		      	push 	120[r11]
01B4F8 E6 E5 E1 00 		      	push 	112[r11]
01B4FC E6 E5 D1 00 		      	push 	104[r11]
01B500 FC 01 00 00 		      	push 	#debugger_129
01B504 65 E0 39 D8 
01B508 B9 B7 F8 FF 		      	bsr  	printf_
01B50C 14 EF 51 00 		      	addui	sp,sp,#40
01B510 E6 E5 41 01 		      	push 	160[r11]
01B514 E6 E5 31 01 		      	push 	152[r11]
01B518 E6 E5 21 01 		      	push 	144[r11]
01B51C E6 E5 11 01 		      	push 	136[r11]
01B520 FC 01 00 00 		      	push 	#debugger_130
01B524 65 E0 C1 D7 
01B528 B9 B3 F8 FF 		      	bsr  	printf_
01B52C 14 EF 51 00 		      	addui	sp,sp,#40
01B530 E6 E5 81 01 		      	push 	192[r11]
01B534 E6 E5 71 01 		      	push 	184[r11]
01B538 E6 E5 61 01 		      	push 	176[r11]
01B53C E6 E5 51 01 		      	push 	168[r11]
01B540 FC 01 00 00 		      	push 	#debugger_131
01B544 65 E0 4D D7 
01B548 B9 AF F8 FF 		      	bsr  	printf_
01B54C 14 EF 51 00 		      	addui	sp,sp,#40
01B550 E6 E5 C1 01 		      	push 	224[r11]
01B554 E6 E5 B1 01 		      	push 	216[r11]
01B558 E6 E5 A1 01 		      	push 	208[r11]
01B55C E6 E5 91 01 		      	push 	200[r11]
01B560 FC 01 00 00 		      	push 	#debugger_132
01B564 65 E0 D5 D6 
01B568 B9 AB F8 FF 		      	bsr  	printf_
01B56C 14 EF 51 00 		      	addui	sp,sp,#40
01B570 E6 E5 F1 01 		      	push 	248[r11]
01B574 E6 E5 E1 01 		      	push 	240[r11]
01B578 E6 E5 D1 01 		      	push 	232[r11]
01B57C FC 01 00 00 		      	push 	#debugger_133
01B580 65 E0 81 D6 
01B584 39 A8 F8 FF 		      	bsr  	printf_
01B588 14 EF 41 00 		      	addui	sp,sp,#32
                	debugger_135:
01B58C 57 BF 10 00 		      	pop  	r11
01B590 82 ED 01 1A 		      	mov  	sp,bp
01B594 57 BF 11 00 		      	pop  	bp
01B598 57 CF 11 00 		      	pop  	xlr
01B59C 57 FF 11 00 		      	pop  	lr
01B5A0 37 FF 01 00 		      	rtl  	#0
                	debugger_134:
01B5A4 C6 FD 11 00 		      	lw   	lr,8[bp]
01B5A8 E3 FD 21 00 		      	sw   	lr,16[bp]
01B5AC 3A FC FF FF 		      	bra  	debugger_135
                	DispReg_:
01B5B0 E7 EF 01 00 		      	push 	lr
01B5B4 67 EE 01 00 		      	push 	xlr
01B5B8 E7 ED 01 00 		      	push 	bp
01B5BC FC 01 00 00 		      	ldi  	xlr,#debugger_138
01B5C0 0A C0 01 6C 
01B5C4 02 BF 01 1A 		      	mov  	bp,sp
01B5C8 C6 4D 30 00 		      	lw   	r4,24[bp]
01B5CC 02 32 06 70 		      	asli 	r3,r4,#3
01B5D0 7C 1E 01 00 		      	push 	regs_[r3]
01B5D4 E6 E1 F1 C9 
01B5D8 E6 ED 31 00 		      	push 	24[bp]
01B5DC FC 01 00 00 		      	push 	#debugger_137
01B5E0 65 E0 5D D6 
01B5E4 39 9C F8 FF 		      	bsr  	printf_
01B5E8 14 EF 31 00 		      	addui	sp,sp,#24
                	debugger_139:
01B5EC 82 ED 01 1A 		      	mov  	sp,bp
01B5F0 57 BF 11 00 		      	pop  	bp
01B5F4 57 CF 11 00 		      	pop  	xlr
01B5F8 57 FF 11 00 		      	pop  	lr
01B5FC 37 FF 11 00 		      	rtl  	#8
                	debugger_138:
01B600 C6 FD 11 00 		      	lw   	lr,8[bp]
01B604 E3 FD 21 00 		      	sw   	lr,16[bp]
01B608 BA FC FF FF 		      	bra  	debugger_139
                	public code dbg_prompt_:
01B60C E7 EF 01 00 		      	push 	lr
01B610 67 EE 01 00 		      	push 	xlr
01B614 E7 ED 01 00 		      	push 	bp
01B618 FC 01 00 00 		      	ldi  	xlr,#debugger_141
01B61C 0A C0 91 6C 
01B620 02 BF 01 1A 		      	mov  	bp,sp
01B624 FC 01 00 00 		      	push 	#debugger_140
01B628 65 E0 41 D6 
01B62C 39 93 F8 FF 		      	bsr  	printf_
01B630 14 EF 11 00 		      	addui	sp,sp,#8
                	debugger_142:
01B634 82 ED 01 1A 		      	mov  	sp,bp
01B638 57 BF 11 00 		      	pop  	bp
01B63C 57 CF 11 00 		      	pop  	xlr
01B640 57 FF 11 00 		      	pop  	lr
01B644 37 FF 01 00 		      	rtl  	#0
                	debugger_141:
01B648 C6 FD 11 00 		      	lw   	lr,8[bp]
01B64C E3 FD 21 00 		      	sw   	lr,16[bp]
01B650 BA FC FF FF 		      	bra  	debugger_142
                	endpublic
                	
                		code
01B654 00 00 00 00 		align	1
01B658 00 00 00 00 
01B65C 00 00 00 00 
                	
                	public code dbg_getDecNumber_:
01B660 E7 EF 01 00 		      	push 	lr
01B664 67 EE 01 00 		      	push 	xlr
01B668 E7 ED 01 00 		      	push 	bp
01B66C FC 01 00 00 		      	ldi  	xlr,#debugger_143
01B670 0A C0 21 6E 
01B674 02 BF 01 1A 		      	mov  	bp,sp
01B678 15 EF 31 00 		      	subui	sp,sp,#24
01B67C E7 E5 01 00 		      	push 	r11
01B680 C6 BD 30 00 		      	lw   	r11,24[bp]
01B684 BD 15 10 00 		      	bne  	r11,debugger_144
01B688 0A 10 00 00 		      	ldi  	r1,#0
                	debugger_146:
01B68C 57 BF 10 00 		      	pop  	r11
01B690 82 ED 01 1A 		      	mov  	sp,bp
01B694 57 BF 11 00 		      	pop  	bp
01B698 57 CF 11 00 		      	pop  	xlr
01B69C 57 FF 11 00 		      	pop  	lr
01B6A0 37 FF 11 00 		      	rtl  	#8
                	debugger_144:
01B6A4 E3 0D F0 FF 		      	sw   	r0,-8[bp]
01B6A8 E3 0D D0 FF 		      	sw   	r0,-24[bp]
                	debugger_147:
01B6AC B9 A4 FE FF 		      	bsr  	dbg_getchar_
01B6B0 82 30 00 1A 		      	mov  	r3,r1
01B6B4 82 31 00 22 		      	sxc  	r3,r3
01B6B8 E1 3D EC FF 		      	sc   	r3,-10[bp]
01B6BC E7 E1 01 00 		      	push 	r3
01B6C0 B9 77 F9 FF 		      	bsr  	isdigit_
01B6C4 14 EF 11 00 		      	addui	sp,sp,#8
01B6C8 82 30 00 1A 		      	mov  	r3,r1
01B6CC BD 01 14 00 		      	beq  	r3,debugger_148
01B6D0 0A 40 A0 FF 		      	ldi  	r4,#-48
01B6D4 C6 6D F0 FF 		      	lw   	r6,-8[bp]
01B6D8 07 63 14 00 		      	mul  	r6,r6,#10
01B6DC C3 7D EC FF 		      	lcu  	r7,-10[bp]
01B6E0 02 53 0E 28 		      	addu 	r5,r6,r7
01B6E4 02 32 0A 28 		      	addu 	r3,r4,r5
01B6E8 E3 3D F0 FF 		      	sw   	r3,-8[bp]
01B6EC E4 1D D0 FF 		      	inc  	-24[bp],#1
01B6F0 BA F7 FF FF 		      	bra  	debugger_147
                	debugger_148:
01B6F4 7C 1E 01 00 		      	dec  	linendx_,#1
01B6F8 64 F0 41 88 
01B6FC C6 3D F0 FF 		      	lw   	r3,-8[bp]
01B700 E3 35 00 00 		      	sw   	r3,[r11]
01B704 C6 3D D0 FF 		      	lw   	r3,-24[bp]
01B708 82 11 00 1A 		      	mov  	r1,r3
01B70C 3A F0 FF FF 		      	bra  	debugger_146
                	debugger_143:
01B710 C6 FD 11 00 		      	lw   	lr,8[bp]
01B714 E3 FD 21 00 		      	sw   	lr,16[bp]
01B718 BA EE FF FF 		      	bra  	debugger_146
                	endpublic
                	
                		code
01B71C 00 00 00 00 		align	1
                	
                	public code dbg_processReg_:
01B720 E7 EF 01 00 		      	push 	lr
01B724 67 EE 01 00 		      	push 	xlr
01B728 E7 ED 01 00 		      	push 	bp
01B72C FC 01 00 00 		      	ldi  	xlr,#debugger_149
01B730 0A C0 21 70 
01B734 02 BF 01 1A 		      	mov  	bp,sp
01B738 15 EF 41 00 		      	subui	sp,sp,#32
01B73C B9 92 FE FF 		      	bsr  	dbg_getchar_
01B740 82 30 00 1A 		      	mov  	r3,r1
01B744 82 31 00 22 		      	sxc  	r3,r3
01B748 E1 3D FC FF 		      	sc   	r3,-2[bp]
01B74C C3 3D FC FF 		      	lcu  	r3,-2[bp]
01B750 86 41 7E 00 		      	cmp  	r4,r3,#63
01B754 3D 02 04 00 		      	beq  	r4,debugger_151
01B758 BA 01 00 00 		      	bra  	debugger_152
                	debugger_151:
01B75C 39 A2 FF FF 		      	bsr  	DispRegs_
01B760 BA 15 00 00 		      	bra  	debugger_150
                	debugger_152:
01B764 C3 3D FC FF 		      	lcu  	r3,-2[bp]
01B768 E7 E1 01 00 		      	push 	r3
01B76C 39 62 F9 FF 		      	bsr  	isdigit_
01B770 14 EF 11 00 		      	addui	sp,sp,#8
01B774 82 30 00 1A 		      	mov  	r3,r1
01B778 BD 01 48 00 		      	beq  	r3,debugger_153
01B77C 7C 1E 01 00 		      	dec  	linendx_,#1
01B780 64 F0 41 88 
01B784 B9 DB FF FF 		      	bsr  	dbg_getDecNumber_
01B788 82 30 00 1A 		      	mov  	r3,r1
01B78C E3 3D E0 FF 		      	sw   	r3,-16[bp]
01B790 B9 A2 FE FF 		      	bsr  	dbg_nextNonSpace_
01B794 82 30 00 1A 		      	mov  	r3,r1
01B798 82 31 00 22 		      	sxc  	r3,r3
01B79C E1 3D FC FF 		      	sc   	r3,-2[bp]
01B7A0 C3 3D FC FF 		      	lcu  	r3,-2[bp]
01B7A4 86 41 7E 00 		      	cmp  	r4,r3,#63
01B7A8 3D 02 08 00 		      	beq  	r4,debugger_156
01B7AC 86 41 7A 00 		      	cmp  	r4,r3,#61
01B7B0 3D 02 12 00 		      	beq  	r4,debugger_157
01B7B4 3A 0A 00 00 		      	bra  	debugger_158
                	debugger_156:
01B7B8 E6 ED E1 FF 		      	push 	-16[bp]
01B7BC B9 BE FF FF 		      	bsr  	DispReg_
                	debugger_159:
01B7C0 82 ED 01 1A 		      	mov  	sp,bp
01B7C4 57 BF 11 00 		      	pop  	bp
01B7C8 57 CF 11 00 		      	pop  	xlr
01B7CC 57 FF 11 00 		      	pop  	lr
01B7D0 37 FF 01 00 		      	rtl  	#0
                	debugger_157:
01B7D4 E5 ED D1 FF 		      	pea  	-24[bp]
01B7D8 39 B9 FE FF 		      	bsr  	dbg_getHexNumber_
01B7DC 82 30 00 1A 		      	mov  	r3,r1
01B7E0 E3 3D C0 FF 		      	sw   	r3,-32[bp]
01B7E4 C6 3D C0 FF 		      	lw   	r3,-32[bp]
01B7E8 BD 51 0C 00 		      	ble  	r3,debugger_160
01B7EC C6 4D E0 FF 		      	lw   	r4,-16[bp]
01B7F0 02 32 06 70 		      	asli 	r3,r4,#3
01B7F4 C6 4D D0 FF 		      	lw   	r4,-24[bp]
01B7F8 7C 1E 01 00 		      	sw   	r4,regs_[r3]
01B7FC E3 41 F0 C9 
                	debugger_160:
01B800 3A F8 FF FF 		      	bra  	debugger_159
                	debugger_158:
01B804 BA F7 FF FF 		      	bra  	debugger_159
                	debugger_155:
                	debugger_153:
01B808 3A F7 FF FF 		      	bra  	debugger_159
                	debugger_150:
01B80C BA F6 FF FF 		      	bra  	debugger_159
                	debugger_149:
01B810 C6 FD 11 00 		      	lw   	lr,8[bp]
01B814 E3 FD 21 00 		      	sw   	lr,16[bp]
01B818 3A F5 FF FF 		      	bra  	debugger_159
                	endpublic
                	
                	public code dbg_parse_begin_:
01B81C E7 EF 01 00 		      	push 	lr
01B820 67 EE 01 00 		      	push 	xlr
01B824 E7 ED 01 00 		      	push 	bp
01B828 FC 01 00 00 		      	ldi  	xlr,#debugger_162
01B82C 0A C0 51 71 
01B830 02 BF 01 1A 		      	mov  	bp,sp
01B834 E7 E5 01 00 		      	push 	r11
01B838 7C 1E 01 00 		      	ldi  	r11,#linebuf_
01B83C 0A B0 50 88 
01B840 7C 1E 01 00 		      	sw   	r0,linendx_
01B844 63 00 40 88 
01B848 C3 35 00 00 		      	lcu  	r3,[r11]
01B84C 86 41 88 00 		      	cmp  	r4,r3,#68
01B850 3D 12 1A 00 		      	bne  	r4,debugger_163
01B854 C3 35 04 00 		      	lcu  	r3,2[r11]
01B858 86 41 84 00 		      	cmp  	r4,r3,#66
01B85C 3D 12 14 00 		      	bne  	r4,debugger_163
01B860 C3 35 08 00 		      	lcu  	r3,4[r11]
01B864 86 41 8E 00 		      	cmp  	r4,r3,#71
01B868 3D 12 0E 00 		      	bne  	r4,debugger_163
01B86C C3 35 0C 00 		      	lcu  	r3,6[r11]
01B870 86 41 7C 00 		      	cmp  	r4,r3,#62
01B874 3D 12 08 00 		      	bne  	r4,debugger_163
01B878 0A 30 08 00 		      	ldi  	r3,#4
01B87C 7C 1E 01 00 		      	sw   	r3,linendx_
01B880 63 30 40 88 
                	debugger_163:
01B884 B9 47 00 00 		      	bsr  	dbg_parse_line_
01B888 82 30 00 1A 		      	mov  	r3,r1
01B88C 82 11 00 1A 		      	mov  	r1,r3
                	debugger_165:
01B890 57 BF 10 00 		      	pop  	r11
01B894 82 ED 01 1A 		      	mov  	sp,bp
01B898 57 BF 11 00 		      	pop  	bp
01B89C 57 CF 11 00 		      	pop  	xlr
01B8A0 57 FF 11 00 		      	pop  	lr
01B8A4 37 FF 01 00 		      	rtl  	#0
                	debugger_162:
01B8A8 C6 FD 11 00 		      	lw   	lr,8[bp]
01B8AC E3 FD 21 00 		      	sw   	lr,16[bp]
01B8B0 3A FC FF FF 		      	bra  	debugger_165
                	endpublic
                	
                		code
01B8B4 00 00 00 00 		align	1
01B8B8 00 00 00 00 
01B8BC 00 00 00 00 
                	
                	public code dbg_getDumpFormat_:
01B8C0 E7 EF 01 00 		      	push 	lr
01B8C4 67 EE 01 00 		      	push 	xlr
01B8C8 E7 ED 01 00 		      	push 	bp
01B8CC FC 01 00 00 		      	ldi  	xlr,#debugger_166
01B8D0 0A C0 51 75 
01B8D4 02 BF 01 1A 		      	mov  	bp,sp
01B8D8 15 EF 41 00 		      	subui	sp,sp,#32
01B8DC E7 E5 01 00 		      	push 	r11
01B8E0 67 E6 01 00 		      	push 	r12
01B8E4 E7 E6 01 00 		      	push 	r13
01B8E8 67 E7 01 00 		      	push 	r14
01B8EC E7 E7 01 00 		      	push 	r15
01B8F0 C7 3D C0 FF 		      	lea  	r3,-32[bp]
01B8F4 82 B1 00 1A 		      	mov  	r11,r3
01B8F8 7C 1E 01 00 		      	ldi  	r12,#muol_
01B8FC 0A C0 70 CC 
01B900 7C 1E 01 00 		      	ldi  	r13,#cursz_
01B904 0A D0 30 CC 
01B908 7C 1E 01 00 		      	ldi  	r14,#curaddr_
01B90C 0A E0 20 CC 
01B910 7C 1E 01 00 		      	ldi  	r15,#curfmt_
01B914 0A F0 50 CC 
01B918 E5 ED D1 FF 		      	pea  	-24[bp]
01B91C B9 A8 FF FF 		      	bsr  	dbg_getDecNumber_
01B920 82 30 00 1A 		      	mov  	r3,r1
01B924 E3 3D F0 FF 		      	sw   	r3,-8[bp]
01B928 C6 3D F0 FF 		      	lw   	r3,-8[bp]
01B92C BD 51 08 00 		      	ble  	r3,debugger_167
01B930 C6 3D D0 FF 		      	lw   	r3,-24[bp]
01B934 7C 1E 01 00 		      	sw   	r3,currep_
01B938 63 30 60 CC 
                	debugger_167:
01B93C B9 52 FE FF 		      	bsr  	dbg_getchar_
01B940 82 30 00 1A 		      	mov  	r3,r1
01B944 82 31 00 22 		      	sxc  	r3,r3
01B948 E1 3D EC FF 		      	sc   	r3,-10[bp]
01B94C C3 3D EC FF 		      	lcu  	r3,-10[bp]
01B950 86 41 D2 00 		      	cmp  	r4,r3,#105
01B954 3D 02 0C 00 		      	beq  	r4,debugger_170
01B958 86 41 E6 00 		      	cmp  	r4,r3,#115
01B95C 3D 02 1E 00 		      	beq  	r4,debugger_171
01B960 86 41 F0 00 		      	cmp  	r4,r3,#120
01B964 3D 02 30 00 		      	beq  	r4,debugger_172
01B968 3A 23 00 00 		      	bra  	debugger_169
                	debugger_170:
01B96C 0A 30 D2 00 		      	ldi  	r3,#105
01B970 E1 37 00 00 		      	sc   	r3,[r15]
01B974 E7 E5 01 00 		      	push 	r11
01B978 39 85 FE FF 		      	bsr  	dbg_getHexNumber_
01B97C 82 30 00 1A 		      	mov  	r3,r1
01B980 E3 3D F0 FF 		      	sw   	r3,-8[bp]
01B984 C6 3D F0 FF 		      	lw   	r3,-8[bp]
01B988 BD 51 06 00 		      	ble  	r3,debugger_173
01B98C C6 35 00 00 		      	lw   	r3,[r11]
01B990 63 37 00 00 		      	sw   	r3,[r14]
                	debugger_173:
01B994 BA 1D 00 00 		      	bra  	debugger_169
                	debugger_171:
01B998 0A 30 E6 00 		      	ldi  	r3,#115
01B99C E1 37 00 00 		      	sc   	r3,[r15]
01B9A0 E7 E5 01 00 		      	push 	r11
01B9A4 B9 7F FE FF 		      	bsr  	dbg_getHexNumber_
01B9A8 82 30 00 1A 		      	mov  	r3,r1
01B9AC E3 3D F0 FF 		      	sw   	r3,-8[bp]
01B9B0 C6 3D F0 FF 		      	lw   	r3,-8[bp]
01B9B4 BD 51 06 00 		      	ble  	r3,debugger_175
01B9B8 C6 35 00 00 		      	lw   	r3,[r11]
01B9BC 63 37 00 00 		      	sw   	r3,[r14]
                	debugger_175:
01B9C0 3A 18 00 00 		      	bra  	debugger_169
                	debugger_172:
01B9C4 0A 30 F0 00 		      	ldi  	r3,#120
01B9C8 E1 37 00 00 		      	sc   	r3,[r15]
01B9CC B9 40 FE FF 		      	bsr  	dbg_getchar_
01B9D0 82 30 00 1A 		      	mov  	r3,r1
01B9D4 82 31 00 22 		      	sxc  	r3,r3
01B9D8 E1 3D EC FF 		      	sc   	r3,-10[bp]
01B9DC C3 3D EC FF 		      	lcu  	r3,-10[bp]
01B9E0 86 41 C4 00 		      	cmp  	r4,r3,#98
01B9E4 3D 02 10 00 		      	beq  	r4,debugger_178
01B9E8 86 41 C6 00 		      	cmp  	r4,r3,#99
01B9EC 3D 02 16 00 		      	beq  	r4,debugger_179
01B9F0 86 41 D0 00 		      	cmp  	r4,r3,#104
01B9F4 3D 02 1C 00 		      	beq  	r4,debugger_180
01B9F8 86 41 EE 00 		      	cmp  	r4,r3,#119
01B9FC 3D 02 22 00 		      	beq  	r4,debugger_181
01BA00 BA 0A 00 00 		      	bra  	debugger_182
                	debugger_178:
01BA04 0A 30 C4 00 		      	ldi  	r3,#98
01BA08 E3 36 00 00 		      	sw   	r3,[r13]
01BA0C 0A 30 20 00 		      	ldi  	r3,#16
01BA10 63 36 00 00 		      	sw   	r3,[r12]
01BA14 3A 09 00 00 		      	bra  	debugger_177
                	debugger_179:
01BA18 0A 30 C6 00 		      	ldi  	r3,#99
01BA1C E3 36 00 00 		      	sw   	r3,[r13]
01BA20 0A 30 10 00 		      	ldi  	r3,#8
01BA24 63 36 00 00 		      	sw   	r3,[r12]
01BA28 BA 06 00 00 		      	bra  	debugger_177
                	debugger_180:
01BA2C 0A 30 D0 00 		      	ldi  	r3,#104
01BA30 E3 36 00 00 		      	sw   	r3,[r13]
01BA34 0A 30 08 00 		      	ldi  	r3,#4
01BA38 63 36 00 00 		      	sw   	r3,[r12]
01BA3C 3A 04 00 00 		      	bra  	debugger_177
                	debugger_181:
01BA40 0A 30 EE 00 		      	ldi  	r3,#119
01BA44 E3 36 00 00 		      	sw   	r3,[r13]
01BA48 0A 30 04 00 		      	ldi  	r3,#2
01BA4C 63 36 00 00 		      	sw   	r3,[r12]
01BA50 BA 01 00 00 		      	bra  	debugger_177
                	debugger_182:
01BA54 7C 1E 01 00 		      	dec  	linendx_,#1
01BA58 64 F0 41 88 
                	debugger_177:
01BA5C E7 E5 01 00 		      	push 	r11
01BA60 39 68 FE FF 		      	bsr  	dbg_getHexNumber_
01BA64 82 30 00 1A 		      	mov  	r3,r1
01BA68 E3 3D F0 FF 		      	sw   	r3,-8[bp]
01BA6C C6 3D F0 FF 		      	lw   	r3,-8[bp]
01BA70 BD 51 06 00 		      	ble  	r3,debugger_183
01BA74 C6 35 00 00 		      	lw   	r3,[r11]
01BA78 63 37 00 00 		      	sw   	r3,[r14]
                	debugger_183:
01BA7C BA 00 00 00 		      	bra  	debugger_169
                	debugger_169:
                	debugger_185:
01BA80 57 FF 10 00 		      	pop  	r15
01BA84 57 EF 10 00 		      	pop  	r14
01BA88 57 DF 10 00 		      	pop  	r13
01BA8C 57 CF 10 00 		      	pop  	r12
01BA90 57 BF 10 00 		      	pop  	r11
01BA94 82 ED 01 1A 		      	mov  	sp,bp
01BA98 57 BF 11 00 		      	pop  	bp
01BA9C 57 CF 11 00 		      	pop  	xlr
01BAA0 57 FF 11 00 		      	pop  	lr
01BAA4 37 FF 01 00 		      	rtl  	#0
                	debugger_166:
01BAA8 C6 FD 11 00 		      	lw   	lr,8[bp]
01BAAC E3 FD 21 00 		      	sw   	lr,16[bp]
01BAB0 3A FA FF FF 		      	bra  	debugger_185
                	endpublic
                	
                		code
01BAB4 00 00 00 00 		align	1
01BAB8 00 00 00 00 
01BABC 00 00 00 00 
                	
                	public code dbg_parse_line_:
01BAC0 E7 EF 01 00 		      	push 	lr
01BAC4 67 EE 01 00 		      	push 	xlr
01BAC8 E7 ED 01 00 		      	push 	bp
01BACC FC 01 00 00 		      	ldi  	xlr,#debugger_210
01BAD0 0A C0 11 90 
01BAD4 02 BF 01 1A 		      	mov  	bp,sp
01BAD8 15 EF 71 00 		      	subui	sp,sp,#56
01BADC E7 E5 01 00 		      	push 	r11
01BAE0 67 E6 01 00 		      	push 	r12
01BAE4 E7 E6 01 00 		      	push 	r13
01BAE8 67 E7 01 00 		      	push 	r14
01BAEC E7 E7 01 00 		      	push 	r15
01BAF0 67 E8 01 00 		      	push 	r16
01BAF4 E7 E8 01 00 		      	push 	r17
01BAF8 7C 1E 01 00 		      	ldi  	r11,#curaddr_
01BAFC 0A B0 20 CC 
01BB00 7C 1E 01 00 		      	ldi  	r12,#cmem_
01BB04 0A C0 90 CC 
01BB08 7C 1E 01 00 		      	ldi  	r13,#currep_
01BB0C 0A D0 60 CC 
01BB10 7C 1E 01 00 		      	ldi  	r14,#cursz_
01BB14 0A E0 30 CC 
01BB18 7C 1E 01 00 		      	ldi  	r15,#curfill_
01BB1C 0A F0 40 CC 
01BB20 7C 1E 01 00 		      	ldi  	r16,#curfmt_
01BB24 0A 00 51 CC 
01BB28 C7 3D E0 FF 		      	lea  	r3,-16[bp]
01BB2C 82 11 01 1A 		      	mov  	r17,r3
                	debugger_211:
01BB30 7C 1E 01 00 		      	lw   	r3,linendx_
01BB34 46 30 40 88 
01BB38 86 41 A8 00 		      	cmp  	r4,r3,#84
01BB3C 3D 32 62 06 		      	bge  	r4,debugger_212
01BB40 39 12 FE FF 		      	bsr  	dbg_getchar_
01BB44 82 30 00 1A 		      	mov  	r3,r1
01BB48 82 31 00 22 		      	sxc  	r3,r3
01BB4C E1 3D FC FF 		      	sc   	r3,-2[bp]
01BB50 C3 3D FC FF 		      	lcu  	r3,-2[bp]
01BB54 86 41 FE FF 		      	cmp  	r4,r3,#-1
01BB58 3D 02 2C 00 		      	beq  	r4,debugger_214
01BB5C 86 41 40 00 		      	cmp  	r4,r3,#32
01BB60 3D 02 40 00 		      	beq  	r4,debugger_215
01BB64 86 41 7E 00 		      	cmp  	r4,r3,#63
01BB68 3D 02 3E 00 		      	beq  	r4,debugger_216
01BB6C 86 41 E2 00 		      	cmp  	r4,r3,#113
01BB70 3D 02 3E 00 		      	beq  	r4,debugger_217
01BB74 86 41 C2 00 		      	cmp  	r4,r3,#97
01BB78 3D 02 3E 00 		      	beq  	r4,debugger_218
01BB7C 86 41 D2 00 		      	cmp  	r4,r3,#105
01BB80 3D 02 44 00 		      	beq  	r4,debugger_219
01BB84 86 41 C8 00 		      	cmp  	r4,r3,#100
01BB88 3D 02 0C 01 		      	beq  	r4,debugger_220
01BB8C 86 41 E4 00 		      	cmp  	r4,r3,#114
01BB90 3D 02 26 03 		      	beq  	r4,debugger_221
01BB94 86 41 E6 00 		      	cmp  	r4,r3,#115
01BB98 3D 02 26 03 		      	beq  	r4,debugger_222
01BB9C 86 41 CC 00 		      	cmp  	r4,r3,#102
01BBA0 3D 02 88 03 		      	beq  	r4,debugger_223
01BBA4 86 41 F0 00 		      	cmp  	r4,r3,#120
01BBA8 3D 02 5A 04 		      	beq  	r4,debugger_224
01BBAC 3A 8A 01 00 		      	bra  	debugger_213
                	debugger_214:
                	debugger_225:
01BBB0 57 1F 11 00 		      	pop  	r17
01BBB4 57 0F 11 00 		      	pop  	r16
01BBB8 57 FF 10 00 		      	pop  	r15
01BBBC 57 EF 10 00 		      	pop  	r14
01BBC0 57 DF 10 00 		      	pop  	r13
01BBC4 57 CF 10 00 		      	pop  	r12
01BBC8 57 BF 10 00 		      	pop  	r11
01BBCC 82 ED 01 1A 		      	mov  	sp,bp
01BBD0 57 BF 11 00 		      	pop  	bp
01BBD4 57 CF 11 00 		      	pop  	xlr
01BBD8 57 FF 11 00 		      	pop  	lr
01BBDC 37 FF 01 00 		      	rtl  	#0
                	debugger_215:
01BBE0 BA 83 01 00 		      	bra  	debugger_213
                	debugger_216:
01BBE4 B9 A7 FD FF 		      	bsr  	dbg_DisplayHelp_
01BBE8 BA 82 01 00 		      	bra  	debugger_213
                	debugger_217:
01BBEC 0A 10 02 00 		      	ldi  	r1,#1
01BBF0 3A F8 FF FF 		      	bra  	debugger_225
                	debugger_218:
01BBF4 7C 1E 01 00 		      	lw   	r3,dbg_dbctrl_
01BBF8 46 30 E0 C9 
01BBFC E7 E1 01 00 		      	push 	r3
01BC00 B9 F1 FD FF 		      	bsr  	dbg_arm_
01BC04 3A 7F 01 00 		      	bra  	debugger_213
                	debugger_219:
01BC08 39 F9 FD FF 		      	bsr  	dbg_getchar_
01BC0C 82 30 00 1A 		      	mov  	r3,r1
01BC10 82 31 00 22 		      	sxc  	r3,r3
01BC14 E1 3D FC FF 		      	sc   	r3,-2[bp]
01BC18 C3 3D FC FF 		      	lcu  	r3,-2[bp]
01BC1C 86 41 7E 00 		      	cmp  	r4,r3,#63
01BC20 3D 02 14 00 		      	beq  	r4,debugger_227
01BC24 86 41 60 00 		      	cmp  	r4,r3,#48
01BC28 3D 02 A2 00 		      	beq  	r4,debugger_228
01BC2C 86 41 62 00 		      	cmp  	r4,r3,#49
01BC30 3D 02 A4 00 		      	beq  	r4,debugger_229
01BC34 86 41 64 00 		      	cmp  	r4,r3,#50
01BC38 3D 02 A6 00 		      	beq  	r4,debugger_230
01BC3C 86 41 66 00 		      	cmp  	r4,r3,#51
01BC40 3D 02 A8 00 		      	beq  	r4,debugger_231
01BC44 3A 2B 00 00 		      	bra  	debugger_226
                	debugger_227:
01BC48 7C 1E 01 00 		      	lw   	r4,dbg_dbctrl_
01BC4C 46 40 E0 C9 
01BC50 7C 03 00 00 		      	and  	r3,r4,#196608
01BC54 0C 32 00 00 
01BC58 BD 11 1C 00 		      	bne  	r3,debugger_232
01BC5C 7C 1E 01 00 		      	lw   	r4,dbg_dbctrl_
01BC60 46 40 E0 C9 
01BC64 0C 32 02 00 		      	and  	r3,r4,#1
01BC68 86 41 02 00 		      	cmp  	r4,r3,#1
01BC6C 3D 12 12 00 		      	bne  	r4,debugger_232
01BC70 65 E0 01 00 		      	push 	#0
01BC74 B9 C8 FD FF 		      	bsr  	dbg_GetDBAD_
01BC78 82 30 00 1A 		      	mov  	r3,r1
01BC7C E7 E1 01 00 		      	push 	r3
01BC80 FC 01 00 00 		      	push 	#debugger_186
01BC84 65 E0 19 D6 
01BC88 B9 C7 F7 FF 		      	bsr  	printf_
01BC8C 14 EF 21 00 		      	addui	sp,sp,#16
                	debugger_232:
01BC90 7C 1E 01 00 		      	lw   	r4,dbg_dbctrl_
01BC94 46 40 E0 C9 
01BC98 7C 30 00 00 		      	and  	r3,r4,#3145728
01BC9C 0C 32 00 00 
01BCA0 BD 11 1C 00 		      	bne  	r3,debugger_234
01BCA4 7C 1E 01 00 		      	lw   	r4,dbg_dbctrl_
01BCA8 46 40 E0 C9 
01BCAC 0C 32 04 00 		      	and  	r3,r4,#2
01BCB0 86 41 04 00 		      	cmp  	r4,r3,#2
01BCB4 3D 12 12 00 		      	bne  	r4,debugger_234
01BCB8 65 E0 03 00 		      	push 	#1
01BCBC B9 BF FD FF 		      	bsr  	dbg_GetDBAD_
01BCC0 82 30 00 1A 		      	mov  	r3,r1
01BCC4 E7 E1 01 00 		      	push 	r3
01BCC8 FC 01 00 00 		      	push 	#debugger_187
01BCCC 65 E0 F1 D5 
01BCD0 B9 BE F7 FF 		      	bsr  	printf_
01BCD4 14 EF 21 00 		      	addui	sp,sp,#16
                	debugger_234:
01BCD8 7C 1E 01 00 		      	lw   	r4,dbg_dbctrl_
01BCDC 46 40 E0 C9 
01BCE0 7C 00 03 00 		      	and  	r3,r4,#50331648
01BCE4 0C 32 00 00 
01BCE8 BD 11 1C 00 		      	bne  	r3,debugger_236
01BCEC 7C 1E 01 00 		      	lw   	r4,dbg_dbctrl_
01BCF0 46 40 E0 C9 
01BCF4 0C 32 08 00 		      	and  	r3,r4,#4
01BCF8 86 41 08 00 		      	cmp  	r4,r3,#4
01BCFC 3D 12 12 00 		      	bne  	r4,debugger_236
01BD00 65 E0 05 00 		      	push 	#2
01BD04 B9 B6 FD FF 		      	bsr  	dbg_GetDBAD_
01BD08 82 30 00 1A 		      	mov  	r3,r1
01BD0C E7 E1 01 00 		      	push 	r3
01BD10 FC 01 00 00 		      	push 	#debugger_188
01BD14 65 E0 C9 D5 
01BD18 B9 B5 F7 FF 		      	bsr  	printf_
01BD1C 14 EF 21 00 		      	addui	sp,sp,#16
                	debugger_236:
01BD20 7C 1E 01 00 		      	lw   	r4,dbg_dbctrl_
01BD24 46 40 E0 C9 
01BD28 7C 00 30 00 		      	and  	r3,r4,#805306368
01BD2C 0C 32 00 00 
01BD30 BD 11 1C 00 		      	bne  	r3,debugger_238
01BD34 7C 1E 01 00 		      	lw   	r4,dbg_dbctrl_
01BD38 46 40 E0 C9 
01BD3C 0C 32 10 00 		      	and  	r3,r4,#8
01BD40 86 41 10 00 		      	cmp  	r4,r3,#8
01BD44 3D 12 12 00 		      	bne  	r4,debugger_238
01BD48 65 E0 07 00 		      	push 	#3
01BD4C B9 AD FD FF 		      	bsr  	dbg_GetDBAD_
01BD50 82 30 00 1A 		      	mov  	r3,r1
01BD54 E7 E1 01 00 		      	push 	r3
01BD58 FC 01 00 00 		      	push 	#debugger_189
01BD5C 65 E0 A1 D5 
01BD60 B9 AC F7 FF 		      	bsr  	printf_
01BD64 14 EF 21 00 		      	addui	sp,sp,#16
                	debugger_238:
01BD68 BA 06 00 00 		      	bra  	debugger_226
                	debugger_228:
01BD6C 65 E0 01 00 		      	push 	#0
01BD70 39 2C FE FF 		      	bsr  	dbg_ReadSetIB_
01BD74 3A 05 00 00 		      	bra  	debugger_226
                	debugger_229:
01BD78 65 E0 03 00 		      	push 	#1
01BD7C B9 2A FE FF 		      	bsr  	dbg_ReadSetIB_
01BD80 BA 03 00 00 		      	bra  	debugger_226
                	debugger_230:
01BD84 65 E0 05 00 		      	push 	#2
01BD88 39 29 FE FF 		      	bsr  	dbg_ReadSetIB_
01BD8C 3A 02 00 00 		      	bra  	debugger_226
                	debugger_231:
01BD90 65 E0 07 00 		      	push 	#3
01BD94 B9 27 FE FF 		      	bsr  	dbg_ReadSetIB_
01BD98 BA 00 00 00 		      	bra  	debugger_226
                	debugger_226:
01BD9C 3A 4C 01 00 		      	bra  	debugger_213
                	debugger_220:
01BDA0 39 C6 FD FF 		      	bsr  	dbg_getchar_
01BDA4 82 30 00 1A 		      	mov  	r3,r1
01BDA8 82 31 00 22 		      	sxc  	r3,r3
01BDAC E1 3D FC FF 		      	sc   	r3,-2[bp]
01BDB0 C3 3D FC FF 		      	lcu  	r3,-2[bp]
01BDB4 86 41 D2 00 		      	cmp  	r4,r3,#105
01BDB8 3D 02 1C 00 		      	beq  	r4,debugger_241
01BDBC 86 41 7E 00 		      	cmp  	r4,r3,#63
01BDC0 3D 02 4E 00 		      	beq  	r4,debugger_242
01BDC4 86 41 60 00 		      	cmp  	r4,r3,#48
01BDC8 3D 02 F4 00 		      	beq  	r4,debugger_243
01BDCC 86 41 62 00 		      	cmp  	r4,r3,#49
01BDD0 3D 02 F6 00 		      	beq  	r4,debugger_244
01BDD4 86 41 64 00 		      	cmp  	r4,r3,#50
01BDD8 3D 02 F8 00 		      	beq  	r4,debugger_245
01BDDC 86 41 66 00 		      	cmp  	r4,r3,#51
01BDE0 3D 02 FA 00 		      	beq  	r4,debugger_246
01BDE4 86 41 E6 00 		      	cmp  	r4,r3,#115
01BDE8 3D 02 FC 00 		      	beq  	r4,debugger_247
01BDEC BA 75 00 00 		      	bra  	debugger_248
                	debugger_241:
01BDF0 B9 E7 FD FF 		      	bsr  	dbg_nextSpace_
01BDF4 E7 E8 01 00 		      	push 	r17
01BDF8 39 F5 FD FF 		      	bsr  	dbg_getHexNumber_
01BDFC 82 30 00 1A 		      	mov  	r3,r1
01BE00 E3 3D A0 FF 		      	sw   	r3,-48[bp]
01BE04 C6 3D A0 FF 		      	lw   	r3,-48[bp]
01BE08 BD 51 28 00 		      	ble  	r3,debugger_249
01BE0C E5 ED D1 FF 		      	pea  	-24[bp]
01BE10 39 0A FF FF 		      	bsr  	dbg_getDecNumber_
01BE14 82 30 00 1A 		      	mov  	r3,r1
01BE18 E3 3D 90 FF 		      	sw   	r3,-56[bp]
01BE1C C6 3D 90 FF 		      	lw   	r3,-56[bp]
01BE20 BD 51 14 00 		      	ble  	r3,debugger_251
                	debugger_253:
01BE24 C6 3D 90 FF 		      	lw   	r3,-56[bp]
01BE28 BD 51 0E 00 		      	ble  	r3,debugger_254
01BE2C 65 E0 01 00 		      	push 	#0
01BE30 E7 E8 01 00 		      	push 	r17
01BE34 B9 17 FB FF 		      	bsr  	disassem_
01BE38 14 EF 21 00 		      	addui	sp,sp,#16
                	debugger_255:
01BE3C E4 FD 91 FF 		      	dec  	-56[bp],#1
01BE40 BA FC FF FF 		      	bra  	debugger_253
                	debugger_254:
01BE44 BA 02 00 00 		      	bra  	debugger_252
                	debugger_251:
01BE48 65 E0 01 00 		      	push 	#0
01BE4C E6 E8 01 00 		      	push 	[r17]
01BE50 39 4B FD FF 		      	bsr  	disassem20_
01BE54 14 EF 21 00 		      	addui	sp,sp,#16
                	debugger_252:
                	debugger_249:
01BE58 3A 70 00 00 		      	bra  	debugger_240
                	debugger_242:
01BE5C FC 01 00 00 		      	push 	#debugger_190
01BE60 65 E0 95 D5 
01BE64 39 8C F7 FF 		      	bsr  	printf_
01BE68 14 EF 11 00 		      	addui	sp,sp,#8
01BE6C 7C 1E 01 00 		      	lw   	r4,dbg_dbctrl_
01BE70 46 40 E0 C9 
01BE74 7C 03 00 00 		      	and  	r3,r4,#196608
01BE78 0C 32 00 00 
01BE7C 7C 03 00 00 		      	cmp  	r4,r3,#196608
01BE80 86 41 00 00 
01BE84 3D 12 1C 00 		      	bne  	r4,debugger_256
01BE88 7C 1E 01 00 		      	lw   	r4,dbg_dbctrl_
01BE8C 46 40 E0 C9 
01BE90 0C 32 02 00 		      	and  	r3,r4,#1
01BE94 86 41 02 00 		      	cmp  	r4,r3,#1
01BE98 3D 12 12 00 		      	bne  	r4,debugger_256
01BE9C 65 E0 01 00 		      	push 	#0
01BEA0 39 83 FD FF 		      	bsr  	dbg_GetDBAD_
01BEA4 82 30 00 1A 		      	mov  	r3,r1
01BEA8 E7 E1 01 00 		      	push 	r3
01BEAC FC 01 00 00 		      	push 	#debugger_191
01BEB0 65 E0 6D D5 
01BEB4 39 82 F7 FF 		      	bsr  	printf_
01BEB8 14 EF 21 00 		      	addui	sp,sp,#16
                	debugger_256:
01BEBC 7C 1E 01 00 		      	lw   	r4,dbg_dbctrl_
01BEC0 46 40 E0 C9 
01BEC4 7C 30 00 00 		      	and  	r3,r4,#3145728
01BEC8 0C 32 00 00 
01BECC 7C 30 00 00 		      	cmp  	r4,r3,#3145728
01BED0 86 41 00 00 
01BED4 3D 12 1C 00 		      	bne  	r4,debugger_258
01BED8 7C 1E 01 00 		      	lw   	r4,dbg_dbctrl_
01BEDC 46 40 E0 C9 
01BEE0 0C 32 04 00 		      	and  	r3,r4,#2
01BEE4 86 41 04 00 		      	cmp  	r4,r3,#2
01BEE8 3D 12 12 00 		      	bne  	r4,debugger_258
01BEEC 65 E0 03 00 		      	push 	#1
01BEF0 39 79 FD FF 		      	bsr  	dbg_GetDBAD_
01BEF4 82 30 00 1A 		      	mov  	r3,r1
01BEF8 E7 E1 01 00 		      	push 	r3
01BEFC FC 01 00 00 		      	push 	#debugger_192
01BF00 65 E0 45 D5 
01BF04 39 78 F7 FF 		      	bsr  	printf_
01BF08 14 EF 21 00 		      	addui	sp,sp,#16
                	debugger_258:
01BF0C 7C 1E 01 00 		      	lw   	r4,dbg_dbctrl_
01BF10 46 40 E0 C9 
01BF14 7C 00 03 00 		      	and  	r3,r4,#50331648
01BF18 0C 32 00 00 
01BF1C 7C 00 03 00 		      	cmp  	r4,r3,#50331648
01BF20 86 41 00 00 
01BF24 3D 12 1C 00 		      	bne  	r4,debugger_260
01BF28 7C 1E 01 00 		      	lw   	r4,dbg_dbctrl_
01BF2C 46 40 E0 C9 
01BF30 0C 32 08 00 		      	and  	r3,r4,#4
01BF34 86 41 08 00 		      	cmp  	r4,r3,#4
01BF38 3D 12 12 00 		      	bne  	r4,debugger_260
01BF3C 65 E0 05 00 		      	push 	#2
01BF40 39 6F FD FF 		      	bsr  	dbg_GetDBAD_
01BF44 82 30 00 1A 		      	mov  	r3,r1
01BF48 E7 E1 01 00 		      	push 	r3
01BF4C FC 01 00 00 		      	push 	#debugger_193
01BF50 65 E0 1D D5 
01BF54 39 6E F7 FF 		      	bsr  	printf_
01BF58 14 EF 21 00 		      	addui	sp,sp,#16
                	debugger_260:
01BF5C 7C 1E 01 00 		      	lw   	r4,dbg_dbctrl_
01BF60 46 40 E0 C9 
01BF64 7C 00 30 00 		      	and  	r3,r4,#805306368
01BF68 0C 32 00 00 
01BF6C 7C 00 30 00 		      	cmp  	r4,r3,#805306368
01BF70 86 41 00 00 
01BF74 3D 12 1C 00 		      	bne  	r4,debugger_262
01BF78 7C 1E 01 00 		      	lw   	r4,dbg_dbctrl_
01BF7C 46 40 E0 C9 
01BF80 0C 32 10 00 		      	and  	r3,r4,#8
01BF84 86 41 10 00 		      	cmp  	r4,r3,#8
01BF88 3D 12 12 00 		      	bne  	r4,debugger_262
01BF8C 65 E0 07 00 		      	push 	#3
01BF90 39 65 FD FF 		      	bsr  	dbg_GetDBAD_
01BF94 82 30 00 1A 		      	mov  	r3,r1
01BF98 E7 E1 01 00 		      	push 	r3
01BF9C FC 01 00 00 		      	push 	#debugger_194
01BFA0 65 E0 F5 D4 
01BFA4 39 64 F7 FF 		      	bsr  	printf_
01BFA8 14 EF 21 00 		      	addui	sp,sp,#16
                	debugger_262:
01BFAC BA 45 00 00 		      	bra  	debugger_240
                	debugger_243:
01BFB0 65 E0 01 00 		      	push 	#0
01BFB4 B9 1B FE FF 		      	bsr  	dbg_ReadSetDB_
01BFB8 3A 44 00 00 		      	bra  	debugger_240
                	debugger_244:
01BFBC 65 E0 03 00 		      	push 	#1
01BFC0 39 1A FE FF 		      	bsr  	dbg_ReadSetDB_
01BFC4 BA 42 00 00 		      	bra  	debugger_240
                	debugger_245:
01BFC8 65 E0 05 00 		      	push 	#2
01BFCC B9 18 FE FF 		      	bsr  	dbg_ReadSetDB_
01BFD0 3A 41 00 00 		      	bra  	debugger_240
                	debugger_246:
01BFD4 65 E0 07 00 		      	push 	#3
01BFD8 39 17 FE FF 		      	bsr  	dbg_ReadSetDB_
01BFDC BA 3F 00 00 		      	bra  	debugger_240
                	debugger_247:
01BFE0 39 7E FD FF 		      	bsr  	dbg_getchar_
01BFE4 82 30 00 1A 		      	mov  	r3,r1
01BFE8 82 31 00 22 		      	sxc  	r3,r3
01BFEC E1 3D FC FF 		      	sc   	r3,-2[bp]
01BFF0 C3 3D FC FF 		      	lcu  	r3,-2[bp]
01BFF4 86 41 7E 00 		      	cmp  	r4,r3,#63
01BFF8 3D 02 14 00 		      	beq  	r4,debugger_265
01BFFC 86 41 60 00 		      	cmp  	r4,r3,#48
01C000 3D 02 B2 00 		      	beq  	r4,debugger_266
01C004 86 41 62 00 		      	cmp  	r4,r3,#49
01C008 3D 02 B4 00 		      	beq  	r4,debugger_267
01C00C 86 41 64 00 		      	cmp  	r4,r3,#50
01C010 3D 02 B6 00 		      	beq  	r4,debugger_268
01C014 86 41 66 00 		      	cmp  	r4,r3,#51
01C018 3D 02 B8 00 		      	beq  	r4,debugger_269
01C01C 3A 2F 00 00 		      	bra  	debugger_264
                	debugger_265:
01C020 7C 1E 01 00 		      	lw   	r4,dbg_dbctrl_
01C024 46 40 E0 C9 
01C028 7C 03 00 00 		      	and  	r3,r4,#196608
01C02C 0C 32 00 00 
01C030 7C 01 00 00 		      	cmp  	r4,r3,#65536
01C034 86 41 00 00 
01C038 3D 12 1C 00 		      	bne  	r4,debugger_270
01C03C 7C 1E 01 00 		      	lw   	r4,dbg_dbctrl_
01C040 46 40 E0 C9 
01C044 0C 32 02 00 		      	and  	r3,r4,#1
01C048 86 41 02 00 		      	cmp  	r4,r3,#1
01C04C 3D 12 12 00 		      	bne  	r4,debugger_270
01C050 65 E0 01 00 		      	push 	#0
01C054 B9 4C FD FF 		      	bsr  	dbg_GetDBAD_
01C058 82 30 00 1A 		      	mov  	r3,r1
01C05C E7 E1 01 00 		      	push 	r3
01C060 FC 01 00 00 		      	push 	#debugger_195
01C064 65 E0 C9 D4 
01C068 B9 4B F7 FF 		      	bsr  	printf_
01C06C 14 EF 21 00 		      	addui	sp,sp,#16
                	debugger_270:
01C070 7C 1E 01 00 		      	lw   	r4,dbg_dbctrl_
01C074 46 40 E0 C9 
01C078 7C 30 00 00 		      	and  	r3,r4,#3145728
01C07C 0C 32 00 00 
01C080 7C 10 00 00 		      	cmp  	r4,r3,#1048576
01C084 86 41 00 00 
01C088 3D 12 1C 00 		      	bne  	r4,debugger_272
01C08C 7C 1E 01 00 		      	lw   	r4,dbg_dbctrl_
01C090 46 40 E0 C9 
01C094 0C 32 04 00 		      	and  	r3,r4,#2
01C098 86 41 04 00 		      	cmp  	r4,r3,#2
01C09C 3D 12 12 00 		      	bne  	r4,debugger_272
01C0A0 65 E0 03 00 		      	push 	#1
01C0A4 B9 42 FD FF 		      	bsr  	dbg_GetDBAD_
01C0A8 82 30 00 1A 		      	mov  	r3,r1
01C0AC E7 E1 01 00 		      	push 	r3
01C0B0 FC 01 00 00 		      	push 	#debugger_196
01C0B4 65 E0 9D D4 
01C0B8 B9 41 F7 FF 		      	bsr  	printf_
01C0BC 14 EF 21 00 		      	addui	sp,sp,#16
                	debugger_272:
01C0C0 7C 1E 01 00 		      	lw   	r4,dbg_dbctrl_
01C0C4 46 40 E0 C9 
01C0C8 7C 00 03 00 		      	and  	r3,r4,#50331648
01C0CC 0C 32 00 00 
01C0D0 7C 00 01 00 		      	cmp  	r4,r3,#16777216
01C0D4 86 41 00 00 
01C0D8 3D 12 1C 00 		      	bne  	r4,debugger_274
01C0DC 7C 1E 01 00 		      	lw   	r4,dbg_dbctrl_
01C0E0 46 40 E0 C9 
01C0E4 0C 32 08 00 		      	and  	r3,r4,#4
01C0E8 86 41 08 00 		      	cmp  	r4,r3,#4
01C0EC 3D 12 12 00 		      	bne  	r4,debugger_274
01C0F0 65 E0 05 00 		      	push 	#2
01C0F4 B9 38 FD FF 		      	bsr  	dbg_GetDBAD_
01C0F8 82 30 00 1A 		      	mov  	r3,r1
01C0FC E7 E1 01 00 		      	push 	r3
01C100 FC 01 00 00 		      	push 	#debugger_197
01C104 65 E0 71 D4 
01C108 B9 37 F7 FF 		      	bsr  	printf_
01C10C 14 EF 21 00 		      	addui	sp,sp,#16
                	debugger_274:
01C110 7C 1E 01 00 		      	lw   	r4,dbg_dbctrl_
01C114 46 40 E0 C9 
01C118 7C 00 30 00 		      	and  	r3,r4,#805306368
01C11C 0C 32 00 00 
01C120 7C 00 10 00 		      	cmp  	r4,r3,#268435456
01C124 86 41 00 00 
01C128 3D 12 1C 00 		      	bne  	r4,debugger_276
01C12C 7C 1E 01 00 		      	lw   	r4,dbg_dbctrl_
01C130 46 40 E0 C9 
01C134 0C 32 10 00 		      	and  	r3,r4,#8
01C138 86 41 10 00 		      	cmp  	r4,r3,#8
01C13C 3D 12 12 00 		      	bne  	r4,debugger_276
01C140 65 E0 07 00 		      	push 	#3
01C144 B9 2E FD FF 		      	bsr  	dbg_GetDBAD_
01C148 82 30 00 1A 		      	mov  	r3,r1
01C14C E7 E1 01 00 		      	push 	r3
01C150 FC 01 00 00 		      	push 	#debugger_198
01C154 65 E0 45 D4 
01C158 B9 2D F7 FF 		      	bsr  	printf_
01C15C 14 EF 21 00 		      	addui	sp,sp,#16
                	debugger_276:
01C160 BA 06 00 00 		      	bra  	debugger_264
                	debugger_266:
01C164 65 E0 01 00 		      	push 	#0
01C168 39 23 FE FF 		      	bsr  	dbg_ReadSetDSB_
01C16C 3A 05 00 00 		      	bra  	debugger_264
                	debugger_267:
01C170 65 E0 03 00 		      	push 	#1
01C174 B9 21 FE FF 		      	bsr  	dbg_ReadSetDSB_
01C178 BA 03 00 00 		      	bra  	debugger_264
                	debugger_268:
01C17C 65 E0 05 00 		      	push 	#2
01C180 39 20 FE FF 		      	bsr  	dbg_ReadSetDSB_
01C184 3A 02 00 00 		      	bra  	debugger_264
                	debugger_269:
01C188 65 E0 07 00 		      	push 	#3
01C18C B9 1E FE FF 		      	bsr  	dbg_ReadSetDSB_
01C190 BA 00 00 00 		      	bra  	debugger_264
                	debugger_264:
01C194 BA 08 00 00 		      	bra  	debugger_240
                	debugger_248:
01C198 B9 72 FD FF 		      	bsr  	dbg_nextSpace_
01C19C 65 E0 01 00 		      	push 	#0
01C1A0 65 E0 01 00 		      	push 	#0
01C1A4 39 2F FD FF 		      	bsr  	dbg_SetDBAD_
01C1A8 65 E0 01 00 		      	push 	#0
01C1AC 65 E0 03 00 		      	push 	#1
01C1B0 B9 2D FD FF 		      	bsr  	dbg_SetDBAD_
01C1B4 65 E0 01 00 		      	push 	#0
01C1B8 65 E0 05 00 		      	push 	#2
01C1BC 39 2C FD FF 		      	bsr  	dbg_SetDBAD_
01C1C0 65 E0 01 00 		      	push 	#0
01C1C4 65 E0 07 00 		      	push 	#3
01C1C8 B9 2A FD FF 		      	bsr  	dbg_SetDBAD_
01C1CC 65 E0 01 00 		      	push 	#0
01C1D0 B9 37 FD FF 		      	bsr  	dbg_arm_
01C1D4 BA 00 00 00 		      	bra  	debugger_240
                	debugger_240:
01C1D8 BA C4 00 00 		      	bra  	debugger_213
                	debugger_221:
01C1DC B9 A8 FE FF 		      	bsr  	dbg_processReg_
01C1E0 BA C3 00 00 		      	bra  	debugger_213
                	debugger_222:
01C1E4 B9 3D FD FF 		      	bsr  	dbg_getchar_
01C1E8 82 30 00 1A 		      	mov  	r3,r1
01C1EC 82 31 00 22 		      	sxc  	r3,r3
01C1F0 E1 3D FC FF 		      	sc   	r3,-2[bp]
01C1F4 C3 3D FC FF 		      	lcu  	r3,-2[bp]
01C1F8 86 41 E6 00 		      	cmp  	r4,r3,#115
01C1FC 3D 12 58 00 		      	bne  	r4,debugger_278
01C200 39 3A FD FF 		      	bsr  	dbg_getchar_
01C204 82 30 00 1A 		      	mov  	r3,r1
01C208 82 31 00 22 		      	sxc  	r3,r3
01C20C E1 3D FC FF 		      	sc   	r3,-2[bp]
01C210 C3 3D FC FF 		      	lcu  	r3,-2[bp]
01C214 86 41 5A 00 		      	cmp  	r4,r3,#45
01C218 3D 12 1E 00 		      	bne  	r4,debugger_280
01C21C 7C 1E 01 00 		      	lw   	r3,dbg_dbctrl_
01C220 46 30 E0 C9 
01C224 FC FF FF 1F 		      	andi 	r3,r3,#4611686018427387903
01C228 FC FF FF FF 
01C22C 8C 31 FE FF 
01C230 7C 1E 01 00 		      	sw   	r3,dbg_dbctrl_
01C234 63 30 E0 C9 
01C238 7C 1E 01 00 		      	lw   	r3,dbg_dbctrl_
01C23C 46 30 E0 C9 
01C240 E7 E1 01 00 		      	push 	r3
01C244 39 29 FD FF 		      	bsr  	dbg_arm_
01C248 7C 1E 01 00 		      	sw   	r0,ssm_
01C24C 63 00 00 CC 
01C250 BA 0B 00 00 		      	bra  	debugger_281
                	debugger_280:
01C254 C3 3D FC FF 		      	lcu  	r3,-2[bp]
01C258 86 41 56 00 		      	cmp  	r4,r3,#43
01C25C 3D 02 08 00 		      	beq  	r4,debugger_284
01C260 C3 3D FC FF 		      	lcu  	r3,-2[bp]
01C264 86 41 DA 00 		      	cmp  	r4,r3,#109
01C268 3D 12 22 00 		      	bne  	r4,debugger_282
                	debugger_284:
01C26C 7C 1E 01 00 		      	lw   	r3,dbg_dbctrl_
01C270 46 30 E0 C9 
01C274 7C 00 00 20 		      	ori  	r3,r3,#4611686018427387904
01C278 7C 00 00 00 
01C27C 8D 31 00 00 
01C280 7C 1E 01 00 		      	sw   	r3,dbg_dbctrl_
01C284 63 30 E0 C9 
01C288 7C 1E 01 00 		      	lw   	r3,dbg_dbctrl_
01C28C 46 30 E0 C9 
01C290 E7 E1 01 00 		      	push 	r3
01C294 39 1F FD FF 		      	bsr  	dbg_arm_
01C298 0A 30 02 00 		      	ldi  	r3,#1
01C29C 7C 1E 01 00 		      	sw   	r3,ssm_
01C2A0 63 30 00 CC 
01C2A4 0A 10 02 00 		      	ldi  	r1,#1
01C2A8 3A 21 FF FF 		      	bra  	debugger_225
                	debugger_282:
                	debugger_281:
                	debugger_278:
01C2AC 3A AA 00 00 		      	bra  	debugger_213
                	debugger_223:
01C2B0 39 24 FD FF 		      	bsr  	dbg_getchar_
01C2B4 82 30 00 1A 		      	mov  	r3,r1
01C2B8 82 31 00 22 		      	sxc  	r3,r3
01C2BC E1 3D FC FF 		      	sc   	r3,-2[bp]
01C2C0 C3 3D FC FF 		      	lcu  	r3,-2[bp]
01C2C4 86 41 5E 00 		      	cmp  	r4,r3,#47
01C2C8 3D 12 04 00 		      	bne  	r4,debugger_285
01C2CC B9 BE FE FF 		      	bsr  	dbg_getDumpFormat_
                	debugger_285:
01C2D0 39 20 FD FF 		      	bsr  	dbg_getchar_
01C2D4 82 30 00 1A 		      	mov  	r3,r1
01C2D8 82 31 00 22 		      	sxc  	r3,r3
01C2DC E1 3D FC FF 		      	sc   	r3,-2[bp]
01C2E0 C3 3D FC FF 		      	lcu  	r3,-2[bp]
01C2E4 86 41 58 00 		      	cmp  	r4,r3,#44
01C2E8 3D 12 22 00 		      	bne  	r4,debugger_287
01C2EC 43 38 00 00 		      	lcu  	r3,[r16]
01C2F0 86 41 F0 00 		      	cmp  	r4,r3,#120
01C2F4 3D 12 0C 00 		      	bne  	r4,debugger_289
01C2F8 E5 ED B1 FF 		      	pea  	-40[bp]
01C2FC B9 54 FD FF 		      	bsr  	dbg_getHexNumber_
01C300 82 30 00 1A 		      	mov  	r3,r1
01C304 E3 3D A0 FF 		      	sw   	r3,-48[bp]
01C308 BA 02 00 00 		      	bra  	debugger_290
                	debugger_289:
01C30C E5 ED B1 FF 		      	pea  	-40[bp]
01C310 39 6A FE FF 		      	bsr  	dbg_getDecNumber_
01C314 82 30 00 1A 		      	mov  	r3,r1
01C318 E3 3D A0 FF 		      	sw   	r3,-48[bp]
                	debugger_290:
01C31C C6 3D A0 FF 		      	lw   	r3,-48[bp]
01C320 BD 51 06 00 		      	ble  	r3,debugger_291
01C324 C6 3D B0 FF 		      	lw   	r3,-40[bp]
01C328 E3 37 00 00 		      	sw   	r3,[r15]
                	debugger_291:
                	debugger_287:
01C32C 43 38 00 00 		      	lcu  	r3,[r16]
01C330 86 41 F0 00 		      	cmp  	r4,r3,#120
01C334 3D 02 04 00 		      	beq  	r4,debugger_294
01C338 3A 24 00 00 		      	bra  	debugger_293
                	debugger_294:
01C33C 46 37 00 00 		      	lw   	r3,[r14]
01C340 86 41 C4 00 		      	cmp  	r4,r3,#98
01C344 3D 02 10 00 		      	beq  	r4,debugger_296
01C348 86 41 C6 00 		      	cmp  	r4,r3,#99
01C34C 3D 02 28 00 		      	beq  	r4,debugger_297
01C350 86 41 D0 00 		      	cmp  	r4,r3,#104
01C354 3D 02 42 00 		      	beq  	r4,debugger_298
01C358 86 41 EE 00 		      	cmp  	r4,r3,#119
01C35C 3D 02 5E 00 		      	beq  	r4,debugger_299
01C360 3A 1F 00 00 		      	bra  	debugger_295
                	debugger_296:
01C364 E3 0D A0 FF 		      	sw   	r0,-48[bp]
                	debugger_300:
01C368 C6 3D A0 FF 		      	lw   	r3,-48[bp]
01C36C C6 46 00 00 		      	lw   	r4,[r13]
01C370 82 51 08 0C 		      	cmp  	r5,r3,r4
01C374 BD 32 12 00 		      	bge  	r5,debugger_301
01C378 C6 48 00 00 		      	lw   	r4,[r17]
01C37C C6 5D A0 FF 		      	lw   	r5,-48[bp]
01C380 02 32 0A 28 		      	addu 	r3,r4,r5
01C384 C1 47 00 00 		      	lbu  	r4,[r15]
01C388 7C 1E 01 00 		      	sb   	r4,bmem_[r3]
01C38C E0 41 80 CC 
                	debugger_302:
01C390 E4 1D A0 FF 		      	inc  	-48[bp],#1
01C394 BA FA FF FF 		      	bra  	debugger_300
                	debugger_301:
01C398 3A 18 00 00 		      	bra  	debugger_295
                	debugger_297:
01C39C E3 0D A0 FF 		      	sw   	r0,-48[bp]
                	debugger_303:
01C3A0 C6 3D A0 FF 		      	lw   	r3,-48[bp]
01C3A4 C6 46 00 00 		      	lw   	r4,[r13]
01C3A8 82 51 08 0C 		      	cmp  	r5,r3,r4
01C3AC BD 32 14 00 		      	bge  	r5,debugger_304
01C3B0 C6 68 00 00 		      	lw   	r6,[r17]
01C3B4 02 53 02 78 		      	asri 	r5,r6,#1
01C3B8 C6 6D A0 FF 		      	lw   	r6,-48[bp]
01C3BC 82 42 0C 28 		      	addu 	r4,r5,r6
01C3C0 02 32 02 70 		      	asli 	r3,r4,#1
01C3C4 C3 47 00 00 		      	lcu  	r4,[r15]
01C3C8 E9 41 18 00 		      	sc   	r4,[r3+r12]
                	debugger_305:
01C3CC E4 1D A0 FF 		      	inc  	-48[bp],#1
01C3D0 3A FA FF FF 		      	bra  	debugger_303
                	debugger_304:
01C3D4 BA 10 00 00 		      	bra  	debugger_295
                	debugger_298:
01C3D8 E3 0D A0 FF 		      	sw   	r0,-48[bp]
                	debugger_306:
01C3DC C6 3D A0 FF 		      	lw   	r3,-48[bp]
01C3E0 C6 46 00 00 		      	lw   	r4,[r13]
01C3E4 82 51 08 0C 		      	cmp  	r5,r3,r4
01C3E8 BD 32 16 00 		      	bge  	r5,debugger_307
01C3EC C6 68 00 00 		      	lw   	r6,[r17]
01C3F0 02 53 04 78 		      	asri 	r5,r6,#2
01C3F4 C6 6D A0 FF 		      	lw   	r6,-48[bp]
01C3F8 82 42 0C 28 		      	addu 	r4,r5,r6
01C3FC 02 32 04 70 		      	asli 	r3,r4,#2
01C400 C5 47 00 00 		      	lhu  	r4,[r15]
01C404 7C 1E 01 00 		      	sh   	r4,hmem_[r3]
01C408 E2 41 A0 CC 
                	debugger_308:
01C40C E4 1D A0 FF 		      	inc  	-48[bp],#1
01C410 BA F9 FF FF 		      	bra  	debugger_306
                	debugger_307:
01C414 BA 08 00 00 		      	bra  	debugger_295
                	debugger_299:
01C418 E3 0D A0 FF 		      	sw   	r0,-48[bp]
                	debugger_309:
01C41C C6 3D A0 FF 		      	lw   	r3,-48[bp]
01C420 C6 46 00 00 		      	lw   	r4,[r13]
01C424 82 51 08 0C 		      	cmp  	r5,r3,r4
01C428 BD 32 16 00 		      	bge  	r5,debugger_310
01C42C C6 68 00 00 		      	lw   	r6,[r17]
01C430 02 53 06 78 		      	asri 	r5,r6,#3
01C434 C6 6D A0 FF 		      	lw   	r6,-48[bp]
01C438 82 42 0C 28 		      	addu 	r4,r5,r6
01C43C 02 32 06 70 		      	asli 	r3,r4,#3
01C440 C6 47 00 00 		      	lw   	r4,[r15]
01C444 7C 1E 01 00 		      	sw   	r4,wmem_[r3]
01C448 E3 41 B0 CC 
                	debugger_311:
01C44C E4 1D A0 FF 		      	inc  	-48[bp],#1
01C450 BA F9 FF FF 		      	bra  	debugger_309
                	debugger_310:
01C454 BA 00 00 00 		      	bra  	debugger_295
                	debugger_295:
                	debugger_293:
01C458 BA 74 00 00 		      	bra  	debugger_213
                	debugger_224:
01C45C B9 EE FC FF 		      	bsr  	dbg_getchar_
01C460 82 30 00 1A 		      	mov  	r3,r1
01C464 82 31 00 22 		      	sxc  	r3,r3
01C468 E1 3D FC FF 		      	sc   	r3,-2[bp]
01C46C C3 3D FC FF 		      	lcu  	r3,-2[bp]
01C470 86 41 5E 00 		      	cmp  	r4,r3,#47
01C474 3D 12 04 00 		      	bne  	r4,debugger_312
01C478 39 89 FE FF 		      	bsr  	dbg_getDumpFormat_
                	debugger_312:
01C47C 43 38 00 00 		      	lcu  	r3,[r16]
01C480 86 41 D2 00 		      	cmp  	r4,r3,#105
01C484 3D 02 0C 00 		      	beq  	r4,debugger_315
01C488 86 41 E6 00 		      	cmp  	r4,r3,#115
01C48C 3D 02 32 00 		      	beq  	r4,debugger_316
01C490 86 41 F0 00 		      	cmp  	r4,r3,#120
01C494 3D 02 70 00 		      	beq  	r4,debugger_317
01C498 BA 6C 00 00 		      	bra  	debugger_314
                	debugger_315:
01C49C FC 01 00 00 		      	push 	#debugger_199
01C4A0 65 E0 39 D4 
01C4A4 39 C4 F6 FF 		      	bsr  	printf_
01C4A8 14 EF 11 00 		      	addui	sp,sp,#8
01C4AC E3 0D A0 FF 		      	sw   	r0,-48[bp]
                	debugger_318:
01C4B0 C6 3D A0 FF 		      	lw   	r3,-48[bp]
01C4B4 C6 46 00 00 		      	lw   	r4,[r13]
01C4B8 82 51 08 0C 		      	cmp  	r5,r3,r4
01C4BC BD 32 18 00 		      	bge  	r5,debugger_319
01C4C0 B9 B0 F6 FF 		      	bsr  	getcharNoWait_
01C4C4 82 30 00 1A 		      	mov  	r3,r1
01C4C8 86 41 06 00 		      	cmp  	r4,r3,#3
01C4CC 3D 12 04 00 		      	bne  	r4,debugger_321
01C4D0 BA 03 00 00 		      	bra  	debugger_319
                	debugger_321:
01C4D4 65 E0 01 00 		      	push 	#0
01C4D8 E7 E5 01 00 		      	push 	r11
01C4DC B9 42 FA FF 		      	bsr  	disassem_
01C4E0 14 EF 21 00 		      	addui	sp,sp,#16
                	debugger_320:
01C4E4 E4 1D A0 FF 		      	inc  	-48[bp],#1
01C4E8 3A F9 FF FF 		      	bra  	debugger_318
                	debugger_319:
01C4EC 3A 62 00 00 		      	bra  	debugger_314
                	debugger_316:
01C4F0 E3 0D A0 FF 		      	sw   	r0,-48[bp]
                	debugger_323:
01C4F4 C6 3D A0 FF 		      	lw   	r3,-48[bp]
01C4F8 C6 46 00 00 		      	lw   	r4,[r13]
01C4FC 82 51 08 0C 		      	cmp  	r5,r3,r4
01C500 BD 32 38 00 		      	bge  	r5,debugger_324
01C504 39 A8 F6 FF 		      	bsr  	getcharNoWait_
01C508 82 30 00 1A 		      	mov  	r3,r1
01C50C 86 41 06 00 		      	cmp  	r4,r3,#3
01C510 3D 12 04 00 		      	bne  	r4,debugger_326
01C514 BA 0B 00 00 		      	bra  	debugger_324
                	debugger_326:
01C518 E7 E1 01 00 		      	push 	r3
01C51C 65 E0 A9 00 		      	push 	#84
01C520 C6 75 00 00 		      	lw   	r7,[r11]
01C524 82 63 02 78 		      	asri 	r6,r7,#1
01C528 02 53 02 70 		      	asli 	r5,r6,#1
01C52C 46 66 00 00 		      	lw   	r6,[r12]
01C530 82 42 0C 28 		      	addu 	r4,r5,r6
01C534 67 E2 01 00 		      	push 	r4
01C538 B9 8B F6 FF 		      	bsr  	putstr_
01C53C 14 EF 21 00 		      	addui	sp,sp,#16
01C540 57 3F 10 00 		      	pop  	r3
01C544 82 40 00 1A 		      	mov  	r4,r1
01C548 02 32 02 70 		      	asli 	r3,r4,#1
01C54C C6 45 00 00 		      	lw   	r4,[r11]
01C550 02 42 06 28 		      	addu 	r4,r4,r3
01C554 E3 45 00 00 		      	sw   	r4,[r11]
01C558 FC 01 00 00 		      	push 	#debugger_200
01C55C 65 E0 2D D4 
01C560 B9 AC F6 FF 		      	bsr  	printf_
01C564 14 EF 11 00 		      	addui	sp,sp,#8
                	debugger_325:
01C568 E4 1D A0 FF 		      	inc  	-48[bp],#1
01C56C 3A F1 FF FF 		      	bra  	debugger_323
                	debugger_324:
01C570 BA 51 00 00 		      	bra  	debugger_314
                	debugger_317:
01C574 E3 0D A0 FF 		      	sw   	r0,-48[bp]
                	debugger_328:
01C578 C6 3D A0 FF 		      	lw   	r3,-48[bp]
01C57C C6 46 00 00 		      	lw   	r4,[r13]
01C580 82 51 08 0C 		      	cmp  	r5,r3,r4
01C584 BD 32 F0 00 		      	bge  	r5,debugger_329
01C588 B9 97 F6 FF 		      	bsr  	getcharNoWait_
01C58C 82 30 00 1A 		      	mov  	r3,r1
01C590 86 41 06 00 		      	cmp  	r4,r3,#3
01C594 3D 12 04 00 		      	bne  	r4,debugger_331
01C598 BA 39 00 00 		      	bra  	debugger_329
                	debugger_331:
01C59C C6 3D A0 FF 		      	lw   	r3,-48[bp]
01C5A0 7C 1E 01 00 		      	lw   	r4,muol_
01C5A4 46 40 70 CC 
01C5A8 82 31 08 32 		      	modu 	r3,r3,r4
01C5AC BD 11 64 00 		      	bne  	r3,debugger_333
01C5B0 46 37 00 00 		      	lw   	r3,[r14]
01C5B4 86 41 C4 00 		      	cmp  	r4,r3,#98
01C5B8 3D 02 10 00 		      	beq  	r4,debugger_336
01C5BC 86 41 C6 00 		      	cmp  	r4,r3,#99
01C5C0 3D 02 1E 00 		      	beq  	r4,debugger_337
01C5C4 86 41 D0 00 		      	cmp  	r4,r3,#104
01C5C8 3D 02 2E 00 		      	beq  	r4,debugger_338
01C5CC 86 41 EE 00 		      	cmp  	r4,r3,#119
01C5D0 3D 02 3E 00 		      	beq  	r4,debugger_339
01C5D4 3A 14 00 00 		      	bra  	debugger_335
                	debugger_336:
01C5D8 C6 45 00 00 		      	lw   	r4,[r11]
01C5DC C6 5D A0 FF 		      	lw   	r5,-48[bp]
01C5E0 02 32 0A 28 		      	addu 	r3,r4,r5
01C5E4 E7 E1 01 00 		      	push 	r3
01C5E8 FC 01 00 00 		      	push 	#debugger_201
01C5EC 65 E0 0D D4 
01C5F0 B9 9A F6 FF 		      	bsr  	printf_
01C5F4 14 EF 21 00 		      	addui	sp,sp,#16
01C5F8 BA 0F 00 00 		      	bra  	debugger_335
                	debugger_337:
01C5FC C6 45 00 00 		      	lw   	r4,[r11]
01C600 C6 6D A0 FF 		      	lw   	r6,-48[bp]
01C604 02 53 02 70 		      	asli 	r5,r6,#1
01C608 02 32 0A 28 		      	addu 	r3,r4,r5
01C60C E7 E1 01 00 		      	push 	r3
01C610 FC 01 00 00 		      	push 	#debugger_202
01C614 65 E0 ED D3 
01C618 B9 95 F6 FF 		      	bsr  	printf_
01C61C 14 EF 21 00 		      	addui	sp,sp,#16
01C620 BA 0A 00 00 		      	bra  	debugger_335
                	debugger_338:
01C624 C6 45 00 00 		      	lw   	r4,[r11]
01C628 C6 6D A0 FF 		      	lw   	r6,-48[bp]
01C62C 02 53 04 70 		      	asli 	r5,r6,#2
01C630 02 32 0A 28 		      	addu 	r3,r4,r5
01C634 E7 E1 01 00 		      	push 	r3
01C638 FC 01 00 00 		      	push 	#debugger_203
01C63C 65 E0 CD D3 
01C640 B9 90 F6 FF 		      	bsr  	printf_
01C644 14 EF 21 00 		      	addui	sp,sp,#16
01C648 BA 05 00 00 		      	bra  	debugger_335
                	debugger_339:
01C64C C6 45 00 00 		      	lw   	r4,[r11]
01C650 C6 6D A0 FF 		      	lw   	r6,-48[bp]
01C654 02 53 06 70 		      	asli 	r5,r6,#3
01C658 02 32 0A 28 		      	addu 	r3,r4,r5
01C65C E7 E1 01 00 		      	push 	r3
01C660 FC 01 00 00 		      	push 	#debugger_204
01C664 65 E0 AD D3 
01C668 B9 8B F6 FF 		      	bsr  	printf_
01C66C 14 EF 21 00 		      	addui	sp,sp,#16
01C670 BA 00 00 00 		      	bra  	debugger_335
                	debugger_335:
                	debugger_333:
                		      	     	 right here ; 
01C674 46 37 00 00 		      	lw   	r3,[r14]
01C678 86 41 C4 00 		      	cmp  	r4,r3,#98
01C67C 3D 02 10 00 		      	beq  	r4,debugger_341
01C680 86 41 C6 00 		      	cmp  	r4,r3,#99
01C684 3D 02 22 00 		      	beq  	r4,debugger_342
01C688 86 41 D0 00 		      	cmp  	r4,r3,#104
01C68C 3D 02 36 00 		      	beq  	r4,debugger_343
01C690 86 41 EE 00 		      	cmp  	r4,r3,#119
01C694 3D 02 4C 00 		      	beq  	r4,debugger_344
01C698 BA 18 00 00 		      	bra  	debugger_340
                	debugger_341:
01C69C C6 45 00 00 		      	lw   	r4,[r11]
01C6A0 C6 5D A0 FF 		      	lw   	r5,-48[bp]
01C6A4 02 32 0A 28 		      	addu 	r3,r4,r5
01C6A8 7C 1E 01 00 		      	lbu  	r3,bmem_[r3]
01C6AC C1 31 80 CC 
01C6B0 E7 E1 01 00 		      	push 	r3
01C6B4 FC 01 00 00 		      	push 	#debugger_205
01C6B8 65 E0 95 D3 
01C6BC 39 81 F6 FF 		      	bsr  	printf_
01C6C0 14 EF 21 00 		      	addui	sp,sp,#16
01C6C4 3A 13 00 00 		      	bra  	debugger_340
                	debugger_342:
01C6C8 C6 65 00 00 		      	lw   	r6,[r11]
01C6CC 02 53 02 78 		      	asri 	r5,r6,#1
01C6D0 C6 6D A0 FF 		      	lw   	r6,-48[bp]
01C6D4 82 42 0C 28 		      	addu 	r4,r5,r6
01C6D8 02 32 02 70 		      	asli 	r3,r4,#1
01C6DC CB 31 18 00 		      	lcu  	r3,[r3+r12]
01C6E0 E7 E1 01 00 		      	push 	r3
01C6E4 FC 01 00 00 		      	push 	#debugger_206
01C6E8 65 E0 7D D3 
01C6EC 39 7B F6 FF 		      	bsr  	printf_
01C6F0 14 EF 21 00 		      	addui	sp,sp,#16
01C6F4 3A 0D 00 00 		      	bra  	debugger_340
                	debugger_343:
01C6F8 C6 65 00 00 		      	lw   	r6,[r11]
01C6FC 02 53 04 78 		      	asri 	r5,r6,#2
01C700 C6 6D A0 FF 		      	lw   	r6,-48[bp]
01C704 82 42 0C 28 		      	addu 	r4,r5,r6
01C708 02 32 04 70 		      	asli 	r3,r4,#2
01C70C 7C 1E 01 00 		      	lhu  	r3,hmem_[r3]
01C710 C5 31 A0 CC 
01C714 E7 E1 01 00 		      	push 	r3
01C718 FC 01 00 00 		      	push 	#debugger_207
01C71C 65 E0 65 D3 
01C720 B9 74 F6 FF 		      	bsr  	printf_
01C724 14 EF 21 00 		      	addui	sp,sp,#16
01C728 BA 06 00 00 		      	bra  	debugger_340
                	debugger_344:
01C72C C6 65 00 00 		      	lw   	r6,[r11]
01C730 02 53 06 78 		      	asri 	r5,r6,#3
01C734 C6 6D A0 FF 		      	lw   	r6,-48[bp]
01C738 82 42 0C 28 		      	addu 	r4,r5,r6
01C73C 02 32 06 70 		      	asli 	r3,r4,#3
01C740 7C 1E 01 00 		      	push 	wmem_[r3]
01C744 E6 E1 B1 CC 
01C748 FC 01 00 00 		      	push 	#debugger_208
01C74C 65 E0 49 D3 
01C750 B9 6E F6 FF 		      	bsr  	printf_
01C754 14 EF 21 00 		      	addui	sp,sp,#16
01C758 BA 00 00 00 		      	bra  	debugger_340
                	debugger_340:
                	debugger_330:
01C75C E4 1D A0 FF 		      	inc  	-48[bp],#1
01C760 3A C3 FF FF 		      	bra  	debugger_328
                	debugger_329:
01C764 46 37 00 00 		      	lw   	r3,[r14]
01C768 86 41 C4 00 		      	cmp  	r4,r3,#98
01C76C 3D 02 10 00 		      	beq  	r4,debugger_346
01C770 86 41 C6 00 		      	cmp  	r4,r3,#99
01C774 3D 02 16 00 		      	beq  	r4,debugger_347
01C778 86 41 D0 00 		      	cmp  	r4,r3,#104
01C77C 3D 02 1E 00 		      	beq  	r4,debugger_348
01C780 86 41 EE 00 		      	cmp  	r4,r3,#119
01C784 3D 02 26 00 		      	beq  	r4,debugger_349
01C788 3A 0C 00 00 		      	bra  	debugger_345
                	debugger_346:
01C78C C6 3D A0 FF 		      	lw   	r3,-48[bp]
01C790 C6 45 00 00 		      	lw   	r4,[r11]
01C794 02 42 06 28 		      	addu 	r4,r4,r3
01C798 E3 45 00 00 		      	sw   	r4,[r11]
01C79C BA 09 00 00 		      	bra  	debugger_345
                	debugger_347:
01C7A0 C6 4D A0 FF 		      	lw   	r4,-48[bp]
01C7A4 02 32 02 70 		      	asli 	r3,r4,#1
01C7A8 C6 45 00 00 		      	lw   	r4,[r11]
01C7AC 02 42 06 28 		      	addu 	r4,r4,r3
01C7B0 E3 45 00 00 		      	sw   	r4,[r11]
01C7B4 BA 06 00 00 		      	bra  	debugger_345
                	debugger_348:
01C7B8 C6 4D A0 FF 		      	lw   	r4,-48[bp]
01C7BC 02 32 04 70 		      	asli 	r3,r4,#2
01C7C0 C6 45 00 00 		      	lw   	r4,[r11]
01C7C4 02 42 06 28 		      	addu 	r4,r4,r3
01C7C8 E3 45 00 00 		      	sw   	r4,[r11]
01C7CC BA 03 00 00 		      	bra  	debugger_345
                	debugger_349:
01C7D0 C6 4D A0 FF 		      	lw   	r4,-48[bp]
01C7D4 02 32 06 70 		      	asli 	r3,r4,#3
01C7D8 C6 45 00 00 		      	lw   	r4,[r11]
01C7DC 02 42 06 28 		      	addu 	r4,r4,r3
01C7E0 E3 45 00 00 		      	sw   	r4,[r11]
01C7E4 BA 00 00 00 		      	bra  	debugger_345
                	debugger_345:
01C7E8 FC 01 00 00 		      	push 	#debugger_209
01C7EC 65 E0 3D D3 
01C7F0 B9 5A F6 FF 		      	bsr  	printf_
01C7F4 14 EF 11 00 		      	addui	sp,sp,#8
01C7F8 BA 00 00 00 		      	bra  	debugger_314
                	debugger_314:
                	debugger_213:
01C7FC BA 66 FE FF 		      	bra  	debugger_211
                	debugger_212:
01C800 0A 10 00 00 		      	ldi  	r1,#0
01C804 BA 75 FE FF 		      	bra  	debugger_225
                	debugger_210:
01C808 C6 FD 11 00 		      	lw   	lr,8[bp]
01C80C E3 FD 21 00 		      	sw   	lr,16[bp]
01C810 3A 74 FE FF 		      	bra  	debugger_225
                	endpublic
                	
                	public code dbg_irq_:
01C814 7C 1E 01 00 		      	     	         lea   sp,dbg_stack_+8192-8
01C818 47 E0 D1 C9 
01C81C 7C 1E 01 00 	         sw    r1,regs_+8
01C820 63 10 00 CA 
01C824 7C 1E 01 00 	         sw    r2,regs_+16
01C828 63 20 10 CA 
01C82C 7C 1E 01 00 	         sw    r3,regs_+24
01C830 63 30 20 CA 
01C834 7C 1E 01 00 	         sw    r4,regs_+32
01C838 63 40 30 CA 
01C83C 7C 1E 01 00 	         sw    r5,regs_+40
01C840 63 50 40 CA 
01C844 7C 1E 01 00 	         sw    r6,regs_+48
01C848 63 60 50 CA 
01C84C 7C 1E 01 00 	         sw    r7,regs_+56
01C850 63 70 60 CA 
01C854 7C 1E 01 00 	         sw    r8,regs_+64
01C858 63 80 70 CA 
01C85C 7C 1E 01 00 	         sw    r9,regs_+72
01C860 63 90 80 CA 
01C864 7C 1E 01 00 	         sw    r10,regs_+80
01C868 63 A0 90 CA 
01C86C 7C 1E 01 00 	         sw    r11,regs_+88
01C870 63 B0 A0 CA 
01C874 7C 1E 01 00 	         sw    r12,regs_+96
01C878 63 C0 B0 CA 
01C87C 7C 1E 01 00 	         sw    r13,regs_+104
01C880 63 D0 C0 CA 
01C884 7C 1E 01 00 	         sw    r14,regs_+112
01C888 63 E0 D0 CA 
01C88C 7C 1E 01 00 	         sw    r15,regs_+120
01C890 63 F0 E0 CA 
01C894 7C 1E 01 00 	         sw    r16,regs_+128
01C898 63 00 F1 CA 
01C89C 7C 1E 01 00 	         sw    r17,regs_+136
01C8A0 63 10 01 CB 
01C8A4 7C 1E 01 00 	         sw    r18,regs_+144
01C8A8 63 20 11 CB 
01C8AC 7C 1E 01 00 	         sw    r19,regs_+152
01C8B0 63 30 21 CB 
01C8B4 7C 1E 01 00 	         sw    r20,regs_+160
01C8B8 63 40 31 CB 
01C8BC 7C 1E 01 00 	         sw    r21,regs_+168
01C8C0 63 50 41 CB 
01C8C4 7C 1E 01 00 	         sw    r22,regs_+176
01C8C8 63 60 51 CB 
01C8CC 7C 1E 01 00 	         sw    r23,regs_+184
01C8D0 63 70 61 CB 
01C8D4 7C 1E 01 00 	         sw    r24,regs_+192
01C8D8 63 80 71 CB 
01C8DC 7C 1E 01 00 	         sw    r25,regs_+200
01C8E0 63 90 81 CB 
01C8E4 7C 1E 01 00 	         sw    r26,regs_+208
01C8E8 63 A0 91 CB 
01C8EC 7C 1E 01 00 	         sw    r27,regs_+216
01C8F0 63 B0 A1 CB 
01C8F4 7C 1E 01 00 	         sw    r28,regs_+224
01C8F8 63 C0 B1 CB 
01C8FC 7C 1E 01 00 	         sw    r29,regs_+232
01C900 63 D0 C1 CB 
01C904 7C 1E 01 00 	         sw    r30,regs_+240
01C908 63 E0 D1 CB 
01C90C 7C 1E 01 00 	         sw    r31,regs_+248
01C910 63 F0 E1 CB 
01C914 02 10 00 3E 	         mfspr r1,cr0
01C918 7C 1E 01 00 	         sw    r1,cr0save_
01C91C 63 10 F0 CB 
                	
01C920 02 10 6C 3E 	         mfspr r1,dbctrl
01C924 E7 E0 01 00 	         push  r1
01C928 02 00 6C 3C 	         mtspr dbctrl,r0
01C92C 02 10 0E 3E 	         mfspr r1,dpc
01C930 E7 E0 01 00 	         push  r1
01C934 B9 23 00 00 	         bsr   debugger_
01C938 14 EF 21 00 	         addui sp,sp,#16
                	         
01C93C 7C 1E 01 00 	         lw    r1,cr0save_
01C940 46 10 F0 CB 
01C944 82 00 00 3C 	         mtspr cr0,r1
01C948 7C 1E 01 00 	         lw    r1,regs_+8
01C94C 46 10 00 CA 
01C950 7C 1E 01 00 	         lw    r2,regs_+16
01C954 46 20 10 CA 
01C958 7C 1E 01 00 	         lw    r3,regs_+24
01C95C 46 30 20 CA 
01C960 7C 1E 01 00 	         lw    r4,regs_+32
01C964 46 40 30 CA 
01C968 7C 1E 01 00 	         lw    r5,regs_+40
01C96C 46 50 40 CA 
01C970 7C 1E 01 00 	         lw    r6,regs_+48
01C974 46 60 50 CA 
01C978 7C 1E 01 00 	         lw    r7,regs_+56
01C97C 46 70 60 CA 
01C980 7C 1E 01 00 	         lw    r8,regs_+64
01C984 46 80 70 CA 
01C988 7C 1E 01 00 	         lw    r9,regs_+72
01C98C 46 90 80 CA 
01C990 7C 1E 01 00 	         lw    r10,regs_+80
01C994 46 A0 90 CA 
01C998 7C 1E 01 00 	         lw    r11,regs_+88
01C99C 46 B0 A0 CA 
01C9A0 7C 1E 01 00 	         lw    r12,regs_+96
01C9A4 46 C0 B0 CA 
01C9A8 7C 1E 01 00 	         lw    r13,regs_+104
01C9AC 46 D0 C0 CA 
01C9B0 7C 1E 01 00 	         lw    r14,regs_+112
01C9B4 46 E0 D0 CA 
01C9B8 7C 1E 01 00 	         lw    r15,regs_+120
01C9BC 46 F0 E0 CA 
01C9C0 7C 1E 01 00 	         lw    r16,regs_+128
01C9C4 46 00 F1 CA 
01C9C8 7C 1E 01 00 	         lw    r17,regs_+136
01C9CC 46 10 01 CB 
01C9D0 7C 1E 01 00 	         lw    r18,regs_+144
01C9D4 46 20 11 CB 
01C9D8 7C 1E 01 00 	         lw    r19,regs_+152
01C9DC 46 30 21 CB 
01C9E0 7C 1E 01 00 	         lw    r20,regs_+160
01C9E4 46 40 31 CB 
01C9E8 7C 1E 01 00 	         lw    r21,regs_+168
01C9EC 46 50 41 CB 
01C9F0 7C 1E 01 00 	         lw    r22,regs_+176
01C9F4 46 60 51 CB 
01C9F8 7C 1E 01 00 	         lw    r23,regs_+184
01C9FC 46 70 61 CB 
01CA00 7C 1E 01 00 	         lw    r24,regs_+192
01CA04 46 80 71 CB 
01CA08 7C 1E 01 00 	         lw    r25,regs_+200
01CA0C 46 90 81 CB 
01CA10 7C 1E 01 00 	         lw    r26,regs_+208
01CA14 46 A0 91 CB 
01CA18 7C 1E 01 00 	         lw    r27,regs_+216
01CA1C 46 B0 A1 CB 
01CA20 7C 1E 01 00 	         lw    r28,regs_+224
01CA24 46 C0 B1 CB 
01CA28 7C 1E 01 00 	         lw    r29,regs_+232
01CA2C 46 D0 C1 CB 
01CA30 7C 1E 01 00 	         lw    r30,regs_+240
01CA34 46 E0 D1 CB 
01CA38 7C 1E 01 00 	         lw    r31,regs_+248
01CA3C 46 F0 E1 CB 
01CA40 02 E0 3B 6E 	         rtd
                	     
                	endpublic
                	
                		code
01CA44 00 00 00 00 		align	1
01CA48 00 00 00 00 
01CA4C 00 00 00 00 
                	
                	public code debugger_:
01CA50 E7 EF 01 00 		      	push 	lr
01CA54 67 EE 01 00 		      	push 	xlr
01CA58 E7 ED 01 00 		      	push 	bp
01CA5C FC 01 00 00 		      	ldi  	xlr,#debugger_353
01CA60 0A C0 09 9A 
01CA64 02 BF 01 1A 		      	mov  	bp,sp
01CA68 15 EF 51 00 		      	subui	sp,sp,#40
01CA6C E7 E5 01 00 		      	push 	r11
01CA70 67 E6 01 00 		      	push 	r12
01CA74 E7 E6 01 00 		      	push 	r13
01CA78 67 E7 01 00 		      	push 	r14
01CA7C 7C 1E 01 00 		      	ldi  	r11,#bmem_
01CA80 0A B0 80 CC 
01CA84 7C 1E 01 00 		      	ldi  	r12,#ssm_
01CA88 0A C0 00 CC 
01CA8C 7C 1E 01 00 		      	ldi  	r13,#dbg_dbctrl_
01CA90 0A D0 E0 C9 
01CA94 C6 3D 40 00 		      	lw   	r3,32[bp]
01CA98 E3 36 00 00 		      	sw   	r3,[r13]
01CA9C 7C D0 FF 00 		      	ldi  	r14,#4291821568
01CAA0 0A E0 00 00 
01CAA4 C6 4D 30 00 		      	lw   	r4,24[bp]
01CAA8 0C 32 F8 FF 		      	and  	r3,r4,#-4
01CAAC E3 3D 30 00 		      	sw   	r3,24[bp]
01CAB0 C6 3D 30 00 		      	lw   	r3,24[bp]
01CAB4 BD 01 0E 00 		      	beq  	r3,debugger_354
01CAB8 E6 ED 31 00 		      	push 	24[bp]
01CABC C6 4D 30 00 		      	lw   	r4,24[bp]
01CAC0 15 32 20 00 		      	subu 	r3,r4,#16
01CAC4 E7 E1 01 00 		      	push 	r3
01CAC8 39 BC FB FF 		      	bsr  	disassem20_
01CACC 14 EF 21 00 		      	addui	sp,sp,#16
                	debugger_354:
                	debugger_356:
01CAD0 FC 01 00 00 		      	push 	#debugger_352
01CAD4 65 E0 21 D3 
01CAD8 B9 FD F5 FF 		      	bsr  	printf_
01CADC 14 EF 11 00 		      	addui	sp,sp,#8
                	debugger_358:
01CAE0 B9 F0 F5 FF 		      	bsr  	getchar_
01CAE4 82 30 00 1A 		      	mov  	r3,r1
01CAE8 E1 3D FC FF 		      	sc   	r3,-2[bp]
01CAEC 46 36 00 00 		      	lw   	r3,[r12]
01CAF0 BD 01 A4 00 		      	beq  	r3,debugger_360
01CAF4 C3 3D FC FF 		      	lcu  	r3,-2[bp]
01CAF8 86 41 E6 00 		      	cmp  	r4,r3,#115
01CAFC 3D 12 2C 00 		      	bne  	r4,debugger_362
01CB00 C6 36 00 00 		      	lw   	r3,[r13]
01CB04 FC FF FF 1F 		      	andi 	r3,r3,#4611686018426404862
01CB08 FC F0 FF FF 
01CB0C 8C 31 FC FF 
01CB10 E3 36 00 00 		      	sw   	r3,[r13]
01CB14 C6 36 00 00 		      	lw   	r3,[r13]
01CB18 7C 00 00 20 		      	ori  	r3,r3,#4611686018427387904
01CB1C 7C 00 00 00 
01CB20 8D 31 00 00 
01CB24 E3 36 00 00 		      	sw   	r3,[r13]
01CB28 E6 E6 01 00 		      	push 	[r13]
01CB2C 39 0C FC FF 		      	bsr  	dbg_arm_
                	debugger_364:
01CB30 57 EF 10 00 		      	pop  	r14
01CB34 57 DF 10 00 		      	pop  	r13
01CB38 57 CF 10 00 		      	pop  	r12
01CB3C 57 BF 10 00 		      	pop  	r11
01CB40 82 ED 01 1A 		      	mov  	sp,bp
01CB44 57 BF 11 00 		      	pop  	bp
01CB48 57 CF 11 00 		      	pop  	xlr
01CB4C 57 FF 11 00 		      	pop  	lr
01CB50 37 FF 01 00 		      	rtl  	#0
                	debugger_362:
01CB54 C3 3D FC FF 		      	lcu  	r3,-2[bp]
01CB58 86 41 5A 00 		      	cmp  	r4,r3,#45
01CB5C 3D 02 08 00 		      	beq  	r4,debugger_367
01CB60 C3 3D FC FF 		      	lcu  	r3,-2[bp]
01CB64 86 41 06 00 		      	cmp  	r4,r3,#3
01CB68 3D 12 14 00 		      	bne  	r4,debugger_365
                	debugger_367:
01CB6C 63 06 00 00 		      	sw   	r0,[r12]
01CB70 C6 36 00 00 		      	lw   	r3,[r13]
01CB74 FC FF FF 1F 		      	andi 	r3,r3,#4611686018427387903
01CB78 FC FF FF FF 
01CB7C 8C 31 FE FF 
01CB80 E3 36 00 00 		      	sw   	r3,[r13]
01CB84 E6 E6 01 00 		      	push 	[r13]
01CB88 B9 00 FC FF 		      	bsr  	dbg_arm_
01CB8C BA F4 FF FF 		      	bra  	debugger_364
                	debugger_365:
01CB90 C3 3D FC FF 		      	lcu  	r3,-2[bp]
01CB94 86 41 DC 00 		      	cmp  	r4,r3,#110
01CB98 3D 12 4E 00 		      	bne  	r4,debugger_368
01CB9C 0A 30 04 00 		      	ldi  	r3,#2
01CBA0 63 36 00 00 		      	sw   	r3,[r12]
01CBA4 C6 36 00 00 		      	lw   	r3,[r13]
01CBA8 FC FF FF 1F 		      	andi 	r3,r3,#4611686018426404863
01CBAC FC F0 FF FF 
01CBB0 8C 31 FE FF 
01CBB4 E3 36 00 00 		      	sw   	r3,[r13]
01CBB8 C6 36 00 00 		      	lw   	r3,[r13]
01CBBC 7C 08 00 00 		      	ori  	r3,r3,#524289
01CBC0 8D 31 02 00 
01CBC4 E3 36 00 00 		      	sw   	r3,[r13]
01CBC8 C6 4D 30 00 		      	lw   	r4,24[bp]
01CBCC 49 42 16 00 		      	lbu  	r4,[r4+r11]
01CBD0 0C 32 FE 00 		      	and  	r3,r4,#127
01CBD4 86 41 F8 00 		      	cmp  	r4,r3,#124
01CBD8 3D 12 12 00 		      	bne  	r4,debugger_370
01CBDC C6 5D 30 00 		      	lw   	r5,24[bp]
01CBE0 94 42 08 00 		      	addu 	r4,r5,#4
01CBE4 49 42 16 00 		      	lbu  	r4,[r4+r11]
01CBE8 0C 32 FE 00 		      	and  	r3,r4,#127
01CBEC 86 41 F8 00 		      	cmp  	r4,r3,#124
01CBF0 3D 12 06 00 		      	bne  	r4,debugger_370
01CBF4 E4 CD 30 00 		      	inc  	24[bp],#12
01CBF8 BA 04 00 00 		      	bra  	debugger_371
                	debugger_370:
01CBFC C6 4D 30 00 		      	lw   	r4,24[bp]
01CC00 49 42 16 00 		      	lbu  	r4,[r4+r11]
01CC04 0C 32 FE 00 		      	and  	r3,r4,#127
01CC08 86 41 F8 00 		      	cmp  	r4,r3,#124
01CC0C 3D 12 06 00 		      	bne  	r4,debugger_372
01CC10 E4 8D 30 00 		      	inc  	24[bp],#8
01CC14 3A 01 00 00 		      	bra  	debugger_373
                	debugger_372:
01CC18 E4 4D 30 00 		      	inc  	24[bp],#4
                	debugger_373:
                	debugger_371:
01CC1C E6 ED 31 00 		      	push 	24[bp]
01CC20 65 E0 01 00 		      	push 	#0
01CC24 39 DF FB FF 		      	bsr  	dbg_SetDBAD_
01CC28 E6 E6 01 00 		      	push 	[r13]
01CC2C 39 EC FB FF 		      	bsr  	dbg_arm_
01CC30 3A E0 FF FF 		      	bra  	debugger_364
                	debugger_368:
01CC34 3A 07 00 00 		      	bra  	debugger_361
                	debugger_360:
01CC38 C3 3D FC FF 		      	lcu  	r3,-2[bp]
01CC3C 86 41 1A 00 		      	cmp  	r4,r3,#13
01CC40 3D 12 04 00 		      	bne  	r4,debugger_374
01CC44 3A 06 00 00 		      	bra  	debugger_359
                	debugger_374:
01CC48 C3 3D FC FF 		      	lcu  	r3,-2[bp]
01CC4C 86 41 18 00 		      	cmp  	r4,r3,#12
01CC50 3D 12 08 00 		      	bne  	r4,debugger_376
01CC54 39 BC F2 FF 		      	     	                           bsr ClearScreen_
                	                       
01CC58 39 C7 FB FF 		      	bsr  	dbg_HomeCursor_
01CC5C 3A 03 00 00 		      	bra  	debugger_359
                	debugger_376:
01CC60 C3 3D FC FF 		      	lcu  	r3,-2[bp]
01CC64 E7 E1 01 00 		      	push 	r3
01CC68 39 3D F5 FF 		      	bsr  	putch_
                	debugger_361:
01CC6C 0A 30 02 00 		      	ldi  	r3,#1
01CC70 BD 11 38 FF 		      	bne  	r3,debugger_358
                	debugger_359:
01CC74 B9 BA FB FF 		      	bsr  	dbg_GetCursorRow_
01CC78 82 30 00 1A 		      	mov  	r3,r1
01CC7C 82 31 00 20 		      	sxb  	r3,r3
01CC80 E3 3D E0 FF 		      	sw   	r3,-16[bp]
01CC84 39 BD FB FF 		      	bsr  	dbg_GetCursorCol_
01CC88 82 30 00 1A 		      	mov  	r3,r1
01CC8C 82 31 00 20 		      	sxb  	r3,r3
01CC90 E3 3D D0 FF 		      	sw   	r3,-24[bp]
01CC94 E3 0D B0 FF 		      	sw   	r0,-40[bp]
                	debugger_378:
01CC98 C6 3D B0 FF 		      	lw   	r3,-40[bp]
01CC9C 86 41 A8 00 		      	cmp  	r4,r3,#84
01CCA0 3D 32 24 00 		      	bge  	r4,debugger_379
01CCA4 C6 6D E0 FF 		      	lw   	r6,-16[bp]
01CCA8 07 63 A8 00 		      	mul  	r6,r6,#84
01CCAC C6 7D B0 FF 		      	lw   	r7,-40[bp]
01CCB0 02 53 0E 28 		      	addu 	r5,r6,r7
01CCB4 82 42 04 70 		      	asli 	r4,r5,#2
01CCB8 4D 47 08 00 		      	lhu  	r4,0[r14+r4]
01CCBC 0C 32 FE 07 		      	and  	r3,r4,#1023
01CCC0 E7 E1 01 00 		      	push 	r3
01CCC4 39 DD FB FF 		      	bsr  	CvtScreenToAscii_
01CCC8 82 30 00 1A 		      	mov  	r3,r1
01CCCC 82 31 00 22 		      	sxc  	r3,r3
01CCD0 C6 5D B0 FF 		      	lw   	r5,-40[bp]
01CCD4 82 42 02 70 		      	asli 	r4,r5,#1
01CCD8 7C 1E 01 00 		      	sc   	r3,linebuf_[r4]
01CCDC 61 32 50 88 
                	debugger_380:
01CCE0 E4 1D B0 FF 		      	inc  	-40[bp],#1
01CCE4 BA F6 FF FF 		      	bra  	debugger_378
                	debugger_379:
01CCE8 B9 66 FD FF 		      	bsr  	dbg_parse_begin_
01CCEC 82 30 00 1A 		      	mov  	r3,r1
01CCF0 86 41 02 00 		      	cmp  	r4,r3,#1
01CCF4 3D 12 04 00 		      	bne  	r4,debugger_381
01CCF8 3A 01 00 00 		      	bra  	debugger_357
                	debugger_381:
01CCFC BA BA FF FF 		      	bra  	debugger_356
                	debugger_357:
01CD00 3A C6 FF FF 		      	bra  	debugger_364
                	debugger_353:
01CD04 C6 FD 11 00 		      	lw   	lr,8[bp]
01CD08 E3 FD 21 00 		      	sw   	lr,16[bp]
01CD0C BA C4 FF FF 		      	bra  	debugger_364
                	endpublic
                	
                	public code dbg_init_:
01CD10 E7 EF 01 00 		      	push 	lr
01CD14 67 EE 01 00 		      	push 	xlr
01CD18 E7 ED 01 00 		      	push 	bp
01CD1C FC 01 00 00 		      	ldi  	xlr,#debugger_383
01CD20 0A C0 A9 9B 
01CD24 02 BF 01 1A 		      	mov  	bp,sp
01CD28 FC 01 00 00 		      	push 	#dbg_irq_
01CD2C 65 E0 29 90 
01CD30 65 E0 E1 03 		      	push 	#496
01CD34 39 A5 EC FF 		      	bsr  	set_vector_
01CD38 14 EF 21 00 		      	addui	sp,sp,#16
01CD3C FC 01 00 00 		      	push 	#dbg_irq_
01CD40 65 E0 29 90 
01CD44 65 E0 DF 03 		      	push 	#495
01CD48 B9 A2 EC FF 		      	bsr  	set_vector_
01CD4C 14 EF 21 00 		      	addui	sp,sp,#16
01CD50 7C 1E 01 00 		      	sw   	r0,ssm_
01CD54 63 00 00 CC 
01CD58 7C 1E 01 00 		      	sw   	r0,bmem_
01CD5C 63 00 80 CC 
01CD60 7C 1E 01 00 		      	sw   	r0,cmem_
01CD64 63 00 90 CC 
01CD68 7C 1E 01 00 		      	sw   	r0,hmem_
01CD6C 63 00 A0 CC 
01CD70 7C 1E 01 00 		      	sw   	r0,wmem_
01CD74 63 00 B0 CC 
01CD78 7C 01 00 00 		      	ldi  	r3,#65536
01CD7C 0A 30 00 00 
01CD80 7C 1E 01 00 		      	sw   	r3,curaddr_
01CD84 63 30 20 CC 
01CD88 0A 30 20 00 		      	ldi  	r3,#16
01CD8C 7C 1E 01 00 		      	sw   	r3,muol_
01CD90 63 30 70 CC 
01CD94 0A 30 C4 00 		      	ldi  	r3,#98
01CD98 7C 1E 01 00 		      	sw   	r3,cursz_
01CD9C 63 30 30 CC 
01CDA0 0A 30 F0 00 		      	ldi  	r3,#120
01CDA4 7C 1E 01 00 		      	sc   	r3,curfmt_
01CDA8 61 30 50 CC 
01CDAC 0A 30 02 00 		      	ldi  	r3,#1
01CDB0 7C 1E 01 00 		      	sw   	r3,currep_
01CDB4 63 30 60 CC 
01CDB8 7C 1E 01 00 		      	sw   	r0,dbg_dbctrl_
01CDBC 63 00 E0 C9 
                	debugger_384:
01CDC0 82 ED 01 1A 		      	mov  	sp,bp
01CDC4 57 BF 11 00 		      	pop  	bp
01CDC8 57 CF 11 00 		      	pop  	xlr
01CDCC 57 FF 11 00 		      	pop  	lr
01CDD0 37 FF 01 00 		      	rtl  	#0
                	debugger_383:
01CDD4 C6 FD 11 00 		      	lw   	lr,8[bp]
01CDD8 E3 FD 21 00 		      	sw   	lr,16[bp]
01CDDC BA FC FF FF 		      	bra  	debugger_384
                	endpublic
                	
                		code
                		align	16                	
                	putaddr:
01CDE0 15 EF 21 00 		      	subui	sp,sp,#16
01CDE4 E7 ED 01 00 		      	push 	bp
01CDE8 02 BF 01 1A 		      	mov  	bp,sp
01CDEC E7 EF 01 00 		      	     	        push  lr
01CDF0 C6 1D 30 00 	        lw    r1,24[bp]
01CDF4 39 9B E7 FF 	        bsr   DisplayHalf
01CDF8 0A 10 1A 00 	        ldi   r1,#'\r'
01CDFC B9 42 C7 FF 	        bsr   DisplayChar
01CE00 57 FF 11 00 	        pop   lr
                	    
                	ramtest_3:
01CE04 82 ED 01 1A 		      	mov  	sp,bp
01CE08 57 BF 11 00 		      	pop  	bp
01CE0C 37 FF 21 00 		      	rtl  	#16
                	badaddr:
01CE10 15 EF 21 00 		      	subui	sp,sp,#16
01CE14 E7 ED 01 00 		      	push 	bp
01CE18 02 BF 01 1A 		      	mov  	bp,sp
01CE1C E7 EF 01 00 		      	     	        push   lr
01CE20 7C C1 00 00 	        lea    r1,msgBadAddr
01CE24 47 10 B0 6C 
01CE28 39 A2 E7 FF 	        bsr    DisplayString16
01CE2C C6 1D 30 00 	        lw     r1,24[bp]
01CE30 B9 93 E7 FF 	        bsr    DisplayHalf
01CE34 0A 10 7A 00 	        ldi    r1,#'='
01CE38 39 3B C7 FF 	        bsr    DisplayChar
01CE3C C6 1D 30 00 	        lw     r1,24[bp]
01CE40 C6 10 00 00 	        lw     r1,[r1]
01CE44 39 91 E7 FF 	        bsr    DisplayHalf
01CE48 39 74 C6 FF 	        bsr    CRLF
01CE4C 57 FF 11 00 	        pop    lr
                	        
                	ramtest_6:
01CE50 82 ED 01 1A 		      	mov  	sp,bp
01CE54 57 BF 11 00 		      	pop  	bp
01CE58 37 FF 21 00 		      	rtl  	#16
                	ramtest_between:
01CE5C E7 EF 01 00 		      	push 	lr
01CE60 67 EE 01 00 		      	push 	xlr
01CE64 E7 ED 01 00 		      	push 	bp
01CE68 FC 01 00 00 		      	ldi  	xlr,#ramtest_9
01CE6C 0A C0 59 9F 
01CE70 02 BF 01 1A 		      	mov  	bp,sp
01CE74 15 EF 31 00 		      	subui	sp,sp,#24
01CE78 C6 3D 30 00 		      	lw   	r3,24[bp]
01CE7C 82 31 06 72 		      	lsr  	r3,r3,#3
01CE80 E3 3D 30 00 		      	sw   	r3,24[bp]
01CE84 C6 3D 40 00 		      	lw   	r3,32[bp]
01CE88 82 31 06 72 		      	lsr  	r3,r3,#3
01CE8C E3 3D 40 00 		      	sw   	r3,32[bp]
01CE90 C6 3D 30 00 		      	lw   	r3,24[bp]
01CE94 E3 3D F0 FF 		      	sw   	r3,-8[bp]
01CE98 E3 0D E0 FF 		      	sw   	r0,-16[bp]
01CE9C C6 3D 30 00 		      	lw   	r3,24[bp]
01CEA0 E3 3D F0 FF 		      	sw   	r3,-8[bp]
                	ramtest_10:
01CEA4 C6 3D F0 FF 		      	lw   	r3,-8[bp]
01CEA8 C6 4D 40 00 		      	lw   	r4,32[bp]
01CEAC 82 31 08 0C 		      	cmp  	r3,r3,r4
01CEB0 BD 31 2A 00 		      	bge  	r3,ramtest_11
01CEB4 C6 3D F0 FF 		      	lw   	r3,-8[bp]
01CEB8 C6 4D 50 00 		      	lw   	r4,40[bp]
01CEBC E3 41 00 00 		      	sw   	r4,[r3]
01CEC0 C6 3D F0 FF 		      	lw   	r3,-8[bp]
01CEC4 8C 31 FE 1F 		      	and  	r3,r3,#4095
01CEC8 BD 11 1A 00 		      	bne  	r3,ramtest_13
01CECC C6 3D F0 FF 		      	lw   	r3,-8[bp]
01CED0 82 31 18 78 		      	asri 	r3,r3,#12
01CED4 E7 E1 01 00 		      	push 	r3
01CED8 39 E1 FF FF 		      	bsr  	putaddr
01CEDC 14 EF 11 00 		      	addui	sp,sp,#8
01CEE0 39 24 C6 FF 		      	bsr  	getcharNoWait
01CEE4 82 30 00 1A 		      	mov  	r3,r1
01CEE8 E1 3D DC FF 		      	sc   	r3,-18[bp]
01CEEC C3 3D DC FF 		      	lcu  	r3,-18[bp]
01CEF0 86 31 06 00 		      	cmp  	r3,r3,#3
01CEF4 BD 11 04 00 		      	bne  	r3,ramtest_15
01CEF8 3A 14 00 00 		      	bra  	ramtest_8
                	ramtest_15:
                	ramtest_13:
                	ramtest_12:
01CEFC E4 8D F0 FF 		      	inc  	-8[bp],#8
01CF00 BA F4 FF FF 		      	bra  	ramtest_10
                	ramtest_11:
01CF04 B9 5C C6 FF 		      	     	bsr CRLF 
01CF08 C6 3D 30 00 		      	lw   	r3,24[bp]
01CF0C E3 3D F0 FF 		      	sw   	r3,-8[bp]
                	ramtest_17:
01CF10 C6 3D F0 FF 		      	lw   	r3,-8[bp]
01CF14 C6 4D 40 00 		      	lw   	r4,32[bp]
01CF18 82 31 08 0C 		      	cmp  	r3,r3,r4
01CF1C BD 31 3E 00 		      	bge  	r3,ramtest_18
01CF20 C6 3D F0 FF 		      	lw   	r3,-8[bp]
01CF24 C6 31 00 00 		      	lw   	r3,[r3]
01CF28 C6 4D 50 00 		      	lw   	r4,40[bp]
01CF2C 82 31 08 0C 		      	cmp  	r3,r3,r4
01CF30 BD 01 0A 00 		      	beq  	r3,ramtest_20
01CF34 E6 ED F1 FF 		      	push 	-8[bp]
01CF38 39 DB FF FF 		      	bsr  	badaddr
01CF3C 14 EF 11 00 		      	addui	sp,sp,#8
01CF40 E4 1D E0 FF 		      	inc  	-16[bp],#1
                	ramtest_20:
01CF44 C6 3D E0 FF 		      	lw   	r3,-16[bp]
01CF48 86 31 14 00 		      	cmp  	r3,r3,#10
01CF4C BD 51 04 00 		      	ble  	r3,ramtest_22
01CF50 3A 09 00 00 		      	bra  	ramtest_18
                	ramtest_22:
01CF54 C6 3D F0 FF 		      	lw   	r3,-8[bp]
01CF58 8C 31 FE 1F 		      	and  	r3,r3,#4095
01CF5C BD 11 1A 00 		      	bne  	r3,ramtest_24
01CF60 C6 3D F0 FF 		      	lw   	r3,-8[bp]
01CF64 82 31 18 78 		      	asri 	r3,r3,#12
01CF68 E7 E1 01 00 		      	push 	r3
01CF6C B9 CE FF FF 		      	bsr  	putaddr
01CF70 14 EF 11 00 		      	addui	sp,sp,#8
01CF74 B9 11 C6 FF 		      	bsr  	getcharNoWait
01CF78 82 30 00 1A 		      	mov  	r3,r1
01CF7C E1 3D DC FF 		      	sc   	r3,-18[bp]
01CF80 C3 3D DC FF 		      	lcu  	r3,-18[bp]
01CF84 86 31 06 00 		      	cmp  	r3,r3,#3
01CF88 BD 11 04 00 		      	bne  	r3,ramtest_26
01CF8C BA 01 00 00 		      	bra  	ramtest_8
                	ramtest_26:
                	ramtest_24:
                	ramtest_19:
01CF90 E4 8D F0 FF 		      	inc  	-8[bp],#8
01CF94 BA EF FF FF 		      	bra  	ramtest_17
                	ramtest_18:
                	ramtest_8:
                	ramtest_28:
01CF98 82 ED 01 1A 		      	mov  	sp,bp
01CF9C 57 BF 11 00 		      	pop  	bp
01CFA0 57 CF 11 00 		      	pop  	xlr
01CFA4 57 FF 11 00 		      	pop  	lr
01CFA8 37 FF 01 00 		      	rtl  	#0
                	ramtest_9:
01CFAC C6 FD 11 00 		      	lw   	lr,8[bp]
01CFB0 E3 FD 21 00 		      	sw   	lr,16[bp]
01CFB4 BA FC FF FF 		      	bra  	ramtest_28
                	public code ramtest:
01CFB8 E7 EF 01 00 		      	push 	lr
01CFBC 67 EE 01 00 		      	push 	xlr
01CFC0 E7 ED 01 00 		      	push 	bp
01CFC4 FC 01 00 00 		      	ldi  	xlr,#ramtest_29
01CFC8 0A C0 E9 A0 
01CFCC 02 BF 01 1A 		      	mov  	bp,sp
01CFD0 FC 2A 55 15 		      	push 	#-6149008514797120171
01CFD4 7C AA AA 55 
01CFD8 65 E0 AB AA 
01CFDC 7C 01 00 00 		      	push 	#65536
01CFE0 65 E0 01 00 
01CFE4 FC 00 00 00 		      	push 	#32768
01CFE8 65 E0 01 00 
01CFEC 39 CE FF FF 		      	bsr  	ramtest_between
01CFF0 14 EF 31 00 		      	addui	sp,sp,#24
01CFF4 7C D5 AA 2A 		      	push 	#6149008514797120170
01CFF8 FC 55 55 AA 
01CFFC 65 E0 55 55 
01D000 7C 01 00 00 		      	push 	#65536
01D004 65 E0 01 00 
01D008 FC 00 00 00 		      	push 	#32768
01D00C 65 E0 01 00 
01D010 B9 C9 FF FF 		      	bsr  	ramtest_between
01D014 14 EF 31 00 		      	addui	sp,sp,#24
01D018 FC 2A 55 15 		      	push 	#-6149008514797120171
01D01C 7C AA AA 55 
01D020 65 E0 AB AA 
01D024 7C 00 08 00 		      	push 	#134217728
01D028 65 E0 01 00 
01D02C 7C 02 00 00 		      	push 	#131072
01D030 65 E0 01 00 
01D034 B9 F9 C5 FF 		      	bsr  	ramtest_betweem
01D038 14 EF 31 00 		      	addui	sp,sp,#24
01D03C 7C D5 AA 2A 		      	push 	#6149008514797120170
01D040 FC 55 55 AA 
01D044 65 E0 55 55 
01D048 7C 00 08 00 		      	push 	#134217728
01D04C 65 E0 01 00 
01D050 7C 02 00 00 		      	push 	#131072
01D054 65 E0 01 00 
01D058 39 F5 C5 FF 		      	bsr  	ramtest_betweem
01D05C 14 EF 31 00 		      	addui	sp,sp,#24
                	ramtest_30:
01D060 82 ED 01 1A 		      	mov  	sp,bp
01D064 57 BF 11 00 		      	pop  	bp
01D068 57 CF 11 00 		      	pop  	xlr
01D06C 57 FF 11 00 		      	pop  	lr
01D070 37 FF 01 00 		      	rtl  	#0
                	ramtest_29:
01D074 C6 FD 11 00 		      	lw   	lr,8[bp]
01D078 E3 FD 21 00 		      	sw   	lr,16[bp]
01D07C BA FC FF FF 		      	bra  	ramtest_30
                	endpublic
                	
                		rodata
                		align	16                	
                		align	8                	
                		extern	Milliseconds_
                		extern	RTCC_BUF_
                		extern	RTCC_BUF_
                		rodata
                		align	16                	
                		align	8                	
                	;	global	sprites
                	;	global	pSpriteController
                	;	global	demo_stack
                		extern	getcharNoWait
                	;	global	sprite_main
                	;	global	sprite_main
                	;include "FMTK_Equates.inc"
                		rodata
                		align	16                	
                		align	8                	
                		extern	outh_
                	;	global	GetVBR_
                		extern	getCPU_
                	;	global	set_vector_
                	;	global	InitPIC_
                	;	global	InitPIC_
                		rodata
                		align	16                	
                		align	8                	
                	FMTKc_11:
01E000 4E 00 6F 00 20 00 65 00 		dc	78,111,32,101,110,116,114,105
01E008 6E 00 74 00 72 00 69 00 
01E010 65 00 73 00 20 00 69 00 		dc	101,115,32,105,110,32,114,101
01E018 6E 00 20 00 72 00 65 00 
01E020 61 00 64 00 79 00 20 00 		dc	97,100,121,32,113,117,101,117
01E028 71 00 75 00 65 00 75 00 
01E030 65 00 2E 00 00 00       		dc	101,46,0
                		extern	jcbs_
                		extern	tcbs_
                		extern	nMsgBlk_
                		extern	PopTimeoutList_
                		extern	putstr_
                	;	global	FMTK_SetTaskPriority_
                	;	global	outb_
                		extern	IOFocusTbl_
                	;	global	outc_
                	;	global	FMTK_ExitTask_
                	;	global	outh_
                		extern	irq_stack_
                		extern	IOFocusNdx_
                		extern	DumpTaskList_
                	;	global	outw_
                		extern	fmtk_irq_stack_
                		extern	GetRunningTCB_
                		extern	fmtk_sys_stack_
                		extern	message_
                	;	global	SetRunningTCB_
                		extern	mailbox_
                		extern	FMTK_Inited_
                		extern	missed_ticks_
                	;	global	panic_
                	;	global	chkTCB_
                		extern	GetRunningTCBPtr_
                	;	global	UnlockSemaphore_
                	;	global	IdleTask_
                	;	global	GetVecno_
                	;	global	FMTK_SchedulerIRQ_
                	;	global	GetJCBPtr_
                		extern	video_bufs_
                		extern	getCPU_
                		extern	hasUltraHighPriorityTasks_
                	;	global	LockSemaphore_
                		extern	iof_switch_
                	;	global	FMTK_StartTask_
                		extern	nMailbox_
                		extern	FMTK_FreeMbx_
                	;	global	set_vector_
                		extern	iof_sema_
                	;	global	FMTKInitialize_
                		extern	sys_stacks_
                		extern	BIOS_RespMbx_
                	;	global	DisplayIRQLive_
                		extern	BIOS1_sema_
                		extern	sys_sema_
                		extern	readyQ_
                	;	global	FMTK_BrTbl_
                		extern	sysstack_
                		extern	freeTCB_
                		extern	RequestIOFocus_
                		extern	TimeoutList_
                	;	global	RemoveFromTimeoutList_
                	;	global	SetBound50_
                		extern	stacks_
                		extern	freeMSG_
                		extern	freeMBX_
                	;	global	SetBound51_
                	;	global	FMTK_Sleep_
                	;	global	SetBound48_
                	;	global	SetBound49_
                	;	global	InsertIntoTimeoutList_
                	;	global	FMTK_SystemCall_
                	;	global	RemoveFromReadyList_
                	;	global	sp_tmp_
                		extern	bios_stacks_
                	;	global	InsertIntoReadyList_
                	;	global	InsertIntoReadyList_
                		rodata
01E036 00 00 00 00 00 00 00 00 		align	1
01E03E 00 00                   
                	
                		align	8                	
                		extern	jcbs_
                	;	global	FMTK_AllocMbx_
                		extern	tcbs_
                		extern	nMsgBlk_
                	;	global	outb_
                		extern	IOFocusTbl_
                	;	global	outc_
                	;	global	outh_
                		extern	irq_stack_
                		extern	IOFocusNdx_
                		extern	DumpTaskList_
                	;	global	outw_
                		extern	fmtk_irq_stack_
                		extern	GetRunningTCB_
                		extern	DequeueThreadFromMbx_
                		extern	fmtk_sys_stack_
                		extern	message_
                	;	global	SetRunningTCB_
                		extern	mailbox_
                		extern	FMTK_Inited_
                	;	global	SetMbxMsgQueStrategy_
                		extern	missed_ticks_
                		extern	CheckMsg_
                		extern	DequeThreadFromMbx_
                	;	global	chkTCB_
                		extern	GetRunningTCBPtr_
                	;	global	UnlockSemaphore_
                		extern	GetVecno_
                		extern	GetJCBPtr_
                		extern	video_bufs_
                		extern	getCPU_
                		extern	hasUltraHighPriorityTasks_
                	;	global	LockSemaphore_
                		extern	iof_switch_
                		extern	nMailbox_
                	;	global	FMTK_FreeMbx_
                	;	global	FMTK_PeekMsg_
                	;	global	set_vector_
                	;	global	FMTK_SendMsg_
                		extern	iof_sema_
                		extern	sys_stacks_
                		extern	BIOS_RespMbx_
                	;	global	FMTK_WaitMsg_
                	;	global	FMTK_PostMsg_
                		extern	BIOS1_sema_
                		extern	sys_sema_
                		extern	readyQ_
                		extern	sysstack_
                		extern	freeTCB_
                		extern	TimeoutList_
                	;	global	RemoveFromTimeoutList_
                	;	global	SetBound50_
                		extern	stacks_
                		extern	freeMSG_
                		extern	freeMBX_
                	;	global	SetBound51_
                	;	global	SetBound48_
                	;	global	SetBound49_
                	;	global	InsertIntoTimeoutList_
                	;	global	RemoveFromReadyList_
                		extern	bios_stacks_
                	;	global	FMTK_CheckMsg_
                	;	global	InsertIntoReadyList_
                	;	global	InsertIntoReadyList_
                		rodata
                		align	16                	
                		align	8                	
                	TCB_49:
01E040 25 00 33 00 64 00 20 00 		dc	37,51,100,32,37,51,100,32
01E048 25 00 33 00 64 00 20 00 
01E050 20 00 25 00 30 00 32 00 		dc	32,37,48,50,88,32,32,37
01E058 58 00 20 00 20 00 25 00 
01E060 30 00 34 00 58 00 20 00 		dc	48,52,88,32,37,48,52,88
01E068 25 00 30 00 34 00 58 00 
01E070 20 00 25 00 30 00 34 00 		dc	32,37,48,52,88,32,37,48
01E078 58 00 20 00 25 00 30 00 
01E080 38 00 58 00 20 00 25 00 		dc	56,88,32,37,48,56,88,13
01E088 30 00 38 00 58 00 0D 00 
01E090 0A 00 00 00             		dc	10,0
                	TCB_48:
01E094 43 00 50 00 55 00 20 00 		dc	67,80,85,32,80,114,105,32
01E09C 50 00 72 00 69 00 20 00 
01E0A4 53 00 74 00 61 00 74 00 		dc	83,116,97,116,32,84,97,115
01E0AC 20 00 54 00 61 00 73 00 
01E0B4 6B 00 20 00 50 00 72 00 		dc	107,32,80,114,101,118,32,78
01E0BC 65 00 76 00 20 00 4E 00 
01E0C4 65 00 78 00 74 00 20 00 		dc	101,120,116,32,84,105,109,101
01E0CC 54 00 69 00 6D 00 65 00 
01E0D4 6F 00 75 00 74 00 0D 00 		dc	111,117,116,13,10,0
01E0DC 0A 00 00 00             
                	;	global	tcbs_
                	;	global	PopTimeoutList_
                	;	global	outb_
                	;	global	outc_
                	;	global	outh_
                	;	global	DumpTaskList_
                	;	global	outw_
                	;	global	GetRunningTCB_
                	;	global	SetRunningTCB_
                	;	global	chkTCB_
                	;	global	GetRunningTCBPtr_
                	;	global	UnlockSemaphore_
                		extern	GetVecno_
                		extern	GetJCBPtr_
                		extern	getCPU_
                		extern	hasUltraHighPriorityTasks_
                	;	global	LockSemaphore_
                		extern	getcharNoWait_
                	;	global	set_vector_
                	;	global	readyQ_
                	;	global	freeTCB_
                	;	global	TimeoutList_
                	;	global	RemoveFromTimeoutList_
                	;	global	SetBound50_
                	;	global	SetBound51_
                	;	global	SetBound48_
                	;	global	SetBound49_
                	;	global	InsertIntoTimeoutList_
                	;	global	RemoveFromReadyList_
                		extern	printf_
                	;	global	InsertIntoReadyList_
                	;	global	InsertIntoReadyList_
                		rodata
                		align	16                	
                		align	8                	
                	;	global	GetScreenLocation_
                	;	global	outb_
                	;	global	outc_
                	;	global	outh_
                		extern	IOFocusNdx_
                		extern	DumpTaskList_
                	;	global	SetCursorCol_
                	;	global	outw_
                	;	global	GetCursorPos_
                		extern	memsetH_
                		extern	GetRunningTCB_
                	;	global	SetCursorPos_
                		extern	memsetW_
                	;	global	SetRunningTCB_
                	;	global	HomeCursor_
                	;	global	AsciiToScreen_
                	;	global	ScreenToAscii_
                	;	global	CalcScreenLocation_
                	;	global	chkTCB_
                		extern	GetRunningTCBPtr_
                	;	global	UnlockSemaphore_
                	;	global	UpdateCursorPos_
                		extern	GetVecno_
                		extern	GetJCBPtr_
                	;	global	CRLF_
                		extern	getCPU_
                	;	global	LockSemaphore_
                	;	global	ScrollUp_
                	;	global	set_vector_
                	;	global	SetVideoReg_
                	;	global	ClearScreen_
                	;	global	DisplayString_
                	;	global	DisplayChar_
                	;	global	IncrementCursorPos_
                	;	global	GetTextCols_
                	;	global	GetCurrAttr_
                	;	global	IncrementCursorRow_
                	;	global	SetCurrAttr_
                	;	global	ClearBmpScreen_
                	;	global	GetTextRows_
                	;	global	BlankLine_
                	;	global	DisplayStringCRLF_
                	;	global	RemoveFromTimeoutList_
                	;	global	SetBound50_
                	;	global	SetBound51_
                	;	global	SetBound48_
                	;	global	SetBound49_
                	;	global	InsertIntoTimeoutList_
                	;	global	RemoveFromReadyList_
                	;	global	InsertIntoReadyList_
                	;	global	InsertIntoReadyList_
                		rodata
                		align	16                	
                		align	8                	
                		extern	jcbs_
                		extern	tcbs_
                		extern	nMsgBlk_
                		extern	IOFocusTbl_
                	;	global	outb_
                	;	global	outc_
                	;	global	outh_
                		extern	irq_stack_
                		extern	IOFocusNdx_
                		extern	DumpTaskList_
                	;	global	outw_
                		extern	fmtk_irq_stack_
                		extern	GetRunningTCB_
                	;	global	KeybdIRQ_
                		extern	keybdControlCodes_
                		extern	fmtk_sys_stack_
                		extern	message_
                	;	global	SetRunningTCB_
                		extern	mailbox_
                	;	global	KeybdGetBufferStatus_
                		extern	FMTK_Inited_
                		extern	KeybdClearRcv_
                		extern	missed_ticks_
                	;	global	KeybdGetBufferedCharNoWait_
                	;	global	chkTCB_
                		extern	GetRunningTCBPtr_
                	;	global	UnlockSemaphore_
                		extern	GetVecno_
                		extern	GetJCBPtr_
                		extern	video_bufs_
                		extern	getCPU_
                		extern	hasUltraHighPriorityTasks_
                	;	global	LockSemaphore_
                		extern	keybdExtendedCodes_
                		extern	iof_switch_
                	;	global	keybd_irq_stack_
                		extern	KeybdGetScancode_
                		extern	nMailbox_
                		extern	unshiftedScanCodes_
                	;	global	set_vector_
                		extern	iof_sema_
                	;	global	KeybdGetBufferedCharWait_
                		extern	sys_stacks_
                		extern	BIOS_RespMbx_
                	;	global	KeybdGetBufferedScancode_
                		extern	shiftedScanCodes_
                		extern	BIOS1_sema_
                		extern	sys_sema_
                		extern	readyQ_
                		extern	sysstack_
                		extern	freeTCB_
                		extern	TimeoutList_
                	;	global	RemoveFromTimeoutList_
                		extern	stacks_
                		extern	freeMSG_
                		extern	freeMBX_
                	;	global	SetBound50_
                	;	global	SetBound51_
                	;	global	SetBound48_
                	;	global	SetBound49_
                	;	global	InsertIntoTimeoutList_
                	;	global	RemoveFromReadyList_
                		extern	KeybdGetStatus_
                		extern	bios_stacks_
                	;	global	InsertIntoReadyList_
                	;	global	InsertIntoReadyList_
                		rodata
                		align	16                	
                		align	8                	
                	;	global	LockSemaphore_
                	;	global	LockSemaphore_
                		rodata
                		align	16                	
                		align	8                	
                	;	global	UnlockSemaphore_
                	;	global	UnlockSemaphore_
                	;------------------------------------------------------------------------------
                	; Lock the semaphore.
                	;
                	; Occasionally the semaphore fails to lock correctly and the system hangs up
                	; waiting for the semaphore lock. This could be because the SWCR works but
                	; cr0 doesn't get updated, or the bfextu instruction fails?? So the lock is
                	; tested to see if the current task is the one holding the lock. If same task
                	; that holds the lock is attempting a new lock, then we just return and assume
                	; a successful lock. The problem with this approach is if the task attempts a
                	; lock both while running and during an interrupt routine. The resource wouldn't
                	; be corectly protected in that case. So no BIOS calls during interrupt
                	; routines! The BIOS isn't re-entrant.
                	;
                	; Parameters:
                	; r1 = address of semaphore to lock
                	;------------------------------------------------------------------------------
                	
                	LockSema:
01E0E0 67 E1 01 00             	    push    r2
01E0E4 E7 E1 01 00             	    push    r3
                	
                	    ; Interrupts should be already enabled or there would be no way for a locked
                	    ; semaphore to clear. Let's enable interrupts just in case.
01E0E8 02 00 00 6E             	    cli
                	.0001:
01E0EC DC 30 00 00             	    lwar    r3,[r1]
01E0F0 BD 01 0A 00             	    beq     r3,.0003            ; branch if free
01E0F4 82 21 30 2C             	    cmpu    r2,r3,tr            ; test if already locked by this task
01E0F8 3D 01 12 00             	    beq     r2,.0002
01E0FC 82 21 60 34             	    chk     r2,r3,b48           ; check if locked by a valid task
01E100 3D 11 F6 FF             	    bne     r2,.0001
                	.0003:
01E104 EE 80 01 00             	    swcr    tr,[r1]             ; try and lock it
01E108 3F 00 00 00             	    nop                         ; cr0 needs time to update???
01E10C 3F 00 00 00             	    nop
01E110 02 30 00 3E             	    mfspr   r3,cr0
01E114 83 31 48 D2             	    bfextu  r3,r3,#36,#36       ; status is bit 36 of cr0
01E118 BD 01 EA FF             	    beq     r3,.0001            ; lock failed, go try again
                	.0002:
01E11C 57 3F 10 00             	    pop     r3
01E120 57 2F 10 00             	    pop     r2
01E124 37 FF 01 00             	    rtl

                	;------------------------------------------------------------------------------
                	; Unlock a semaphore
                	;
                	; When unlocking the semaphore a test is made to see if the semaphore is still
                	; locked by same task attempting an unlock. If that is the case then the 
                	; SW instruction must have failed to clear the semaphore. So that the system
                	; isn't hung, we go back and redo the unlock.
                	;------------------------------------------------------------------------------
                	
                	UnlockSema:
01E128 67 E1 01 00             	    push    r2
01E12C E7 E1 01 00             	    push    r3
                	.0001:
01E130 E3 00 00 00             	    sw      r0,[r1]
01E134 C6 20 00 00             	    lw      r2,[r1]
01E138 3D 01 0A 00             	    beq     r2,.0002  ; the semaphore is unlock, by this task or another
01E13C 02 31 30 2C             	    cmpu    r3,r2,tr
01E140 BD 01 F8 FF             	    beq     r3,.0001  ; ??? this task still has it locked - store failed
                	    ; Here the semaphore was locked, but not by this task anymore. Another task
                	    ; must have interceded amd locked the semaphore right after it was unlocked
                	    ; by this task. Make sure this is the case, and it's not just bad memory.
                	    ; Make sure the semaphore was locked by a valid task
01E144 02 31 60 34             	    chk     r3,r2,b48
01E148 BD 01 F4 FF             	    beq     r3,.0001
                	    ; Here the semaphore probably was validly locked by a different task.
                	    ; Assume the unlock must have been successful.
                	.0002:
01E14C 57 3F 10 00             	    pop     r3
01E150 57 2F 10 00             	    pop     r2
01E154 37 FF 01 00             	    rtl

                	;------------------------------------------------------------------------------
                	; Lock/unlock routines.
                	;------------------------------------------------------------------------------
                	
                	LockSYS_:
01E158 E7 EF 01 00             	    push    lr
01E15C E7 E0 01 00             	    push    r1
01E160 7C 0D 01 00 47 10 C0 E0 	    lea     r1,sys_sema_
01E168 39 EF FF FF             	    bsr     LockSema
01E16C 57 1F 10 00             	    pop     r1
01E170 3B FF 11 00             	    rts
UnlockSYS_:
01E174 E7 EF 01 00             	    push    lr
01E178 E7 E0 01 00             	    push    r1
01E17C 7C 0D 01 00 47 10 C0 E0 	    lea     r1,sys_sema_
01E184 B9 F4 FF FF             	    bsr     UnlockSema
01E188 57 1F 10 00             	    pop     r1
01E18C 3B FF 11 00             	    rts
LockIOF_:
01E190 E7 EF 01 00             	     push    lr
01E194 E7 E0 01 00             	     push    r1
01E198 7C 0D 01 00 0A 10 B0 E0 	     ldi     r1,#iof_sema_
01E1A0 39 E8 FF FF             	     bsr     LockSema
01E1A4 57 1F 10 00             	     pop     r1
01E1A8 3B FF 11 00             	     rts
UnlockIOF_:
01E1AC E7 EF 01 00             	     push   lr
01E1B0 E7 E0 01 00             	     push   r1
01E1B4 7C 0D 01 00 47 10 B0 E0 	     lea    r1,iof_sema_
01E1BC B9 ED FF FF             	     bsr    UnlockSema
01E1C0 57 1F 10 00             	     pop    r1
01E1C4 3B FF 11 00             	     rts
     
                	     
                		rodata
01E1C8 00 00 00 00 00 00 00 00 		align	1
                	
                		align	8                	
                	;	global	outb_
                		extern	IOFocusTbl_
                	;	global	outc_
                	;	global	outh_
                		extern	IOFocusNdx_
                		extern	DumpTaskList_
                	;	global	outw_
                		extern	GetRunningTCB_
                	;	global	SetRunningTCB_
                	;	global	CopyScreenToVirtualScreen_
                	;	global	CopyVirtualScreenToScreen_
                	;	global	SwitchIOFocus_
                	;	global	chkTCB_
                		extern	GetRunningTCBPtr_
                	;	global	UnlockSemaphore_
                		extern	GetVecno_
                		extern	GetJCBPtr_
                		extern	getCPU_
                	;	global	LockSemaphore_
                	;	global	set_vector_
                		extern	SetVideoReg_
                	;	global	ForceReleaseIOFocus_
                		extern	UnlockIOF_
                	;	global	ReleaseIOFocus_
                		extern	LockIOF_
                	;	global	RequestIOFocus_
                	;	global	RemoveFromTimeoutList_
                	;	global	ForceIOFocus_
                	;	global	SetBound50_
                	;	global	SetBound51_
                	;	global	SetBound48_
                	;	global	SetBound49_
                	;	global	InsertIntoTimeoutList_
                	;	global	RemoveFromReadyList_
                	;	global	InsertIntoReadyList_
                	;	global	InsertIntoReadyList_
                		rodata
                		align	16                	
                		align	8                	
                	;	global	putnum_
                	;	global	putstr_
                	;	global	getchar_
                	;	global	putstr2_
                		extern	isdigit_
                	;	global	puthexnum_
                	;	global	putch_
                	;	global	getcharNoWait_
                	;	global	printf_
                	;	global	printf_
                		rodata
                		align	16                	
                		align	8                	
                	;	global	strcpy_
                	;	global	memcpyH_
                	;	global	memsetH_
                	;	global	memcpyW_
                	;	global	memsetW_
                	;	global	strncmp_
                	;	global	strncpy_
                	;	global	memchr_
                	;	global	memcpy_
                	;	global	memset_
                	;	global	strchr_
                	;	global	strlen_
                	;	global	strlen_
                		rodata
                		align	16                	
                		align	8                	
                	;	global	isalpha_
                	;	global	isspace_
                	;	global	isdigit_
                	;	global	isgraph_
                	;	global	isalnum_
                	;	global	iscntrl_
                	;	global	islower_
                	;	global	ispunct_
                	;	global	isupper_
                	;	global	isprint_
                	;	global	tolower_
                	;	global	toupper_
                	;	global	isxdigit_
                	;	global	isxdigit_
                		rodata
                		align	16                	
                		align	8                	
                	;	global	getCPU_
                	;	global	getCPU_
                		rodata
                		align	16                	
                		align	8                	
                	;	global	outb_
                	;	global	outb_
                		rodata
                		align	16                	
                		align	8                	
                	;	global	outc_
                	;	global	outc_
                		rodata
                		align	16                	
                		align	8                	
                	;	global	outh_
                	;	global	outh_
                		rodata
                		align	16                	
                		align	8                	
                	;	global	outw_
                	;	global	outw_
                	;------------------------------------------------------------------------------
                	; Lock the semaphore.
                	;
                	; Occasionally the semaphore fails to lock correctly and the system hangs up
                	; waiting for the semaphore lock. This could be because the SWCR works but
                	; cr0 doesn't get updated, or the bfextu instruction fails?? So the lock is
                	; tested to see if the current task is the one holding the lock. If same task
                	; that holds the lock is attempting a new lock, then we just return and assume
                	; a successful lock. The problem with this approach is if the task attempts a
                	; lock both while running and during an interrupt routine. The resource wouldn't
                	; be corectly protected in that case. So no BIOS calls during interrupt
                	; routines! The BIOS isn't re-entrant.
                	;
                	; Parameters:
                	; r1 = address of semaphore to lock
                	; r2 = number of times to retry
                	;------------------------------------------------------------------------------
                	
                	_LockSema:
01E1D0 67 E2 01 00             	    push    r4
01E1D4 E7 E1 01 00             	    push    r3
                	
                	    ; Interrupts should be already enabled or there would be no way for a locked
                	    ; semaphore to clear. Let's enable interrupts just in case.
01E1D8 02 00 00 6E             	    cli
                	.0001:
01E1DC 3D 01 24 00             	    beq     r2,.0004  
01E1E0 15 21 02 00             	    subui   r2,r2,#1  
01E1E4 DC 30 00 00             	    lwar    r3,[r1]
01E1E8 BD 01 0A 00             	    beq     r3,.0003            ; branch if free
01E1EC 82 21 30 2C             	    cmpu    r2,r3,tr            ; test if already locked by this task
01E1F0 3D 01 12 00             	    beq     r2,.0002
01E1F4 82 21 60 34             	    chk     r2,r3,b48           ; check if locked by a valid task
01E1F8 3D 11 F2 FF             	    bne     r2,.0001
                	.0003:
01E1FC EE 80 01 00             	    swcr    tr,[r1]             ; try and lock it
01E200 3F 00 00 00             	    nop                         ; cr0 needs time to update???
01E204 3F 00 00 00             	    nop
01E208 02 30 00 3E             	    mfspr   r3,cr0
01E20C 83 31 48 D2             	    bfextu  r3,r3,#36,#36       ; status is bit 36 of cr0
01E210 BD 01 E6 FF             	    beq     r3,.0001            ; lock failed, go try again
                	.0002:
01E214 0A 10 02 00             	    ldi     r1,#1
01E218 57 3F 10 00             	    pop     r3
01E21C 57 4F 10 00             	    pop     r4
01E220 37 FF 01 00             	    rtl
.0004:
01E224 0A 10 00 00             	    ldi     r1,#0
01E228 57 3F 10 00             	    pop     r3
01E22C 57 4F 10 00             	    pop     r4
01E230 37 FF 01 00 37 FF 01 00 	    rtl
    rtl
;------------------------------------------------------------------------------
                	; Unlock a semaphore
                	;
                	; When unlocking the semaphore a test is made to see if the semaphore is still
                	; locked by same task attempting an unlock. If that is the case then the 
                	; SW instruction must have failed to clear the semaphore. So that the system
                	; isn't hung, we go back and redo the unlock.
                	; Parameters:
                	; r1 = address of semaphore to unlock
                	;------------------------------------------------------------------------------
                	
                	_UnlockSema:
01E238 67 E1 01 00             	    push    r2
01E23C E7 E1 01 00             	    push    r3
                	.0001:
01E240 E3 00 00 00             	    sw      r0,[r1]
01E244 C6 20 00 00             	    lw      r2,[r1]
01E248 3D 01 0A 00             	    beq     r2,.0002  ; the semaphore is unlock, by this task or another
01E24C 02 31 30 2C             	    cmpu    r3,r2,tr
01E250 BD 01 F8 FF             	    beq     r3,.0001  ; ??? this task still has it locked - store failed
                	    ; Here the semaphore was locked, but not by this task anymore. Another task
                	    ; must have interceded amd locked the semaphore right after it was unlocked
                	    ; by this task. Make sure this is the case, and it's not just bad memory.
                	    ; Make sure the semaphore was locked by a valid task
01E254 02 31 60 34             	    chk     r3,r2,b48
01E258 BD 01 F4 FF             	    beq     r3,.0001
                	    ; Here the semaphore probably was validly locked by a different task.
                	    ; Assume the unlock must have been successful.
                	.0002:
01E25C 57 3F 10 00             	    pop     r3
01E260 57 2F 10 00             	    pop     r2
01E264 37 FF 01 00 37 FF 01 00 	    rtl
    rtl
	rodata
01E26C 00 00 00 00             		align	1
                	
                		align	8                	
                	disassem_747:
01E270 44 00 69 00 73 00 61 00 		dc	68,105,115,97,115,115,101,109
01E278 73 00 73 00 65 00 6D 00 
01E280 3A 00 0D 00 0A 00 00 00 		dc	58,13,10,0
                	disassem_640:
01E288 3F 00 3F 00 3F 00 3F 00 		dc	63,63,63,63,63,13,10,0
01E290 3F 00 0D 00 0A 00 00 00 
                	disassem_639:
01E298 23 00 24 00 25 00 58 00 		dc	35,36,37,88,13,10,0
01E2A0 0D 00 0A 00 00 00       
                	disassem_638:
01E2A6 23 00 24 00 25 00 58 00 		dc	35,36,37,88,13,10,0
01E2AE 0D 00 0A 00 00 00       
                	disassem_637:
01E2B4 4C 00 44 00 49 00 20 00 		dc	76,68,73,32,32,32,0
01E2BC 20 00 20 00 00 00       
                	disassem_636:
01E2C2 4E 00 4F 00 50 00 0D 00 		dc	78,79,80,13,10,0
01E2CA 0A 00 00 00             
                	disassem_635:
01E2CE 0D 00 0A 00 00 00       		dc	13,10,0
                	disassem_634:
01E2D4 50 00 4F 00 50 00 20 00 		dc	80,79,80,32,32,32,0
01E2DC 20 00 20 00 00 00       
                	disassem_633:
01E2E2 0D 00 0A 00 00 00       		dc	13,10,0
                	disassem_632:
01E2E8 50 00 55 00 53 00 48 00 		dc	80,85,83,72,32,32,0
01E2F0 20 00 20 00 00 00       
                	disassem_631:
01E2F6 53 00 57 00 43 00 52 00 		dc	83,87,67,82,32,0
01E2FE 20 00 00 00             
                	disassem_630:
01E302 4C 00 57 00 41 00 52 00 		dc	76,87,65,82,32,0
01E30A 20 00 00 00             
                	disassem_629:
01E30E 53 00 57 00 20 00 20 00 		dc	83,87,32,32,32,0
01E316 20 00 00 00             
                	disassem_628:
01E31A 53 00 48 00 20 00 20 00 		dc	83,72,32,32,32,0
01E322 20 00 00 00             
                	disassem_627:
01E326 53 00 43 00 20 00 20 00 		dc	83,67,32,32,32,0
01E32E 20 00 00 00             
                	disassem_626:
01E332 53 00 42 00 20 00 20 00 		dc	83,66,32,32,32,0
01E33A 20 00 00 00             
                	disassem_625:
01E33E 53 00 57 00 20 00 20 00 		dc	83,87,32,32,32,0
01E346 20 00 00 00             
                	disassem_624:
01E34A 53 00 48 00 20 00 20 00 		dc	83,72,32,32,32,0
01E352 20 00 00 00             
                	disassem_623:
01E356 53 00 43 00 20 00 20 00 		dc	83,67,32,32,32,0
01E35E 20 00 00 00             
                	disassem_622:
01E362 53 00 42 00 20 00 20 00 		dc	83,66,32,32,32,0
01E36A 20 00 00 00             
                	disassem_621:
01E36E 4C 00 45 00 41 00 20 00 		dc	76,69,65,32,32,0
01E376 20 00 00 00             
                	disassem_620:
01E37A 4C 00 57 00 20 00 20 00 		dc	76,87,32,32,32,0
01E382 20 00 00 00             
                	disassem_619:
01E386 4C 00 48 00 55 00 20 00 		dc	76,72,85,32,32,0
01E38E 20 00 00 00             
                	disassem_618:
01E392 4C 00 48 00 20 00 20 00 		dc	76,72,32,32,32,0
01E39A 20 00 00 00             
                	disassem_617:
01E39E 4C 00 43 00 55 00 20 00 		dc	76,67,85,32,32,0
01E3A6 20 00 00 00             
                	disassem_616:
01E3AA 4C 00 43 00 20 00 20 00 		dc	76,67,32,32,32,0
01E3B2 20 00 00 00             
                	disassem_615:
01E3B6 4C 00 42 00 55 00 20 00 		dc	76,66,85,32,32,0
01E3BE 20 00 00 00             
                	disassem_614:
01E3C2 4C 00 42 00 20 00 20 00 		dc	76,66,32,32,32,0
01E3CA 20 00 00 00             
                	disassem_613:
01E3CE 4C 00 45 00 41 00 20 00 		dc	76,69,65,32,32,0
01E3D6 20 00 00 00             
                	disassem_612:
01E3DA 4C 00 57 00 20 00 20 00 		dc	76,87,32,32,32,0
01E3E2 20 00 00 00             
                	disassem_611:
01E3E6 4C 00 48 00 55 00 20 00 		dc	76,72,85,32,32,0
01E3EE 20 00 00 00             
                	disassem_610:
01E3F2 4C 00 48 00 20 00 20 00 		dc	76,72,32,32,32,0
01E3FA 20 00 00 00             
                	disassem_609:
01E3FE 4C 00 43 00 55 00 20 00 		dc	76,67,85,32,32,0
01E406 20 00 00 00             
                	disassem_608:
01E40A 4C 00 43 00 20 00 20 00 		dc	76,67,32,32,32,0
01E412 20 00 00 00             
                	disassem_607:
01E416 4C 00 42 00 55 00 20 00 		dc	76,66,85,32,32,0
01E41E 20 00 00 00             
                	disassem_606:
01E422 4C 00 42 00 20 00 20 00 		dc	76,66,32,32,32,0
01E42A 20 00 00 00             
                	disassem_605:
01E42E 52 00 54 00 53 00 20 00 		dc	82,84,83,32,32,32,35,37
01E436 20 00 20 00 23 00 25 00 
01E43E 58 00 0D 00 0A 00 00 00 		dc	88,13,10,0
                	disassem_604:
01E446 52 00 54 00 4C 00 20 00 		dc	82,84,76,32,32,32,35,37
01E44E 20 00 20 00 23 00 25 00 
01E456 58 00 0D 00 0A 00 00 00 		dc	88,13,10,0
                	disassem_603:
01E45E 42 00 52 00 41 00 20 00 		dc	66,82,65,32,32,32,36,37
01E466 20 00 20 00 24 00 25 00 
01E46E 58 00 0D 00 0A 00 00 00 		dc	88,13,10,0
                	disassem_602:
01E476 42 00 53 00 52 00 20 00 		dc	66,83,82,32,32,32,36,37
01E47E 20 00 20 00 24 00 25 00 
01E486 58 00 0D 00 0A 00 00 00 		dc	88,13,10,0
                	disassem_601:
01E48E 3F 00 3F 00 3F 00 20 00 		dc	63,63,63,32,32,0
01E496 20 00 00 00             
                	disassem_600:
01E49A 42 00 47 00 45 00 20 00 		dc	66,71,69,32,32,0
01E4A2 20 00 00 00             
                	disassem_599:
01E4A6 42 00 47 00 54 00 20 00 		dc	66,71,84,32,32,0
01E4AE 20 00 00 00             
                	disassem_598:
01E4B2 42 00 4C 00 45 00 20 00 		dc	66,76,69,32,32,0
01E4BA 20 00 00 00             
                	disassem_597:
01E4BE 42 00 4C 00 54 00 20 00 		dc	66,76,84,32,32,0
01E4C6 20 00 00 00             
                	disassem_596:
01E4CA 42 00 4E 00 45 00 20 00 		dc	66,78,69,32,32,0
01E4D2 20 00 00 00             
                	disassem_595:
01E4D6 42 00 45 00 51 00 20 00 		dc	66,69,81,32,32,0
01E4DE 20 00 00 00             
                	disassem_594:
01E4E2 45 00 4F 00 52 00 20 00 		dc	69,79,82,32,32,0
01E4EA 20 00 00 00             
                	disassem_593:
01E4EE 4F 00 52 00 20 00 20 00 		dc	79,82,32,32,32,0
01E4F6 20 00 00 00             
                	disassem_592:
01E4FA 41 00 4E 00 44 00 20 00 		dc	65,78,68,32,32,0
01E502 20 00 00 00             
                	disassem_591:
01E506 44 00 49 00 56 00 55 00 		dc	68,73,86,85,32,0
01E50E 20 00 00 00             
                	disassem_590:
01E512 44 00 49 00 56 00 20 00 		dc	68,73,86,32,32,0
01E51A 20 00 00 00             
                	disassem_589:
01E51E 4D 00 55 00 4C 00 55 00 		dc	77,85,76,85,32,0
01E526 20 00 00 00             
                	disassem_588:
01E52A 4D 00 55 00 4C 00 20 00 		dc	77,85,76,32,32,0
01E532 20 00 00 00             
                	disassem_587:
01E536 43 00 4D 00 50 00 55 00 		dc	67,77,80,85,32,0
01E53E 20 00 00 00             
                	disassem_586:
01E542 43 00 4D 00 50 00 20 00 		dc	67,77,80,32,32,0
01E54A 20 00 00 00             
                	disassem_585:
01E54E 53 00 55 00 42 00 55 00 		dc	83,85,66,85,32,0
01E556 20 00 00 00             
                	disassem_584:
01E55A 53 00 55 00 42 00 20 00 		dc	83,85,66,32,32,0
01E562 20 00 00 00             
                	disassem_583:
01E566 41 00 44 00 44 00 55 00 		dc	65,68,68,85,32,0
01E56E 20 00 00 00             
                	disassem_582:
01E572 41 00 44 00 44 00 20 00 		dc	65,68,68,32,32,0
01E57A 20 00 00 00             
                	disassem_581:
01E57E 0D 00 0A 00 00 00       		dc	13,10,0
                	disassem_580:
01E584 2C 00 00 00             		dc	44,0
                	disassem_579:
01E588 4D 00 54 00 53 00 50 00 		dc	77,84,83,80,82,32,0
01E590 52 00 20 00 00 00       
                	disassem_578:
01E596 0D 00 0A 00 00 00       		dc	13,10,0
                	disassem_577:
01E59C 4D 00 46 00 53 00 50 00 		dc	77,70,83,80,82,32,0
01E5A4 52 00 20 00 00 00       
                	disassem_576:
01E5AA 45 00 4F 00 52 00 20 00 		dc	69,79,82,32,32,0
01E5B2 20 00 00 00             
                	disassem_575:
01E5B6 4F 00 52 00 20 00 20 00 		dc	79,82,32,32,32,0
01E5BE 20 00 00 00             
                	disassem_574:
01E5C2 41 00 4E 00 44 00 20 00 		dc	65,78,68,32,32,0
01E5CA 20 00 00 00             
                	disassem_573:
01E5CE 44 00 49 00 56 00 55 00 		dc	68,73,86,85,32,0
01E5D6 20 00 00 00             
                	disassem_572:
01E5DA 44 00 49 00 56 00 20 00 		dc	68,73,86,32,32,0
01E5E2 20 00 00 00             
                	disassem_571:
01E5E6 4D 00 55 00 4C 00 55 00 		dc	77,85,76,85,32,0
01E5EE 20 00 00 00             
                	disassem_570:
01E5F2 4D 00 55 00 4C 00 20 00 		dc	77,85,76,32,32,0
01E5FA 20 00 00 00             
                	disassem_569:
01E5FE 43 00 4D 00 50 00 55 00 		dc	67,77,80,85,32,0
01E606 20 00 00 00             
                	disassem_568:
01E60A 43 00 4D 00 50 00 20 00 		dc	67,77,80,32,32,0
01E612 20 00 00 00             
                	disassem_567:
01E616 53 00 55 00 42 00 55 00 		dc	83,85,66,85,32,0
01E61E 20 00 00 00             
                	disassem_566:
01E622 53 00 55 00 42 00 20 00 		dc	83,85,66,32,32,0
01E62A 20 00 00 00             
                	disassem_565:
01E62E 41 00 44 00 44 00 55 00 		dc	65,68,68,85,32,0
01E636 20 00 00 00             
                	disassem_564:
01E63A 41 00 44 00 44 00 20 00 		dc	65,68,68,32,32,0
01E642 20 00 00 00             
                	disassem_563:
01E646 3F 00 3F 00 3F 00 0D 00 		dc	63,63,63,13,10,0
01E64E 0A 00 00 00             
                	disassem_562:
01E652 52 00 54 00 49 00 0D 00 		dc	82,84,73,13,10,0
01E65A 0A 00 00 00             
                	disassem_561:
01E65E 52 00 54 00 45 00 0D 00 		dc	82,84,69,13,10,0
01E666 0A 00 00 00             
                	disassem_560:
01E66A 52 00 54 00 44 00 0D 00 		dc	82,84,68,13,10,0
01E672 0A 00 00 00             
                	disassem_559:
01E676 57 00 41 00 49 00 0D 00 		dc	87,65,73,13,10,0
01E67E 0A 00 00 00             
                	disassem_558:
01E682 53 00 45 00 49 00 0D 00 		dc	83,69,73,13,10,0
01E68A 0A 00 00 00             
                	disassem_557:
01E68E 43 00 4C 00 49 00 0D 00 		dc	67,76,73,13,10,0
01E696 0A 00 00 00             
                	disassem_556:
01E69A 49 00 4D 00 4D 00 0D 00 		dc	73,77,77,13,10,0
01E6A2 0A 00 00 00             
                	disassem_543:
01E6A6 29 00 0D 00 0A 00 00 00 		dc	41,13,10,0
                	disassem_542:
01E6AE 5B 00 52 00 25 00 64 00 		dc	91,82,37,100,93,0
01E6B6 5D 00 00 00             
                	disassem_541:
01E6BA 24 00 25 00 58 00 00 00 		dc	36,37,88,0
                	disassem_540:
01E6C2 24 00 25 00 58 00 00 00 		dc	36,37,88,0
                	disassem_539:
01E6CA 4A 00 4D 00 50 00 20 00 		dc	74,77,80,32,32,32,40,0
01E6D2 20 00 20 00 28 00 00 00 
                	disassem_538:
01E6DA 4A 00 53 00 52 00 20 00 		dc	74,83,82,32,32,32,40,0
01E6E2 20 00 20 00 28 00 00 00 
                	disassem_537:
01E6EA 28 00 00 00             		dc	40,0
                	disassem_536:
01E6EE 4A 00 41 00 4C 00 20 00 		dc	74,65,76,32,32,32,0
01E6F6 20 00 20 00 00 00       
                	disassem_531:
01E6FC 0D 00 0A 00 00 00       		dc	13,10,0
                	disassem_530:
01E702 25 00 73 00 20 00 00 00 		dc	37,115,32,0
                	disassem_529:
01E70A 0D 00 0A 00 00 00       		dc	13,10,0
                	disassem_528:
01E710 4D 00 4F 00 56 00 20 00 		dc	77,79,86,32,32,32,0
01E718 20 00 20 00 00 00       
                	disassem_523:
01E71E 25 00 30 00 36 00 58 00 		dc	37,48,54,88,13,10,0
01E726 0D 00 0A 00 00 00       
                	disassem_522:
01E72C 25 00 73 00 20 00 00 00 		dc	37,115,32,0
                	disassem_517:
01E734 23 00 24 00 25 00 58 00 		dc	35,36,37,88,13,10,0
01E73C 0D 00 0A 00 00 00       
                	disassem_516:
01E742 23 00 24 00 25 00 58 00 		dc	35,36,37,88,13,10,0
01E74A 0D 00 0A 00 00 00       
                	disassem_515:
01E750 25 00 73 00 20 00 00 00 		dc	37,115,32,0
                	disassem_511:
01E758 25 00 73 00 20 00 00 00 		dc	37,115,32,0
                	disassem_499:
01E760 5B 00 52 00 25 00 64 00 		dc	91,82,37,100,93,13,10,0
01E768 5D 00 0D 00 0A 00 00 00 
                	disassem_498:
01E770 5B 00 52 00 25 00 64 00 		dc	91,82,37,100,0
01E778 00 00                   
                	disassem_497:
01E77A 5B 00 52 00 25 00 64 00 		dc	91,82,37,100,43,82,37,100
01E782 2B 00 52 00 25 00 64 00 
01E78A 00 00                   		dc	0
                	disassem_496:
01E78C 24 00 25 00 58 00 00 00 		dc	36,37,88,0
                	disassem_495:
01E794 25 00 73 00 20 00 52 00 		dc	37,115,32,82,37,100,44,0
01E79C 25 00 64 00 2C 00 00 00 
                	disassem_486:
01E7A4 42 00 52 00 4B 00 3F 00 		dc	66,82,75,63,32,32,35,37
01E7AC 20 00 20 00 23 00 25 00 
01E7B4 58 00 0D 00 0A 00 00 00 		dc	88,13,10,0
                	disassem_485:
01E7BC 49 00 4E 00 54 00 20 00 		dc	73,78,84,32,32,32,35,37
01E7C4 20 00 20 00 23 00 25 00 
01E7CC 58 00 0D 00 0A 00 00 00 		dc	88,13,10,0
                	disassem_484:
01E7D4 44 00 42 00 47 00 20 00 		dc	68,66,71,32,32,32,35,37
01E7DC 20 00 20 00 23 00 25 00 
01E7E4 58 00 0D 00 0A 00 00 00 		dc	88,13,10,0
                	disassem_483:
01E7EC 53 00 59 00 53 00 20 00 		dc	83,89,83,32,32,32,35,37
01E7F4 20 00 20 00 23 00 25 00 
01E7FC 58 00 0D 00 0A 00 00 00 		dc	88,13,10,0
                	disassem_477:
01E804 5D 00 0D 00 0A 00 00 00 		dc	93,13,10,0
                	disassem_476:
01E80C 2A 00 25 00 64 00 5D 00 		dc	42,37,100,93,13,10,0
01E814 0D 00 0A 00 00 00       
                	disassem_466:
01E81A 23 00 25 00 64 00 0D 00 		dc	35,37,100,13,10,0
01E822 0A 00 00 00             
                	disassem_465:
01E826 5B 00 52 00 25 00 64 00 		dc	91,82,37,100,93,44,0
01E82E 5D 00 2C 00 00 00       
                	disassem_464:
01E834 2C 00 00 00             		dc	44,0
                	disassem_463:
01E838 24 00 25 00 58 00 00 00 		dc	36,37,88,0
                	disassem_462:
01E840 24 00 25 00 58 00 00 00 		dc	36,37,88,0
                	disassem_461:
01E848 49 00 4E 00 43 00 20 00 		dc	73,78,67,32,32,32,0
01E850 20 00 20 00 00 00       
                	disassem_460:
01E856 44 00 45 00 43 00 20 00 		dc	68,69,67,32,32,32,0
01E85E 20 00 20 00 00 00       
                	disassem_452:
01E864 0D 00 0A 00 00 00       		dc	13,10,0
                	disassem_451:
01E86A 5B 00 52 00 25 00 64 00 		dc	91,82,37,100,93,13,10,0
01E872 5D 00 0D 00 0A 00 00 00 
                	disassem_450:
01E87A 24 00 25 00 58 00 00 00 		dc	36,37,88,0
                	disassem_449:
01E882 24 00 25 00 58 00 00 00 		dc	36,37,88,0
                	disassem_429:
01E88A 53 00 50 00 52 00 25 00 		dc	83,80,82,37,100,0
01E892 64 00 00 00             
                	disassem_428:
01E896 44 00 42 00 53 00 54 00 		dc	68,66,83,84,65,84,0
01E89E 41 00 54 00 00 00       
                	disassem_427:
01E8A4 44 00 42 00 43 00 54 00 		dc	68,66,67,84,82,76,0
01E8AC 52 00 4C 00 00 00       
                	disassem_426:
01E8B2 44 00 42 00 41 00 44 00 		dc	68,66,65,68,51,0
01E8BA 33 00 00 00             
                	disassem_425:
01E8BE 44 00 42 00 41 00 44 00 		dc	68,66,65,68,50,0
01E8C6 32 00 00 00             
                	disassem_424:
01E8CA 44 00 42 00 41 00 44 00 		dc	68,66,65,68,49,0
01E8D2 31 00 00 00             
                	disassem_423:
01E8D6 44 00 42 00 41 00 44 00 		dc	68,66,65,68,48,0
01E8DE 30 00 00 00             
                	disassem_422:
01E8E2 56 00 42 00 52 00 00 00 		dc	86,66,82,0
                	disassem_421:
01E8EA 45 00 50 00 43 00 00 00 		dc	69,80,67,0
                	disassem_420:
01E8F2 49 00 50 00 43 00 00 00 		dc	73,80,67,0
                	disassem_419:
01E8FA 44 00 50 00 43 00 00 00 		dc	68,80,67,0
                	disassem_418:
01E902 43 00 4C 00 4B 00 00 00 		dc	67,76,75,0
                	disassem_417:
01E90A 54 00 49 00 43 00 4B 00 		dc	84,73,67,75,0
01E912 00 00                   
                	disassem_416:
01E914 43 00 52 00 33 00 00 00 		dc	67,82,51,0
                	disassem_415:
01E91C 43 00 52 00 30 00 00 00 		dc	67,82,48,0
                	disassem_411:
01E924 52 00 25 00 64 00 00 00 		dc	82,37,100,0
                	disassem_407:
01E92C 52 00 25 00 64 00 00 00 		dc	82,37,100,0
                	disassem_403:
01E934 52 00 25 00 64 00 2C 00 		dc	82,37,100,44,0
01E93C 00 00                   
                	disassem_399:
01E93E 52 00 25 00 64 00 2C 00 		dc	82,37,100,44,0
01E946 00 00                   
                	disassem_395:
01E948 72 00 25 00 64 00 00 00 		dc	114,37,100,0
                	disassem_391:
01E950 25 00 30 00 36 00 58 00 		dc	37,48,54,88,32,37,48,50
01E958 20 00 25 00 30 00 32 00 
01E960 58 00 20 00 25 00 30 00 		dc	88,32,37,48,50,88,32,37
01E968 32 00 58 00 20 00 25 00 
01E970 30 00 32 00 58 00 20 00 		dc	48,50,88,32,37,48,50,88
01E978 25 00 30 00 32 00 58 00 
01E980 09 00 00 00             		dc	9,0
                	;	global	DispJALI_
                	;	global	disassem20_
                		extern	putstr2_
                	;	global	DispRR_
                	;	global	DumpInsnBytes_
                	;	global	GetNormAttr_
                	;	global	disassem_
                	;	global	SetNormAttr_
                	;	global	reverse_video_
                		extern	printf_
                	;	global	DispBcc_
                	;	global	DispBcc_
                		rodata
01E984 00 00 00 00 00 00 00 00 		align	1
01E98C 00 00 00 00             
                	
                		align	8                	
                	debugger_352:
01E990 0D 00 0A 00 44 00 42 00 		dc	13,10,68,66,71,62,0
01E998 47 00 3E 00 00 00       
                	debugger_209:
01E99E 0D 00 0A 00 00 00       		dc	13,10,0
                	debugger_208:
01E9A4 25 00 30 00 31 00 36 00 		dc	37,48,49,54,88,32,0
01E9AC 58 00 20 00 00 00       
                	debugger_207:
01E9B2 25 00 30 00 38 00 58 00 		dc	37,48,56,88,32,0
01E9BA 20 00 00 00             
                	debugger_206:
01E9BE 25 00 30 00 34 00 58 00 		dc	37,48,52,88,32,0
01E9C6 20 00 00 00             
                	debugger_205:
01E9CA 25 00 30 00 32 00 58 00 		dc	37,48,50,88,32,0
01E9D2 20 00 00 00             
                	debugger_204:
01E9D6 0D 00 0A 00 25 00 30 00 		dc	13,10,37,48,54,88,32,0
01E9DE 36 00 58 00 20 00 00 00 
                	debugger_203:
01E9E6 0D 00 0A 00 25 00 30 00 		dc	13,10,37,48,54,88,32,0
01E9EE 36 00 58 00 20 00 00 00 
                	debugger_202:
01E9F6 0D 00 0A 00 25 00 30 00 		dc	13,10,37,48,54,88,32,0
01E9FE 36 00 58 00 20 00 00 00 
                	debugger_201:
01EA06 0D 00 0A 00 25 00 30 00 		dc	13,10,37,48,54,88,32,0
01EA0E 36 00 58 00 20 00 00 00 
                	debugger_200:
01EA16 0D 00 0A 00 00 00       		dc	13,10,0
                	debugger_199:
01EA1C 0D 00 0A 00 00 00       		dc	13,10,0
                	debugger_198:
01EA22 64 00 73 00 32 00 3D 00 		dc	100,115,50,61,37,48,56,88
01EA2A 25 00 30 00 38 00 58 00 
01EA32 0D 00 0A 00 00 00       		dc	13,10,0
                	debugger_197:
01EA38 64 00 73 00 32 00 3D 00 		dc	100,115,50,61,37,48,56,88
01EA40 25 00 30 00 38 00 58 00 
01EA48 0D 00 0A 00 00 00       		dc	13,10,0
                	debugger_196:
01EA4E 64 00 73 00 31 00 3D 00 		dc	100,115,49,61,37,48,56,88
01EA56 25 00 30 00 38 00 58 00 
01EA5E 0D 00 0A 00 00 00       		dc	13,10,0
                	debugger_195:
01EA64 64 00 73 00 30 00 3D 00 		dc	100,115,48,61,37,48,56,88
01EA6C 25 00 30 00 38 00 58 00 
01EA74 0D 00 0A 00 00 00       		dc	13,10,0
                	debugger_194:
01EA7A 64 00 32 00 3D 00 25 00 		dc	100,50,61,37,48,56,88,13
01EA82 30 00 38 00 58 00 0D 00 
01EA8A 0A 00 00 00             		dc	10,0
                	debugger_193:
01EA8E 64 00 32 00 3D 00 25 00 		dc	100,50,61,37,48,56,88,13
01EA96 30 00 38 00 58 00 0D 00 
01EA9E 0A 00 00 00             		dc	10,0
                	debugger_192:
01EAA2 64 00 31 00 3D 00 25 00 		dc	100,49,61,37,48,56,88,13
01EAAA 30 00 38 00 58 00 0D 00 
01EAB2 0A 00 00 00             		dc	10,0
                	debugger_191:
01EAB6 64 00 30 00 3D 00 25 00 		dc	100,48,61,37,48,56,88,13
01EABE 30 00 38 00 58 00 0D 00 
01EAC6 0A 00 00 00             		dc	10,0
                	debugger_190:
01EACA 0D 00 0A 00 00 00       		dc	13,10,0
                	debugger_189:
01EAD0 69 00 32 00 3D 00 25 00 		dc	105,50,61,37,48,56,88,13
01EAD8 30 00 38 00 58 00 0D 00 
01EAE0 0A 00 00 00             		dc	10,0
                	debugger_188:
01EAE4 69 00 32 00 3D 00 25 00 		dc	105,50,61,37,48,56,88,13
01EAEC 30 00 38 00 58 00 0D 00 
01EAF4 0A 00 00 00             		dc	10,0
                	debugger_187:
01EAF8 69 00 31 00 3D 00 25 00 		dc	105,49,61,37,48,56,88,13
01EB00 30 00 38 00 58 00 0D 00 
01EB08 0A 00 00 00             		dc	10,0
                	debugger_186:
01EB0C 69 00 30 00 3D 00 25 00 		dc	105,48,61,37,48,56,88,13
01EB14 30 00 38 00 58 00 0D 00 
01EB1C 0A 00 00 00             		dc	10,0
                	debugger_140:
01EB20 0D 00 0A 00 44 00 42 00 		dc	13,10,68,66,71,62,0
01EB28 47 00 3E 00 00 00       
                	debugger_137:
01EB2E 72 00 25 00 64 00 3D 00 		dc	114,37,100,61,37,88,13,10
01EB36 25 00 58 00 0D 00 0A 00 
01EB3E 00 00                   		dc	0
                	debugger_133:
01EB40 72 00 32 00 39 00 3D 00 		dc	114,50,57,61,37,88,32,115
01EB48 25 00 58 00 20 00 73 00 
01EB50 70 00 3D 00 25 00 58 00 		dc	112,61,37,88,32,108,114,61
01EB58 20 00 6C 00 72 00 3D 00 
01EB60 25 00 58 00 0D 00 0A 00 		dc	37,88,13,10,0
01EB68 00 00                   
                	debugger_132:
01EB6A 72 00 32 00 35 00 3D 00 		dc	114,50,53,61,37,88,32,114
01EB72 25 00 58 00 20 00 72 00 
01EB7A 32 00 36 00 3D 00 25 00 		dc	50,54,61,37,88,32,114,50
01EB82 58 00 20 00 72 00 32 00 
01EB8A 37 00 3D 00 25 00 58 00 		dc	55,61,37,88,32,114,50,56
01EB92 20 00 72 00 32 00 38 00 
01EB9A 3D 00 25 00 58 00 0D 00 		dc	61,37,88,13,10,0
01EBA2 0A 00 00 00             
                	debugger_131:
01EBA6 72 00 32 00 31 00 3D 00 		dc	114,50,49,61,37,88,32,114
01EBAE 25 00 58 00 20 00 72 00 
01EBB6 32 00 32 00 3D 00 25 00 		dc	50,50,61,37,88,32,114,50
01EBBE 58 00 20 00 72 00 32 00 
01EBC6 33 00 3D 00 25 00 58 00 		dc	51,61,37,88,32,116,114,61
01EBCE 20 00 74 00 72 00 3D 00 
01EBD6 25 00 58 00 0D 00 0A 00 		dc	37,88,13,10,0
01EBDE 00 00                   
                	debugger_130:
01EBE0 72 00 31 00 37 00 3D 00 		dc	114,49,55,61,37,88,32,114
01EBE8 25 00 58 00 20 00 72 00 
01EBF0 31 00 38 00 3D 00 25 00 		dc	49,56,61,37,88,32,114,49
01EBF8 58 00 20 00 72 00 31 00 
01EC00 39 00 3D 00 25 00 58 00 		dc	57,61,37,88,32,114,50,48
01EC08 20 00 72 00 32 00 30 00 
01EC10 3D 00 25 00 58 00 0D 00 		dc	61,37,88,13,10,0
01EC18 0A 00 00 00             
                	debugger_129:
01EC1C 72 00 31 00 33 00 3D 00 		dc	114,49,51,61,37,88,32,114
01EC24 25 00 58 00 20 00 72 00 
01EC2C 31 00 34 00 3D 00 25 00 		dc	49,52,61,37,88,32,114,49
01EC34 58 00 20 00 72 00 31 00 
01EC3C 35 00 3D 00 25 00 58 00 		dc	53,61,37,88,32,114,49,54
01EC44 20 00 72 00 31 00 36 00 
01EC4C 3D 00 25 00 58 00 0D 00 		dc	61,37,88,13,10,0
01EC54 0A 00 00 00             
                	debugger_128:
01EC58 72 00 39 00 3D 00 25 00 		dc	114,57,61,37,88,32,114,49
01EC60 58 00 20 00 72 00 31 00 
01EC68 30 00 3D 00 25 00 58 00 		dc	48,61,37,88,32,114,49,49
01EC70 20 00 72 00 31 00 31 00 
01EC78 3D 00 25 00 58 00 20 00 		dc	61,37,88,32,114,49,50,61
01EC80 72 00 31 00 32 00 3D 00 
01EC88 25 00 58 00 0D 00 0A 00 		dc	37,88,13,10,0
01EC90 00 00                   
                	debugger_127:
01EC92 72 00 35 00 3D 00 25 00 		dc	114,53,61,37,88,32,114,54
01EC9A 58 00 20 00 72 00 36 00 
01ECA2 3D 00 25 00 58 00 20 00 		dc	61,37,88,32,114,55,61,37
01ECAA 72 00 37 00 3D 00 25 00 
01ECB2 58 00 20 00 72 00 38 00 		dc	88,32,114,56,61,37,88,13
01ECBA 3D 00 25 00 58 00 0D 00 
01ECC2 0A 00 00 00             		dc	10,0
                	debugger_126:
01ECC6 0D 00 0A 00 72 00 31 00 		dc	13,10,114,49,61,37,88,32
01ECCE 3D 00 25 00 58 00 20 00 
01ECD6 72 00 32 00 3D 00 25 00 		dc	114,50,61,37,88,32,114,51
01ECDE 58 00 20 00 72 00 33 00 
01ECE6 3D 00 25 00 58 00 20 00 		dc	61,37,88,32,114,52,61,37
01ECEE 72 00 34 00 3D 00 25 00 
01ECF6 58 00 0D 00 0A 00 00 00 		dc	88,13,10,0
                	debugger_110:
01ECFE 0D 00 0A 00 44 00 42 00 		dc	13,10,68,66,71,62,100,115
01ED06 47 00 3E 00 64 00 73 00 
01ED0E 25 00 64 00 20 00 3C 00 		dc	37,100,32,60,110,111,116,32
01ED16 6E 00 6F 00 74 00 20 00 
01ED1E 73 00 65 00 74 00 3E 00 		dc	115,101,116,62,0
01ED26 00 00                   
                	debugger_109:
01ED28 0D 00 0A 00 44 00 42 00 		dc	13,10,68,66,71,62,100,115
01ED30 47 00 3E 00 64 00 73 00 
01ED38 25 00 64 00 3D 00 25 00 		dc	37,100,61,37,48,56,88,13
01ED40 30 00 38 00 58 00 0D 00 
01ED48 0A 00 00 00             		dc	10,0
                	debugger_94:
01ED4C 0D 00 0A 00 44 00 42 00 		dc	13,10,68,66,71,62,100,37
01ED54 47 00 3E 00 64 00 25 00 
01ED5C 64 00 20 00 3C 00 6E 00 		dc	100,32,60,110,111,116,32,115
01ED64 6F 00 74 00 20 00 73 00 
01ED6C 65 00 74 00 3E 00 00 00 		dc	101,116,62,0
                	debugger_93:
01ED74 0D 00 0A 00 44 00 42 00 		dc	13,10,68,66,71,62,100,37
01ED7C 47 00 3E 00 64 00 25 00 
01ED84 64 00 3D 00 25 00 30 00 		dc	100,61,37,48,56,88,13,10
01ED8C 38 00 58 00 0D 00 0A 00 
01ED94 00 00                   		dc	0
                	debugger_78:
01ED96 0D 00 0A 00 44 00 42 00 		dc	13,10,68,66,71,62,105,37
01ED9E 47 00 3E 00 69 00 25 00 
01EDA6 64 00 20 00 3C 00 6E 00 		dc	100,32,60,110,111,116,32,115
01EDAE 6F 00 74 00 20 00 73 00 
01EDB6 65 00 74 00 3E 00 00 00 		dc	101,116,62,0
                	debugger_77:
01EDBE 0D 00 0A 00 44 00 42 00 		dc	13,10,68,66,71,62,105,37
01EDC6 47 00 3E 00 69 00 25 00 
01EDCE 64 00 3D 00 25 00 30 00 		dc	100,61,37,48,56,88,13,10
01EDD6 38 00 58 00 0D 00 0A 00 
01EDDE 00 00                   		dc	0
                	debugger_15:
01EDE0 0D 00 0A 00 44 00 42 00 		dc	13,10,68,66,71,62,0
01EDE8 47 00 3E 00 00 00       
                	debugger_14:
01EDEE 0D 00 0A 00 54 00 79 00 		dc	13,10,84,121,112,101,32,39
01EDF6 70 00 65 00 20 00 27 00 
01EDFE 71 00 27 00 20 00 74 00 		dc	113,39,32,116,111,32,113,117
01EE06 6F 00 20 00 71 00 75 00 
01EE0E 69 00 74 00 2E 00 00 00 		dc	105,116,46,0
                	debugger_13:
01EE16 0D 00 0A 00 61 00 72 00 		dc	13,10,97,114,109,32,100,101
01EE1E 6D 00 20 00 64 00 65 00 
01EE26 62 00 75 00 67 00 67 00 		dc	98,117,103,103,105,110,103,32
01EE2E 69 00 6E 00 67 00 20 00 
01EE36 6D 00 6F 00 64 00 65 00 		dc	109,111,100,101,32,117,115,105
01EE3E 20 00 75 00 73 00 69 00 
01EE46 6E 00 67 00 20 00 74 00 		dc	110,103,32,116,104,101,32,39
01EE4E 68 00 65 00 20 00 27 00 
01EE56 61 00 27 00 20 00 63 00 		dc	97,39,32,99,111,109,109,97
01EE5E 6F 00 6D 00 6D 00 61 00 
01EE66 6E 00 64 00 2E 00 00 00 		dc	110,100,46,0
                	debugger_12:
01EE6E 0D 00 0A 00 4F 00 6E 00 		dc	13,10,79,110,99,101,32,116
01EE76 63 00 65 00 20 00 74 00 
01EE7E 68 00 65 00 20 00 64 00 		dc	104,101,32,100,101,98,117,103
01EE86 65 00 62 00 75 00 67 00 
01EE8E 20 00 72 00 65 00 67 00 		dc	32,114,101,103,105,115,116,101
01EE96 69 00 73 00 74 00 65 00 
01EE9E 72 00 73 00 20 00 61 00 		dc	114,115,32,97,114,101,32,115
01EEA6 72 00 65 00 20 00 73 00 
01EEAE 65 00 74 00 20 00 69 00 		dc	101,116,32,105,116,32,105,115
01EEB6 74 00 20 00 69 00 73 00 
01EEBE 20 00 6E 00 65 00 63 00 		dc	32,110,101,99,101,115,115,97
01EEC6 65 00 73 00 73 00 61 00 
01EECE 72 00 79 00 20 00 74 00 		dc	114,121,32,116,111,32,0
01EED6 6F 00 20 00 00 00       
                	debugger_11:
01EEDC 0D 00 0A 00 53 00 65 00 		dc	13,10,83,101,116,116,105,110
01EEE4 74 00 74 00 69 00 6E 00 
01EEEC 67 00 20 00 61 00 20 00 		dc	103,32,97,32,114,101,103,105
01EEF4 72 00 65 00 67 00 69 00 
01EEFC 73 00 74 00 65 00 72 00 		dc	115,116,101,114,32,116,111,32
01EF04 20 00 74 00 6F 00 20 00 
01EF0C 7A 00 65 00 72 00 6F 00 		dc	122,101,114,111,32,119,105,108
01EF14 20 00 77 00 69 00 6C 00 
01EF1C 6C 00 20 00 63 00 6C 00 		dc	108,32,99,108,101,97,114,32
01EF24 65 00 61 00 72 00 20 00 
01EF2C 74 00 68 00 65 00 20 00 		dc	116,104,101,32,98,114,101,97
01EF34 62 00 72 00 65 00 61 00 
01EF3C 6B 00 70 00 6F 00 69 00 		dc	107,112,111,105,110,116,46,0
01EF44 6E 00 74 00 2E 00 00 00 
                	debugger_10:
01EF4C 0D 00 0A 00 69 00 6E 00 		dc	13,10,105,110,100,105,99,97
01EF54 64 00 69 00 63 00 61 00 
01EF5C 74 00 65 00 20 00 61 00 		dc	116,101,32,97,32,100,97,116
01EF64 20 00 64 00 61 00 74 00 
01EF6C 61 00 20 00 73 00 74 00 		dc	97,32,115,116,111,114,101,32
01EF74 6F 00 72 00 65 00 20 00 
01EF7C 6F 00 6E 00 6C 00 79 00 		dc	111,110,108,121,32,98,114,101
01EF84 20 00 62 00 72 00 65 00 
01EF8C 61 00 6B 00 70 00 6F 00 		dc	97,107,112,111,105,110,116,46
01EF94 69 00 6E 00 74 00 2E 00 
01EF9C 00 00                   		dc	0
                	debugger_9:
01EF9E 0D 00 0A 00 62 00 72 00 		dc	13,10,98,114,101,97,107,112
01EFA6 65 00 61 00 6B 00 70 00 
01EFAE 6F 00 69 00 6E 00 74 00 		dc	111,105,110,116,46,32,80,114
01EFB6 2E 00 20 00 50 00 72 00 
01EFBE 65 00 66 00 69 00 78 00 		dc	101,102,105,120,32,116,104,101
01EFC6 20 00 74 00 68 00 65 00 
01EFCE 20 00 72 00 65 00 67 00 		dc	32,114,101,103,105,115,116,101
01EFD6 69 00 73 00 74 00 65 00 
01EFDE 72 00 20 00 6E 00 75 00 		dc	114,32,110,117,109,98,101,114
01EFE6 6D 00 62 00 65 00 72 00 
01EFEE 20 00 77 00 69 00 74 00 		dc	32,119,105,116,104,32,39,100
01EFF6 68 00 20 00 27 00 64 00 
01EFFE 73 00 27 00 20 00 74 00 		dc	115,39,32,116,111,0
01F006 6F 00 00 00             
                	debugger_8:
01F00A 0D 00 0A 00 69 00 6E 00 		dc	13,10,105,110,115,116,114,117
01F012 73 00 74 00 72 00 75 00 
01F01A 63 00 74 00 69 00 6F 00 		dc	99,116,105,111,110,32,98,114
01F022 6E 00 20 00 62 00 72 00 
01F02A 65 00 61 00 6B 00 70 00 		dc	101,97,107,112,111,105,110,116
01F032 6F 00 69 00 6E 00 74 00 
01F03A 20 00 6F 00 72 00 20 00 		dc	32,111,114,32,97,32,39,100
01F042 61 00 20 00 27 00 64 00 
01F04A 27 00 20 00 74 00 6F 00 		dc	39,32,116,111,32,105,110,100
01F052 20 00 69 00 6E 00 64 00 
01F05A 69 00 63 00 61 00 74 00 		dc	105,99,97,116,101,32,97,32
01F062 65 00 20 00 61 00 20 00 
01F06A 64 00 61 00 74 00 61 00 		dc	100,97,116,97,0
01F072 00 00                   
                	debugger_7:
01F074 0D 00 0A 00 50 00 72 00 		dc	13,10,80,114,101,102,105,120
01F07C 65 00 66 00 69 00 78 00 
01F084 20 00 74 00 68 00 65 00 		dc	32,116,104,101,32,114,101,103
01F08C 20 00 72 00 65 00 67 00 
01F094 69 00 73 00 74 00 65 00 		dc	105,115,116,101,114,32,110,117
01F09C 72 00 20 00 6E 00 75 00 
01F0A4 6D 00 62 00 65 00 72 00 		dc	109,98,101,114,32,119,105,116
01F0AC 20 00 77 00 69 00 74 00 
01F0B4 68 00 20 00 61 00 6E 00 		dc	104,32,97,110,32,39,105,39
01F0BC 20 00 27 00 69 00 27 00 
01F0C4 20 00 74 00 6F 00 20 00 		dc	32,116,111,32,105,110,100,105
01F0CC 69 00 6E 00 64 00 69 00 
01F0D4 63 00 61 00 74 00 65 00 		dc	99,97,116,101,32,97,110,0
01F0DC 20 00 61 00 6E 00 00 00 
                	debugger_6:
01F0E4 0D 00 0A 00 54 00 68 00 		dc	13,10,84,104,101,114,101,32
01F0EC 65 00 72 00 65 00 20 00 
01F0F4 61 00 72 00 65 00 20 00 		dc	97,114,101,32,97,32,116,111
01F0FC 61 00 20 00 74 00 6F 00 
01F104 74 00 61 00 6C 00 20 00 		dc	116,97,108,32,111,102,32,102
01F10C 6F 00 66 00 20 00 66 00 
01F114 6F 00 75 00 72 00 20 00 		dc	111,117,114,32,98,114,101,97
01F11C 62 00 72 00 65 00 61 00 
01F124 6B 00 70 00 6F 00 69 00 		dc	107,112,111,105,110,116,32,114
01F12C 6E 00 74 00 20 00 72 00 
01F134 65 00 67 00 69 00 73 00 		dc	101,103,105,115,116,101,114,115
01F13C 74 00 65 00 72 00 73 00 
01F144 20 00 28 00 30 00 2D 00 		dc	32,40,48,45,51,41,46,0
01F14C 33 00 29 00 2E 00 00 00 
                	debugger_5:
01F154 0D 00 0A 00 44 00 42 00 		dc	13,10,68,66,71,62,105,49
01F15C 47 00 3E 00 69 00 31 00 
01F164 3D 00 31 00 32 00 33 00 		dc	61,49,50,51,52,53,54,55
01F16C 34 00 35 00 36 00 37 00 
01F174 38 00 20 00 20 00 20 00 		dc	56,32,32,32,32,32,119,105
01F17C 20 00 20 00 77 00 69 00 
01F184 6C 00 6C 00 20 00 61 00 		dc	108,108,32,97,115,115,105,103
01F18C 73 00 73 00 69 00 67 00 
01F194 6E 00 20 00 31 00 32 00 		dc	110,32,49,50,51,52,53,54
01F19C 33 00 34 00 35 00 36 00 
01F1A4 37 00 38 00 20 00 74 00 		dc	55,56,32,116,111,32,105,49
01F1AC 6F 00 20 00 69 00 31 00 
01F1B4 00 00                   		dc	0
                	debugger_4:
01F1B6 0D 00 0A 00 61 00 6E 00 		dc	13,10,97,110,32,97,100,100
01F1BE 20 00 61 00 64 00 64 00 
01F1C6 72 00 65 00 73 00 73 00 		dc	114,101,115,115,32,116,111,32
01F1CE 20 00 74 00 6F 00 20 00 
01F1D6 69 00 74 00 2E 00 00 00 		dc	105,116,46,0
                	debugger_3:
01F1DE 0D 00 0A 00 46 00 6F 00 		dc	13,10,70,111,108,108,111,119
01F1E6 6C 00 6C 00 6F 00 77 00 
01F1EE 69 00 6E 00 67 00 20 00 		dc	105,110,103,32,97,32,98,114
01F1F6 61 00 20 00 62 00 72 00 
01F1FE 65 00 61 00 6B 00 70 00 		dc	101,97,107,112,111,105,110,116
01F206 6F 00 69 00 6E 00 74 00 
01F20E 20 00 72 00 65 00 67 00 		dc	32,114,101,103,105,115,116,101
01F216 69 00 73 00 74 00 65 00 
01F21E 72 00 20 00 77 00 69 00 		dc	114,32,119,105,116,104,32,97
01F226 74 00 68 00 20 00 61 00 
01F22E 6E 00 20 00 27 00 3D 00 		dc	110,32,39,61,39,32,97,115
01F236 27 00 20 00 61 00 73 00 
01F23E 73 00 69 00 67 00 6E 00 		dc	115,105,103,110,115,32,0
01F246 73 00 20 00 00 00       
                	debugger_2:
01F24C 0D 00 0A 00 44 00 42 00 		dc	13,10,68,66,71,62,105,50
01F254 47 00 3E 00 69 00 32 00 
01F25C 3F 00 00 00             		dc	63,0
                	debugger_1:
01F260 0D 00 0A 00 27 00 3F 00 		dc	13,10,39,63,39,32,113,117
01F268 27 00 20 00 71 00 75 00 
01F270 65 00 72 00 69 00 65 00 		dc	101,114,105,101,115,32,116,104
01F278 73 00 20 00 74 00 68 00 
01F280 65 00 20 00 73 00 74 00 		dc	101,32,115,116,97,116,117,115
01F288 61 00 74 00 75 00 73 00 
01F290 20 00 6F 00 66 00 20 00 		dc	32,111,102,32,97,32,98,114
01F298 61 00 20 00 62 00 72 00 
01F2A0 65 00 61 00 6B 00 70 00 		dc	101,97,107,112,111,105,110,116
01F2A8 6F 00 69 00 6E 00 74 00 
01F2B0 20 00 72 00 65 00 67 00 		dc	32,114,101,103,105,115,116,101
01F2B8 69 00 73 00 74 00 65 00 
01F2C0 72 00 20 00 61 00 73 00 		dc	114,32,97,115,32,105,110,58
01F2C8 20 00 69 00 6E 00 3A 00 
01F2D0 00 00                   		dc	0
                	;	global	bmem_
                	;	global	dbg_stack_
                	;	global	cmem_
                	;	global	hmem_
                	;	global	dbg_processReg_
                	;	global	dbg_parse_line_
                	;	global	regs_
                		extern	putstr_
                	;	global	cr0save_
                	;	global	wmem_
                	;	global	dbg_GetDBAD_
                	;	global	dbg_ReadSetDB_
                		extern	disassem20_
                	;	global	muol_
                	;	global	dbg_ReadSetIB_
                	;	global	dbg_SetDBAD_
                	;	global	dbg_getDumpFormat_
                	;	global	dbg_arm_
                	;	global	dbg_irq_
                		extern	getchar_
                	;	global	linebuf_
                	;	global	curaddr_
                		extern	isdigit_
                	;	global	curfill_
                	;	global	linendx_
                	;	global	dbg_dbctrl_
                	;	global	dbg_parse_begin_
                	;	global	dbg_ReadSetDSB_
                		extern	putch_
                	;	global	dbg_prompt_
                		extern	getcharNoWait_
                	;	global	cursz_
                	;	global	dbg_nextSpace_
                	;	global	CvtScreenToAscii_
                		extern	set_vector_
                	;	global	dbg_init_
                	;	global	dbg_getDecNumber_
                	;	global	debugger_
                	;	global	dbg_GetCursorCol_
                	;	global	ssm_
                		extern	disassem_
                	;	global	dbg_getHexNumber_
                	;	global	ignore_blanks_
                	;	global	dbg_GetCursorRow_
                	;	global	dbg_nextNonSpace_
                	;	global	dbg_getchar_
                	;	global	repcount_
                	;	global	dbg_ungetch_
                	;	global	curfmt_
                	;	global	currep_
                		extern	printf_
                	;	global	dbg_HomeCursor_
                	;	global	dbg_HomeCursor_
                		rodata
01F2D2 00 00 00 00 00 00 00 00 		align	1
01F2DA 00 00 00 00 00 00       
                	
                		align	8                	
                	ramtest_0:	; bad at address: 
01F2E0 62 00 61 00 64 00 20 00 		dc	98,97,100,32,97,116,32,97
01F2E8 61 00 74 00 20 00 61 00 
01F2F0 64 00 64 00 72 00 65 00 		dc	100,100,114,101,115,115,58,32
01F2F8 73 00 73 00 3A 00 20 00 
01F300 00 00                   		dc	0
                	;	global	ramtest
                		extern	getcharNoWait
                		extern	ramtest_betweem
                	;	global	msgBadAddr
                	;	global	msgBadAddr
                	message "hit end"
01F302 00 00 3F 00 00 00       	    nop
01F308 3F 00 00 00             	    nop
                	
                	
                	
                		rodata
01F30C 00 00 00 00             		align 
                	
                	begin_init_data:
                	    data
                	    org     $C10000
                		data
                		align	8                	
                		align	8                	
                	public data pSpriteController:
01F310 00 D0 DA FF FF FF FF FF 		dw	-2437120
                	endpublic
                	
                		data
                		align	8                	
01F318 00                      		fill.b	1,0x00
01F319 00 00 00 00 00 00 00    		align	
                	
01F320 00 00 00 00 00 00 00 00 		fill.b	16,0x00
01F328 00 00 00 00 00 00 00 00 
                		align	8                	
                		align	8                	
01F330 00 00 00 00 00 00 00 00 		fill.b	1984,0x00
01F338 00 00 00 00 00 00 00 00 
01F340 00 00 00 00 00 00 00 00 
01F348 00 00 00 00 00 00 00 00 
01F350 00 00 00 00 00 00 00 00 
01F358 00 00 00 00 00 00 00 00 
01F360 00 00 00 00 00 00 00 00 
01F368 00 00 00 00 00 00 00 00 
01F370 00 00 00 00 00 00 00 00 
01F378 00 00 00 00 00 00 00 00 
01F380 00 00 00 00 00 00 00 00 
01F388 00 00 00 00 00 00 00 00 
01F390 00 00 00 00 00 00 00 00 
01F398 00 00 00 00 00 00 00 00 
01F3A0 00 00 00 00 00 00 00 00 
01F3A8 00 00 00 00 00 00 00 00 
01F3B0 00 00 00 00 00 00 00 00 
01F3B8 00 00 00 00 00 00 00 00 
01F3C0 00 00 00 00 00 00 00 00 
01F3C8 00 00 00 00 00 00 00 00 
01F3D0 00 00 00 00 00 00 00 00 
01F3D8 00 00 00 00 00 00 00 00 
01F3E0 00 00 00 00 00 00 00 00 
01F3E8 00 00 00 00 00 00 00 00 
01F3F0 00 00 00 00 00 00 00 00 
01F3F8 00 00 00 00 00 00 00 00 
01F400 00 00 00 00 00 00 00 00 
01F408 00 00 00 00 00 00 00 00 
01F410 00 00 00 00 00 00 00 00 
01F418 00 00 00 00 00 00 00 00 
01F420 00 00 00 00 00 00 00 00 
01F428 00 00 00 00 00 00 00 00 
01F430 00 00 00 00 00 00 00 00 
01F438 00 00 00 00 00 00 00 00 
01F440 00 00 00 00 00 00 00 00 
01F448 00 00 00 00 00 00 00 00 
01F450 00 00 00 00 00 00 00 00 
01F458 00 00 00 00 00 00 00 00 
01F460 00 00 00 00 00 00 00 00 
01F468 00 00 00 00 00 00 00 00 
01F470 00 00 00 00 00 00 00 00 
01F478 00 00 00 00 00 00 00 00 
01F480 00 00 00 00 00 00 00 00 
01F488 00 00 00 00 00 00 00 00 
01F490 00 00 00 00 00 00 00 00 
01F498 00 00 00 00 00 00 00 00 
01F4A0 00 00 00 00 00 00 00 00 
01F4A8 00 00 00 00 00 00 00 00 
01F4B0 00 00 00 00 00 00 00 00 
01F4B8 00 00 00 00 00 00 00 00 
01F4C0 00 00 00 00 00 00 00 00 
01F4C8 00 00 00 00 00 00 00 00 
01F4D0 00 00 00 00 00 00 00 00 
01F4D8 00 00 00 00 00 00 00 00 
01F4E0 00 00 00 00 00 00 00 00 
01F4E8 00 00 00 00 00 00 00 00 
01F4F0 00 00 00 00 00 00 00 00 
01F4F8 00 00 00 00 00 00 00 00 
01F500 00 00 00 00 00 00 00 00 
01F508 00 00 00 00 00 00 00 00 
01F510 00 00 00 00 00 00 00 00 
01F518 00 00 00 00 00 00 00 00 
01F520 00 00 00 00 00 00 00 00 
01F528 00 00 00 00 00 00 00 00 
01F530 00 00 00 00 00 00 00 00 
01F538 00 00 00 00 00 00 00 00 
01F540 00 00 00 00 00 00 00 00 
01F548 00 00 00 00 00 00 00 00 
01F550 00 00 00 00 00 00 00 00 
01F558 00 00 00 00 00 00 00 00 
01F560 00 00 00 00 00 00 00 00 
01F568 00 00 00 00 00 00 00 00 
01F570 00 00 00 00 00 00 00 00 
01F578 00 00 00 00 00 00 00 00 
01F580 00 00 00 00 00 00 00 00 
01F588 00 00 00 00 00 00 00 00 
01F590 00 00 00 00 00 00 00 00 
01F598 00 00 00 00 00 00 00 00 
01F5A0 00 00 00 00 00 00 00 00 
01F5A8 00 00 00 00 00 00 00 00 
01F5B0 00 00 00 00 00 00 00 00 
01F5B8 00 00 00 00 00 00 00 00 
01F5C0 00 00 00 00 00 00 00 00 
01F5C8 00 00 00 00 00 00 00 00 
01F5D0 00 00 00 00 00 00 00 00 
01F5D8 00 00 00 00 00 00 00 00 
01F5E0 00 00 00 00 00 00 00 00 
01F5E8 00 00 00 00 00 00 00 00 
01F5F0 00 00 00 00 00 00 00 00 
01F5F8 00 00 00 00 00 00 00 00 
01F600 00 00 00 00 00 00 00 00 
01F608 00 00 00 00 00 00 00 00 
01F610 00 00 00 00 00 00 00 00 
01F618 00 00 00 00 00 00 00 00 
01F620 00 00 00 00 00 00 00 00 
01F628 00 00 00 00 00 00 00 00 
01F630 00 00 00 00 00 00 00 00 
01F638 00 00 00 00 00 00 00 00 
01F640 00 00 00 00 00 00 00 00 
01F648 00 00 00 00 00 00 00 00 
01F650 00 00 00 00 00 00 00 00 
01F658 00 00 00 00 00 00 00 00 
01F660 00 00 00 00 00 00 00 00 
01F668 00 00 00 00 00 00 00 00 
01F670 00 00 00 00 00 00 00 00 
01F678 00 00 00 00 00 00 00 00 
01F680 00 00 00 00 00 00 00 00 
01F688 00 00 00 00 00 00 00 00 
01F690 00 00 00 00 00 00 00 00 
01F698 00 00 00 00 00 00 00 00 
01F6A0 00 00 00 00 00 00 00 00 
01F6A8 00 00 00 00 00 00 00 00 
01F6B0 00 00 00 00 00 00 00 00 
01F6B8 00 00 00 00 00 00 00 00 
01F6C0 00 00 00 00 00 00 00 00 
01F6C8 00 00 00 00 00 00 00 00 
01F6D0 00 00 00 00 00 00 00 00 
01F6D8 00 00 00 00 00 00 00 00 
01F6E0 00 00 00 00 00 00 00 00 
01F6E8 00 00 00 00 00 00 00 00 
01F6F0 00 00 00 00 00 00 00 00 
01F6F8 00 00 00 00 00 00 00 00 
01F700 00 00 00 00 00 00 00 00 
01F708 00 00 00 00 00 00 00 00 
01F710 00 00 00 00 00 00 00 00 
01F718 00 00 00 00 00 00 00 00 
01F720 00 00 00 00 00 00 00 00 
01F728 00 00 00 00 00 00 00 00 
01F730 00 00 00 00 00 00 00 00 
01F738 00 00 00 00 00 00 00 00 
01F740 00 00 00 00 00 00 00 00 
01F748 00 00 00 00 00 00 00 00 
01F750 00 00 00 00 00 00 00 00 
01F758 00 00 00 00 00 00 00 00 
01F760 00 00 00 00 00 00 00 00 
01F768 00 00 00 00 00 00 00 00 
01F770 00 00 00 00 00 00 00 00 
01F778 00 00 00 00 00 00 00 00 
01F780 00 00 00 00 00 00 00 00 
01F788 00 00 00 00 00 00 00 00 
01F790 00 00 00 00 00 00 00 00 
01F798 00 00 00 00 00 00 00 00 
01F7A0 00 00 00 00 00 00 00 00 
01F7A8 00 00 00 00 00 00 00 00 
01F7B0 00 00 00 00 00 00 00 00 
01F7B8 00 00 00 00 00 00 00 00 
01F7C0 00 00 00 00 00 00 00 00 
01F7C8 00 00 00 00 00 00 00 00 
01F7D0 00 00 00 00 00 00 00 00 
01F7D8 00 00 00 00 00 00 00 00 
01F7E0 00 00 00 00 00 00 00 00 
01F7E8 00 00 00 00 00 00 00 00 
01F7F0 00 00 00 00 00 00 00 00 
01F7F8 00 00 00 00 00 00 00 00 
01F800 00 00 00 00 00 00 00 00 
01F808 00 00 00 00 00 00 00 00 
01F810 00 00 00 00 00 00 00 00 
01F818 00 00 00 00 00 00 00 00 
01F820 00 00 00 00 00 00 00 00 
01F828 00 00 00 00 00 00 00 00 
01F830 00 00 00 00 00 00 00 00 
01F838 00 00 00 00 00 00 00 00 
01F840 00 00 00 00 00 00 00 00 
01F848 00 00 00 00 00 00 00 00 
01F850 00 00 00 00 00 00 00 00 
01F858 00 00 00 00 00 00 00 00 
01F860 00 00 00 00 00 00 00 00 
01F868 00 00 00 00 00 00 00 00 
01F870 00 00 00 00 00 00 00 00 
01F878 00 00 00 00 00 00 00 00 
01F880 00 00 00 00 00 00 00 00 
01F888 00 00 00 00 00 00 00 00 
01F890 00 00 00 00 00 00 00 00 
01F898 00 00 00 00 00 00 00 00 
01F8A0 00 00 00 00 00 00 00 00 
01F8A8 00 00 00 00 00 00 00 00 
01F8B0 00 00 00 00 00 00 00 00 
01F8B8 00 00 00 00 00 00 00 00 
01F8C0 00 00 00 00 00 00 00 00 
01F8C8 00 00 00 00 00 00 00 00 
01F8D0 00 00 00 00 00 00 00 00 
01F8D8 00 00 00 00 00 00 00 00 
01F8E0 00 00 00 00 00 00 00 00 
01F8E8 00 00 00 00 00 00 00 00 
01F8F0 00 00 00 00 00 00 00 00 
01F8F8 00 00 00 00 00 00 00 00 
01F900 00 00 00 00 00 00 00 00 
01F908 00 00 00 00 00 00 00 00 
01F910 00 00 00 00 00 00 00 00 
01F918 00 00 00 00 00 00 00 00 
01F920 00 00 00 00 00 00 00 00 
01F928 00 00 00 00 00 00 00 00 
01F930 00 00 00 00 00 00 00 00 
01F938 00 00 00 00 00 00 00 00 
01F940 00 00 00 00 00 00 00 00 
01F948 00 00 00 00 00 00 00 00 
01F950 00 00 00 00 00 00 00 00 
01F958 00 00 00 00 00 00 00 00 
01F960 00 00 00 00 00 00 00 00 
01F968 00 00 00 00 00 00 00 00 
01F970 00 00 00 00 00 00 00 00 
01F978 00 00 00 00 00 00 00 00 
01F980 00 00 00 00 00 00 00 00 
01F988 00 00 00 00 00 00 00 00 
01F990 00 00 00 00 00 00 00 00 
01F998 00 00 00 00 00 00 00 00 
01F9A0 00 00 00 00 00 00 00 00 
01F9A8 00 00 00 00 00 00 00 00 
01F9B0 00 00 00 00 00 00 00 00 
01F9B8 00 00 00 00 00 00 00 00 
01F9C0 00 00 00 00 00 00 00 00 
01F9C8 00 00 00 00 00 00 00 00 
01F9D0 00 00 00 00 00 00 00 00 
01F9D8 00 00 00 00 00 00 00 00 
01F9E0 00 00 00 00 00 00 00 00 
01F9E8 00 00 00 00 00 00 00 00 
01F9F0 00 00 00 00 00 00 00 00 
01F9F8 00 00 00 00 00 00 00 00 
01FA00 00 00 00 00 00 00 00 00 
01FA08 00 00 00 00 00 00 00 00 
01FA10 00 00 00 00 00 00 00 00 
01FA18 00 00 00 00 00 00 00 00 
01FA20 00 00 00 00 00 00 00 00 
01FA28 00 00 00 00 00 00 00 00 
01FA30 00 00 00 00 00 00 00 00 
01FA38 00 00 00 00 00 00 00 00 
01FA40 00 00 00 00 00 00 00 00 
01FA48 00 00 00 00 00 00 00 00 
01FA50 00 00 00 00 00 00 00 00 
01FA58 00 00 00 00 00 00 00 00 
01FA60 00 00 00 00 00 00 00 00 
01FA68 00 00 00 00 00 00 00 00 
01FA70 00 00 00 00 00 00 00 00 
01FA78 00 00 00 00 00 00 00 00 
01FA80 00 00 00 00 00 00 00 00 
01FA88 00 00 00 00 00 00 00 00 
01FA90 00 00 00 00 00 00 00 00 
01FA98 00 00 00 00 00 00 00 00 
01FAA0 00 00 00 00 00 00 00 00 
01FAA8 00 00 00 00 00 00 00 00 
01FAB0 00 00 00 00 00 00 00 00 
01FAB8 00 00 00 00 00 00 00 00 
01FAC0 00 00 00 00 00 00 00 00 
01FAC8 00 00 00 00 00 00 00 00 
01FAD0 00 00 00 00 00 00 00 00 
01FAD8 00 00 00 00 00 00 00 00 
01FAE0 00 00 00 00 00 00 00 00 
01FAE8 00 00 00 00 00 00 00 00 
                		align	8                	
                		align	8                	
                		data
                		align	8                	
01FAF0 00 00 00 00 00 00 00 00 		fill.b	880,0x00
01FAF8 00 00 00 00 00 00 00 00 
01FB00 00 00 00 00 00 00 00 00 
01FB08 00 00 00 00 00 00 00 00 
01FB10 00 00 00 00 00 00 00 00 
01FB18 00 00 00 00 00 00 00 00 
01FB20 00 00 00 00 00 00 00 00 
01FB28 00 00 00 00 00 00 00 00 
01FB30 00 00 00 00 00 00 00 00 
01FB38 00 00 00 00 00 00 00 00 
01FB40 00 00 00 00 00 00 00 00 
01FB48 00 00 00 00 00 00 00 00 
01FB50 00 00 00 00 00 00 00 00 
01FB58 00 00 00 00 00 00 00 00 
01FB60 00 00 00 00 00 00 00 00 
01FB68 00 00 00 00 00 00 00 00 
01FB70 00 00 00 00 00 00 00 00 
01FB78 00 00 00 00 00 00 00 00 
01FB80 00 00 00 00 00 00 00 00 
01FB88 00 00 00 00 00 00 00 00 
01FB90 00 00 00 00 00 00 00 00 
01FB98 00 00 00 00 00 00 00 00 
01FBA0 00 00 00 00 00 00 00 00 
01FBA8 00 00 00 00 00 00 00 00 
01FBB0 00 00 00 00 00 00 00 00 
01FBB8 00 00 00 00 00 00 00 00 
01FBC0 00 00 00 00 00 00 00 00 
01FBC8 00 00 00 00 00 00 00 00 
01FBD0 00 00 00 00 00 00 00 00 
01FBD8 00 00 00 00 00 00 00 00 
01FBE0 00 00 00 00 00 00 00 00 
01FBE8 00 00 00 00 00 00 00 00 
01FBF0 00 00 00 00 00 00 00 00 
01FBF8 00 00 00 00 00 00 00 00 
01FC00 00 00 00 00 00 00 00 00 
01FC08 00 00 00 00 00 00 00 00 
01FC10 00 00 00 00 00 00 00 00 
01FC18 00 00 00 00 00 00 00 00 
01FC20 00 00 00 00 00 00 00 00 
01FC28 00 00 00 00 00 00 00 00 
01FC30 00 00 00 00 00 00 00 00 
01FC38 00 00 00 00 00 00 00 00 
01FC40 00 00 00 00 00 00 00 00 
01FC48 00 00 00 00 00 00 00 00 
01FC50 00 00 00 00 00 00 00 00 
01FC58 00 00 00 00 00 00 00 00 
01FC60 00 00 00 00 00 00 00 00 
01FC68 00 00 00 00 00 00 00 00 
01FC70 00 00 00 00 00 00 00 00 
01FC78 00 00 00 00 00 00 00 00 
01FC80 00 00 00 00 00 00 00 00 
01FC88 00 00 00 00 00 00 00 00 
01FC90 00 00 00 00 00 00 00 00 
01FC98 00 00 00 00 00 00 00 00 
01FCA0 00 00 00 00 00 00 00 00 
01FCA8 00 00 00 00 00 00 00 00 
01FCB0 00 00 00 00 00 00 00 00 
01FCB8 00 00 00 00 00 00 00 00 
01FCC0 00 00 00 00 00 00 00 00 
01FCC8 00 00 00 00 00 00 00 00 
01FCD0 00 00 00 00 00 00 00 00 
01FCD8 00 00 00 00 00 00 00 00 
01FCE0 00 00 00 00 00 00 00 00 
01FCE8 00 00 00 00 00 00 00 00 
01FCF0 00 00 00 00 00 00 00 00 
01FCF8 00 00 00 00 00 00 00 00 
01FD00 00 00 00 00 00 00 00 00 
01FD08 00 00 00 00 00 00 00 00 
01FD10 00 00 00 00 00 00 00 00 
01FD18 00 00 00 00 00 00 00 00 
01FD20 00 00 00 00 00 00 00 00 
01FD28 00 00 00 00 00 00 00 00 
01FD30 00 00 00 00 00 00 00 00 
01FD38 00 00 00 00 00 00 00 00 
01FD40 00 00 00 00 00 00 00 00 
01FD48 00 00 00 00 00 00 00 00 
01FD50 00 00 00 00 00 00 00 00 
01FD58 00 00 00 00 00 00 00 00 
01FD60 00 00 00 00 00 00 00 00 
01FD68 00 00 00 00 00 00 00 00 
01FD70 00 00 00 00 00 00 00 00 
01FD78 00 00 00 00 00 00 00 00 
01FD80 00 00 00 00 00 00 00 00 
01FD88 00 00 00 00 00 00 00 00 
01FD90 00 00 00 00 00 00 00 00 
01FD98 00 00 00 00 00 00 00 00 
01FDA0 00 00 00 00 00 00 00 00 
01FDA8 00 00 00 00 00 00 00 00 
01FDB0 00 00 00 00 00 00 00 00 
01FDB8 00 00 00 00 00 00 00 00 
01FDC0 00 00 00 00 00 00 00 00 
01FDC8 00 00 00 00 00 00 00 00 
01FDD0 00 00 00 00 00 00 00 00 
01FDD8 00 00 00 00 00 00 00 00 
01FDE0 00 00 00 00 00 00 00 00 
01FDE8 00 00 00 00 00 00 00 00 
01FDF0 00 00 00 00 00 00 00 00 
01FDF8 00 00 00 00 00 00 00 00 
01FE00 00 00 00 00 00 00 00 00 
01FE08 00 00 00 00 00 00 00 00 
01FE10 00 00 00 00 00 00 00 00 
01FE18 00 00 00 00 00 00 00 00 
01FE20 00 00 00 00 00 00 00 00 
01FE28 00 00 00 00 00 00 00 00 
01FE30 00 00 00 00 00 00 00 00 
01FE38 00 00 00 00 00 00 00 00 
01FE40 00 00 00 00 00 00 00 00 
01FE48 00 00 00 00 00 00 00 00 
01FE50 00 00 00 00 00 00 00 00 
01FE58 00 00 00 00 00 00 00 00 
                		data
                		align	8                	
01FE60 00 00 00 00             		fill.b	4,0x00
                		data
01FE64 00 00 00 00             		align	
                	
01FE68 00 00 00 00 00 00       		fill.b	6,0x00
                		data
01FE6E 00 00                   		align	
                	
                	FMTKc_8:	; startQ_
01FE70 00 00 00 01 00 00 00 02 		db	0,0,0,1,0,0,0,2,0,0,0,3
01FE78 00 00 00 03             
01FE7C 00 01 00 04 00 00 00 05 		db	0,1,0,4,0,0,0,5,0,0,0,6
01FE84 00 00 00 06             
01FE88 00 01 00 07 00 00 00 00 		db	0,1,0,7,0,0,0,0
                		align	8                	
                	FMTKc_9:	; startQNdx_
01FE90 00                      		fill.b	1,0x00
01FE91 00 00 00 00 00 00 00    		align	
                	
01FE98 00                      		fill.b	1,0x00
                		data
01FE99 00 00 00 00 00 00 00    		align	
                	
                		data
                		align	8                	
                		data
                		align	8                	
01FEA0 00 00 00 00 00 00       		fill.b	6,0x00
                		data
01FEA6 00 00                   		align	
                	
01FEA8 00                      		fill.b	1,0x00
01FEA9 00 00 00 00 00 00 00    		align	
                	
01FEB0 00 00 00 00 00 00 00 00 		fill.b	16,0x00
01FEB8 00 00 00 00 00 00 00 00 
                		align	8                	
                		align	8                	
01FEC0 00 00 00 00 00 00 00 00 		fill.b	1984,0x00
01FEC8 00 00 00 00 00 00 00 00 
01FED0 00 00 00 00 00 00 00 00 
01FED8 00 00 00 00 00 00 00 00 
01FEE0 00 00 00 00 00 00 00 00 
01FEE8 00 00 00 00 00 00 00 00 
01FEF0 00 00 00 00 00 00 00 00 
01FEF8 00 00 00 00 00 00 00 00 
01FF00 00 00 00 00 00 00 00 00 
01FF08 00 00 00 00 00 00 00 00 
01FF10 00 00 00 00 00 00 00 00 
01FF18 00 00 00 00 00 00 00 00 
01FF20 00 00 00 00 00 00 00 00 
01FF28 00 00 00 00 00 00 00 00 
01FF30 00 00 00 00 00 00 00 00 
01FF38 00 00 00 00 00 00 00 00 
01FF40 00 00 00 00 00 00 00 00 
01FF48 00 00 00 00 00 00 00 00 
01FF50 00 00 00 00 00 00 00 00 
01FF58 00 00 00 00 00 00 00 00 
01FF60 00 00 00 00 00 00 00 00 
01FF68 00 00 00 00 00 00 00 00 
01FF70 00 00 00 00 00 00 00 00 
01FF78 00 00 00 00 00 00 00 00 
01FF80 00 00 00 00 00 00 00 00 
01FF88 00 00 00 00 00 00 00 00 
01FF90 00 00 00 00 00 00 00 00 
01FF98 00 00 00 00 00 00 00 00 
01FFA0 00 00 00 00 00 00 00 00 
01FFA8 00 00 00 00 00 00 00 00 
01FFB0 00 00 00 00 00 00 00 00 
01FFB8 00 00 00 00 00 00 00 00 
01FFC0 00 00 00 00 00 00 00 00 
01FFC8 00 00 00 00 00 00 00 00 
01FFD0 00 00 00 00 00 00 00 00 
01FFD8 00 00 00 00 00 00 00 00 
01FFE0 00 00 00 00 00 00 00 00 
01FFE8 00 00 00 00 00 00 00 00 
01FFF0 00 00 00 00 00 00 00 00 
01FFF8 00 00 00 00 00 00 00 00 
020000 00 00 00 00 00 00 00 00 
020008 00 00 00 00 00 00 00 00 
020010 00 00 00 00 00 00 00 00 
020018 00 00 00 00 00 00 00 00 
020020 00 00 00 00 00 00 00 00 
020028 00 00 00 00 00 00 00 00 
020030 00 00 00 00 00 00 00 00 
020038 00 00 00 00 00 00 00 00 
020040 00 00 00 00 00 00 00 00 
020048 00 00 00 00 00 00 00 00 
020050 00 00 00 00 00 00 00 00 
020058 00 00 00 00 00 00 00 00 
020060 00 00 00 00 00 00 00 00 
020068 00 00 00 00 00 00 00 00 
020070 00 00 00 00 00 00 00 00 
020078 00 00 00 00 00 00 00 00 
020080 00 00 00 00 00 00 00 00 
020088 00 00 00 00 00 00 00 00 
020090 00 00 00 00 00 00 00 00 
020098 00 00 00 00 00 00 00 00 
0200A0 00 00 00 00 00 00 00 00 
0200A8 00 00 00 00 00 00 00 00 
0200B0 00 00 00 00 00 00 00 00 
0200B8 00 00 00 00 00 00 00 00 
0200C0 00 00 00 00 00 00 00 00 
0200C8 00 00 00 00 00 00 00 00 
0200D0 00 00 00 00 00 00 00 00 
0200D8 00 00 00 00 00 00 00 00 
0200E0 00 00 00 00 00 00 00 00 
0200E8 00 00 00 00 00 00 00 00 
0200F0 00 00 00 00 00 00 00 00 
0200F8 00 00 00 00 00 00 00 00 
020100 00 00 00 00 00 00 00 00 
020108 00 00 00 00 00 00 00 00 
020110 00 00 00 00 00 00 00 00 
020118 00 00 00 00 00 00 00 00 
020120 00 00 00 00 00 00 00 00 
020128 00 00 00 00 00 00 00 00 
020130 00 00 00 00 00 00 00 00 
020138 00 00 00 00 00 00 00 00 
020140 00 00 00 00 00 00 00 00 
020148 00 00 00 00 00 00 00 00 
020150 00 00 00 00 00 00 00 00 
020158 00 00 00 00 00 00 00 00 
020160 00 00 00 00 00 00 00 00 
020168 00 00 00 00 00 00 00 00 
020170 00 00 00 00 00 00 00 00 
020178 00 00 00 00 00 00 00 00 
020180 00 00 00 00 00 00 00 00 
020188 00 00 00 00 00 00 00 00 
020190 00 00 00 00 00 00 00 00 
020198 00 00 00 00 00 00 00 00 
0201A0 00 00 00 00 00 00 00 00 
0201A8 00 00 00 00 00 00 00 00 
0201B0 00 00 00 00 00 00 00 00 
0201B8 00 00 00 00 00 00 00 00 
0201C0 00 00 00 00 00 00 00 00 
0201C8 00 00 00 00 00 00 00 00 
0201D0 00 00 00 00 00 00 00 00 
0201D8 00 00 00 00 00 00 00 00 
0201E0 00 00 00 00 00 00 00 00 
0201E8 00 00 00 00 00 00 00 00 
0201F0 00 00 00 00 00 00 00 00 
0201F8 00 00 00 00 00 00 00 00 
020200 00 00 00 00 00 00 00 00 
020208 00 00 00 00 00 00 00 00 
020210 00 00 00 00 00 00 00 00 
020218 00 00 00 00 00 00 00 00 
020220 00 00 00 00 00 00 00 00 
020228 00 00 00 00 00 00 00 00 
020230 00 00 00 00 00 00 00 00 
020238 00 00 00 00 00 00 00 00 
020240 00 00 00 00 00 00 00 00 
020248 00 00 00 00 00 00 00 00 
020250 00 00 00 00 00 00 00 00 
020258 00 00 00 00 00 00 00 00 
020260 00 00 00 00 00 00 00 00 
020268 00 00 00 00 00 00 00 00 
020270 00 00 00 00 00 00 00 00 
020278 00 00 00 00 00 00 00 00 
020280 00 00 00 00 00 00 00 00 
020288 00 00 00 00 00 00 00 00 
020290 00 00 00 00 00 00 00 00 
020298 00 00 00 00 00 00 00 00 
0202A0 00 00 00 00 00 00 00 00 
0202A8 00 00 00 00 00 00 00 00 
0202B0 00 00 00 00 00 00 00 00 
0202B8 00 00 00 00 00 00 00 00 
0202C0 00 00 00 00 00 00 00 00 
0202C8 00 00 00 00 00 00 00 00 
0202D0 00 00 00 00 00 00 00 00 
0202D8 00 00 00 00 00 00 00 00 
0202E0 00 00 00 00 00 00 00 00 
0202E8 00 00 00 00 00 00 00 00 
0202F0 00 00 00 00 00 00 00 00 
0202F8 00 00 00 00 00 00 00 00 
020300 00 00 00 00 00 00 00 00 
020308 00 00 00 00 00 00 00 00 
020310 00 00 00 00 00 00 00 00 
020318 00 00 00 00 00 00 00 00 
020320 00 00 00 00 00 00 00 00 
020328 00 00 00 00 00 00 00 00 
020330 00 00 00 00 00 00 00 00 
020338 00 00 00 00 00 00 00 00 
020340 00 00 00 00 00 00 00 00 
020348 00 00 00 00 00 00 00 00 
020350 00 00 00 00 00 00 00 00 
020358 00 00 00 00 00 00 00 00 
020360 00 00 00 00 00 00 00 00 
020368 00 00 00 00 00 00 00 00 
020370 00 00 00 00 00 00 00 00 
020378 00 00 00 00 00 00 00 00 
020380 00 00 00 00 00 00 00 00 
020388 00 00 00 00 00 00 00 00 
020390 00 00 00 00 00 00 00 00 
020398 00 00 00 00 00 00 00 00 
0203A0 00 00 00 00 00 00 00 00 
0203A8 00 00 00 00 00 00 00 00 
0203B0 00 00 00 00 00 00 00 00 
0203B8 00 00 00 00 00 00 00 00 
0203C0 00 00 00 00 00 00 00 00 
0203C8 00 00 00 00 00 00 00 00 
0203D0 00 00 00 00 00 00 00 00 
0203D8 00 00 00 00 00 00 00 00 
0203E0 00 00 00 00 00 00 00 00 
0203E8 00 00 00 00 00 00 00 00 
0203F0 00 00 00 00 00 00 00 00 
0203F8 00 00 00 00 00 00 00 00 
020400 00 00 00 00 00 00 00 00 
020408 00 00 00 00 00 00 00 00 
020410 00 00 00 00 00 00 00 00 
020418 00 00 00 00 00 00 00 00 
020420 00 00 00 00 00 00 00 00 
020428 00 00 00 00 00 00 00 00 
020430 00 00 00 00 00 00 00 00 
020438 00 00 00 00 00 00 00 00 
020440 00 00 00 00 00 00 00 00 
020448 00 00 00 00 00 00 00 00 
020450 00 00 00 00 00 00 00 00 
020458 00 00 00 00 00 00 00 00 
020460 00 00 00 00 00 00 00 00 
020468 00 00 00 00 00 00 00 00 
020470 00 00 00 00 00 00 00 00 
020478 00 00 00 00 00 00 00 00 
020480 00 00 00 00 00 00 00 00 
020488 00 00 00 00 00 00 00 00 
020490 00 00 00 00 00 00 00 00 
020498 00 00 00 00 00 00 00 00 
0204A0 00 00 00 00 00 00 00 00 
0204A8 00 00 00 00 00 00 00 00 
0204B0 00 00 00 00 00 00 00 00 
0204B8 00 00 00 00 00 00 00 00 
0204C0 00 00 00 00 00 00 00 00 
0204C8 00 00 00 00 00 00 00 00 
0204D0 00 00 00 00 00 00 00 00 
0204D8 00 00 00 00 00 00 00 00 
0204E0 00 00 00 00 00 00 00 00 
0204E8 00 00 00 00 00 00 00 00 
0204F0 00 00 00 00 00 00 00 00 
0204F8 00 00 00 00 00 00 00 00 
020500 00 00 00 00 00 00 00 00 
020508 00 00 00 00 00 00 00 00 
020510 00 00 00 00 00 00 00 00 
020518 00 00 00 00 00 00 00 00 
020520 00 00 00 00 00 00 00 00 
020528 00 00 00 00 00 00 00 00 
020530 00 00 00 00 00 00 00 00 
020538 00 00 00 00 00 00 00 00 
020540 00 00 00 00 00 00 00 00 
020548 00 00 00 00 00 00 00 00 
020550 00 00 00 00 00 00 00 00 
020558 00 00 00 00 00 00 00 00 
020560 00 00 00 00 00 00 00 00 
020568 00 00 00 00 00 00 00 00 
020570 00 00 00 00 00 00 00 00 
020578 00 00 00 00 00 00 00 00 
020580 00 00 00 00 00 00 00 00 
020588 00 00 00 00 00 00 00 00 
020590 00 00 00 00 00 00 00 00 
020598 00 00 00 00 00 00 00 00 
0205A0 00 00 00 00 00 00 00 00 
0205A8 00 00 00 00 00 00 00 00 
0205B0 00 00 00 00 00 00 00 00 
0205B8 00 00 00 00 00 00 00 00 
0205C0 00 00 00 00 00 00 00 00 
0205C8 00 00 00 00 00 00 00 00 
0205D0 00 00 00 00 00 00 00 00 
0205D8 00 00 00 00 00 00 00 00 
0205E0 00 00 00 00 00 00 00 00 
0205E8 00 00 00 00 00 00 00 00 
0205F0 00 00 00 00 00 00 00 00 
0205F8 00 00 00 00 00 00 00 00 
020600 00 00 00 00 00 00 00 00 
020608 00 00 00 00 00 00 00 00 
020610 00 00 00 00 00 00 00 00 
020618 00 00 00 00 00 00 00 00 
020620 00 00 00 00 00 00 00 00 
020628 00 00 00 00 00 00 00 00 
020630 00 00 00 00 00 00 00 00 
020638 00 00 00 00 00 00 00 00 
020640 00 00 00 00 00 00 00 00 
020648 00 00 00 00 00 00 00 00 
020650 00 00 00 00 00 00 00 00 
020658 00 00 00 00 00 00 00 00 
020660 00 00 00 00 00 00 00 00 
020668 00 00 00 00 00 00 00 00 
020670 00 00 00 00 00 00 00 00 
020678 00 00 00 00 00 00 00 00 
                		align	8                	
                		align	8                	
                		data
                		align	8                	
                		data
                		align	8                	
020680 00                      		fill.b	1,0x00
020681 00 00 00 00 00 00 00    		align	
                	
020688 00 00 00 00 00 00 00 00 		fill.b	16,0x00
020690 00 00 00 00 00 00 00 00 
                		align	8                	
                		align	8                	
020698 00 00 00 00 00 00 00 00 		fill.b	1984,0x00
0206A0 00 00 00 00 00 00 00 00 
0206A8 00 00 00 00 00 00 00 00 
0206B0 00 00 00 00 00 00 00 00 
0206B8 00 00 00 00 00 00 00 00 
0206C0 00 00 00 00 00 00 00 00 
0206C8 00 00 00 00 00 00 00 00 
0206D0 00 00 00 00 00 00 00 00 
0206D8 00 00 00 00 00 00 00 00 
0206E0 00 00 00 00 00 00 00 00 
0206E8 00 00 00 00 00 00 00 00 
0206F0 00 00 00 00 00 00 00 00 
0206F8 00 00 00 00 00 00 00 00 
020700 00 00 00 00 00 00 00 00 
020708 00 00 00 00 00 00 00 00 
020710 00 00 00 00 00 00 00 00 
020718 00 00 00 00 00 00 00 00 
020720 00 00 00 00 00 00 00 00 
020728 00 00 00 00 00 00 00 00 
020730 00 00 00 00 00 00 00 00 
020738 00 00 00 00 00 00 00 00 
020740 00 00 00 00 00 00 00 00 
020748 00 00 00 00 00 00 00 00 
020750 00 00 00 00 00 00 00 00 
020758 00 00 00 00 00 00 00 00 
020760 00 00 00 00 00 00 00 00 
020768 00 00 00 00 00 00 00 00 
020770 00 00 00 00 00 00 00 00 
020778 00 00 00 00 00 00 00 00 
020780 00 00 00 00 00 00 00 00 
020788 00 00 00 00 00 00 00 00 
020790 00 00 00 00 00 00 00 00 
020798 00 00 00 00 00 00 00 00 
0207A0 00 00 00 00 00 00 00 00 
0207A8 00 00 00 00 00 00 00 00 
0207B0 00 00 00 00 00 00 00 00 
0207B8 00 00 00 00 00 00 00 00 
0207C0 00 00 00 00 00 00 00 00 
0207C8 00 00 00 00 00 00 00 00 
0207D0 00 00 00 00 00 00 00 00 
0207D8 00 00 00 00 00 00 00 00 
0207E0 00 00 00 00 00 00 00 00 
0207E8 00 00 00 00 00 00 00 00 
0207F0 00 00 00 00 00 00 00 00 
0207F8 00 00 00 00 00 00 00 00 
020800 00 00 00 00 00 00 00 00 
020808 00 00 00 00 00 00 00 00 
020810 00 00 00 00 00 00 00 00 
020818 00 00 00 00 00 00 00 00 
020820 00 00 00 00 00 00 00 00 
020828 00 00 00 00 00 00 00 00 
020830 00 00 00 00 00 00 00 00 
020838 00 00 00 00 00 00 00 00 
020840 00 00 00 00 00 00 00 00 
020848 00 00 00 00 00 00 00 00 
020850 00 00 00 00 00 00 00 00 
020858 00 00 00 00 00 00 00 00 
020860 00 00 00 00 00 00 00 00 
020868 00 00 00 00 00 00 00 00 
020870 00 00 00 00 00 00 00 00 
020878 00 00 00 00 00 00 00 00 
020880 00 00 00 00 00 00 00 00 
020888 00 00 00 00 00 00 00 00 
020890 00 00 00 00 00 00 00 00 
020898 00 00 00 00 00 00 00 00 
0208A0 00 00 00 00 00 00 00 00 
0208A8 00 00 00 00 00 00 00 00 
0208B0 00 00 00 00 00 00 00 00 
0208B8 00 00 00 00 00 00 00 00 
0208C0 00 00 00 00 00 00 00 00 
0208C8 00 00 00 00 00 00 00 00 
0208D0 00 00 00 00 00 00 00 00 
0208D8 00 00 00 00 00 00 00 00 
0208E0 00 00 00 00 00 00 00 00 
0208E8 00 00 00 00 00 00 00 00 
0208F0 00 00 00 00 00 00 00 00 
0208F8 00 00 00 00 00 00 00 00 
020900 00 00 00 00 00 00 00 00 
020908 00 00 00 00 00 00 00 00 
020910 00 00 00 00 00 00 00 00 
020918 00 00 00 00 00 00 00 00 
020920 00 00 00 00 00 00 00 00 
020928 00 00 00 00 00 00 00 00 
020930 00 00 00 00 00 00 00 00 
020938 00 00 00 00 00 00 00 00 
020940 00 00 00 00 00 00 00 00 
020948 00 00 00 00 00 00 00 00 
020950 00 00 00 00 00 00 00 00 
020958 00 00 00 00 00 00 00 00 
020960 00 00 00 00 00 00 00 00 
020968 00 00 00 00 00 00 00 00 
020970 00 00 00 00 00 00 00 00 
020978 00 00 00 00 00 00 00 00 
020980 00 00 00 00 00 00 00 00 
020988 00 00 00 00 00 00 00 00 
020990 00 00 00 00 00 00 00 00 
020998 00 00 00 00 00 00 00 00 
0209A0 00 00 00 00 00 00 00 00 
0209A8 00 00 00 00 00 00 00 00 
0209B0 00 00 00 00 00 00 00 00 
0209B8 00 00 00 00 00 00 00 00 
0209C0 00 00 00 00 00 00 00 00 
0209C8 00 00 00 00 00 00 00 00 
0209D0 00 00 00 00 00 00 00 00 
0209D8 00 00 00 00 00 00 00 00 
0209E0 00 00 00 00 00 00 00 00 
0209E8 00 00 00 00 00 00 00 00 
0209F0 00 00 00 00 00 00 00 00 
0209F8 00 00 00 00 00 00 00 00 
020A00 00 00 00 00 00 00 00 00 
020A08 00 00 00 00 00 00 00 00 
020A10 00 00 00 00 00 00 00 00 
020A18 00 00 00 00 00 00 00 00 
020A20 00 00 00 00 00 00 00 00 
020A28 00 00 00 00 00 00 00 00 
020A30 00 00 00 00 00 00 00 00 
020A38 00 00 00 00 00 00 00 00 
020A40 00 00 00 00 00 00 00 00 
020A48 00 00 00 00 00 00 00 00 
020A50 00 00 00 00 00 00 00 00 
020A58 00 00 00 00 00 00 00 00 
020A60 00 00 00 00 00 00 00 00 
020A68 00 00 00 00 00 00 00 00 
020A70 00 00 00 00 00 00 00 00 
020A78 00 00 00 00 00 00 00 00 
020A80 00 00 00 00 00 00 00 00 
020A88 00 00 00 00 00 00 00 00 
020A90 00 00 00 00 00 00 00 00 
020A98 00 00 00 00 00 00 00 00 
020AA0 00 00 00 00 00 00 00 00 
020AA8 00 00 00 00 00 00 00 00 
020AB0 00 00 00 00 00 00 00 00 
020AB8 00 00 00 00 00 00 00 00 
020AC0 00 00 00 00 00 00 00 00 
020AC8 00 00 00 00 00 00 00 00 
020AD0 00 00 00 00 00 00 00 00 
020AD8 00 00 00 00 00 00 00 00 
020AE0 00 00 00 00 00 00 00 00 
020AE8 00 00 00 00 00 00 00 00 
020AF0 00 00 00 00 00 00 00 00 
020AF8 00 00 00 00 00 00 00 00 
020B00 00 00 00 00 00 00 00 00 
020B08 00 00 00 00 00 00 00 00 
020B10 00 00 00 00 00 00 00 00 
020B18 00 00 00 00 00 00 00 00 
020B20 00 00 00 00 00 00 00 00 
020B28 00 00 00 00 00 00 00 00 
020B30 00 00 00 00 00 00 00 00 
020B38 00 00 00 00 00 00 00 00 
020B40 00 00 00 00 00 00 00 00 
020B48 00 00 00 00 00 00 00 00 
020B50 00 00 00 00 00 00 00 00 
020B58 00 00 00 00 00 00 00 00 
020B60 00 00 00 00 00 00 00 00 
020B68 00 00 00 00 00 00 00 00 
020B70 00 00 00 00 00 00 00 00 
020B78 00 00 00 00 00 00 00 00 
020B80 00 00 00 00 00 00 00 00 
020B88 00 00 00 00 00 00 00 00 
020B90 00 00 00 00 00 00 00 00 
020B98 00 00 00 00 00 00 00 00 
020BA0 00 00 00 00 00 00 00 00 
020BA8 00 00 00 00 00 00 00 00 
020BB0 00 00 00 00 00 00 00 00 
020BB8 00 00 00 00 00 00 00 00 
020BC0 00 00 00 00 00 00 00 00 
020BC8 00 00 00 00 00 00 00 00 
020BD0 00 00 00 00 00 00 00 00 
020BD8 00 00 00 00 00 00 00 00 
020BE0 00 00 00 00 00 00 00 00 
020BE8 00 00 00 00 00 00 00 00 
020BF0 00 00 00 00 00 00 00 00 
020BF8 00 00 00 00 00 00 00 00 
020C00 00 00 00 00 00 00 00 00 
020C08 00 00 00 00 00 00 00 00 
020C10 00 00 00 00 00 00 00 00 
020C18 00 00 00 00 00 00 00 00 
020C20 00 00 00 00 00 00 00 00 
020C28 00 00 00 00 00 00 00 00 
020C30 00 00 00 00 00 00 00 00 
020C38 00 00 00 00 00 00 00 00 
020C40 00 00 00 00 00 00 00 00 
020C48 00 00 00 00 00 00 00 00 
020C50 00 00 00 00 00 00 00 00 
020C58 00 00 00 00 00 00 00 00 
020C60 00 00 00 00 00 00 00 00 
020C68 00 00 00 00 00 00 00 00 
020C70 00 00 00 00 00 00 00 00 
020C78 00 00 00 00 00 00 00 00 
020C80 00 00 00 00 00 00 00 00 
020C88 00 00 00 00 00 00 00 00 
020C90 00 00 00 00 00 00 00 00 
020C98 00 00 00 00 00 00 00 00 
020CA0 00 00 00 00 00 00 00 00 
020CA8 00 00 00 00 00 00 00 00 
020CB0 00 00 00 00 00 00 00 00 
020CB8 00 00 00 00 00 00 00 00 
020CC0 00 00 00 00 00 00 00 00 
020CC8 00 00 00 00 00 00 00 00 
020CD0 00 00 00 00 00 00 00 00 
020CD8 00 00 00 00 00 00 00 00 
020CE0 00 00 00 00 00 00 00 00 
020CE8 00 00 00 00 00 00 00 00 
020CF0 00 00 00 00 00 00 00 00 
020CF8 00 00 00 00 00 00 00 00 
020D00 00 00 00 00 00 00 00 00 
020D08 00 00 00 00 00 00 00 00 
020D10 00 00 00 00 00 00 00 00 
020D18 00 00 00 00 00 00 00 00 
020D20 00 00 00 00 00 00 00 00 
020D28 00 00 00 00 00 00 00 00 
020D30 00 00 00 00 00 00 00 00 
020D38 00 00 00 00 00 00 00 00 
020D40 00 00 00 00 00 00 00 00 
020D48 00 00 00 00 00 00 00 00 
020D50 00 00 00 00 00 00 00 00 
020D58 00 00 00 00 00 00 00 00 
020D60 00 00 00 00 00 00 00 00 
020D68 00 00 00 00 00 00 00 00 
020D70 00 00 00 00 00 00 00 00 
020D78 00 00 00 00 00 00 00 00 
020D80 00 00 00 00 00 00 00 00 
020D88 00 00 00 00 00 00 00 00 
020D90 00 00 00 00 00 00 00 00 
020D98 00 00 00 00 00 00 00 00 
020DA0 00 00 00 00 00 00 00 00 
020DA8 00 00 00 00 00 00 00 00 
020DB0 00 00 00 00 00 00 00 00 
020DB8 00 00 00 00 00 00 00 00 
020DC0 00 00 00 00 00 00 00 00 
020DC8 00 00 00 00 00 00 00 00 
020DD0 00 00 00 00 00 00 00 00 
020DD8 00 00 00 00 00 00 00 00 
020DE0 00 00 00 00 00 00 00 00 
020DE8 00 00 00 00 00 00 00 00 
020DF0 00 00 00 00 00 00 00 00 
020DF8 00 00 00 00 00 00 00 00 
020E00 00 00 00 00 00 00 00 00 
020E08 00 00 00 00 00 00 00 00 
020E10 00 00 00 00 00 00 00 00 
020E18 00 00 00 00 00 00 00 00 
020E20 00 00 00 00 00 00 00 00 
020E28 00 00 00 00 00 00 00 00 
020E30 00 00 00 00 00 00 00 00 
020E38 00 00 00 00 00 00 00 00 
020E40 00 00 00 00 00 00 00 00 
020E48 00 00 00 00 00 00 00 00 
020E50 00 00 00 00 00 00 00 00 
                		align	8                	
                		align	8                	
                		align	8                	
020E58 00 00 00 00 00 00 00 00 		fill.b	896,0x00
020E60 00 00 00 00 00 00 00 00 
020E68 00 00 00 00 00 00 00 00 
020E70 00 00 00 00 00 00 00 00 
020E78 00 00 00 00 00 00 00 00 
020E80 00 00 00 00 00 00 00 00 
020E88 00 00 00 00 00 00 00 00 
020E90 00 00 00 00 00 00 00 00 
020E98 00 00 00 00 00 00 00 00 
020EA0 00 00 00 00 00 00 00 00 
020EA8 00 00 00 00 00 00 00 00 
020EB0 00 00 00 00 00 00 00 00 
020EB8 00 00 00 00 00 00 00 00 
020EC0 00 00 00 00 00 00 00 00 
020EC8 00 00 00 00 00 00 00 00 
020ED0 00 00 00 00 00 00 00 00 
020ED8 00 00 00 00 00 00 00 00 
020EE0 00 00 00 00 00 00 00 00 
020EE8 00 00 00 00 00 00 00 00 
020EF0 00 00 00 00 00 00 00 00 
020EF8 00 00 00 00 00 00 00 00 
020F00 00 00 00 00 00 00 00 00 
020F08 00 00 00 00 00 00 00 00 
020F10 00 00 00 00 00 00 00 00 
020F18 00 00 00 00 00 00 00 00 
020F20 00 00 00 00 00 00 00 00 
020F28 00 00 00 00 00 00 00 00 
020F30 00 00 00 00 00 00 00 00 
020F38 00 00 00 00 00 00 00 00 
020F40 00 00 00 00 00 00 00 00 
020F48 00 00 00 00 00 00 00 00 
020F50 00 00 00 00 00 00 00 00 
020F58 00 00 00 00 00 00 00 00 
020F60 00 00 00 00 00 00 00 00 
020F68 00 00 00 00 00 00 00 00 
020F70 00 00 00 00 00 00 00 00 
020F78 00 00 00 00 00 00 00 00 
020F80 00 00 00 00 00 00 00 00 
020F88 00 00 00 00 00 00 00 00 
020F90 00 00 00 00 00 00 00 00 
020F98 00 00 00 00 00 00 00 00 
020FA0 00 00 00 00 00 00 00 00 
020FA8 00 00 00 00 00 00 00 00 
020FB0 00 00 00 00 00 00 00 00 
020FB8 00 00 00 00 00 00 00 00 
020FC0 00 00 00 00 00 00 00 00 
020FC8 00 00 00 00 00 00 00 00 
020FD0 00 00 00 00 00 00 00 00 
020FD8 00 00 00 00 00 00 00 00 
020FE0 00 00 00 00 00 00 00 00 
020FE8 00 00 00 00 00 00 00 00 
020FF0 00 00 00 00 00 00 00 00 
020FF8 00 00 00 00 00 00 00 00 
021000 00 00 00 00 00 00 00 00 
021008 00 00 00 00 00 00 00 00 
021010 00 00 00 00 00 00 00 00 
021018 00 00 00 00 00 00 00 00 
021020 00 00 00 00 00 00 00 00 
021028 00 00 00 00 00 00 00 00 
021030 00 00 00 00 00 00 00 00 
021038 00 00 00 00 00 00 00 00 
021040 00 00 00 00 00 00 00 00 
021048 00 00 00 00 00 00 00 00 
021050 00 00 00 00 00 00 00 00 
021058 00 00 00 00 00 00 00 00 
021060 00 00 00 00 00 00 00 00 
021068 00 00 00 00 00 00 00 00 
021070 00 00 00 00 00 00 00 00 
021078 00 00 00 00 00 00 00 00 
021080 00 00 00 00 00 00 00 00 
021088 00 00 00 00 00 00 00 00 
021090 00 00 00 00 00 00 00 00 
021098 00 00 00 00 00 00 00 00 
0210A0 00 00 00 00 00 00 00 00 
0210A8 00 00 00 00 00 00 00 00 
0210B0 00 00 00 00 00 00 00 00 
0210B8 00 00 00 00 00 00 00 00 
0210C0 00 00 00 00 00 00 00 00 
0210C8 00 00 00 00 00 00 00 00 
0210D0 00 00 00 00 00 00 00 00 
0210D8 00 00 00 00 00 00 00 00 
0210E0 00 00 00 00 00 00 00 00 
0210E8 00 00 00 00 00 00 00 00 
0210F0 00 00 00 00 00 00 00 00 
0210F8 00 00 00 00 00 00 00 00 
021100 00 00 00 00 00 00 00 00 
021108 00 00 00 00 00 00 00 00 
021110 00 00 00 00 00 00 00 00 
021118 00 00 00 00 00 00 00 00 
021120 00 00 00 00 00 00 00 00 
021128 00 00 00 00 00 00 00 00 
021130 00 00 00 00 00 00 00 00 
021138 00 00 00 00 00 00 00 00 
021140 00 00 00 00 00 00 00 00 
021148 00 00 00 00 00 00 00 00 
021150 00 00 00 00 00 00 00 00 
021158 00 00 00 00 00 00 00 00 
021160 00 00 00 00 00 00 00 00 
021168 00 00 00 00 00 00 00 00 
021170 00 00 00 00 00 00 00 00 
021178 00 00 00 00 00 00 00 00 
021180 00 00 00 00 00 00 00 00 
021188 00 00 00 00 00 00 00 00 
021190 00 00 00 00 00 00 00 00 
021198 00 00 00 00 00 00 00 00 
0211A0 00 00 00 00 00 00 00 00 
0211A8 00 00 00 00 00 00 00 00 
0211B0 00 00 00 00 00 00 00 00 
0211B8 00 00 00 00 00 00 00 00 
0211C0 00 00 00 00 00 00 00 00 
0211C8 00 00 00 00 00 00 00 00 
0211D0 00 00 00 00 00 00 00 00 
                		data
                		align	8                	
                		data
                		align	8                	
0211D8 00                      		fill.b	1,0x00
0211D9 00 00 00 00 00 00 00    		align	
                	
0211E0 00 00 00 00 00 00 00 00 		fill.b	16,0x00
0211E8 00 00 00 00 00 00 00 00 
                		align	8                	
                		align	8                	
0211F0 00 00 00 00 00 00 00 00 		fill.b	1984,0x00
0211F8 00 00 00 00 00 00 00 00 
021200 00 00 00 00 00 00 00 00 
021208 00 00 00 00 00 00 00 00 
021210 00 00 00 00 00 00 00 00 
021218 00 00 00 00 00 00 00 00 
021220 00 00 00 00 00 00 00 00 
021228 00 00 00 00 00 00 00 00 
021230 00 00 00 00 00 00 00 00 
021238 00 00 00 00 00 00 00 00 
021240 00 00 00 00 00 00 00 00 
021248 00 00 00 00 00 00 00 00 
021250 00 00 00 00 00 00 00 00 
021258 00 00 00 00 00 00 00 00 
021260 00 00 00 00 00 00 00 00 
021268 00 00 00 00 00 00 00 00 
021270 00 00 00 00 00 00 00 00 
021278 00 00 00 00 00 00 00 00 
021280 00 00 00 00 00 00 00 00 
021288 00 00 00 00 00 00 00 00 
021290 00 00 00 00 00 00 00 00 
021298 00 00 00 00 00 00 00 00 
0212A0 00 00 00 00 00 00 00 00 
0212A8 00 00 00 00 00 00 00 00 
0212B0 00 00 00 00 00 00 00 00 
0212B8 00 00 00 00 00 00 00 00 
0212C0 00 00 00 00 00 00 00 00 
0212C8 00 00 00 00 00 00 00 00 
0212D0 00 00 00 00 00 00 00 00 
0212D8 00 00 00 00 00 00 00 00 
0212E0 00 00 00 00 00 00 00 00 
0212E8 00 00 00 00 00 00 00 00 
0212F0 00 00 00 00 00 00 00 00 
0212F8 00 00 00 00 00 00 00 00 
021300 00 00 00 00 00 00 00 00 
021308 00 00 00 00 00 00 00 00 
021310 00 00 00 00 00 00 00 00 
021318 00 00 00 00 00 00 00 00 
021320 00 00 00 00 00 00 00 00 
021328 00 00 00 00 00 00 00 00 
021330 00 00 00 00 00 00 00 00 
021338 00 00 00 00 00 00 00 00 
021340 00 00 00 00 00 00 00 00 
021348 00 00 00 00 00 00 00 00 
021350 00 00 00 00 00 00 00 00 
021358 00 00 00 00 00 00 00 00 
021360 00 00 00 00 00 00 00 00 
021368 00 00 00 00 00 00 00 00 
021370 00 00 00 00 00 00 00 00 
021378 00 00 00 00 00 00 00 00 
021380 00 00 00 00 00 00 00 00 
021388 00 00 00 00 00 00 00 00 
021390 00 00 00 00 00 00 00 00 
021398 00 00 00 00 00 00 00 00 
0213A0 00 00 00 00 00 00 00 00 
0213A8 00 00 00 00 00 00 00 00 
0213B0 00 00 00 00 00 00 00 00 
0213B8 00 00 00 00 00 00 00 00 
0213C0 00 00 00 00 00 00 00 00 
0213C8 00 00 00 00 00 00 00 00 
0213D0 00 00 00 00 00 00 00 00 
0213D8 00 00 00 00 00 00 00 00 
0213E0 00 00 00 00 00 00 00 00 
0213E8 00 00 00 00 00 00 00 00 
0213F0 00 00 00 00 00 00 00 00 
0213F8 00 00 00 00 00 00 00 00 
021400 00 00 00 00 00 00 00 00 
021408 00 00 00 00 00 00 00 00 
021410 00 00 00 00 00 00 00 00 
021418 00 00 00 00 00 00 00 00 
021420 00 00 00 00 00 00 00 00 
021428 00 00 00 00 00 00 00 00 
021430 00 00 00 00 00 00 00 00 
021438 00 00 00 00 00 00 00 00 
021440 00 00 00 00 00 00 00 00 
021448 00 00 00 00 00 00 00 00 
021450 00 00 00 00 00 00 00 00 
021458 00 00 00 00 00 00 00 00 
021460 00 00 00 00 00 00 00 00 
021468 00 00 00 00 00 00 00 00 
021470 00 00 00 00 00 00 00 00 
021478 00 00 00 00 00 00 00 00 
021480 00 00 00 00 00 00 00 00 
021488 00 00 00 00 00 00 00 00 
021490 00 00 00 00 00 00 00 00 
021498 00 00 00 00 00 00 00 00 
0214A0 00 00 00 00 00 00 00 00 
0214A8 00 00 00 00 00 00 00 00 
0214B0 00 00 00 00 00 00 00 00 
0214B8 00 00 00 00 00 00 00 00 
0214C0 00 00 00 00 00 00 00 00 
0214C8 00 00 00 00 00 00 00 00 
0214D0 00 00 00 00 00 00 00 00 
0214D8 00 00 00 00 00 00 00 00 
0214E0 00 00 00 00 00 00 00 00 
0214E8 00 00 00 00 00 00 00 00 
0214F0 00 00 00 00 00 00 00 00 
0214F8 00 00 00 00 00 00 00 00 
021500 00 00 00 00 00 00 00 00 
021508 00 00 00 00 00 00 00 00 
021510 00 00 00 00 00 00 00 00 
021518 00 00 00 00 00 00 00 00 
021520 00 00 00 00 00 00 00 00 
021528 00 00 00 00 00 00 00 00 
021530 00 00 00 00 00 00 00 00 
021538 00 00 00 00 00 00 00 00 
021540 00 00 00 00 00 00 00 00 
021548 00 00 00 00 00 00 00 00 
021550 00 00 00 00 00 00 00 00 
021558 00 00 00 00 00 00 00 00 
021560 00 00 00 00 00 00 00 00 
021568 00 00 00 00 00 00 00 00 
021570 00 00 00 00 00 00 00 00 
021578 00 00 00 00 00 00 00 00 
021580 00 00 00 00 00 00 00 00 
021588 00 00 00 00 00 00 00 00 
021590 00 00 00 00 00 00 00 00 
021598 00 00 00 00 00 00 00 00 
0215A0 00 00 00 00 00 00 00 00 
0215A8 00 00 00 00 00 00 00 00 
0215B0 00 00 00 00 00 00 00 00 
0215B8 00 00 00 00 00 00 00 00 
0215C0 00 00 00 00 00 00 00 00 
0215C8 00 00 00 00 00 00 00 00 
0215D0 00 00 00 00 00 00 00 00 
0215D8 00 00 00 00 00 00 00 00 
0215E0 00 00 00 00 00 00 00 00 
0215E8 00 00 00 00 00 00 00 00 
0215F0 00 00 00 00 00 00 00 00 
0215F8 00 00 00 00 00 00 00 00 
021600 00 00 00 00 00 00 00 00 
021608 00 00 00 00 00 00 00 00 
021610 00 00 00 00 00 00 00 00 
021618 00 00 00 00 00 00 00 00 
021620 00 00 00 00 00 00 00 00 
021628 00 00 00 00 00 00 00 00 
021630 00 00 00 00 00 00 00 00 
021638 00 00 00 00 00 00 00 00 
021640 00 00 00 00 00 00 00 00 
021648 00 00 00 00 00 00 00 00 
021650 00 00 00 00 00 00 00 00 
021658 00 00 00 00 00 00 00 00 
021660 00 00 00 00 00 00 00 00 
021668 00 00 00 00 00 00 00 00 
021670 00 00 00 00 00 00 00 00 
021678 00 00 00 00 00 00 00 00 
021680 00 00 00 00 00 00 00 00 
021688 00 00 00 00 00 00 00 00 
021690 00 00 00 00 00 00 00 00 
021698 00 00 00 00 00 00 00 00 
0216A0 00 00 00 00 00 00 00 00 
0216A8 00 00 00 00 00 00 00 00 
0216B0 00 00 00 00 00 00 00 00 
0216B8 00 00 00 00 00 00 00 00 
0216C0 00 00 00 00 00 00 00 00 
0216C8 00 00 00 00 00 00 00 00 
0216D0 00 00 00 00 00 00 00 00 
0216D8 00 00 00 00 00 00 00 00 
0216E0 00 00 00 00 00 00 00 00 
0216E8 00 00 00 00 00 00 00 00 
0216F0 00 00 00 00 00 00 00 00 
0216F8 00 00 00 00 00 00 00 00 
021700 00 00 00 00 00 00 00 00 
021708 00 00 00 00 00 00 00 00 
021710 00 00 00 00 00 00 00 00 
021718 00 00 00 00 00 00 00 00 
021720 00 00 00 00 00 00 00 00 
021728 00 00 00 00 00 00 00 00 
021730 00 00 00 00 00 00 00 00 
021738 00 00 00 00 00 00 00 00 
021740 00 00 00 00 00 00 00 00 
021748 00 00 00 00 00 00 00 00 
021750 00 00 00 00 00 00 00 00 
021758 00 00 00 00 00 00 00 00 
021760 00 00 00 00 00 00 00 00 
021768 00 00 00 00 00 00 00 00 
021770 00 00 00 00 00 00 00 00 
021778 00 00 00 00 00 00 00 00 
021780 00 00 00 00 00 00 00 00 
021788 00 00 00 00 00 00 00 00 
021790 00 00 00 00 00 00 00 00 
021798 00 00 00 00 00 00 00 00 
0217A0 00 00 00 00 00 00 00 00 
0217A8 00 00 00 00 00 00 00 00 
0217B0 00 00 00 00 00 00 00 00 
0217B8 00 00 00 00 00 00 00 00 
0217C0 00 00 00 00 00 00 00 00 
0217C8 00 00 00 00 00 00 00 00 
0217D0 00 00 00 00 00 00 00 00 
0217D8 00 00 00 00 00 00 00 00 
0217E0 00 00 00 00 00 00 00 00 
0217E8 00 00 00 00 00 00 00 00 
0217F0 00 00 00 00 00 00 00 00 
0217F8 00 00 00 00 00 00 00 00 
021800 00 00 00 00 00 00 00 00 
021808 00 00 00 00 00 00 00 00 
021810 00 00 00 00 00 00 00 00 
021818 00 00 00 00 00 00 00 00 
021820 00 00 00 00 00 00 00 00 
021828 00 00 00 00 00 00 00 00 
021830 00 00 00 00 00 00 00 00 
021838 00 00 00 00 00 00 00 00 
021840 00 00 00 00 00 00 00 00 
021848 00 00 00 00 00 00 00 00 
021850 00 00 00 00 00 00 00 00 
021858 00 00 00 00 00 00 00 00 
021860 00 00 00 00 00 00 00 00 
021868 00 00 00 00 00 00 00 00 
021870 00 00 00 00 00 00 00 00 
021878 00 00 00 00 00 00 00 00 
021880 00 00 00 00 00 00 00 00 
021888 00 00 00 00 00 00 00 00 
021890 00 00 00 00 00 00 00 00 
021898 00 00 00 00 00 00 00 00 
0218A0 00 00 00 00 00 00 00 00 
0218A8 00 00 00 00 00 00 00 00 
0218B0 00 00 00 00 00 00 00 00 
0218B8 00 00 00 00 00 00 00 00 
0218C0 00 00 00 00 00 00 00 00 
0218C8 00 00 00 00 00 00 00 00 
0218D0 00 00 00 00 00 00 00 00 
0218D8 00 00 00 00 00 00 00 00 
0218E0 00 00 00 00 00 00 00 00 
0218E8 00 00 00 00 00 00 00 00 
0218F0 00 00 00 00 00 00 00 00 
0218F8 00 00 00 00 00 00 00 00 
021900 00 00 00 00 00 00 00 00 
021908 00 00 00 00 00 00 00 00 
021910 00 00 00 00 00 00 00 00 
021918 00 00 00 00 00 00 00 00 
021920 00 00 00 00 00 00 00 00 
021928 00 00 00 00 00 00 00 00 
021930 00 00 00 00 00 00 00 00 
021938 00 00 00 00 00 00 00 00 
021940 00 00 00 00 00 00 00 00 
021948 00 00 00 00 00 00 00 00 
021950 00 00 00 00 00 00 00 00 
021958 00 00 00 00 00 00 00 00 
021960 00 00 00 00 00 00 00 00 
021968 00 00 00 00 00 00 00 00 
021970 00 00 00 00 00 00 00 00 
021978 00 00 00 00 00 00 00 00 
021980 00 00 00 00 00 00 00 00 
021988 00 00 00 00 00 00 00 00 
021990 00 00 00 00 00 00 00 00 
021998 00 00 00 00 00 00 00 00 
0219A0 00 00 00 00 00 00 00 00 
0219A8 00 00 00 00 00 00 00 00 
                		align	8                	
                		align	8                	
                		data
                		align	8                	
0219B0 00                      		fill.b	1,0x00
0219B1 00 00 00 00 00 00 00    		align	
                	
0219B8 00 00 00 00 00 00 00 00 		fill.b	16,0x00
0219C0 00 00 00 00 00 00 00 00 
                		align	8                	
                		align	8                	
0219C8 00 00 00 00 00 00 00 00 		fill.b	1984,0x00
0219D0 00 00 00 00 00 00 00 00 
0219D8 00 00 00 00 00 00 00 00 
0219E0 00 00 00 00 00 00 00 00 
0219E8 00 00 00 00 00 00 00 00 
0219F0 00 00 00 00 00 00 00 00 
0219F8 00 00 00 00 00 00 00 00 
021A00 00 00 00 00 00 00 00 00 
021A08 00 00 00 00 00 00 00 00 
021A10 00 00 00 00 00 00 00 00 
021A18 00 00 00 00 00 00 00 00 
021A20 00 00 00 00 00 00 00 00 
021A28 00 00 00 00 00 00 00 00 
021A30 00 00 00 00 00 00 00 00 
021A38 00 00 00 00 00 00 00 00 
021A40 00 00 00 00 00 00 00 00 
021A48 00 00 00 00 00 00 00 00 
021A50 00 00 00 00 00 00 00 00 
021A58 00 00 00 00 00 00 00 00 
021A60 00 00 00 00 00 00 00 00 
021A68 00 00 00 00 00 00 00 00 
021A70 00 00 00 00 00 00 00 00 
021A78 00 00 00 00 00 00 00 00 
021A80 00 00 00 00 00 00 00 00 
021A88 00 00 00 00 00 00 00 00 
021A90 00 00 00 00 00 00 00 00 
021A98 00 00 00 00 00 00 00 00 
021AA0 00 00 00 00 00 00 00 00 
021AA8 00 00 00 00 00 00 00 00 
021AB0 00 00 00 00 00 00 00 00 
021AB8 00 00 00 00 00 00 00 00 
021AC0 00 00 00 00 00 00 00 00 
021AC8 00 00 00 00 00 00 00 00 
021AD0 00 00 00 00 00 00 00 00 
021AD8 00 00 00 00 00 00 00 00 
021AE0 00 00 00 00 00 00 00 00 
021AE8 00 00 00 00 00 00 00 00 
021AF0 00 00 00 00 00 00 00 00 
021AF8 00 00 00 00 00 00 00 00 
021B00 00 00 00 00 00 00 00 00 
021B08 00 00 00 00 00 00 00 00 
021B10 00 00 00 00 00 00 00 00 
021B18 00 00 00 00 00 00 00 00 
021B20 00 00 00 00 00 00 00 00 
021B28 00 00 00 00 00 00 00 00 
021B30 00 00 00 00 00 00 00 00 
021B38 00 00 00 00 00 00 00 00 
021B40 00 00 00 00 00 00 00 00 
021B48 00 00 00 00 00 00 00 00 
021B50 00 00 00 00 00 00 00 00 
021B58 00 00 00 00 00 00 00 00 
021B60 00 00 00 00 00 00 00 00 
021B68 00 00 00 00 00 00 00 00 
021B70 00 00 00 00 00 00 00 00 
021B78 00 00 00 00 00 00 00 00 
021B80 00 00 00 00 00 00 00 00 
021B88 00 00 00 00 00 00 00 00 
021B90 00 00 00 00 00 00 00 00 
021B98 00 00 00 00 00 00 00 00 
021BA0 00 00 00 00 00 00 00 00 
021BA8 00 00 00 00 00 00 00 00 
021BB0 00 00 00 00 00 00 00 00 
021BB8 00 00 00 00 00 00 00 00 
021BC0 00 00 00 00 00 00 00 00 
021BC8 00 00 00 00 00 00 00 00 
021BD0 00 00 00 00 00 00 00 00 
021BD8 00 00 00 00 00 00 00 00 
021BE0 00 00 00 00 00 00 00 00 
021BE8 00 00 00 00 00 00 00 00 
021BF0 00 00 00 00 00 00 00 00 
021BF8 00 00 00 00 00 00 00 00 
021C00 00 00 00 00 00 00 00 00 
021C08 00 00 00 00 00 00 00 00 
021C10 00 00 00 00 00 00 00 00 
021C18 00 00 00 00 00 00 00 00 
021C20 00 00 00 00 00 00 00 00 
021C28 00 00 00 00 00 00 00 00 
021C30 00 00 00 00 00 00 00 00 
021C38 00 00 00 00 00 00 00 00 
021C40 00 00 00 00 00 00 00 00 
021C48 00 00 00 00 00 00 00 00 
021C50 00 00 00 00 00 00 00 00 
021C58 00 00 00 00 00 00 00 00 
021C60 00 00 00 00 00 00 00 00 
021C68 00 00 00 00 00 00 00 00 
021C70 00 00 00 00 00 00 00 00 
021C78 00 00 00 00 00 00 00 00 
021C80 00 00 00 00 00 00 00 00 
021C88 00 00 00 00 00 00 00 00 
021C90 00 00 00 00 00 00 00 00 
021C98 00 00 00 00 00 00 00 00 
021CA0 00 00 00 00 00 00 00 00 
021CA8 00 00 00 00 00 00 00 00 
021CB0 00 00 00 00 00 00 00 00 
021CB8 00 00 00 00 00 00 00 00 
021CC0 00 00 00 00 00 00 00 00 
021CC8 00 00 00 00 00 00 00 00 
021CD0 00 00 00 00 00 00 00 00 
021CD8 00 00 00 00 00 00 00 00 
021CE0 00 00 00 00 00 00 00 00 
021CE8 00 00 00 00 00 00 00 00 
021CF0 00 00 00 00 00 00 00 00 
021CF8 00 00 00 00 00 00 00 00 
021D00 00 00 00 00 00 00 00 00 
021D08 00 00 00 00 00 00 00 00 
021D10 00 00 00 00 00 00 00 00 
021D18 00 00 00 00 00 00 00 00 
021D20 00 00 00 00 00 00 00 00 
021D28 00 00 00 00 00 00 00 00 
021D30 00 00 00 00 00 00 00 00 
021D38 00 00 00 00 00 00 00 00 
021D40 00 00 00 00 00 00 00 00 
021D48 00 00 00 00 00 00 00 00 
021D50 00 00 00 00 00 00 00 00 
021D58 00 00 00 00 00 00 00 00 
021D60 00 00 00 00 00 00 00 00 
021D68 00 00 00 00 00 00 00 00 
021D70 00 00 00 00 00 00 00 00 
021D78 00 00 00 00 00 00 00 00 
021D80 00 00 00 00 00 00 00 00 
021D88 00 00 00 00 00 00 00 00 
021D90 00 00 00 00 00 00 00 00 
021D98 00 00 00 00 00 00 00 00 
021DA0 00 00 00 00 00 00 00 00 
021DA8 00 00 00 00 00 00 00 00 
021DB0 00 00 00 00 00 00 00 00 
021DB8 00 00 00 00 00 00 00 00 
021DC0 00 00 00 00 00 00 00 00 
021DC8 00 00 00 00 00 00 00 00 
021DD0 00 00 00 00 00 00 00 00 
021DD8 00 00 00 00 00 00 00 00 
021DE0 00 00 00 00 00 00 00 00 
021DE8 00 00 00 00 00 00 00 00 
021DF0 00 00 00 00 00 00 00 00 
021DF8 00 00 00 00 00 00 00 00 
021E00 00 00 00 00 00 00 00 00 
021E08 00 00 00 00 00 00 00 00 
021E10 00 00 00 00 00 00 00 00 
021E18 00 00 00 00 00 00 00 00 
021E20 00 00 00 00 00 00 00 00 
021E28 00 00 00 00 00 00 00 00 
021E30 00 00 00 00 00 00 00 00 
021E38 00 00 00 00 00 00 00 00 
021E40 00 00 00 00 00 00 00 00 
021E48 00 00 00 00 00 00 00 00 
021E50 00 00 00 00 00 00 00 00 
021E58 00 00 00 00 00 00 00 00 
021E60 00 00 00 00 00 00 00 00 
021E68 00 00 00 00 00 00 00 00 
021E70 00 00 00 00 00 00 00 00 
021E78 00 00 00 00 00 00 00 00 
021E80 00 00 00 00 00 00 00 00 
021E88 00 00 00 00 00 00 00 00 
021E90 00 00 00 00 00 00 00 00 
021E98 00 00 00 00 00 00 00 00 
021EA0 00 00 00 00 00 00 00 00 
021EA8 00 00 00 00 00 00 00 00 
021EB0 00 00 00 00 00 00 00 00 
021EB8 00 00 00 00 00 00 00 00 
021EC0 00 00 00 00 00 00 00 00 
021EC8 00 00 00 00 00 00 00 00 
021ED0 00 00 00 00 00 00 00 00 
021ED8 00 00 00 00 00 00 00 00 
021EE0 00 00 00 00 00 00 00 00 
021EE8 00 00 00 00 00 00 00 00 
021EF0 00 00 00 00 00 00 00 00 
021EF8 00 00 00 00 00 00 00 00 
021F00 00 00 00 00 00 00 00 00 
021F08 00 00 00 00 00 00 00 00 
021F10 00 00 00 00 00 00 00 00 
021F18 00 00 00 00 00 00 00 00 
021F20 00 00 00 00 00 00 00 00 
021F28 00 00 00 00 00 00 00 00 
021F30 00 00 00 00 00 00 00 00 
021F38 00 00 00 00 00 00 00 00 
021F40 00 00 00 00 00 00 00 00 
021F48 00 00 00 00 00 00 00 00 
021F50 00 00 00 00 00 00 00 00 
021F58 00 00 00 00 00 00 00 00 
021F60 00 00 00 00 00 00 00 00 
021F68 00 00 00 00 00 00 00 00 
021F70 00 00 00 00 00 00 00 00 
021F78 00 00 00 00 00 00 00 00 
021F80 00 00 00 00 00 00 00 00 
021F88 00 00 00 00 00 00 00 00 
021F90 00 00 00 00 00 00 00 00 
021F98 00 00 00 00 00 00 00 00 
021FA0 00 00 00 00 00 00 00 00 
021FA8 00 00 00 00 00 00 00 00 
021FB0 00 00 00 00 00 00 00 00 
021FB8 00 00 00 00 00 00 00 00 
021FC0 00 00 00 00 00 00 00 00 
021FC8 00 00 00 00 00 00 00 00 
021FD0 00 00 00 00 00 00 00 00 
021FD8 00 00 00 00 00 00 00 00 
021FE0 00 00 00 00 00 00 00 00 
021FE8 00 00 00 00 00 00 00 00 
021FF0 00 00 00 00 00 00 00 00 
021FF8 00 00 00 00 00 00 00 00 
022000 00 00 00 00 00 00 00 00 
022008 00 00 00 00 00 00 00 00 
022010 00 00 00 00 00 00 00 00 
022018 00 00 00 00 00 00 00 00 
022020 00 00 00 00 00 00 00 00 
022028 00 00 00 00 00 00 00 00 
022030 00 00 00 00 00 00 00 00 
022038 00 00 00 00 00 00 00 00 
022040 00 00 00 00 00 00 00 00 
022048 00 00 00 00 00 00 00 00 
022050 00 00 00 00 00 00 00 00 
022058 00 00 00 00 00 00 00 00 
022060 00 00 00 00 00 00 00 00 
022068 00 00 00 00 00 00 00 00 
022070 00 00 00 00 00 00 00 00 
022078 00 00 00 00 00 00 00 00 
022080 00 00 00 00 00 00 00 00 
022088 00 00 00 00 00 00 00 00 
022090 00 00 00 00 00 00 00 00 
022098 00 00 00 00 00 00 00 00 
0220A0 00 00 00 00 00 00 00 00 
0220A8 00 00 00 00 00 00 00 00 
0220B0 00 00 00 00 00 00 00 00 
0220B8 00 00 00 00 00 00 00 00 
0220C0 00 00 00 00 00 00 00 00 
0220C8 00 00 00 00 00 00 00 00 
0220D0 00 00 00 00 00 00 00 00 
0220D8 00 00 00 00 00 00 00 00 
0220E0 00 00 00 00 00 00 00 00 
0220E8 00 00 00 00 00 00 00 00 
0220F0 00 00 00 00 00 00 00 00 
0220F8 00 00 00 00 00 00 00 00 
022100 00 00 00 00 00 00 00 00 
022108 00 00 00 00 00 00 00 00 
022110 00 00 00 00 00 00 00 00 
022118 00 00 00 00 00 00 00 00 
022120 00 00 00 00 00 00 00 00 
022128 00 00 00 00 00 00 00 00 
022130 00 00 00 00 00 00 00 00 
022138 00 00 00 00 00 00 00 00 
022140 00 00 00 00 00 00 00 00 
022148 00 00 00 00 00 00 00 00 
022150 00 00 00 00 00 00 00 00 
022158 00 00 00 00 00 00 00 00 
022160 00 00 00 00 00 00 00 00 
022168 00 00 00 00 00 00 00 00 
022170 00 00 00 00 00 00 00 00 
022178 00 00 00 00 00 00 00 00 
022180 00 00 00 00 00 00 00 00 
                		align	8                	
                		align	8                	
                		data
                		align	8                	
                		data
                		align	8                	
                		data
                		align	8                	
022188 00                      		fill.b	1,0x00
022189 00 00 00 00 00 00 00    		align	
                	
022190 00 00 00 00 00 00 00 00 		fill.b	16,0x00
022198 00 00 00 00 00 00 00 00 
                		align	8                	
                		align	8                	
0221A0 00 00 00 00 00 00 00 00 		fill.b	1984,0x00
0221A8 00 00 00 00 00 00 00 00 
0221B0 00 00 00 00 00 00 00 00 
0221B8 00 00 00 00 00 00 00 00 
0221C0 00 00 00 00 00 00 00 00 
0221C8 00 00 00 00 00 00 00 00 
0221D0 00 00 00 00 00 00 00 00 
0221D8 00 00 00 00 00 00 00 00 
0221E0 00 00 00 00 00 00 00 00 
0221E8 00 00 00 00 00 00 00 00 
0221F0 00 00 00 00 00 00 00 00 
0221F8 00 00 00 00 00 00 00 00 
022200 00 00 00 00 00 00 00 00 
022208 00 00 00 00 00 00 00 00 
022210 00 00 00 00 00 00 00 00 
022218 00 00 00 00 00 00 00 00 
022220 00 00 00 00 00 00 00 00 
022228 00 00 00 00 00 00 00 00 
022230 00 00 00 00 00 00 00 00 
022238 00 00 00 00 00 00 00 00 
022240 00 00 00 00 00 00 00 00 
022248 00 00 00 00 00 00 00 00 
022250 00 00 00 00 00 00 00 00 
022258 00 00 00 00 00 00 00 00 
022260 00 00 00 00 00 00 00 00 
022268 00 00 00 00 00 00 00 00 
022270 00 00 00 00 00 00 00 00 
022278 00 00 00 00 00 00 00 00 
022280 00 00 00 00 00 00 00 00 
022288 00 00 00 00 00 00 00 00 
022290 00 00 00 00 00 00 00 00 
022298 00 00 00 00 00 00 00 00 
0222A0 00 00 00 00 00 00 00 00 
0222A8 00 00 00 00 00 00 00 00 
0222B0 00 00 00 00 00 00 00 00 
0222B8 00 00 00 00 00 00 00 00 
0222C0 00 00 00 00 00 00 00 00 
0222C8 00 00 00 00 00 00 00 00 
0222D0 00 00 00 00 00 00 00 00 
0222D8 00 00 00 00 00 00 00 00 
0222E0 00 00 00 00 00 00 00 00 
0222E8 00 00 00 00 00 00 00 00 
0222F0 00 00 00 00 00 00 00 00 
0222F8 00 00 00 00 00 00 00 00 
022300 00 00 00 00 00 00 00 00 
022308 00 00 00 00 00 00 00 00 
022310 00 00 00 00 00 00 00 00 
022318 00 00 00 00 00 00 00 00 
022320 00 00 00 00 00 00 00 00 
022328 00 00 00 00 00 00 00 00 
022330 00 00 00 00 00 00 00 00 
022338 00 00 00 00 00 00 00 00 
022340 00 00 00 00 00 00 00 00 
022348 00 00 00 00 00 00 00 00 
022350 00 00 00 00 00 00 00 00 
022358 00 00 00 00 00 00 00 00 
022360 00 00 00 00 00 00 00 00 
022368 00 00 00 00 00 00 00 00 
022370 00 00 00 00 00 00 00 00 
022378 00 00 00 00 00 00 00 00 
022380 00 00 00 00 00 00 00 00 
022388 00 00 00 00 00 00 00 00 
022390 00 00 00 00 00 00 00 00 
022398 00 00 00 00 00 00 00 00 
0223A0 00 00 00 00 00 00 00 00 
0223A8 00 00 00 00 00 00 00 00 
0223B0 00 00 00 00 00 00 00 00 
0223B8 00 00 00 00 00 00 00 00 
0223C0 00 00 00 00 00 00 00 00 
0223C8 00 00 00 00 00 00 00 00 
0223D0 00 00 00 00 00 00 00 00 
0223D8 00 00 00 00 00 00 00 00 
0223E0 00 00 00 00 00 00 00 00 
0223E8 00 00 00 00 00 00 00 00 
0223F0 00 00 00 00 00 00 00 00 
0223F8 00 00 00 00 00 00 00 00 
022400 00 00 00 00 00 00 00 00 
022408 00 00 00 00 00 00 00 00 
022410 00 00 00 00 00 00 00 00 
022418 00 00 00 00 00 00 00 00 
022420 00 00 00 00 00 00 00 00 
022428 00 00 00 00 00 00 00 00 
022430 00 00 00 00 00 00 00 00 
022438 00 00 00 00 00 00 00 00 
022440 00 00 00 00 00 00 00 00 
022448 00 00 00 00 00 00 00 00 
022450 00 00 00 00 00 00 00 00 
022458 00 00 00 00 00 00 00 00 
022460 00 00 00 00 00 00 00 00 
022468 00 00 00 00 00 00 00 00 
022470 00 00 00 00 00 00 00 00 
022478 00 00 00 00 00 00 00 00 
022480 00 00 00 00 00 00 00 00 
022488 00 00 00 00 00 00 00 00 
022490 00 00 00 00 00 00 00 00 
022498 00 00 00 00 00 00 00 00 
0224A0 00 00 00 00 00 00 00 00 
0224A8 00 00 00 00 00 00 00 00 
0224B0 00 00 00 00 00 00 00 00 
0224B8 00 00 00 00 00 00 00 00 
0224C0 00 00 00 00 00 00 00 00 
0224C8 00 00 00 00 00 00 00 00 
0224D0 00 00 00 00 00 00 00 00 
0224D8 00 00 00 00 00 00 00 00 
0224E0 00 00 00 00 00 00 00 00 
0224E8 00 00 00 00 00 00 00 00 
0224F0 00 00 00 00 00 00 00 00 
0224F8 00 00 00 00 00 00 00 00 
022500 00 00 00 00 00 00 00 00 
022508 00 00 00 00 00 00 00 00 
022510 00 00 00 00 00 00 00 00 
022518 00 00 00 00 00 00 00 00 
022520 00 00 00 00 00 00 00 00 
022528 00 00 00 00 00 00 00 00 
022530 00 00 00 00 00 00 00 00 
022538 00 00 00 00 00 00 00 00 
022540 00 00 00 00 00 00 00 00 
022548 00 00 00 00 00 00 00 00 
022550 00 00 00 00 00 00 00 00 
022558 00 00 00 00 00 00 00 00 
022560 00 00 00 00 00 00 00 00 
022568 00 00 00 00 00 00 00 00 
022570 00 00 00 00 00 00 00 00 
022578 00 00 00 00 00 00 00 00 
022580 00 00 00 00 00 00 00 00 
022588 00 00 00 00 00 00 00 00 
022590 00 00 00 00 00 00 00 00 
022598 00 00 00 00 00 00 00 00 
0225A0 00 00 00 00 00 00 00 00 
0225A8 00 00 00 00 00 00 00 00 
0225B0 00 00 00 00 00 00 00 00 
0225B8 00 00 00 00 00 00 00 00 
0225C0 00 00 00 00 00 00 00 00 
0225C8 00 00 00 00 00 00 00 00 
0225D0 00 00 00 00 00 00 00 00 
0225D8 00 00 00 00 00 00 00 00 
0225E0 00 00 00 00 00 00 00 00 
0225E8 00 00 00 00 00 00 00 00 
0225F0 00 00 00 00 00 00 00 00 
0225F8 00 00 00 00 00 00 00 00 
022600 00 00 00 00 00 00 00 00 
022608 00 00 00 00 00 00 00 00 
022610 00 00 00 00 00 00 00 00 
022618 00 00 00 00 00 00 00 00 
022620 00 00 00 00 00 00 00 00 
022628 00 00 00 00 00 00 00 00 
022630 00 00 00 00 00 00 00 00 
022638 00 00 00 00 00 00 00 00 
022640 00 00 00 00 00 00 00 00 
022648 00 00 00 00 00 00 00 00 
022650 00 00 00 00 00 00 00 00 
022658 00 00 00 00 00 00 00 00 
022660 00 00 00 00 00 00 00 00 
022668 00 00 00 00 00 00 00 00 
022670 00 00 00 00 00 00 00 00 
022678 00 00 00 00 00 00 00 00 
022680 00 00 00 00 00 00 00 00 
022688 00 00 00 00 00 00 00 00 
022690 00 00 00 00 00 00 00 00 
022698 00 00 00 00 00 00 00 00 
0226A0 00 00 00 00 00 00 00 00 
0226A8 00 00 00 00 00 00 00 00 
0226B0 00 00 00 00 00 00 00 00 
0226B8 00 00 00 00 00 00 00 00 
0226C0 00 00 00 00 00 00 00 00 
0226C8 00 00 00 00 00 00 00 00 
0226D0 00 00 00 00 00 00 00 00 
0226D8 00 00 00 00 00 00 00 00 
0226E0 00 00 00 00 00 00 00 00 
0226E8 00 00 00 00 00 00 00 00 
0226F0 00 00 00 00 00 00 00 00 
0226F8 00 00 00 00 00 00 00 00 
022700 00 00 00 00 00 00 00 00 
022708 00 00 00 00 00 00 00 00 
022710 00 00 00 00 00 00 00 00 
022718 00 00 00 00 00 00 00 00 
022720 00 00 00 00 00 00 00 00 
022728 00 00 00 00 00 00 00 00 
022730 00 00 00 00 00 00 00 00 
022738 00 00 00 00 00 00 00 00 
022740 00 00 00 00 00 00 00 00 
022748 00 00 00 00 00 00 00 00 
022750 00 00 00 00 00 00 00 00 
022758 00 00 00 00 00 00 00 00 
022760 00 00 00 00 00 00 00 00 
022768 00 00 00 00 00 00 00 00 
022770 00 00 00 00 00 00 00 00 
022778 00 00 00 00 00 00 00 00 
022780 00 00 00 00 00 00 00 00 
022788 00 00 00 00 00 00 00 00 
022790 00 00 00 00 00 00 00 00 
022798 00 00 00 00 00 00 00 00 
0227A0 00 00 00 00 00 00 00 00 
0227A8 00 00 00 00 00 00 00 00 
0227B0 00 00 00 00 00 00 00 00 
0227B8 00 00 00 00 00 00 00 00 
0227C0 00 00 00 00 00 00 00 00 
0227C8 00 00 00 00 00 00 00 00 
0227D0 00 00 00 00 00 00 00 00 
0227D8 00 00 00 00 00 00 00 00 
0227E0 00 00 00 00 00 00 00 00 
0227E8 00 00 00 00 00 00 00 00 
0227F0 00 00 00 00 00 00 00 00 
0227F8 00 00 00 00 00 00 00 00 
022800 00 00 00 00 00 00 00 00 
022808 00 00 00 00 00 00 00 00 
022810 00 00 00 00 00 00 00 00 
022818 00 00 00 00 00 00 00 00 
022820 00 00 00 00 00 00 00 00 
022828 00 00 00 00 00 00 00 00 
022830 00 00 00 00 00 00 00 00 
022838 00 00 00 00 00 00 00 00 
022840 00 00 00 00 00 00 00 00 
022848 00 00 00 00 00 00 00 00 
022850 00 00 00 00 00 00 00 00 
022858 00 00 00 00 00 00 00 00 
022860 00 00 00 00 00 00 00 00 
022868 00 00 00 00 00 00 00 00 
022870 00 00 00 00 00 00 00 00 
022878 00 00 00 00 00 00 00 00 
022880 00 00 00 00 00 00 00 00 
022888 00 00 00 00 00 00 00 00 
022890 00 00 00 00 00 00 00 00 
022898 00 00 00 00 00 00 00 00 
0228A0 00 00 00 00 00 00 00 00 
0228A8 00 00 00 00 00 00 00 00 
0228B0 00 00 00 00 00 00 00 00 
0228B8 00 00 00 00 00 00 00 00 
0228C0 00 00 00 00 00 00 00 00 
0228C8 00 00 00 00 00 00 00 00 
0228D0 00 00 00 00 00 00 00 00 
0228D8 00 00 00 00 00 00 00 00 
0228E0 00 00 00 00 00 00 00 00 
0228E8 00 00 00 00 00 00 00 00 
0228F0 00 00 00 00 00 00 00 00 
0228F8 00 00 00 00 00 00 00 00 
022900 00 00 00 00 00 00 00 00 
022908 00 00 00 00 00 00 00 00 
022910 00 00 00 00 00 00 00 00 
022918 00 00 00 00 00 00 00 00 
022920 00 00 00 00 00 00 00 00 
022928 00 00 00 00 00 00 00 00 
022930 00 00 00 00 00 00 00 00 
022938 00 00 00 00 00 00 00 00 
022940 00 00 00 00 00 00 00 00 
022948 00 00 00 00 00 00 00 00 
022950 00 00 00 00 00 00 00 00 
022958 00 00 00 00 00 00 00 00 
                		align	8                	
                		align	8                	
                		data
                		align	8                	
                		data
                		align	8                	
                		align	8                	
                		data
                		align	8                	
022960 00 00 00 00 00 00       		fill.b	6,0x00
                		data
022966 00 00                   		align	
                	
                		data
                		align	8                	
                		data
                		align	8                	
                		data
                		align	8                	
                		data
                		align	8                	
                		data
                		align	8                	
                		data
                		align	8                	
                		data
                		align	8                	
                		data
                		align	8                	
                		data
                		align	8                	
                		align	8                	
                	public data msgBadAddr:
022968 E0 F2 01 00 00 00 00 00 		dw	ramtest_0
                	endpublic
                	
                	
                		rodata
                		align 8                	
                	end_init_data:
                	    data
                	    org     $C10000
                		data
                		align	8                	
                		align	8                	
                	public data pSpriteController:
C10000 00 D0 DA FF FF FF FF FF 		dw	-2437120
                	endpublic
                	
                		data
                		align	8                	
C10008 00                      		fill.b	1,0x00
C10009 00 00 00 00 00 00 00    		align	
                	
C10010 00 00 00 00 00 00 00 00 		fill.b	16,0x00
C10018 00 00 00 00 00 00 00 00 
                		align	8                	
                		align	8                	
C10020 00 00 00 00 00 00 00 00 		fill.b	1984,0x00
C10028 00 00 00 00 00 00 00 00 
C10030 00 00 00 00 00 00 00 00 
C10038 00 00 00 00 00 00 00 00 
C10040 00 00 00 00 00 00 00 00 
C10048 00 00 00 00 00 00 00 00 
C10050 00 00 00 00 00 00 00 00 
C10058 00 00 00 00 00 00 00 00 
C10060 00 00 00 00 00 00 00 00 
C10068 00 00 00 00 00 00 00 00 
C10070 00 00 00 00 00 00 00 00 
C10078 00 00 00 00 00 00 00 00 
C10080 00 00 00 00 00 00 00 00 
C10088 00 00 00 00 00 00 00 00 
C10090 00 00 00 00 00 00 00 00 
C10098 00 00 00 00 00 00 00 00 
C100A0 00 00 00 00 00 00 00 00 
C100A8 00 00 00 00 00 00 00 00 
C100B0 00 00 00 00 00 00 00 00 
C100B8 00 00 00 00 00 00 00 00 
C100C0 00 00 00 00 00 00 00 00 
C100C8 00 00 00 00 00 00 00 00 
C100D0 00 00 00 00 00 00 00 00 
C100D8 00 00 00 00 00 00 00 00 
C100E0 00 00 00 00 00 00 00 00 
C100E8 00 00 00 00 00 00 00 00 
C100F0 00 00 00 00 00 00 00 00 
C100F8 00 00 00 00 00 00 00 00 
C10100 00 00 00 00 00 00 00 00 
C10108 00 00 00 00 00 00 00 00 
C10110 00 00 00 00 00 00 00 00 
C10118 00 00 00 00 00 00 00 00 
C10120 00 00 00 00 00 00 00 00 
C10128 00 00 00 00 00 00 00 00 
C10130 00 00 00 00 00 00 00 00 
C10138 00 00 00 00 00 00 00 00 
C10140 00 00 00 00 00 00 00 00 
C10148 00 00 00 00 00 00 00 00 
C10150 00 00 00 00 00 00 00 00 
C10158 00 00 00 00 00 00 00 00 
C10160 00 00 00 00 00 00 00 00 
C10168 00 00 00 00 00 00 00 00 
C10170 00 00 00 00 00 00 00 00 
C10178 00 00 00 00 00 00 00 00 
C10180 00 00 00 00 00 00 00 00 
C10188 00 00 00 00 00 00 00 00 
C10190 00 00 00 00 00 00 00 00 
C10198 00 00 00 00 00 00 00 00 
C101A0 00 00 00 00 00 00 00 00 
C101A8 00 00 00 00 00 00 00 00 
C101B0 00 00 00 00 00 00 00 00 
C101B8 00 00 00 00 00 00 00 00 
C101C0 00 00 00 00 00 00 00 00 
C101C8 00 00 00 00 00 00 00 00 
C101D0 00 00 00 00 00 00 00 00 
C101D8 00 00 00 00 00 00 00 00 
C101E0 00 00 00 00 00 00 00 00 
C101E8 00 00 00 00 00 00 00 00 
C101F0 00 00 00 00 00 00 00 00 
C101F8 00 00 00 00 00 00 00 00 
C10200 00 00 00 00 00 00 00 00 
C10208 00 00 00 00 00 00 00 00 
C10210 00 00 00 00 00 00 00 00 
C10218 00 00 00 00 00 00 00 00 
C10220 00 00 00 00 00 00 00 00 
C10228 00 00 00 00 00 00 00 00 
C10230 00 00 00 00 00 00 00 00 
C10238 00 00 00 00 00 00 00 00 
C10240 00 00 00 00 00 00 00 00 
C10248 00 00 00 00 00 00 00 00 
C10250 00 00 00 00 00 00 00 00 
C10258 00 00 00 00 00 00 00 00 
C10260 00 00 00 00 00 00 00 00 
C10268 00 00 00 00 00 00 00 00 
C10270 00 00 00 00 00 00 00 00 
C10278 00 00 00 00 00 00 00 00 
C10280 00 00 00 00 00 00 00 00 
C10288 00 00 00 00 00 00 00 00 
C10290 00 00 00 00 00 00 00 00 
C10298 00 00 00 00 00 00 00 00 
C102A0 00 00 00 00 00 00 00 00 
C102A8 00 00 00 00 00 00 00 00 
C102B0 00 00 00 00 00 00 00 00 
C102B8 00 00 00 00 00 00 00 00 
C102C0 00 00 00 00 00 00 00 00 
C102C8 00 00 00 00 00 00 00 00 
C102D0 00 00 00 00 00 00 00 00 
C102D8 00 00 00 00 00 00 00 00 
C102E0 00 00 00 00 00 00 00 00 
C102E8 00 00 00 00 00 00 00 00 
C102F0 00 00 00 00 00 00 00 00 
C102F8 00 00 00 00 00 00 00 00 
C10300 00 00 00 00 00 00 00 00 
C10308 00 00 00 00 00 00 00 00 
C10310 00 00 00 00 00 00 00 00 
C10318 00 00 00 00 00 00 00 00 
C10320 00 00 00 00 00 00 00 00 
C10328 00 00 00 00 00 00 00 00 
C10330 00 00 00 00 00 00 00 00 
C10338 00 00 00 00 00 00 00 00 
C10340 00 00 00 00 00 00 00 00 
C10348 00 00 00 00 00 00 00 00 
C10350 00 00 00 00 00 00 00 00 
C10358 00 00 00 00 00 00 00 00 
C10360 00 00 00 00 00 00 00 00 
C10368 00 00 00 00 00 00 00 00 
C10370 00 00 00 00 00 00 00 00 
C10378 00 00 00 00 00 00 00 00 
C10380 00 00 00 00 00 00 00 00 
C10388 00 00 00 00 00 00 00 00 
C10390 00 00 00 00 00 00 00 00 
C10398 00 00 00 00 00 00 00 00 
C103A0 00 00 00 00 00 00 00 00 
C103A8 00 00 00 00 00 00 00 00 
C103B0 00 00 00 00 00 00 00 00 
C103B8 00 00 00 00 00 00 00 00 
C103C0 00 00 00 00 00 00 00 00 
C103C8 00 00 00 00 00 00 00 00 
C103D0 00 00 00 00 00 00 00 00 
C103D8 00 00 00 00 00 00 00 00 
C103E0 00 00 00 00 00 00 00 00 
C103E8 00 00 00 00 00 00 00 00 
C103F0 00 00 00 00 00 00 00 00 
C103F8 00 00 00 00 00 00 00 00 
C10400 00 00 00 00 00 00 00 00 
C10408 00 00 00 00 00 00 00 00 
C10410 00 00 00 00 00 00 00 00 
C10418 00 00 00 00 00 00 00 00 
C10420 00 00 00 00 00 00 00 00 
C10428 00 00 00 00 00 00 00 00 
C10430 00 00 00 00 00 00 00 00 
C10438 00 00 00 00 00 00 00 00 
C10440 00 00 00 00 00 00 00 00 
C10448 00 00 00 00 00 00 00 00 
C10450 00 00 00 00 00 00 00 00 
C10458 00 00 00 00 00 00 00 00 
C10460 00 00 00 00 00 00 00 00 
C10468 00 00 00 00 00 00 00 00 
C10470 00 00 00 00 00 00 00 00 
C10478 00 00 00 00 00 00 00 00 
C10480 00 00 00 00 00 00 00 00 
C10488 00 00 00 00 00 00 00 00 
C10490 00 00 00 00 00 00 00 00 
C10498 00 00 00 00 00 00 00 00 
C104A0 00 00 00 00 00 00 00 00 
C104A8 00 00 00 00 00 00 00 00 
C104B0 00 00 00 00 00 00 00 00 
C104B8 00 00 00 00 00 00 00 00 
C104C0 00 00 00 00 00 00 00 00 
C104C8 00 00 00 00 00 00 00 00 
C104D0 00 00 00 00 00 00 00 00 
C104D8 00 00 00 00 00 00 00 00 
C104E0 00 00 00 00 00 00 00 00 
C104E8 00 00 00 00 00 00 00 00 
C104F0 00 00 00 00 00 00 00 00 
C104F8 00 00 00 00 00 00 00 00 
C10500 00 00 00 00 00 00 00 00 
C10508 00 00 00 00 00 00 00 00 
C10510 00 00 00 00 00 00 00 00 
C10518 00 00 00 00 00 00 00 00 
C10520 00 00 00 00 00 00 00 00 
C10528 00 00 00 00 00 00 00 00 
C10530 00 00 00 00 00 00 00 00 
C10538 00 00 00 00 00 00 00 00 
C10540 00 00 00 00 00 00 00 00 
C10548 00 00 00 00 00 00 00 00 
C10550 00 00 00 00 00 00 00 00 
C10558 00 00 00 00 00 00 00 00 
C10560 00 00 00 00 00 00 00 00 
C10568 00 00 00 00 00 00 00 00 
C10570 00 00 00 00 00 00 00 00 
C10578 00 00 00 00 00 00 00 00 
C10580 00 00 00 00 00 00 00 00 
C10588 00 00 00 00 00 00 00 00 
C10590 00 00 00 00 00 00 00 00 
C10598 00 00 00 00 00 00 00 00 
C105A0 00 00 00 00 00 00 00 00 
C105A8 00 00 00 00 00 00 00 00 
C105B0 00 00 00 00 00 00 00 00 
C105B8 00 00 00 00 00 00 00 00 
C105C0 00 00 00 00 00 00 00 00 
C105C8 00 00 00 00 00 00 00 00 
C105D0 00 00 00 00 00 00 00 00 
C105D8 00 00 00 00 00 00 00 00 
C105E0 00 00 00 00 00 00 00 00 
C105E8 00 00 00 00 00 00 00 00 
C105F0 00 00 00 00 00 00 00 00 
C105F8 00 00 00 00 00 00 00 00 
C10600 00 00 00 00 00 00 00 00 
C10608 00 00 00 00 00 00 00 00 
C10610 00 00 00 00 00 00 00 00 
C10618 00 00 00 00 00 00 00 00 
C10620 00 00 00 00 00 00 00 00 
C10628 00 00 00 00 00 00 00 00 
C10630 00 00 00 00 00 00 00 00 
C10638 00 00 00 00 00 00 00 00 
C10640 00 00 00 00 00 00 00 00 
C10648 00 00 00 00 00 00 00 00 
C10650 00 00 00 00 00 00 00 00 
C10658 00 00 00 00 00 00 00 00 
C10660 00 00 00 00 00 00 00 00 
C10668 00 00 00 00 00 00 00 00 
C10670 00 00 00 00 00 00 00 00 
C10678 00 00 00 00 00 00 00 00 
C10680 00 00 00 00 00 00 00 00 
C10688 00 00 00 00 00 00 00 00 
C10690 00 00 00 00 00 00 00 00 
C10698 00 00 00 00 00 00 00 00 
C106A0 00 00 00 00 00 00 00 00 
C106A8 00 00 00 00 00 00 00 00 
C106B0 00 00 00 00 00 00 00 00 
C106B8 00 00 00 00 00 00 00 00 
C106C0 00 00 00 00 00 00 00 00 
C106C8 00 00 00 00 00 00 00 00 
C106D0 00 00 00 00 00 00 00 00 
C106D8 00 00 00 00 00 00 00 00 
C106E0 00 00 00 00 00 00 00 00 
C106E8 00 00 00 00 00 00 00 00 
C106F0 00 00 00 00 00 00 00 00 
C106F8 00 00 00 00 00 00 00 00 
C10700 00 00 00 00 00 00 00 00 
C10708 00 00 00 00 00 00 00 00 
C10710 00 00 00 00 00 00 00 00 
C10718 00 00 00 00 00 00 00 00 
C10720 00 00 00 00 00 00 00 00 
C10728 00 00 00 00 00 00 00 00 
C10730 00 00 00 00 00 00 00 00 
C10738 00 00 00 00 00 00 00 00 
C10740 00 00 00 00 00 00 00 00 
C10748 00 00 00 00 00 00 00 00 
C10750 00 00 00 00 00 00 00 00 
C10758 00 00 00 00 00 00 00 00 
C10760 00 00 00 00 00 00 00 00 
C10768 00 00 00 00 00 00 00 00 
C10770 00 00 00 00 00 00 00 00 
C10778 00 00 00 00 00 00 00 00 
C10780 00 00 00 00 00 00 00 00 
C10788 00 00 00 00 00 00 00 00 
C10790 00 00 00 00 00 00 00 00 
C10798 00 00 00 00 00 00 00 00 
C107A0 00 00 00 00 00 00 00 00 
C107A8 00 00 00 00 00 00 00 00 
C107B0 00 00 00 00 00 00 00 00 
C107B8 00 00 00 00 00 00 00 00 
C107C0 00 00 00 00 00 00 00 00 
C107C8 00 00 00 00 00 00 00 00 
C107D0 00 00 00 00 00 00 00 00 
C107D8 00 00 00 00 00 00 00 00 
                		align	8                	
                		align	8                	
                		data
                		align	8                	
C107E0 00 00 00 00 00 00 00 00 		fill.b	880,0x00
C107E8 00 00 00 00 00 00 00 00 
C107F0 00 00 00 00 00 00 00 00 
C107F8 00 00 00 00 00 00 00 00 
C10800 00 00 00 00 00 00 00 00 
C10808 00 00 00 00 00 00 00 00 
C10810 00 00 00 00 00 00 00 00 
C10818 00 00 00 00 00 00 00 00 
C10820 00 00 00 00 00 00 00 00 
C10828 00 00 00 00 00 00 00 00 
C10830 00 00 00 00 00 00 00 00 
C10838 00 00 00 00 00 00 00 00 
C10840 00 00 00 00 00 00 00 00 
C10848 00 00 00 00 00 00 00 00 
C10850 00 00 00 00 00 00 00 00 
C10858 00 00 00 00 00 00 00 00 
C10860 00 00 00 00 00 00 00 00 
C10868 00 00 00 00 00 00 00 00 
C10870 00 00 00 00 00 00 00 00 
C10878 00 00 00 00 00 00 00 00 
C10880 00 00 00 00 00 00 00 00 
C10888 00 00 00 00 00 00 00 00 
C10890 00 00 00 00 00 00 00 00 
C10898 00 00 00 00 00 00 00 00 
C108A0 00 00 00 00 00 00 00 00 
C108A8 00 00 00 00 00 00 00 00 
C108B0 00 00 00 00 00 00 00 00 
C108B8 00 00 00 00 00 00 00 00 
C108C0 00 00 00 00 00 00 00 00 
C108C8 00 00 00 00 00 00 00 00 
C108D0 00 00 00 00 00 00 00 00 
C108D8 00 00 00 00 00 00 00 00 
C108E0 00 00 00 00 00 00 00 00 
C108E8 00 00 00 00 00 00 00 00 
C108F0 00 00 00 00 00 00 00 00 
C108F8 00 00 00 00 00 00 00 00 
C10900 00 00 00 00 00 00 00 00 
C10908 00 00 00 00 00 00 00 00 
C10910 00 00 00 00 00 00 00 00 
C10918 00 00 00 00 00 00 00 00 
C10920 00 00 00 00 00 00 00 00 
C10928 00 00 00 00 00 00 00 00 
C10930 00 00 00 00 00 00 00 00 
C10938 00 00 00 00 00 00 00 00 
C10940 00 00 00 00 00 00 00 00 
C10948 00 00 00 00 00 00 00 00 
C10950 00 00 00 00 00 00 00 00 
C10958 00 00 00 00 00 00 00 00 
C10960 00 00 00 00 00 00 00 00 
C10968 00 00 00 00 00 00 00 00 
C10970 00 00 00 00 00 00 00 00 
C10978 00 00 00 00 00 00 00 00 
C10980 00 00 00 00 00 00 00 00 
C10988 00 00 00 00 00 00 00 00 
C10990 00 00 00 00 00 00 00 00 
C10998 00 00 00 00 00 00 00 00 
C109A0 00 00 00 00 00 00 00 00 
C109A8 00 00 00 00 00 00 00 00 
C109B0 00 00 00 00 00 00 00 00 
C109B8 00 00 00 00 00 00 00 00 
C109C0 00 00 00 00 00 00 00 00 
C109C8 00 00 00 00 00 00 00 00 
C109D0 00 00 00 00 00 00 00 00 
C109D8 00 00 00 00 00 00 00 00 
C109E0 00 00 00 00 00 00 00 00 
C109E8 00 00 00 00 00 00 00 00 
C109F0 00 00 00 00 00 00 00 00 
C109F8 00 00 00 00 00 00 00 00 
C10A00 00 00 00 00 00 00 00 00 
C10A08 00 00 00 00 00 00 00 00 
C10A10 00 00 00 00 00 00 00 00 
C10A18 00 00 00 00 00 00 00 00 
C10A20 00 00 00 00 00 00 00 00 
C10A28 00 00 00 00 00 00 00 00 
C10A30 00 00 00 00 00 00 00 00 
C10A38 00 00 00 00 00 00 00 00 
C10A40 00 00 00 00 00 00 00 00 
C10A48 00 00 00 00 00 00 00 00 
C10A50 00 00 00 00 00 00 00 00 
C10A58 00 00 00 00 00 00 00 00 
C10A60 00 00 00 00 00 00 00 00 
C10A68 00 00 00 00 00 00 00 00 
C10A70 00 00 00 00 00 00 00 00 
C10A78 00 00 00 00 00 00 00 00 
C10A80 00 00 00 00 00 00 00 00 
C10A88 00 00 00 00 00 00 00 00 
C10A90 00 00 00 00 00 00 00 00 
C10A98 00 00 00 00 00 00 00 00 
C10AA0 00 00 00 00 00 00 00 00 
C10AA8 00 00 00 00 00 00 00 00 
C10AB0 00 00 00 00 00 00 00 00 
C10AB8 00 00 00 00 00 00 00 00 
C10AC0 00 00 00 00 00 00 00 00 
C10AC8 00 00 00 00 00 00 00 00 
C10AD0 00 00 00 00 00 00 00 00 
C10AD8 00 00 00 00 00 00 00 00 
C10AE0 00 00 00 00 00 00 00 00 
C10AE8 00 00 00 00 00 00 00 00 
C10AF0 00 00 00 00 00 00 00 00 
C10AF8 00 00 00 00 00 00 00 00 
C10B00 00 00 00 00 00 00 00 00 
C10B08 00 00 00 00 00 00 00 00 
C10B10 00 00 00 00 00 00 00 00 
C10B18 00 00 00 00 00 00 00 00 
C10B20 00 00 00 00 00 00 00 00 
C10B28 00 00 00 00 00 00 00 00 
C10B30 00 00 00 00 00 00 00 00 
C10B38 00 00 00 00 00 00 00 00 
C10B40 00 00 00 00 00 00 00 00 
C10B48 00 00 00 00 00 00 00 00 
                		data
                		align	8                	
C10B50 00 00 00 00             		fill.b	4,0x00
                		data
C10B54 00 00 00 00             		align	
                	
C10B58 00 00 00 00 00 00       		fill.b	6,0x00
                		data
C10B5E 00 00                   		align	
                	
                	FMTKc_8:	; startQ_
C10B60 00 00 00 01 00 00 00 02 		db	0,0,0,1,0,0,0,2,0,0,0,3
C10B68 00 00 00 03             
C10B6C 00 01 00 04 00 00 00 05 		db	0,1,0,4,0,0,0,5,0,0,0,6
C10B74 00 00 00 06             
C10B78 00 01 00 07 00 00 00 00 		db	0,1,0,7,0,0,0,0
                		align	8                	
                	FMTKc_9:	; startQNdx_
C10B80 00                      		fill.b	1,0x00
C10B81 00 00 00 00 00 00 00    		align	
                	
C10B88 00                      		fill.b	1,0x00
                		data
C10B89 00 00 00 00 00 00 00    		align	
                	
                		data
                		align	8                	
                		data
                		align	8                	
C10B90 00 00 00 00 00 00       		fill.b	6,0x00
                		data
C10B96 00 00                   		align	
                	
C10B98 00                      		fill.b	1,0x00
C10B99 00 00 00 00 00 00 00    		align	
                	
C10BA0 00 00 00 00 00 00 00 00 		fill.b	16,0x00
C10BA8 00 00 00 00 00 00 00 00 
                		align	8                	
                		align	8                	
C10BB0 00 00 00 00 00 00 00 00 		fill.b	1984,0x00
C10BB8 00 00 00 00 00 00 00 00 
C10BC0 00 00 00 00 00 00 00 00 
C10BC8 00 00 00 00 00 00 00 00 
C10BD0 00 00 00 00 00 00 00 00 
C10BD8 00 00 00 00 00 00 00 00 
C10BE0 00 00 00 00 00 00 00 00 
C10BE8 00 00 00 00 00 00 00 00 
C10BF0 00 00 00 00 00 00 00 00 
C10BF8 00 00 00 00 00 00 00 00 
C10C00 00 00 00 00 00 00 00 00 
C10C08 00 00 00 00 00 00 00 00 
C10C10 00 00 00 00 00 00 00 00 
C10C18 00 00 00 00 00 00 00 00 
C10C20 00 00 00 00 00 00 00 00 
C10C28 00 00 00 00 00 00 00 00 
C10C30 00 00 00 00 00 00 00 00 
C10C38 00 00 00 00 00 00 00 00 
C10C40 00 00 00 00 00 00 00 00 
C10C48 00 00 00 00 00 00 00 00 
C10C50 00 00 00 00 00 00 00 00 
C10C58 00 00 00 00 00 00 00 00 
C10C60 00 00 00 00 00 00 00 00 
C10C68 00 00 00 00 00 00 00 00 
C10C70 00 00 00 00 00 00 00 00 
C10C78 00 00 00 00 00 00 00 00 
C10C80 00 00 00 00 00 00 00 00 
C10C88 00 00 00 00 00 00 00 00 
C10C90 00 00 00 00 00 00 00 00 
C10C98 00 00 00 00 00 00 00 00 
C10CA0 00 00 00 00 00 00 00 00 
C10CA8 00 00 00 00 00 00 00 00 
C10CB0 00 00 00 00 00 00 00 00 
C10CB8 00 00 00 00 00 00 00 00 
C10CC0 00 00 00 00 00 00 00 00 
C10CC8 00 00 00 00 00 00 00 00 
C10CD0 00 00 00 00 00 00 00 00 
C10CD8 00 00 00 00 00 00 00 00 
C10CE0 00 00 00 00 00 00 00 00 
C10CE8 00 00 00 00 00 00 00 00 
C10CF0 00 00 00 00 00 00 00 00 
C10CF8 00 00 00 00 00 00 00 00 
C10D00 00 00 00 00 00 00 00 00 
C10D08 00 00 00 00 00 00 00 00 
C10D10 00 00 00 00 00 00 00 00 
C10D18 00 00 00 00 00 00 00 00 
C10D20 00 00 00 00 00 00 00 00 
C10D28 00 00 00 00 00 00 00 00 
C10D30 00 00 00 00 00 00 00 00 
C10D38 00 00 00 00 00 00 00 00 
C10D40 00 00 00 00 00 00 00 00 
C10D48 00 00 00 00 00 00 00 00 
C10D50 00 00 00 00 00 00 00 00 
C10D58 00 00 00 00 00 00 00 00 
C10D60 00 00 00 00 00 00 00 00 
C10D68 00 00 00 00 00 00 00 00 
C10D70 00 00 00 00 00 00 00 00 
C10D78 00 00 00 00 00 00 00 00 
C10D80 00 00 00 00 00 00 00 00 
C10D88 00 00 00 00 00 00 00 00 
C10D90 00 00 00 00 00 00 00 00 
C10D98 00 00 00 00 00 00 00 00 
C10DA0 00 00 00 00 00 00 00 00 
C10DA8 00 00 00 00 00 00 00 00 
C10DB0 00 00 00 00 00 00 00 00 
C10DB8 00 00 00 00 00 00 00 00 
C10DC0 00 00 00 00 00 00 00 00 
C10DC8 00 00 00 00 00 00 00 00 
C10DD0 00 00 00 00 00 00 00 00 
C10DD8 00 00 00 00 00 00 00 00 
C10DE0 00 00 00 00 00 00 00 00 
C10DE8 00 00 00 00 00 00 00 00 
C10DF0 00 00 00 00 00 00 00 00 
C10DF8 00 00 00 00 00 00 00 00 
C10E00 00 00 00 00 00 00 00 00 
C10E08 00 00 00 00 00 00 00 00 
C10E10 00 00 00 00 00 00 00 00 
C10E18 00 00 00 00 00 00 00 00 
C10E20 00 00 00 00 00 00 00 00 
C10E28 00 00 00 00 00 00 00 00 
C10E30 00 00 00 00 00 00 00 00 
C10E38 00 00 00 00 00 00 00 00 
C10E40 00 00 00 00 00 00 00 00 
C10E48 00 00 00 00 00 00 00 00 
C10E50 00 00 00 00 00 00 00 00 
C10E58 00 00 00 00 00 00 00 00 
C10E60 00 00 00 00 00 00 00 00 
C10E68 00 00 00 00 00 00 00 00 
C10E70 00 00 00 00 00 00 00 00 
C10E78 00 00 00 00 00 00 00 00 
C10E80 00 00 00 00 00 00 00 00 
C10E88 00 00 00 00 00 00 00 00 
C10E90 00 00 00 00 00 00 00 00 
C10E98 00 00 00 00 00 00 00 00 
C10EA0 00 00 00 00 00 00 00 00 
C10EA8 00 00 00 00 00 00 00 00 
C10EB0 00 00 00 00 00 00 00 00 
C10EB8 00 00 00 00 00 00 00 00 
C10EC0 00 00 00 00 00 00 00 00 
C10EC8 00 00 00 00 00 00 00 00 
C10ED0 00 00 00 00 00 00 00 00 
C10ED8 00 00 00 00 00 00 00 00 
C10EE0 00 00 00 00 00 00 00 00 
C10EE8 00 00 00 00 00 00 00 00 
C10EF0 00 00 00 00 00 00 00 00 
C10EF8 00 00 00 00 00 00 00 00 
C10F00 00 00 00 00 00 00 00 00 
C10F08 00 00 00 00 00 00 00 00 
C10F10 00 00 00 00 00 00 00 00 
C10F18 00 00 00 00 00 00 00 00 
C10F20 00 00 00 00 00 00 00 00 
C10F28 00 00 00 00 00 00 00 00 
C10F30 00 00 00 00 00 00 00 00 
C10F38 00 00 00 00 00 00 00 00 
C10F40 00 00 00 00 00 00 00 00 
C10F48 00 00 00 00 00 00 00 00 
C10F50 00 00 00 00 00 00 00 00 
C10F58 00 00 00 00 00 00 00 00 
C10F60 00 00 00 00 00 00 00 00 
C10F68 00 00 00 00 00 00 00 00 
C10F70 00 00 00 00 00 00 00 00 
C10F78 00 00 00 00 00 00 00 00 
C10F80 00 00 00 00 00 00 00 00 
C10F88 00 00 00 00 00 00 00 00 
C10F90 00 00 00 00 00 00 00 00 
C10F98 00 00 00 00 00 00 00 00 
C10FA0 00 00 00 00 00 00 00 00 
C10FA8 00 00 00 00 00 00 00 00 
C10FB0 00 00 00 00 00 00 00 00 
C10FB8 00 00 00 00 00 00 00 00 
C10FC0 00 00 00 00 00 00 00 00 
C10FC8 00 00 00 00 00 00 00 00 
C10FD0 00 00 00 00 00 00 00 00 
C10FD8 00 00 00 00 00 00 00 00 
C10FE0 00 00 00 00 00 00 00 00 
C10FE8 00 00 00 00 00 00 00 00 
C10FF0 00 00 00 00 00 00 00 00 
C10FF8 00 00 00 00 00 00 00 00 
C11000 00 00 00 00 00 00 00 00 
C11008 00 00 00 00 00 00 00 00 
C11010 00 00 00 00 00 00 00 00 
C11018 00 00 00 00 00 00 00 00 
C11020 00 00 00 00 00 00 00 00 
C11028 00 00 00 00 00 00 00 00 
C11030 00 00 00 00 00 00 00 00 
C11038 00 00 00 00 00 00 00 00 
C11040 00 00 00 00 00 00 00 00 
C11048 00 00 00 00 00 00 00 00 
C11050 00 00 00 00 00 00 00 00 
C11058 00 00 00 00 00 00 00 00 
C11060 00 00 00 00 00 00 00 00 
C11068 00 00 00 00 00 00 00 00 
C11070 00 00 00 00 00 00 00 00 
C11078 00 00 00 00 00 00 00 00 
C11080 00 00 00 00 00 00 00 00 
C11088 00 00 00 00 00 00 00 00 
C11090 00 00 00 00 00 00 00 00 
C11098 00 00 00 00 00 00 00 00 
C110A0 00 00 00 00 00 00 00 00 
C110A8 00 00 00 00 00 00 00 00 
C110B0 00 00 00 00 00 00 00 00 
C110B8 00 00 00 00 00 00 00 00 
C110C0 00 00 00 00 00 00 00 00 
C110C8 00 00 00 00 00 00 00 00 
C110D0 00 00 00 00 00 00 00 00 
C110D8 00 00 00 00 00 00 00 00 
C110E0 00 00 00 00 00 00 00 00 
C110E8 00 00 00 00 00 00 00 00 
C110F0 00 00 00 00 00 00 00 00 
C110F8 00 00 00 00 00 00 00 00 
C11100 00 00 00 00 00 00 00 00 
C11108 00 00 00 00 00 00 00 00 
C11110 00 00 00 00 00 00 00 00 
C11118 00 00 00 00 00 00 00 00 
C11120 00 00 00 00 00 00 00 00 
C11128 00 00 00 00 00 00 00 00 
C11130 00 00 00 00 00 00 00 00 
C11138 00 00 00 00 00 00 00 00 
C11140 00 00 00 00 00 00 00 00 
C11148 00 00 00 00 00 00 00 00 
C11150 00 00 00 00 00 00 00 00 
C11158 00 00 00 00 00 00 00 00 
C11160 00 00 00 00 00 00 00 00 
C11168 00 00 00 00 00 00 00 00 
C11170 00 00 00 00 00 00 00 00 
C11178 00 00 00 00 00 00 00 00 
C11180 00 00 00 00 00 00 00 00 
C11188 00 00 00 00 00 00 00 00 
C11190 00 00 00 00 00 00 00 00 
C11198 00 00 00 00 00 00 00 00 
C111A0 00 00 00 00 00 00 00 00 
C111A8 00 00 00 00 00 00 00 00 
C111B0 00 00 00 00 00 00 00 00 
C111B8 00 00 00 00 00 00 00 00 
C111C0 00 00 00 00 00 00 00 00 
C111C8 00 00 00 00 00 00 00 00 
C111D0 00 00 00 00 00 00 00 00 
C111D8 00 00 00 00 00 00 00 00 
C111E0 00 00 00 00 00 00 00 00 
C111E8 00 00 00 00 00 00 00 00 
C111F0 00 00 00 00 00 00 00 00 
C111F8 00 00 00 00 00 00 00 00 
C11200 00 00 00 00 00 00 00 00 
C11208 00 00 00 00 00 00 00 00 
C11210 00 00 00 00 00 00 00 00 
C11218 00 00 00 00 00 00 00 00 
C11220 00 00 00 00 00 00 00 00 
C11228 00 00 00 00 00 00 00 00 
C11230 00 00 00 00 00 00 00 00 
C11238 00 00 00 00 00 00 00 00 
C11240 00 00 00 00 00 00 00 00 
C11248 00 00 00 00 00 00 00 00 
C11250 00 00 00 00 00 00 00 00 
C11258 00 00 00 00 00 00 00 00 
C11260 00 00 00 00 00 00 00 00 
C11268 00 00 00 00 00 00 00 00 
C11270 00 00 00 00 00 00 00 00 
C11278 00 00 00 00 00 00 00 00 
C11280 00 00 00 00 00 00 00 00 
C11288 00 00 00 00 00 00 00 00 
C11290 00 00 00 00 00 00 00 00 
C11298 00 00 00 00 00 00 00 00 
C112A0 00 00 00 00 00 00 00 00 
C112A8 00 00 00 00 00 00 00 00 
C112B0 00 00 00 00 00 00 00 00 
C112B8 00 00 00 00 00 00 00 00 
C112C0 00 00 00 00 00 00 00 00 
C112C8 00 00 00 00 00 00 00 00 
C112D0 00 00 00 00 00 00 00 00 
C112D8 00 00 00 00 00 00 00 00 
C112E0 00 00 00 00 00 00 00 00 
C112E8 00 00 00 00 00 00 00 00 
C112F0 00 00 00 00 00 00 00 00 
C112F8 00 00 00 00 00 00 00 00 
C11300 00 00 00 00 00 00 00 00 
C11308 00 00 00 00 00 00 00 00 
C11310 00 00 00 00 00 00 00 00 
C11318 00 00 00 00 00 00 00 00 
C11320 00 00 00 00 00 00 00 00 
C11328 00 00 00 00 00 00 00 00 
C11330 00 00 00 00 00 00 00 00 
C11338 00 00 00 00 00 00 00 00 
C11340 00 00 00 00 00 00 00 00 
C11348 00 00 00 00 00 00 00 00 
C11350 00 00 00 00 00 00 00 00 
C11358 00 00 00 00 00 00 00 00 
C11360 00 00 00 00 00 00 00 00 
C11368 00 00 00 00 00 00 00 00 
                		align	8                	
                		align	8                	
                		data
                		align	8                	
                		data
                		align	8                	
C11370 00                      		fill.b	1,0x00
C11371 00 00 00 00 00 00 00    		align	
                	
C11378 00 00 00 00 00 00 00 00 		fill.b	16,0x00
C11380 00 00 00 00 00 00 00 00 
                		align	8                	
                		align	8                	
C11388 00 00 00 00 00 00 00 00 		fill.b	1984,0x00
C11390 00 00 00 00 00 00 00 00 
C11398 00 00 00 00 00 00 00 00 
C113A0 00 00 00 00 00 00 00 00 
C113A8 00 00 00 00 00 00 00 00 
C113B0 00 00 00 00 00 00 00 00 
C113B8 00 00 00 00 00 00 00 00 
C113C0 00 00 00 00 00 00 00 00 
C113C8 00 00 00 00 00 00 00 00 
C113D0 00 00 00 00 00 00 00 00 
C113D8 00 00 00 00 00 00 00 00 
C113E0 00 00 00 00 00 00 00 00 
C113E8 00 00 00 00 00 00 00 00 
C113F0 00 00 00 00 00 00 00 00 
C113F8 00 00 00 00 00 00 00 00 
C11400 00 00 00 00 00 00 00 00 
C11408 00 00 00 00 00 00 00 00 
C11410 00 00 00 00 00 00 00 00 
C11418 00 00 00 00 00 00 00 00 
C11420 00 00 00 00 00 00 00 00 
C11428 00 00 00 00 00 00 00 00 
C11430 00 00 00 00 00 00 00 00 
C11438 00 00 00 00 00 00 00 00 
C11440 00 00 00 00 00 00 00 00 
C11448 00 00 00 00 00 00 00 00 
C11450 00 00 00 00 00 00 00 00 
C11458 00 00 00 00 00 00 00 00 
C11460 00 00 00 00 00 00 00 00 
C11468 00 00 00 00 00 00 00 00 
C11470 00 00 00 00 00 00 00 00 
C11478 00 00 00 00 00 00 00 00 
C11480 00 00 00 00 00 00 00 00 
C11488 00 00 00 00 00 00 00 00 
C11490 00 00 00 00 00 00 00 00 
C11498 00 00 00 00 00 00 00 00 
C114A0 00 00 00 00 00 00 00 00 
C114A8 00 00 00 00 00 00 00 00 
C114B0 00 00 00 00 00 00 00 00 
C114B8 00 00 00 00 00 00 00 00 
C114C0 00 00 00 00 00 00 00 00 
C114C8 00 00 00 00 00 00 00 00 
C114D0 00 00 00 00 00 00 00 00 
C114D8 00 00 00 00 00 00 00 00 
C114E0 00 00 00 00 00 00 00 00 
C114E8 00 00 00 00 00 00 00 00 
C114F0 00 00 00 00 00 00 00 00 
C114F8 00 00 00 00 00 00 00 00 
C11500 00 00 00 00 00 00 00 00 
C11508 00 00 00 00 00 00 00 00 
C11510 00 00 00 00 00 00 00 00 
C11518 00 00 00 00 00 00 00 00 
C11520 00 00 00 00 00 00 00 00 
C11528 00 00 00 00 00 00 00 00 
C11530 00 00 00 00 00 00 00 00 
C11538 00 00 00 00 00 00 00 00 
C11540 00 00 00 00 00 00 00 00 
C11548 00 00 00 00 00 00 00 00 
C11550 00 00 00 00 00 00 00 00 
C11558 00 00 00 00 00 00 00 00 
C11560 00 00 00 00 00 00 00 00 
C11568 00 00 00 00 00 00 00 00 
C11570 00 00 00 00 00 00 00 00 
C11578 00 00 00 00 00 00 00 00 
C11580 00 00 00 00 00 00 00 00 
C11588 00 00 00 00 00 00 00 00 
C11590 00 00 00 00 00 00 00 00 
C11598 00 00 00 00 00 00 00 00 
C115A0 00 00 00 00 00 00 00 00 
C115A8 00 00 00 00 00 00 00 00 
C115B0 00 00 00 00 00 00 00 00 
C115B8 00 00 00 00 00 00 00 00 
C115C0 00 00 00 00 00 00 00 00 
C115C8 00 00 00 00 00 00 00 00 
C115D0 00 00 00 00 00 00 00 00 
C115D8 00 00 00 00 00 00 00 00 
C115E0 00 00 00 00 00 00 00 00 
C115E8 00 00 00 00 00 00 00 00 
C115F0 00 00 00 00 00 00 00 00 
C115F8 00 00 00 00 00 00 00 00 
C11600 00 00 00 00 00 00 00 00 
C11608 00 00 00 00 00 00 00 00 
C11610 00 00 00 00 00 00 00 00 
C11618 00 00 00 00 00 00 00 00 
C11620 00 00 00 00 00 00 00 00 
C11628 00 00 00 00 00 00 00 00 
C11630 00 00 00 00 00 00 00 00 
C11638 00 00 00 00 00 00 00 00 
C11640 00 00 00 00 00 00 00 00 
C11648 00 00 00 00 00 00 00 00 
C11650 00 00 00 00 00 00 00 00 
C11658 00 00 00 00 00 00 00 00 
C11660 00 00 00 00 00 00 00 00 
C11668 00 00 00 00 00 00 00 00 
C11670 00 00 00 00 00 00 00 00 
C11678 00 00 00 00 00 00 00 00 
C11680 00 00 00 00 00 00 00 00 
C11688 00 00 00 00 00 00 00 00 
C11690 00 00 00 00 00 00 00 00 
C11698 00 00 00 00 00 00 00 00 
C116A0 00 00 00 00 00 00 00 00 
C116A8 00 00 00 00 00 00 00 00 
C116B0 00 00 00 00 00 00 00 00 
C116B8 00 00 00 00 00 00 00 00 
C116C0 00 00 00 00 00 00 00 00 
C116C8 00 00 00 00 00 00 00 00 
C116D0 00 00 00 00 00 00 00 00 
C116D8 00 00 00 00 00 00 00 00 
C116E0 00 00 00 00 00 00 00 00 
C116E8 00 00 00 00 00 00 00 00 
C116F0 00 00 00 00 00 00 00 00 
C116F8 00 00 00 00 00 00 00 00 
C11700 00 00 00 00 00 00 00 00 
C11708 00 00 00 00 00 00 00 00 
C11710 00 00 00 00 00 00 00 00 
C11718 00 00 00 00 00 00 00 00 
C11720 00 00 00 00 00 00 00 00 
C11728 00 00 00 00 00 00 00 00 
C11730 00 00 00 00 00 00 00 00 
C11738 00 00 00 00 00 00 00 00 
C11740 00 00 00 00 00 00 00 00 
C11748 00 00 00 00 00 00 00 00 
C11750 00 00 00 00 00 00 00 00 
C11758 00 00 00 00 00 00 00 00 
C11760 00 00 00 00 00 00 00 00 
C11768 00 00 00 00 00 00 00 00 
C11770 00 00 00 00 00 00 00 00 
C11778 00 00 00 00 00 00 00 00 
C11780 00 00 00 00 00 00 00 00 
C11788 00 00 00 00 00 00 00 00 
C11790 00 00 00 00 00 00 00 00 
C11798 00 00 00 00 00 00 00 00 
C117A0 00 00 00 00 00 00 00 00 
C117A8 00 00 00 00 00 00 00 00 
C117B0 00 00 00 00 00 00 00 00 
C117B8 00 00 00 00 00 00 00 00 
C117C0 00 00 00 00 00 00 00 00 
C117C8 00 00 00 00 00 00 00 00 
C117D0 00 00 00 00 00 00 00 00 
C117D8 00 00 00 00 00 00 00 00 
C117E0 00 00 00 00 00 00 00 00 
C117E8 00 00 00 00 00 00 00 00 
C117F0 00 00 00 00 00 00 00 00 
C117F8 00 00 00 00 00 00 00 00 
C11800 00 00 00 00 00 00 00 00 
C11808 00 00 00 00 00 00 00 00 
C11810 00 00 00 00 00 00 00 00 
C11818 00 00 00 00 00 00 00 00 
C11820 00 00 00 00 00 00 00 00 
C11828 00 00 00 00 00 00 00 00 
C11830 00 00 00 00 00 00 00 00 
C11838 00 00 00 00 00 00 00 00 
C11840 00 00 00 00 00 00 00 00 
C11848 00 00 00 00 00 00 00 00 
C11850 00 00 00 00 00 00 00 00 
C11858 00 00 00 00 00 00 00 00 
C11860 00 00 00 00 00 00 00 00 
C11868 00 00 00 00 00 00 00 00 
C11870 00 00 00 00 00 00 00 00 
C11878 00 00 00 00 00 00 00 00 
C11880 00 00 00 00 00 00 00 00 
C11888 00 00 00 00 00 00 00 00 
C11890 00 00 00 00 00 00 00 00 
C11898 00 00 00 00 00 00 00 00 
C118A0 00 00 00 00 00 00 00 00 
C118A8 00 00 00 00 00 00 00 00 
C118B0 00 00 00 00 00 00 00 00 
C118B8 00 00 00 00 00 00 00 00 
C118C0 00 00 00 00 00 00 00 00 
C118C8 00 00 00 00 00 00 00 00 
C118D0 00 00 00 00 00 00 00 00 
C118D8 00 00 00 00 00 00 00 00 
C118E0 00 00 00 00 00 00 00 00 
C118E8 00 00 00 00 00 00 00 00 
C118F0 00 00 00 00 00 00 00 00 
C118F8 00 00 00 00 00 00 00 00 
C11900 00 00 00 00 00 00 00 00 
C11908 00 00 00 00 00 00 00 00 
C11910 00 00 00 00 00 00 00 00 
C11918 00 00 00 00 00 00 00 00 
C11920 00 00 00 00 00 00 00 00 
C11928 00 00 00 00 00 00 00 00 
C11930 00 00 00 00 00 00 00 00 
C11938 00 00 00 00 00 00 00 00 
C11940 00 00 00 00 00 00 00 00 
C11948 00 00 00 00 00 00 00 00 
C11950 00 00 00 00 00 00 00 00 
C11958 00 00 00 00 00 00 00 00 
C11960 00 00 00 00 00 00 00 00 
C11968 00 00 00 00 00 00 00 00 
C11970 00 00 00 00 00 00 00 00 
C11978 00 00 00 00 00 00 00 00 
C11980 00 00 00 00 00 00 00 00 
C11988 00 00 00 00 00 00 00 00 
C11990 00 00 00 00 00 00 00 00 
C11998 00 00 00 00 00 00 00 00 
C119A0 00 00 00 00 00 00 00 00 
C119A8 00 00 00 00 00 00 00 00 
C119B0 00 00 00 00 00 00 00 00 
C119B8 00 00 00 00 00 00 00 00 
C119C0 00 00 00 00 00 00 00 00 
C119C8 00 00 00 00 00 00 00 00 
C119D0 00 00 00 00 00 00 00 00 
C119D8 00 00 00 00 00 00 00 00 
C119E0 00 00 00 00 00 00 00 00 
C119E8 00 00 00 00 00 00 00 00 
C119F0 00 00 00 00 00 00 00 00 
C119F8 00 00 00 00 00 00 00 00 
C11A00 00 00 00 00 00 00 00 00 
C11A08 00 00 00 00 00 00 00 00 
C11A10 00 00 00 00 00 00 00 00 
C11A18 00 00 00 00 00 00 00 00 
C11A20 00 00 00 00 00 00 00 00 
C11A28 00 00 00 00 00 00 00 00 
C11A30 00 00 00 00 00 00 00 00 
C11A38 00 00 00 00 00 00 00 00 
C11A40 00 00 00 00 00 00 00 00 
C11A48 00 00 00 00 00 00 00 00 
C11A50 00 00 00 00 00 00 00 00 
C11A58 00 00 00 00 00 00 00 00 
C11A60 00 00 00 00 00 00 00 00 
C11A68 00 00 00 00 00 00 00 00 
C11A70 00 00 00 00 00 00 00 00 
C11A78 00 00 00 00 00 00 00 00 
C11A80 00 00 00 00 00 00 00 00 
C11A88 00 00 00 00 00 00 00 00 
C11A90 00 00 00 00 00 00 00 00 
C11A98 00 00 00 00 00 00 00 00 
C11AA0 00 00 00 00 00 00 00 00 
C11AA8 00 00 00 00 00 00 00 00 
C11AB0 00 00 00 00 00 00 00 00 
C11AB8 00 00 00 00 00 00 00 00 
C11AC0 00 00 00 00 00 00 00 00 
C11AC8 00 00 00 00 00 00 00 00 
C11AD0 00 00 00 00 00 00 00 00 
C11AD8 00 00 00 00 00 00 00 00 
C11AE0 00 00 00 00 00 00 00 00 
C11AE8 00 00 00 00 00 00 00 00 
C11AF0 00 00 00 00 00 00 00 00 
C11AF8 00 00 00 00 00 00 00 00 
C11B00 00 00 00 00 00 00 00 00 
C11B08 00 00 00 00 00 00 00 00 
C11B10 00 00 00 00 00 00 00 00 
C11B18 00 00 00 00 00 00 00 00 
C11B20 00 00 00 00 00 00 00 00 
C11B28 00 00 00 00 00 00 00 00 
C11B30 00 00 00 00 00 00 00 00 
C11B38 00 00 00 00 00 00 00 00 
C11B40 00 00 00 00 00 00 00 00 
                		align	8                	
                		align	8                	
                		align	8                	
C11B48 00 00 00 00 00 00 00 00 		fill.b	896,0x00
C11B50 00 00 00 00 00 00 00 00 
C11B58 00 00 00 00 00 00 00 00 
C11B60 00 00 00 00 00 00 00 00 
C11B68 00 00 00 00 00 00 00 00 
C11B70 00 00 00 00 00 00 00 00 
C11B78 00 00 00 00 00 00 00 00 
C11B80 00 00 00 00 00 00 00 00 
C11B88 00 00 00 00 00 00 00 00 
C11B90 00 00 00 00 00 00 00 00 
C11B98 00 00 00 00 00 00 00 00 
C11BA0 00 00 00 00 00 00 00 00 
C11BA8 00 00 00 00 00 00 00 00 
C11BB0 00 00 00 00 00 00 00 00 
C11BB8 00 00 00 00 00 00 00 00 
C11BC0 00 00 00 00 00 00 00 00 
C11BC8 00 00 00 00 00 00 00 00 
C11BD0 00 00 00 00 00 00 00 00 
C11BD8 00 00 00 00 00 00 00 00 
C11BE0 00 00 00 00 00 00 00 00 
C11BE8 00 00 00 00 00 00 00 00 
C11BF0 00 00 00 00 00 00 00 00 
C11BF8 00 00 00 00 00 00 00 00 
C11C00 00 00 00 00 00 00 00 00 
C11C08 00 00 00 00 00 00 00 00 
C11C10 00 00 00 00 00 00 00 00 
C11C18 00 00 00 00 00 00 00 00 
C11C20 00 00 00 00 00 00 00 00 
C11C28 00 00 00 00 00 00 00 00 
C11C30 00 00 00 00 00 00 00 00 
C11C38 00 00 00 00 00 00 00 00 
C11C40 00 00 00 00 00 00 00 00 
C11C48 00 00 00 00 00 00 00 00 
C11C50 00 00 00 00 00 00 00 00 
C11C58 00 00 00 00 00 00 00 00 
C11C60 00 00 00 00 00 00 00 00 
C11C68 00 00 00 00 00 00 00 00 
C11C70 00 00 00 00 00 00 00 00 
C11C78 00 00 00 00 00 00 00 00 
C11C80 00 00 00 00 00 00 00 00 
C11C88 00 00 00 00 00 00 00 00 
C11C90 00 00 00 00 00 00 00 00 
C11C98 00 00 00 00 00 00 00 00 
C11CA0 00 00 00 00 00 00 00 00 
C11CA8 00 00 00 00 00 00 00 00 
C11CB0 00 00 00 00 00 00 00 00 
C11CB8 00 00 00 00 00 00 00 00 
C11CC0 00 00 00 00 00 00 00 00 
C11CC8 00 00 00 00 00 00 00 00 
C11CD0 00 00 00 00 00 00 00 00 
C11CD8 00 00 00 00 00 00 00 00 
C11CE0 00 00 00 00 00 00 00 00 
C11CE8 00 00 00 00 00 00 00 00 
C11CF0 00 00 00 00 00 00 00 00 
C11CF8 00 00 00 00 00 00 00 00 
C11D00 00 00 00 00 00 00 00 00 
C11D08 00 00 00 00 00 00 00 00 
C11D10 00 00 00 00 00 00 00 00 
C11D18 00 00 00 00 00 00 00 00 
C11D20 00 00 00 00 00 00 00 00 
C11D28 00 00 00 00 00 00 00 00 
C11D30 00 00 00 00 00 00 00 00 
C11D38 00 00 00 00 00 00 00 00 
C11D40 00 00 00 00 00 00 00 00 
C11D48 00 00 00 00 00 00 00 00 
C11D50 00 00 00 00 00 00 00 00 
C11D58 00 00 00 00 00 00 00 00 
C11D60 00 00 00 00 00 00 00 00 
C11D68 00 00 00 00 00 00 00 00 
C11D70 00 00 00 00 00 00 00 00 
C11D78 00 00 00 00 00 00 00 00 
C11D80 00 00 00 00 00 00 00 00 
C11D88 00 00 00 00 00 00 00 00 
C11D90 00 00 00 00 00 00 00 00 
C11D98 00 00 00 00 00 00 00 00 
C11DA0 00 00 00 00 00 00 00 00 
C11DA8 00 00 00 00 00 00 00 00 
C11DB0 00 00 00 00 00 00 00 00 
C11DB8 00 00 00 00 00 00 00 00 
C11DC0 00 00 00 00 00 00 00 00 
C11DC8 00 00 00 00 00 00 00 00 
C11DD0 00 00 00 00 00 00 00 00 
C11DD8 00 00 00 00 00 00 00 00 
C11DE0 00 00 00 00 00 00 00 00 
C11DE8 00 00 00 00 00 00 00 00 
C11DF0 00 00 00 00 00 00 00 00 
C11DF8 00 00 00 00 00 00 00 00 
C11E00 00 00 00 00 00 00 00 00 
C11E08 00 00 00 00 00 00 00 00 
C11E10 00 00 00 00 00 00 00 00 
C11E18 00 00 00 00 00 00 00 00 
C11E20 00 00 00 00 00 00 00 00 
C11E28 00 00 00 00 00 00 00 00 
C11E30 00 00 00 00 00 00 00 00 
C11E38 00 00 00 00 00 00 00 00 
C11E40 00 00 00 00 00 00 00 00 
C11E48 00 00 00 00 00 00 00 00 
C11E50 00 00 00 00 00 00 00 00 
C11E58 00 00 00 00 00 00 00 00 
C11E60 00 00 00 00 00 00 00 00 
C11E68 00 00 00 00 00 00 00 00 
C11E70 00 00 00 00 00 00 00 00 
C11E78 00 00 00 00 00 00 00 00 
C11E80 00 00 00 00 00 00 00 00 
C11E88 00 00 00 00 00 00 00 00 
C11E90 00 00 00 00 00 00 00 00 
C11E98 00 00 00 00 00 00 00 00 
C11EA0 00 00 00 00 00 00 00 00 
C11EA8 00 00 00 00 00 00 00 00 
C11EB0 00 00 00 00 00 00 00 00 
C11EB8 00 00 00 00 00 00 00 00 
C11EC0 00 00 00 00 00 00 00 00 
                		data
                		align	8                	
                		data
                		align	8                	
C11EC8 00                      		fill.b	1,0x00
C11EC9 00 00 00 00 00 00 00    		align	
                	
C11ED0 00 00 00 00 00 00 00 00 		fill.b	16,0x00
C11ED8 00 00 00 00 00 00 00 00 
                		align	8                	
                		align	8                	
C11EE0 00 00 00 00 00 00 00 00 		fill.b	1984,0x00
C11EE8 00 00 00 00 00 00 00 00 
C11EF0 00 00 00 00 00 00 00 00 
C11EF8 00 00 00 00 00 00 00 00 
C11F00 00 00 00 00 00 00 00 00 
C11F08 00 00 00 00 00 00 00 00 
C11F10 00 00 00 00 00 00 00 00 
C11F18 00 00 00 00 00 00 00 00 
C11F20 00 00 00 00 00 00 00 00 
C11F28 00 00 00 00 00 00 00 00 
C11F30 00 00 00 00 00 00 00 00 
C11F38 00 00 00 00 00 00 00 00 
C11F40 00 00 00 00 00 00 00 00 
C11F48 00 00 00 00 00 00 00 00 
C11F50 00 00 00 00 00 00 00 00 
C11F58 00 00 00 00 00 00 00 00 
C11F60 00 00 00 00 00 00 00 00 
C11F68 00 00 00 00 00 00 00 00 
C11F70 00 00 00 00 00 00 00 00 
C11F78 00 00 00 00 00 00 00 00 
C11F80 00 00 00 00 00 00 00 00 
C11F88 00 00 00 00 00 00 00 00 
C11F90 00 00 00 00 00 00 00 00 
C11F98 00 00 00 00 00 00 00 00 
C11FA0 00 00 00 00 00 00 00 00 
C11FA8 00 00 00 00 00 00 00 00 
C11FB0 00 00 00 00 00 00 00 00 
C11FB8 00 00 00 00 00 00 00 00 
C11FC0 00 00 00 00 00 00 00 00 
C11FC8 00 00 00 00 00 00 00 00 
C11FD0 00 00 00 00 00 00 00 00 
C11FD8 00 00 00 00 00 00 00 00 
C11FE0 00 00 00 00 00 00 00 00 
C11FE8 00 00 00 00 00 00 00 00 
C11FF0 00 00 00 00 00 00 00 00 
C11FF8 00 00 00 00 00 00 00 00 
C12000 00 00 00 00 00 00 00 00 
C12008 00 00 00 00 00 00 00 00 
C12010 00 00 00 00 00 00 00 00 
C12018 00 00 00 00 00 00 00 00 
C12020 00 00 00 00 00 00 00 00 
C12028 00 00 00 00 00 00 00 00 
C12030 00 00 00 00 00 00 00 00 
C12038 00 00 00 00 00 00 00 00 
C12040 00 00 00 00 00 00 00 00 
C12048 00 00 00 00 00 00 00 00 
C12050 00 00 00 00 00 00 00 00 
C12058 00 00 00 00 00 00 00 00 
C12060 00 00 00 00 00 00 00 00 
C12068 00 00 00 00 00 00 00 00 
C12070 00 00 00 00 00 00 00 00 
C12078 00 00 00 00 00 00 00 00 
C12080 00 00 00 00 00 00 00 00 
C12088 00 00 00 00 00 00 00 00 
C12090 00 00 00 00 00 00 00 00 
C12098 00 00 00 00 00 00 00 00 
C120A0 00 00 00 00 00 00 00 00 
C120A8 00 00 00 00 00 00 00 00 
C120B0 00 00 00 00 00 00 00 00 
C120B8 00 00 00 00 00 00 00 00 
C120C0 00 00 00 00 00 00 00 00 
C120C8 00 00 00 00 00 00 00 00 
C120D0 00 00 00 00 00 00 00 00 
C120D8 00 00 00 00 00 00 00 00 
C120E0 00 00 00 00 00 00 00 00 
C120E8 00 00 00 00 00 00 00 00 
C120F0 00 00 00 00 00 00 00 00 
C120F8 00 00 00 00 00 00 00 00 
C12100 00 00 00 00 00 00 00 00 
C12108 00 00 00 00 00 00 00 00 
C12110 00 00 00 00 00 00 00 00 
C12118 00 00 00 00 00 00 00 00 
C12120 00 00 00 00 00 00 00 00 
C12128 00 00 00 00 00 00 00 00 
C12130 00 00 00 00 00 00 00 00 
C12138 00 00 00 00 00 00 00 00 
C12140 00 00 00 00 00 00 00 00 
C12148 00 00 00 00 00 00 00 00 
C12150 00 00 00 00 00 00 00 00 
C12158 00 00 00 00 00 00 00 00 
C12160 00 00 00 00 00 00 00 00 
C12168 00 00 00 00 00 00 00 00 
C12170 00 00 00 00 00 00 00 00 
C12178 00 00 00 00 00 00 00 00 
C12180 00 00 00 00 00 00 00 00 
C12188 00 00 00 00 00 00 00 00 
C12190 00 00 00 00 00 00 00 00 
C12198 00 00 00 00 00 00 00 00 
C121A0 00 00 00 00 00 00 00 00 
C121A8 00 00 00 00 00 00 00 00 
C121B0 00 00 00 00 00 00 00 00 
C121B8 00 00 00 00 00 00 00 00 
C121C0 00 00 00 00 00 00 00 00 
C121C8 00 00 00 00 00 00 00 00 
C121D0 00 00 00 00 00 00 00 00 
C121D8 00 00 00 00 00 00 00 00 
C121E0 00 00 00 00 00 00 00 00 
C121E8 00 00 00 00 00 00 00 00 
C121F0 00 00 00 00 00 00 00 00 
C121F8 00 00 00 00 00 00 00 00 
C12200 00 00 00 00 00 00 00 00 
C12208 00 00 00 00 00 00 00 00 
C12210 00 00 00 00 00 00 00 00 
C12218 00 00 00 00 00 00 00 00 
C12220 00 00 00 00 00 00 00 00 
C12228 00 00 00 00 00 00 00 00 
C12230 00 00 00 00 00 00 00 00 
C12238 00 00 00 00 00 00 00 00 
C12240 00 00 00 00 00 00 00 00 
C12248 00 00 00 00 00 00 00 00 
C12250 00 00 00 00 00 00 00 00 
C12258 00 00 00 00 00 00 00 00 
C12260 00 00 00 00 00 00 00 00 
C12268 00 00 00 00 00 00 00 00 
C12270 00 00 00 00 00 00 00 00 
C12278 00 00 00 00 00 00 00 00 
C12280 00 00 00 00 00 00 00 00 
C12288 00 00 00 00 00 00 00 00 
C12290 00 00 00 00 00 00 00 00 
C12298 00 00 00 00 00 00 00 00 
C122A0 00 00 00 00 00 00 00 00 
C122A8 00 00 00 00 00 00 00 00 
C122B0 00 00 00 00 00 00 00 00 
C122B8 00 00 00 00 00 00 00 00 
C122C0 00 00 00 00 00 00 00 00 
C122C8 00 00 00 00 00 00 00 00 
C122D0 00 00 00 00 00 00 00 00 
C122D8 00 00 00 00 00 00 00 00 
C122E0 00 00 00 00 00 00 00 00 
C122E8 00 00 00 00 00 00 00 00 
C122F0 00 00 00 00 00 00 00 00 
C122F8 00 00 00 00 00 00 00 00 
C12300 00 00 00 00 00 00 00 00 
C12308 00 00 00 00 00 00 00 00 
C12310 00 00 00 00 00 00 00 00 
C12318 00 00 00 00 00 00 00 00 
C12320 00 00 00 00 00 00 00 00 
C12328 00 00 00 00 00 00 00 00 
C12330 00 00 00 00 00 00 00 00 
C12338 00 00 00 00 00 00 00 00 
C12340 00 00 00 00 00 00 00 00 
C12348 00 00 00 00 00 00 00 00 
C12350 00 00 00 00 00 00 00 00 
C12358 00 00 00 00 00 00 00 00 
C12360 00 00 00 00 00 00 00 00 
C12368 00 00 00 00 00 00 00 00 
C12370 00 00 00 00 00 00 00 00 
C12378 00 00 00 00 00 00 00 00 
C12380 00 00 00 00 00 00 00 00 
C12388 00 00 00 00 00 00 00 00 
C12390 00 00 00 00 00 00 00 00 
C12398 00 00 00 00 00 00 00 00 
C123A0 00 00 00 00 00 00 00 00 
C123A8 00 00 00 00 00 00 00 00 
C123B0 00 00 00 00 00 00 00 00 
C123B8 00 00 00 00 00 00 00 00 
C123C0 00 00 00 00 00 00 00 00 
C123C8 00 00 00 00 00 00 00 00 
C123D0 00 00 00 00 00 00 00 00 
C123D8 00 00 00 00 00 00 00 00 
C123E0 00 00 00 00 00 00 00 00 
C123E8 00 00 00 00 00 00 00 00 
C123F0 00 00 00 00 00 00 00 00 
C123F8 00 00 00 00 00 00 00 00 
C12400 00 00 00 00 00 00 00 00 
C12408 00 00 00 00 00 00 00 00 
C12410 00 00 00 00 00 00 00 00 
C12418 00 00 00 00 00 00 00 00 
C12420 00 00 00 00 00 00 00 00 
C12428 00 00 00 00 00 00 00 00 
C12430 00 00 00 00 00 00 00 00 
C12438 00 00 00 00 00 00 00 00 
C12440 00 00 00 00 00 00 00 00 
C12448 00 00 00 00 00 00 00 00 
C12450 00 00 00 00 00 00 00 00 
C12458 00 00 00 00 00 00 00 00 
C12460 00 00 00 00 00 00 00 00 
C12468 00 00 00 00 00 00 00 00 
C12470 00 00 00 00 00 00 00 00 
C12478 00 00 00 00 00 00 00 00 
C12480 00 00 00 00 00 00 00 00 
C12488 00 00 00 00 00 00 00 00 
C12490 00 00 00 00 00 00 00 00 
C12498 00 00 00 00 00 00 00 00 
C124A0 00 00 00 00 00 00 00 00 
C124A8 00 00 00 00 00 00 00 00 
C124B0 00 00 00 00 00 00 00 00 
C124B8 00 00 00 00 00 00 00 00 
C124C0 00 00 00 00 00 00 00 00 
C124C8 00 00 00 00 00 00 00 00 
C124D0 00 00 00 00 00 00 00 00 
C124D8 00 00 00 00 00 00 00 00 
C124E0 00 00 00 00 00 00 00 00 
C124E8 00 00 00 00 00 00 00 00 
C124F0 00 00 00 00 00 00 00 00 
C124F8 00 00 00 00 00 00 00 00 
C12500 00 00 00 00 00 00 00 00 
C12508 00 00 00 00 00 00 00 00 
C12510 00 00 00 00 00 00 00 00 
C12518 00 00 00 00 00 00 00 00 
C12520 00 00 00 00 00 00 00 00 
C12528 00 00 00 00 00 00 00 00 
C12530 00 00 00 00 00 00 00 00 
C12538 00 00 00 00 00 00 00 00 
C12540 00 00 00 00 00 00 00 00 
C12548 00 00 00 00 00 00 00 00 
C12550 00 00 00 00 00 00 00 00 
C12558 00 00 00 00 00 00 00 00 
C12560 00 00 00 00 00 00 00 00 
C12568 00 00 00 00 00 00 00 00 
C12570 00 00 00 00 00 00 00 00 
C12578 00 00 00 00 00 00 00 00 
C12580 00 00 00 00 00 00 00 00 
C12588 00 00 00 00 00 00 00 00 
C12590 00 00 00 00 00 00 00 00 
C12598 00 00 00 00 00 00 00 00 
C125A0 00 00 00 00 00 00 00 00 
C125A8 00 00 00 00 00 00 00 00 
C125B0 00 00 00 00 00 00 00 00 
C125B8 00 00 00 00 00 00 00 00 
C125C0 00 00 00 00 00 00 00 00 
C125C8 00 00 00 00 00 00 00 00 
C125D0 00 00 00 00 00 00 00 00 
C125D8 00 00 00 00 00 00 00 00 
C125E0 00 00 00 00 00 00 00 00 
C125E8 00 00 00 00 00 00 00 00 
C125F0 00 00 00 00 00 00 00 00 
C125F8 00 00 00 00 00 00 00 00 
C12600 00 00 00 00 00 00 00 00 
C12608 00 00 00 00 00 00 00 00 
C12610 00 00 00 00 00 00 00 00 
C12618 00 00 00 00 00 00 00 00 
C12620 00 00 00 00 00 00 00 00 
C12628 00 00 00 00 00 00 00 00 
C12630 00 00 00 00 00 00 00 00 
C12638 00 00 00 00 00 00 00 00 
C12640 00 00 00 00 00 00 00 00 
C12648 00 00 00 00 00 00 00 00 
C12650 00 00 00 00 00 00 00 00 
C12658 00 00 00 00 00 00 00 00 
C12660 00 00 00 00 00 00 00 00 
C12668 00 00 00 00 00 00 00 00 
C12670 00 00 00 00 00 00 00 00 
C12678 00 00 00 00 00 00 00 00 
C12680 00 00 00 00 00 00 00 00 
C12688 00 00 00 00 00 00 00 00 
C12690 00 00 00 00 00 00 00 00 
C12698 00 00 00 00 00 00 00 00 
                		align	8                	
                		align	8                	
                		data
                		align	8                	
C126A0 00                      		fill.b	1,0x00
C126A1 00 00 00 00 00 00 00    		align	
                	
C126A8 00 00 00 00 00 00 00 00 		fill.b	16,0x00
C126B0 00 00 00 00 00 00 00 00 
                		align	8                	
                		align	8                	
C126B8 00 00 00 00 00 00 00 00 		fill.b	1984,0x00
C126C0 00 00 00 00 00 00 00 00 
C126C8 00 00 00 00 00 00 00 00 
C126D0 00 00 00 00 00 00 00 00 
C126D8 00 00 00 00 00 00 00 00 
C126E0 00 00 00 00 00 00 00 00 
C126E8 00 00 00 00 00 00 00 00 
C126F0 00 00 00 00 00 00 00 00 
C126F8 00 00 00 00 00 00 00 00 
C12700 00 00 00 00 00 00 00 00 
C12708 00 00 00 00 00 00 00 00 
C12710 00 00 00 00 00 00 00 00 
C12718 00 00 00 00 00 00 00 00 
C12720 00 00 00 00 00 00 00 00 
C12728 00 00 00 00 00 00 00 00 
C12730 00 00 00 00 00 00 00 00 
C12738 00 00 00 00 00 00 00 00 
C12740 00 00 00 00 00 00 00 00 
C12748 00 00 00 00 00 00 00 00 
C12750 00 00 00 00 00 00 00 00 
C12758 00 00 00 00 00 00 00 00 
C12760 00 00 00 00 00 00 00 00 
C12768 00 00 00 00 00 00 00 00 
C12770 00 00 00 00 00 00 00 00 
C12778 00 00 00 00 00 00 00 00 
C12780 00 00 00 00 00 00 00 00 
C12788 00 00 00 00 00 00 00 00 
C12790 00 00 00 00 00 00 00 00 
C12798 00 00 00 00 00 00 00 00 
C127A0 00 00 00 00 00 00 00 00 
C127A8 00 00 00 00 00 00 00 00 
C127B0 00 00 00 00 00 00 00 00 
C127B8 00 00 00 00 00 00 00 00 
C127C0 00 00 00 00 00 00 00 00 
C127C8 00 00 00 00 00 00 00 00 
C127D0 00 00 00 00 00 00 00 00 
C127D8 00 00 00 00 00 00 00 00 
C127E0 00 00 00 00 00 00 00 00 
C127E8 00 00 00 00 00 00 00 00 
C127F0 00 00 00 00 00 00 00 00 
C127F8 00 00 00 00 00 00 00 00 
C12800 00 00 00 00 00 00 00 00 
C12808 00 00 00 00 00 00 00 00 
C12810 00 00 00 00 00 00 00 00 
C12818 00 00 00 00 00 00 00 00 
C12820 00 00 00 00 00 00 00 00 
C12828 00 00 00 00 00 00 00 00 
C12830 00 00 00 00 00 00 00 00 
C12838 00 00 00 00 00 00 00 00 
C12840 00 00 00 00 00 00 00 00 
C12848 00 00 00 00 00 00 00 00 
C12850 00 00 00 00 00 00 00 00 
C12858 00 00 00 00 00 00 00 00 
C12860 00 00 00 00 00 00 00 00 
C12868 00 00 00 00 00 00 00 00 
C12870 00 00 00 00 00 00 00 00 
C12878 00 00 00 00 00 00 00 00 
C12880 00 00 00 00 00 00 00 00 
C12888 00 00 00 00 00 00 00 00 
C12890 00 00 00 00 00 00 00 00 
C12898 00 00 00 00 00 00 00 00 
C128A0 00 00 00 00 00 00 00 00 
C128A8 00 00 00 00 00 00 00 00 
C128B0 00 00 00 00 00 00 00 00 
C128B8 00 00 00 00 00 00 00 00 
C128C0 00 00 00 00 00 00 00 00 
C128C8 00 00 00 00 00 00 00 00 
C128D0 00 00 00 00 00 00 00 00 
C128D8 00 00 00 00 00 00 00 00 
C128E0 00 00 00 00 00 00 00 00 
C128E8 00 00 00 00 00 00 00 00 
C128F0 00 00 00 00 00 00 00 00 
C128F8 00 00 00 00 00 00 00 00 
C12900 00 00 00 00 00 00 00 00 
C12908 00 00 00 00 00 00 00 00 
C12910 00 00 00 00 00 00 00 00 
C12918 00 00 00 00 00 00 00 00 
C12920 00 00 00 00 00 00 00 00 
C12928 00 00 00 00 00 00 00 00 
C12930 00 00 00 00 00 00 00 00 
C12938 00 00 00 00 00 00 00 00 
C12940 00 00 00 00 00 00 00 00 
C12948 00 00 00 00 00 00 00 00 
C12950 00 00 00 00 00 00 00 00 
C12958 00 00 00 00 00 00 00 00 
C12960 00 00 00 00 00 00 00 00 
C12968 00 00 00 00 00 00 00 00 
C12970 00 00 00 00 00 00 00 00 
C12978 00 00 00 00 00 00 00 00 
C12980 00 00 00 00 00 00 00 00 
C12988 00 00 00 00 00 00 00 00 
C12990 00 00 00 00 00 00 00 00 
C12998 00 00 00 00 00 00 00 00 
C129A0 00 00 00 00 00 00 00 00 
C129A8 00 00 00 00 00 00 00 00 
C129B0 00 00 00 00 00 00 00 00 
C129B8 00 00 00 00 00 00 00 00 
C129C0 00 00 00 00 00 00 00 00 
C129C8 00 00 00 00 00 00 00 00 
C129D0 00 00 00 00 00 00 00 00 
C129D8 00 00 00 00 00 00 00 00 
C129E0 00 00 00 00 00 00 00 00 
C129E8 00 00 00 00 00 00 00 00 
C129F0 00 00 00 00 00 00 00 00 
C129F8 00 00 00 00 00 00 00 00 
C12A00 00 00 00 00 00 00 00 00 
C12A08 00 00 00 00 00 00 00 00 
C12A10 00 00 00 00 00 00 00 00 
C12A18 00 00 00 00 00 00 00 00 
C12A20 00 00 00 00 00 00 00 00 
C12A28 00 00 00 00 00 00 00 00 
C12A30 00 00 00 00 00 00 00 00 
C12A38 00 00 00 00 00 00 00 00 
C12A40 00 00 00 00 00 00 00 00 
C12A48 00 00 00 00 00 00 00 00 
C12A50 00 00 00 00 00 00 00 00 
C12A58 00 00 00 00 00 00 00 00 
C12A60 00 00 00 00 00 00 00 00 
C12A68 00 00 00 00 00 00 00 00 
C12A70 00 00 00 00 00 00 00 00 
C12A78 00 00 00 00 00 00 00 00 
C12A80 00 00 00 00 00 00 00 00 
C12A88 00 00 00 00 00 00 00 00 
C12A90 00 00 00 00 00 00 00 00 
C12A98 00 00 00 00 00 00 00 00 
C12AA0 00 00 00 00 00 00 00 00 
C12AA8 00 00 00 00 00 00 00 00 
C12AB0 00 00 00 00 00 00 00 00 
C12AB8 00 00 00 00 00 00 00 00 
C12AC0 00 00 00 00 00 00 00 00 
C12AC8 00 00 00 00 00 00 00 00 
C12AD0 00 00 00 00 00 00 00 00 
C12AD8 00 00 00 00 00 00 00 00 
C12AE0 00 00 00 00 00 00 00 00 
C12AE8 00 00 00 00 00 00 00 00 
C12AF0 00 00 00 00 00 00 00 00 
C12AF8 00 00 00 00 00 00 00 00 
C12B00 00 00 00 00 00 00 00 00 
C12B08 00 00 00 00 00 00 00 00 
C12B10 00 00 00 00 00 00 00 00 
C12B18 00 00 00 00 00 00 00 00 
C12B20 00 00 00 00 00 00 00 00 
C12B28 00 00 00 00 00 00 00 00 
C12B30 00 00 00 00 00 00 00 00 
C12B38 00 00 00 00 00 00 00 00 
C12B40 00 00 00 00 00 00 00 00 
C12B48 00 00 00 00 00 00 00 00 
C12B50 00 00 00 00 00 00 00 00 
C12B58 00 00 00 00 00 00 00 00 
C12B60 00 00 00 00 00 00 00 00 
C12B68 00 00 00 00 00 00 00 00 
C12B70 00 00 00 00 00 00 00 00 
C12B78 00 00 00 00 00 00 00 00 
C12B80 00 00 00 00 00 00 00 00 
C12B88 00 00 00 00 00 00 00 00 
C12B90 00 00 00 00 00 00 00 00 
C12B98 00 00 00 00 00 00 00 00 
C12BA0 00 00 00 00 00 00 00 00 
C12BA8 00 00 00 00 00 00 00 00 
C12BB0 00 00 00 00 00 00 00 00 
C12BB8 00 00 00 00 00 00 00 00 
C12BC0 00 00 00 00 00 00 00 00 
C12BC8 00 00 00 00 00 00 00 00 
C12BD0 00 00 00 00 00 00 00 00 
C12BD8 00 00 00 00 00 00 00 00 
C12BE0 00 00 00 00 00 00 00 00 
C12BE8 00 00 00 00 00 00 00 00 
C12BF0 00 00 00 00 00 00 00 00 
C12BF8 00 00 00 00 00 00 00 00 
C12C00 00 00 00 00 00 00 00 00 
C12C08 00 00 00 00 00 00 00 00 
C12C10 00 00 00 00 00 00 00 00 
C12C18 00 00 00 00 00 00 00 00 
C12C20 00 00 00 00 00 00 00 00 
C12C28 00 00 00 00 00 00 00 00 
C12C30 00 00 00 00 00 00 00 00 
C12C38 00 00 00 00 00 00 00 00 
C12C40 00 00 00 00 00 00 00 00 
C12C48 00 00 00 00 00 00 00 00 
C12C50 00 00 00 00 00 00 00 00 
C12C58 00 00 00 00 00 00 00 00 
C12C60 00 00 00 00 00 00 00 00 
C12C68 00 00 00 00 00 00 00 00 
C12C70 00 00 00 00 00 00 00 00 
C12C78 00 00 00 00 00 00 00 00 
C12C80 00 00 00 00 00 00 00 00 
C12C88 00 00 00 00 00 00 00 00 
C12C90 00 00 00 00 00 00 00 00 
C12C98 00 00 00 00 00 00 00 00 
C12CA0 00 00 00 00 00 00 00 00 
C12CA8 00 00 00 00 00 00 00 00 
C12CB0 00 00 00 00 00 00 00 00 
C12CB8 00 00 00 00 00 00 00 00 
C12CC0 00 00 00 00 00 00 00 00 
C12CC8 00 00 00 00 00 00 00 00 
C12CD0 00 00 00 00 00 00 00 00 
C12CD8 00 00 00 00 00 00 00 00 
C12CE0 00 00 00 00 00 00 00 00 
C12CE8 00 00 00 00 00 00 00 00 
C12CF0 00 00 00 00 00 00 00 00 
C12CF8 00 00 00 00 00 00 00 00 
C12D00 00 00 00 00 00 00 00 00 
C12D08 00 00 00 00 00 00 00 00 
C12D10 00 00 00 00 00 00 00 00 
C12D18 00 00 00 00 00 00 00 00 
C12D20 00 00 00 00 00 00 00 00 
C12D28 00 00 00 00 00 00 00 00 
C12D30 00 00 00 00 00 00 00 00 
C12D38 00 00 00 00 00 00 00 00 
C12D40 00 00 00 00 00 00 00 00 
C12D48 00 00 00 00 00 00 00 00 
C12D50 00 00 00 00 00 00 00 00 
C12D58 00 00 00 00 00 00 00 00 
C12D60 00 00 00 00 00 00 00 00 
C12D68 00 00 00 00 00 00 00 00 
C12D70 00 00 00 00 00 00 00 00 
C12D78 00 00 00 00 00 00 00 00 
C12D80 00 00 00 00 00 00 00 00 
C12D88 00 00 00 00 00 00 00 00 
C12D90 00 00 00 00 00 00 00 00 
C12D98 00 00 00 00 00 00 00 00 
C12DA0 00 00 00 00 00 00 00 00 
C12DA8 00 00 00 00 00 00 00 00 
C12DB0 00 00 00 00 00 00 00 00 
C12DB8 00 00 00 00 00 00 00 00 
C12DC0 00 00 00 00 00 00 00 00 
C12DC8 00 00 00 00 00 00 00 00 
C12DD0 00 00 00 00 00 00 00 00 
C12DD8 00 00 00 00 00 00 00 00 
C12DE0 00 00 00 00 00 00 00 00 
C12DE8 00 00 00 00 00 00 00 00 
C12DF0 00 00 00 00 00 00 00 00 
C12DF8 00 00 00 00 00 00 00 00 
C12E00 00 00 00 00 00 00 00 00 
C12E08 00 00 00 00 00 00 00 00 
C12E10 00 00 00 00 00 00 00 00 
C12E18 00 00 00 00 00 00 00 00 
C12E20 00 00 00 00 00 00 00 00 
C12E28 00 00 00 00 00 00 00 00 
C12E30 00 00 00 00 00 00 00 00 
C12E38 00 00 00 00 00 00 00 00 
C12E40 00 00 00 00 00 00 00 00 
C12E48 00 00 00 00 00 00 00 00 
C12E50 00 00 00 00 00 00 00 00 
C12E58 00 00 00 00 00 00 00 00 
C12E60 00 00 00 00 00 00 00 00 
C12E68 00 00 00 00 00 00 00 00 
C12E70 00 00 00 00 00 00 00 00 
                		align	8                	
                		align	8                	
                		data
                		align	8                	
                		data
                		align	8                	
                		data
                		align	8                	
C12E78 00                      		fill.b	1,0x00
C12E79 00 00 00 00 00 00 00    		align	
                	
C12E80 00 00 00 00 00 00 00 00 		fill.b	16,0x00
C12E88 00 00 00 00 00 00 00 00 
                		align	8                	
                		align	8                	
C12E90 00 00 00 00 00 00 00 00 		fill.b	1984,0x00
C12E98 00 00 00 00 00 00 00 00 
C12EA0 00 00 00 00 00 00 00 00 
C12EA8 00 00 00 00 00 00 00 00 
C12EB0 00 00 00 00 00 00 00 00 
C12EB8 00 00 00 00 00 00 00 00 
C12EC0 00 00 00 00 00 00 00 00 
C12EC8 00 00 00 00 00 00 00 00 
C12ED0 00 00 00 00 00 00 00 00 
C12ED8 00 00 00 00 00 00 00 00 
C12EE0 00 00 00 00 00 00 00 00 
C12EE8 00 00 00 00 00 00 00 00 
C12EF0 00 00 00 00 00 00 00 00 
C12EF8 00 00 00 00 00 00 00 00 
C12F00 00 00 00 00 00 00 00 00 
C12F08 00 00 00 00 00 00 00 00 
C12F10 00 00 00 00 00 00 00 00 
C12F18 00 00 00 00 00 00 00 00 
C12F20 00 00 00 00 00 00 00 00 
C12F28 00 00 00 00 00 00 00 00 
C12F30 00 00 00 00 00 00 00 00 
C12F38 00 00 00 00 00 00 00 00 
C12F40 00 00 00 00 00 00 00 00 
C12F48 00 00 00 00 00 00 00 00 
C12F50 00 00 00 00 00 00 00 00 
C12F58 00 00 00 00 00 00 00 00 
C12F60 00 00 00 00 00 00 00 00 
C12F68 00 00 00 00 00 00 00 00 
C12F70 00 00 00 00 00 00 00 00 
C12F78 00 00 00 00 00 00 00 00 
C12F80 00 00 00 00 00 00 00 00 
C12F88 00 00 00 00 00 00 00 00 
C12F90 00 00 00 00 00 00 00 00 
C12F98 00 00 00 00 00 00 00 00 
C12FA0 00 00 00 00 00 00 00 00 
C12FA8 00 00 00 00 00 00 00 00 
C12FB0 00 00 00 00 00 00 00 00 
C12FB8 00 00 00 00 00 00 00 00 
C12FC0 00 00 00 00 00 00 00 00 
C12FC8 00 00 00 00 00 00 00 00 
C12FD0 00 00 00 00 00 00 00 00 
C12FD8 00 00 00 00 00 00 00 00 
C12FE0 00 00 00 00 00 00 00 00 
C12FE8 00 00 00 00 00 00 00 00 
C12FF0 00 00 00 00 00 00 00 00 
C12FF8 00 00 00 00 00 00 00 00 
C13000 00 00 00 00 00 00 00 00 
C13008 00 00 00 00 00 00 00 00 
C13010 00 00 00 00 00 00 00 00 
C13018 00 00 00 00 00 00 00 00 
C13020 00 00 00 00 00 00 00 00 
C13028 00 00 00 00 00 00 00 00 
C13030 00 00 00 00 00 00 00 00 
C13038 00 00 00 00 00 00 00 00 
C13040 00 00 00 00 00 00 00 00 
C13048 00 00 00 00 00 00 00 00 
C13050 00 00 00 00 00 00 00 00 
C13058 00 00 00 00 00 00 00 00 
C13060 00 00 00 00 00 00 00 00 
C13068 00 00 00 00 00 00 00 00 
C13070 00 00 00 00 00 00 00 00 
C13078 00 00 00 00 00 00 00 00 
C13080 00 00 00 00 00 00 00 00 
C13088 00 00 00 00 00 00 00 00 
C13090 00 00 00 00 00 00 00 00 
C13098 00 00 00 00 00 00 00 00 
C130A0 00 00 00 00 00 00 00 00 
C130A8 00 00 00 00 00 00 00 00 
C130B0 00 00 00 00 00 00 00 00 
C130B8 00 00 00 00 00 00 00 00 
C130C0 00 00 00 00 00 00 00 00 
C130C8 00 00 00 00 00 00 00 00 
C130D0 00 00 00 00 00 00 00 00 
C130D8 00 00 00 00 00 00 00 00 
C130E0 00 00 00 00 00 00 00 00 
C130E8 00 00 00 00 00 00 00 00 
C130F0 00 00 00 00 00 00 00 00 
C130F8 00 00 00 00 00 00 00 00 
C13100 00 00 00 00 00 00 00 00 
C13108 00 00 00 00 00 00 00 00 
C13110 00 00 00 00 00 00 00 00 
C13118 00 00 00 00 00 00 00 00 
C13120 00 00 00 00 00 00 00 00 
C13128 00 00 00 00 00 00 00 00 
C13130 00 00 00 00 00 00 00 00 
C13138 00 00 00 00 00 00 00 00 
C13140 00 00 00 00 00 00 00 00 
C13148 00 00 00 00 00 00 00 00 
C13150 00 00 00 00 00 00 00 00 
C13158 00 00 00 00 00 00 00 00 
C13160 00 00 00 00 00 00 00 00 
C13168 00 00 00 00 00 00 00 00 
C13170 00 00 00 00 00 00 00 00 
C13178 00 00 00 00 00 00 00 00 
C13180 00 00 00 00 00 00 00 00 
C13188 00 00 00 00 00 00 00 00 
C13190 00 00 00 00 00 00 00 00 
C13198 00 00 00 00 00 00 00 00 
C131A0 00 00 00 00 00 00 00 00 
C131A8 00 00 00 00 00 00 00 00 
C131B0 00 00 00 00 00 00 00 00 
C131B8 00 00 00 00 00 00 00 00 
C131C0 00 00 00 00 00 00 00 00 
C131C8 00 00 00 00 00 00 00 00 
C131D0 00 00 00 00 00 00 00 00 
C131D8 00 00 00 00 00 00 00 00 
C131E0 00 00 00 00 00 00 00 00 
C131E8 00 00 00 00 00 00 00 00 
C131F0 00 00 00 00 00 00 00 00 
C131F8 00 00 00 00 00 00 00 00 
C13200 00 00 00 00 00 00 00 00 
C13208 00 00 00 00 00 00 00 00 
C13210 00 00 00 00 00 00 00 00 
C13218 00 00 00 00 00 00 00 00 
C13220 00 00 00 00 00 00 00 00 
C13228 00 00 00 00 00 00 00 00 
C13230 00 00 00 00 00 00 00 00 
C13238 00 00 00 00 00 00 00 00 
C13240 00 00 00 00 00 00 00 00 
C13248 00 00 00 00 00 00 00 00 
C13250 00 00 00 00 00 00 00 00 
C13258 00 00 00 00 00 00 00 00 
C13260 00 00 00 00 00 00 00 00 
C13268 00 00 00 00 00 00 00 00 
C13270 00 00 00 00 00 00 00 00 
C13278 00 00 00 00 00 00 00 00 
C13280 00 00 00 00 00 00 00 00 
C13288 00 00 00 00 00 00 00 00 
C13290 00 00 00 00 00 00 00 00 
C13298 00 00 00 00 00 00 00 00 
C132A0 00 00 00 00 00 00 00 00 
C132A8 00 00 00 00 00 00 00 00 
C132B0 00 00 00 00 00 00 00 00 
C132B8 00 00 00 00 00 00 00 00 
C132C0 00 00 00 00 00 00 00 00 
C132C8 00 00 00 00 00 00 00 00 
C132D0 00 00 00 00 00 00 00 00 
C132D8 00 00 00 00 00 00 00 00 
C132E0 00 00 00 00 00 00 00 00 
C132E8 00 00 00 00 00 00 00 00 
C132F0 00 00 00 00 00 00 00 00 
C132F8 00 00 00 00 00 00 00 00 
C13300 00 00 00 00 00 00 00 00 
C13308 00 00 00 00 00 00 00 00 
C13310 00 00 00 00 00 00 00 00 
C13318 00 00 00 00 00 00 00 00 
C13320 00 00 00 00 00 00 00 00 
C13328 00 00 00 00 00 00 00 00 
C13330 00 00 00 00 00 00 00 00 
C13338 00 00 00 00 00 00 00 00 
C13340 00 00 00 00 00 00 00 00 
C13348 00 00 00 00 00 00 00 00 
C13350 00 00 00 00 00 00 00 00 
C13358 00 00 00 00 00 00 00 00 
C13360 00 00 00 00 00 00 00 00 
C13368 00 00 00 00 00 00 00 00 
C13370 00 00 00 00 00 00 00 00 
C13378 00 00 00 00 00 00 00 00 
C13380 00 00 00 00 00 00 00 00 
C13388 00 00 00 00 00 00 00 00 
C13390 00 00 00 00 00 00 00 00 
C13398 00 00 00 00 00 00 00 00 
C133A0 00 00 00 00 00 00 00 00 
C133A8 00 00 00 00 00 00 00 00 
C133B0 00 00 00 00 00 00 00 00 
C133B8 00 00 00 00 00 00 00 00 
C133C0 00 00 00 00 00 00 00 00 
C133C8 00 00 00 00 00 00 00 00 
C133D0 00 00 00 00 00 00 00 00 
C133D8 00 00 00 00 00 00 00 00 
C133E0 00 00 00 00 00 00 00 00 
C133E8 00 00 00 00 00 00 00 00 
C133F0 00 00 00 00 00 00 00 00 
C133F8 00 00 00 00 00 00 00 00 
C13400 00 00 00 00 00 00 00 00 
C13408 00 00 00 00 00 00 00 00 
C13410 00 00 00 00 00 00 00 00 
C13418 00 00 00 00 00 00 00 00 
C13420 00 00 00 00 00 00 00 00 
C13428 00 00 00 00 00 00 00 00 
C13430 00 00 00 00 00 00 00 00 
C13438 00 00 00 00 00 00 00 00 
C13440 00 00 00 00 00 00 00 00 
C13448 00 00 00 00 00 00 00 00 
C13450 00 00 00 00 00 00 00 00 
C13458 00 00 00 00 00 00 00 00 
C13460 00 00 00 00 00 00 00 00 
C13468 00 00 00 00 00 00 00 00 
C13470 00 00 00 00 00 00 00 00 
C13478 00 00 00 00 00 00 00 00 
C13480 00 00 00 00 00 00 00 00 
C13488 00 00 00 00 00 00 00 00 
C13490 00 00 00 00 00 00 00 00 
C13498 00 00 00 00 00 00 00 00 
C134A0 00 00 00 00 00 00 00 00 
C134A8 00 00 00 00 00 00 00 00 
C134B0 00 00 00 00 00 00 00 00 
C134B8 00 00 00 00 00 00 00 00 
C134C0 00 00 00 00 00 00 00 00 
C134C8 00 00 00 00 00 00 00 00 
C134D0 00 00 00 00 00 00 00 00 
C134D8 00 00 00 00 00 00 00 00 
C134E0 00 00 00 00 00 00 00 00 
C134E8 00 00 00 00 00 00 00 00 
C134F0 00 00 00 00 00 00 00 00 
C134F8 00 00 00 00 00 00 00 00 
C13500 00 00 00 00 00 00 00 00 
C13508 00 00 00 00 00 00 00 00 
C13510 00 00 00 00 00 00 00 00 
C13518 00 00 00 00 00 00 00 00 
C13520 00 00 00 00 00 00 00 00 
C13528 00 00 00 00 00 00 00 00 
C13530 00 00 00 00 00 00 00 00 
C13538 00 00 00 00 00 00 00 00 
C13540 00 00 00 00 00 00 00 00 
C13548 00 00 00 00 00 00 00 00 
C13550 00 00 00 00 00 00 00 00 
C13558 00 00 00 00 00 00 00 00 
C13560 00 00 00 00 00 00 00 00 
C13568 00 00 00 00 00 00 00 00 
C13570 00 00 00 00 00 00 00 00 
C13578 00 00 00 00 00 00 00 00 
C13580 00 00 00 00 00 00 00 00 
C13588 00 00 00 00 00 00 00 00 
C13590 00 00 00 00 00 00 00 00 
C13598 00 00 00 00 00 00 00 00 
C135A0 00 00 00 00 00 00 00 00 
C135A8 00 00 00 00 00 00 00 00 
C135B0 00 00 00 00 00 00 00 00 
C135B8 00 00 00 00 00 00 00 00 
C135C0 00 00 00 00 00 00 00 00 
C135C8 00 00 00 00 00 00 00 00 
C135D0 00 00 00 00 00 00 00 00 
C135D8 00 00 00 00 00 00 00 00 
C135E0 00 00 00 00 00 00 00 00 
C135E8 00 00 00 00 00 00 00 00 
C135F0 00 00 00 00 00 00 00 00 
C135F8 00 00 00 00 00 00 00 00 
C13600 00 00 00 00 00 00 00 00 
C13608 00 00 00 00 00 00 00 00 
C13610 00 00 00 00 00 00 00 00 
C13618 00 00 00 00 00 00 00 00 
C13620 00 00 00 00 00 00 00 00 
C13628 00 00 00 00 00 00 00 00 
C13630 00 00 00 00 00 00 00 00 
C13638 00 00 00 00 00 00 00 00 
C13640 00 00 00 00 00 00 00 00 
C13648 00 00 00 00 00 00 00 00 
                		align	8                	
                		align	8                	
                		data
                		align	8                	
                		data
                		align	8                	
                		align	8                	
                		data
                		align	8                	
C13650 00 00 00 00 00 00       		fill.b	6,0x00
                		data
C13656 00 00                   		align	
                	
                		data
                		align	8                	
                		data
                		align	8                	
                		data
                		align	8                	
                		data
                		align	8                	
                		data
                		align	8                	
                		data
                		align	8                	
                		data
                		align	8                	
                		data
                		align	8                	
                		data
                		align	8                	
                		align	8                	
                	public data msgBadAddr:
C13658 E0 F2 01 00 00 00 00 00 		dw	ramtest_0
                	endpublic
                	
2131 symbols
  Symbol Name                              seg     address
  API_AREA                                    bss  c20450
  API_head                                    bss  c2039e
  API_sema                                    bss  c203a8
  API_tail                                    bss  c203a0
  AsciiToHexNybble                           code  011660
  AsciiToHexNybble.gthx3                     code  0116c0
  AsciiToHexNybble.gthx5                     code  011680
  AsciiToHexNybble.gthx6                     code  0116a0
  AsciiToScreen_                             code  015fb8
  BIOS1_sema_                                 bss  10d7050
  BIOSCall                                   code  010edc
  BIOSCall.0003                              code  010f28
  BIOSCall.0004                              code  010f18
  BIOSCall1                                  code  010e18
  BIOSCall1.0002                             code  010eb4
  BIOSCall1.0003                             code  010ec8
  BIOSCall1.0004                             code  010eb0
  BIOSCallTask                               code  010f30
  BIOSCallTask.0001                          code  010f40
  BIOSCallTask.0002                          code  010f30
  BIOSSema                                  const  ffdb0010
  BIOS_CALL                                 const  00000a
  BIOS_DONE                                 const  000001
  BIOS_E_Timeout                            const  000002
  BIOS_FREE                                 const  000000
  BIOS_FuncTable                             code  010080
  BIOS_INSERVICE                            const  000002
  BIOS_MbxHandle                              bss  c203b8
  BIOS_RespMbx                               code  800000000000017b
  BIOS_RespMbx_                               bss  10d7068
  BIOS_arg1                                 const  000008
  BIOS_arg2                                 const  000010
  BIOS_arg3                                 const  000018
  BIOS_arg4                                 const  000020
  BIOS_arg5                                 const  000028
  BIOS_op                                   const  000000
  BIOS_resp                                 const  000030
  BIOS_sema                                   bss  c203b0
  BIOS_stat                                 const  000038
  BMP_CLUT                                  const  0c5800
  BPT_ISR                                    code  012c18
  BPT_ISR.0001                               code  012c44
  BSI_BootSig                               const  000026
  BSI_DriveNum                              const  000024
  BSI_FATS                                  const  000010
  BSI_FileSysType                           const  000036
  BSI_Heads                                 const  00001a
  BSI_HiddenSecs                            const  00001c
  BSI_HugeSecs                              const  00001e
  BSI_JMP                                   const  000000
  BSI_Media                                 const  000015
  BSI_OEMName                               const  000003
  BSI_ResSectors                            const  00000e
  BSI_RootDirEnts                           const  000011
  BSI_Rsvd1                                 const  000025
  BSI_SecPerCluster                         const  00000d
  BSI_SecPerFAT                             const  000016
  BSI_SecPerTrack                           const  000018
  BSI_Sectors                               const  000013
  BSI_VolID                                 const  000027
  BSI_VolLabel                              const  00002b
  BSI_bps                                   const  00000b
  BYTE_SECTOR_BUF                           const  c22000
  BlankLine_                                 code  01634c
  BoundsIRQ                                  code  012b84
  BoundsIRQ.0001                             code  012ba8
  BranchToSelf2                              code  010d00
  CPU0_BIOS_STACK                           const  006800
  CPU0_DBG_STACK                            const  7cf000
  CPU0_IRQ_STACK                            const  032000
  CPU0_SYS_STACK                            const  005000
  CPU0_Start                                 code  010114
  CPU0_Start.cpy_loop                        code  010154
  CPU0_Start.zap_loop                        code  010130
  CPU1_BIOS_STACK                           const  031800
  CPU1_SYS_STACK                            const  031000
  CPU1_Start                                 code  0100b8
  CPU1_Start.0001                            code  0100cc
  CPU1_Start.0003                            code  0100ec
  CPUIdleTick                                 bss  c203d0
  CR                                        const  00000d
  CRLF                                       code  80000000000001eb
  CRLF_                                      code  0168c8
  CTRLC                                     const  000003
  CTRLCCheck                                 code  0115bc
  CTRLCCheck.0001                            code  0115e4
  CTRLH                                     const  000008
  CTRLI                                     const  000009
  CTRLJ                                     const  00000a
  CTRLK                                     const  00000b
  CTRLM                                     const  00000d
  CTRLS                                     const  000013
  CTRLX                                     const  000018
  CalcScreenLocation_                        code  016198
  CharsInRxBuf                               code  01069c
  CheckKeys                                  code  0115a8
  CheckMsg_                                rodata  000000
  CheckScrollLock                            code  0115ec
  CheckScrollLock.0001                       code  011610
  CheckScrollLock.0002                       code  0115f8
  ClearBmpScreen_                            code  0162f8
  ClearScreen_                               code  016234
  CopyScreenToVirtualScreen_                 code  0175d0
  CopyVirtualScreenToScreen_                 code  017504
  CursorCol                                   bss  c2013a
  CursorOff                                  code  010c40
  CursorOn                                   code  010c44
  CursorRow                                   bss  c20138
  CvtScreenToAscii_                          code  01abac
  DBG_STACK                                 const  007000
  DCB_LastErc                               const  000018
  DCB_Mbx                                   const  000048
  DCB_Name                                  const  000000
  DCB_ReentCount                            const  000038
  DCB_Resv1                                 const  000058
  DCB_Resv2                                 const  000060
  DCB_Size                                  const  000068
  DCB_StartBlock                            const  000020
  DCB_Type                                  const  00000c
  DCB_fSingleUser                           const  000039
  DCB_hJob                                  const  000040
  DCB_nBPB                                  const  000010
  DCB_nBlocks                               const  000028
  DCB_pCmdProc                              const  000030
  DCB_pSema                                 const  000050
  DRSP_DONE                                 const  000001
  DVC_BuildBPB                              const  000005
  DVC_Close                                 const  000007
  DVC_FlushInput                            const  000014
  DVC_FlushOutput                           const  000015
  DVC_GetChar                               const  000008
  DVC_GetCharDirect                         const  00000a
  DVC_IOCTRL_READ                           const  000018
  DVC_IOCTRL_WRITE                          const  000019
  DVC_IRQ                                   const  000016
  DVC_Initialize                            const  000002
  DVC_InputStatus                           const  00000c
  DVC_IsRemoveable                          const  000017
  DVC_MediaCheck                            const  000004
  DVC_Nop                                   const  000000
  DVC_Open                                  const  000006
  DVC_OutputStatus                          const  000013
  DVC_OutputUntilBusy                       const  00001a
  DVC_PeekChar                              const  000009
  DVC_PeekCharDirect                        const  00000b
  DVC_PutChar                               const  00000d
  DVC_ReadBlock                             const  000010
  DVC_SetPosition                           const  00000f
  DVC_Setup                                 const  000001
  DVC_Status                                const  000003
  DVC_VerifyBlock                           const  000012
  DVC_WriteBlock                            const  000011
  DequeThreadFromMbx_                      rodata  000000
  DequeueMsg_                                code  014744
  DequeueThreadFromMbx_                    rodata  000000
  DispBcc_                                   code  019374
  DispBrk_                                   code  018fc4
  DispCharAttr                               code  0109f4
  DispCharQ                                  code  010b84
  DispInc_                                   code  018e10
  DispIndexedAddr_                           code  0190a8
  DispJALI_                                  code  019560
  DispLS_                                    code  019224
  DispMemAddress_                            code  018d34
  DispRI_                                    code  0192a0
  DispRR_                                    code  019438
  DispRa_                                    code  018a94
  DispRac_                                   code  018a3c
  DispRb_                                    code  018aec
  DispReg_                                   code  01b5b0
  DispRegs_                                  code  01b46c
  DispRst_                                   code  01898c
  DispRstc_                                  code  0189e4
  DispSpr_                                   code  018b44
  DispStartMsg                               code  010cec
  DisplayByte                                code  010af4
  DisplayChar                                code  8000000000000812
  DisplayCharHex                             code  010ae0
  DisplayChar_                               code  016530
  DisplayErr                                 code  0116cc
  DisplayHalf                                code  010acc
  DisplayIRQLive_                            code  0133a8
  DisplayNybble                              code  010b08
  DisplayNybble.0001                         code  010b28
  DisplaySpace                               code  010d78
  DisplayString                              code  80000000000001fd
  DisplayString16                            code  010b38
  DisplayString16.dm1                        code  010b78
  DisplayString16.dm2                        code  010b54
  DisplayStringCRLF_                         code  01697c
  DisplayString_                             code  016918
  DisplayWord                                code  010ab8
  Dummy1                                      bss  c2013c
  DumpInsnBytes_                             code  018904
  DumpTaskList_                            rodata  015b6c
  E_BadFuncno                               const  000001
  E_BadMbx                                  const  000005
  E_Ok                                      const  000000
  E_Ok_                                       bss  11a3080
  E_Timeout                                 const  000010
  E_Unsupported                             const  000003
  EndStaticAllocations                        bss  c27000
  FMTKInitialize_                            code  013fa0
  FMTK_AllocMbx_                             code  0147d0
  FMTK_BrTbl_                                code  013370
  FMTK_CALL                                 const  000004
  FMTK_CheckMsg_                             code  01546c
  FMTK_ExitTask_                             code  013bd0
  FMTK_FreeMbx_                            rodata  01490c
  FMTK_Inited_                                bss  c29410
  FMTK_KillTask_                             code  800000000000029c
  FMTK_PeekMsg_                              code  015414
  FMTK_PostMsg_                              code  014e54
  FMTK_SchedulerIRQ_                         code  0137d8
  FMTK_SendMsg_                              code  014bc8
  FMTK_SetTaskPriority_                      code  013ec8
  FMTK_Sleep_                                code  013e30
  FMTK_StartTask_                            code  013d00
  FMTK_SystemCall_                           code  013618
  FMTK_SystemCall_.0001                      code  01371c
  FMTK_SystemCall_.bad_callno                code  0137cc
  FMTK_WaitMsg_                              code  0150e8
  FMTKc_11                                 rodata  01e000
  FMTKc_12                                   code  01360c
  FMTKc_13                                   code  0134ac
  FMTKc_14                                   code  0135fc
  FMTKc_15                                   code  0135f4
  FMTKc_16                                   code  0135e4
  FMTKc_18                                   code  013520
  FMTKc_19                                   code  013538
  FMTKc_20                                   code  013538
  FMTKc_21                                   code  0135e4
  FMTKc_22                                   code  0135ac
  FMTKc_24                                   code  0135ac
  FMTKc_26                                   code  013590
  FMTKc_27                                   code  0135e4
  FMTKc_30                                   code  013b4c
  FMTKc_31                                   code  013a74
  FMTKc_32                                   code  0138fc
  FMTKc_33                                   code  013a18
  FMTKc_34                                   code  013a74
  FMTKc_35                                   code  013a10
  FMTKc_36                                   code  013a14
  FMTKc_37                                   code  0139fc
  FMTKc_38                                   code  013a00
  FMTKc_39                                   code  013958
  FMTKc_40                                   code  0139cc
  FMTKc_41                                   code  013994
  FMTKc_42                                   code  0139c8
  FMTKc_43                                   code  0139e8
  FMTKc_45                                   code  013a74
  FMTKc_46                                   code  013b7c
  FMTKc_47                                   code  013b94
  FMTKc_48                                   code  013b80
  FMTKc_50                                   code  013bac
  FMTKc_51                                   code  013bc0
  FMTKc_52                                   code  013bc0
  FMTKc_53                                   code  013ccc
  FMTKc_54                                   code  013ce8
  FMTKc_55                                   code  013cc8
  FMTKc_57                                   code  013c40
  FMTKc_58                                   code  013cbc
  FMTKc_59                                   code  013cb4
  FMTKc_6                                    code  01342c
  FMTKc_60                                   code  013cb4
  FMTKc_62                                   code  013cd0
  FMTKc_63                                   code  013e24
  FMTKc_64                                   code  013d70
  FMTKc_66                                   code  013e00
  FMTKc_68                                   code  013e0c
  FMTKc_69                                   code  013ebc
  FMTKc_7                                    code  013418
  FMTKc_70                                   code  013ea0
  FMTKc_72                                   code  013ea8
  FMTKc_73                                   code  013f94
  FMTKc_74                                   code  013f1c
  FMTKc_76                                   code  013f00
  FMTKc_77                                   code  013f04
  FMTKc_78                                   code  013f8c
  FMTKc_8                                    data  c10b60
  FMTKc_80                                   code  013f78
  FMTKc_81                                   code  013f80
  FMTKc_82                                   code  014450
  FMTKc_83                                   code  014020
  FMTKc_84                                   code  014050
  FMTKc_85                                   code  014048
  FMTKc_86                                   code  01407c
  FMTKc_87                                   code  01417c
  FMTKc_88                                   code  014174
  FMTKc_89                                   code  0140f4
  FMTKc_9                                    data  c10b80
  FMTKc_90                                   code  01412c
  FMTKc_91                                   code  01418c
  FMTKc_92                                   code  0141b4
  FMTKc_93                                   code  0141ac
  FMTKc_94                                   code  0141b8
  FMTKc_95                                   code  014338
  FMTKc_96                                   code  014330
  FMTKc_97                                   code  014330
  FMTKc_99                                   code  014434
  FMTKmsg_1                                  code  014738
  FMTKmsg_10                                 code  014558
  FMTKmsg_100                                code  0151d4
  FMTKmsg_102                                code  0151b8
  FMTKmsg_104                                code  015178
  FMTKmsg_105                                code  015188
  FMTKmsg_106                                code  015378
  FMTKmsg_108                                code  01521c
  FMTKmsg_110                                code  0152d0
  FMTKmsg_112                                code  015288
  FMTKmsg_113                                code  0152c4
  FMTKmsg_114                                code  015314
  FMTKmsg_116                                code  015314
  FMTKmsg_118                                code  015338
  FMTKmsg_12                                 code  0145b8
  FMTKmsg_120                                code  015358
  FMTKmsg_122                                code  015364
  FMTKmsg_124                                code  015370
  FMTKmsg_126                                code  015384
  FMTKmsg_128                                code  015390
  FMTKmsg_130                                code  01539c
  FMTKmsg_132                                code  015400
  FMTKmsg_134                                code  015460
  FMTKmsg_135                                code  01544c
  FMTKmsg_136                                code  015604
  FMTKmsg_137                                code  01555c
  FMTKmsg_139                                code  015520
  FMTKmsg_14                                 code  0145ac
  FMTKmsg_141                                code  0154f8
  FMTKmsg_142                                code  015540
  FMTKmsg_143                                code  015550
  FMTKmsg_144                                code  015568
  FMTKmsg_146                                code  015574
  FMTKmsg_148                                code  015580
  FMTKmsg_150                                code  01558c
  FMTKmsg_152                                code  0155fc
  FMTKmsg_154                                code  0155fc
  FMTKmsg_16                                 code  0145b8
  FMTKmsg_17                                 code  01467c
  FMTKmsg_18                                 code  0145dc
  FMTKmsg_19                                 code  014624
  FMTKmsg_2                                  code  01472c
  FMTKmsg_20                                 code  01466c
  FMTKmsg_22                                 code  0146bc
  FMTKmsg_24                                 code  01469c
  FMTKmsg_25                                 code  0146ec
  FMTKmsg_26                                 code  014700
  FMTKmsg_29                                 code  0147b8
  FMTKmsg_31                                 code  0147b8
  FMTKmsg_33                                 code  0147b0
  FMTKmsg_35                                 code  0147bc
  FMTKmsg_36                                 code  014900
  FMTKmsg_37                                 code  014830
  FMTKmsg_39                                 code  014810
  FMTKmsg_4                                  code  0146c0
  FMTKmsg_40                                 code  0148a0
  FMTKmsg_42                                 code  014870
  FMTKmsg_44                                 code  01485c
  FMTKmsg_45                                 code  014acc
  FMTKmsg_46                                 code  014ac4
  FMTKmsg_48                                 code  0149d0
  FMTKmsg_5                                  code  0144dc
  FMTKmsg_50                                 code  0149b0
  FMTKmsg_51                                 code  0149d0
  FMTKmsg_52                                 code  014a28
  FMTKmsg_53                                 code  014a28
  FMTKmsg_54                                 code  014a90
  FMTKmsg_55                                 code  014a44
  FMTKmsg_57                                 code  014a74
  FMTKmsg_59                                 code  014bbc
  FMTKmsg_6                                  code  0144e0
  FMTKmsg_60                                 code  014b2c
  FMTKmsg_62                                 code  014b14
  FMTKmsg_63                                 code  014bb4
  FMTKmsg_65                                 code  014b98
  FMTKmsg_67                                 code  014e48
  FMTKmsg_68                                 code  014d44
  FMTKmsg_7                                  code  014568
  FMTKmsg_70                                 code  014c84
  FMTKmsg_72                                 code  014c50
  FMTKmsg_73                                 code  014c60
  FMTKmsg_74                                 code  014cb0
  FMTKmsg_76                                 code  014c9c
  FMTKmsg_77                                 code  014d64
  FMTKmsg_79                                 code  014e40
  FMTKmsg_8                                  code  0144e0
  FMTKmsg_81                                 code  014e1c
  FMTKmsg_83                                 code  0150dc
  FMTKmsg_84                                 code  014fd0
  FMTKmsg_86                                 code  014f10
  FMTKmsg_88                                 code  014edc
  FMTKmsg_89                                 code  014eec
  FMTKmsg_9                                  code  014564
  FMTKmsg_90                                 code  014f3c
  FMTKmsg_92                                 code  014f28
  FMTKmsg_93                                 code  014ff8
  FMTKmsg_95                                 code  0150d4
  FMTKmsg_97                                 code  0150b0
  FMTKmsg_99                                 code  015408
  ForceIOFocus_                              code  0171a0
  ForceReleaseIOFocus_                       code  017410
  GetCurrAttr_                               code  015d38
  GetCursorPos_                              code  015ec4
  GetHexNumber                               code  011620
  GetHexNumber.gthxn1                        code  011650
  GetHexNumber.gthxn2                        code  011634
  GetJCBPtr_                               rodata  0133b4
  GetNormAttr_                               code  01884c
  GetPixel                                   code  8000000000000141
  GetRandomNumber                            code  0118a0
  GetRange                                   code  0111c0
  GetRunningTCBPtr_                        rodata  015630
  GetRunningTCB_                           rodata  015638
  GetScreenLocation_                         code  015cf0
  GetSystemTime                              code  011038
  GetTextCols_                               code  015f28
  GetTextRows_                               code  015f70
  GetTwoParams                               code  0111a4
  GetVBR_                                    code  013240
  GetVecno_                                rodata  0133a0
  HomeCursor_                                code  01613c
  I2C_CMD                                   const  000004
  I2C_CONTROL                               const  000002
  I2C_ERR                                    code  01197c
  I2C_INIT                                   code  0118ac
  I2C_MASTER                                const  ffdc0e00
  I2C_PRESCALE_HI                           const  000001
  I2C_PRESCALE_LO                           const  000000
  I2C_READ                                   code  0118e0
  I2C_RX                                    const  000003
  I2C_STAT                                  const  000004
  I2C_TX                                    const  000003
  I2C_WAIT_TC                                code  011a14
  I2C_WAIT_TC.0001                           code  011a14
  I2C_WRITE                                  code  011994
  IOFocusNdx_                                 bss  10d7020
  IOFocusTbl_                                 bss  10d7028
  IOFocusc_0                                 code  01721c
  IOFocusc_1                                 code  017200
  IOFocusc_11                                code  0172b0
  IOFocusc_12                                code  0173b8
  IOFocusc_13                                code  017398
  IOFocusc_15                                code  017350
  IOFocusc_16                                code  017378
  IOFocusc_17                                code  01739c
  IOFocusc_18                                code  017404
  IOFocusc_19                                code  0173f0
  IOFocusc_20                                code  0174f8
  IOFocusc_21                                code  0174dc
  IOFocusc_23                                code  017494
  IOFocusc_25                                code  0174dc
  IOFocusc_27                                code  0174cc
  IOFocusc_28                                code  0174d4
  IOFocusc_29                                code  0174e0
  IOFocusc_3                                 code  017204
  IOFocusc_30                                code  0175c4
  IOFocusc_31                                code  017550
  IOFocusc_32                                code  017578
  IOFocusc_33                                code  017570
  IOFocusc_34                                code  0175a4
  IOFocusc_36                                code  017610
  IOFocusc_37                                code  017638
  IOFocusc_38                                code  017630
  IOFocusc_39                                code  017638
  IOFocusc_4                                 code  0172cc
  IOFocusc_5                                 code  0172ac
  IOFocusc_7                                 code  0172ac
  IOFocusc_9                                 code  0172ac
  IdleTask_                                  code  013ba0
  IncrementCursorPos_                        code  0164b4
  IncrementCursorRow_                        code  01642c
  InitPIC_                                   code  0132dc
  InitUart                                   code  0104b8
  InputVec                                    bss  c20118
  InsertIntoReadyList_                       code  015670
  InsertIntoTimeoutList_                     code  0158d8
  JCB_Array                                  code  8000000000000203
  JCB_KeybdBuffer                            code  800000000000020c
  JCB_KeybdHead                              code  8000000000000205
  JCB_KeybdTail                              code  8000000000000206
  JCB_NormAttr                               code  8000000000000151
  JCB_Size                                   code  8000000000000202
  KEYBD                                     const  ffdc0000
  KEYBDCLR                                  const  ffdc0004
  KEYBD_DELAY                               const  0003e8
  KeyState1_                                 code  8000000000000222
  KeyState2_                                 code  8000000000000225
  KeybdBad                                    bss  c2013f
  KeybdClearRcv_                           rodata  011ddc
  KeybdEcho                                   bss  c2013e
  KeybdGetBufferStatus_                      code  016be4
  KeybdGetBufferedCharNoWait_                code  01708c
  KeybdGetBufferedCharWait_                  code  017028
  KeybdGetBufferedChar_                      code  016d70
  KeybdGetBufferedScancode_                  code  016c84
  KeybdGetChar                               code  011e90
  KeybdGetChar.0001                          code  011ec4
  KeybdGetChar.0003                          code  011e9c
  KeybdGetChar.0004                          code  01205c
  KeybdGetChar.0005                          code  012150
  KeybdGetChar.0006                          code  011ec0
  KeybdGetChar.0007                          code  011fbc
  KeybdGetChar.0008                          code  011fd0
  KeybdGetChar.0009                          code  011f9c
  KeybdGetChar.0010                          code  011f78
  KeybdGetChar.0011                          code  0120c4
  KeybdGetChar.0012                          code  01210c
  KeybdGetChar.0013                          code  011f3c
  KeybdGetChar.doAlt                         code  01207c
  KeybdGetChar.doCapsLock                    code  012194
  KeybdGetChar.doCtrl                        code  012020
  KeybdGetChar.doExtend                      code  012000
  KeybdGetChar.doKeyup                       code  011fec
  KeybdGetChar.doNumLock                     code  012170
  KeybdGetChar.doScrollLock                  code  0121b8
  KeybdGetChar.doShift                       code  012114
  KeybdGetChar.doTab                         code  0120e4
  KeybdGetCharDirect                         code  011b1c
  KeybdGetCharDirect.0001                    code  011b24
  KeybdGetCharDirect.gk1                     code  011b70
  KeybdGetCharDirect.gk2                     code  011b68
  KeybdGetCharDirectNB                       code  011aa0
  KeybdGetCharDirectNB.0001                  code  011b08
  KeybdGetCharDirectNB.0002                  code  011afc
  KeybdGetCharDirectNB.0003                  code  011af4
  KeybdGetCharNoWait                         code  011e78
  KeybdGetCharWait                           code  011e84
  KeybdGetScancode                           code  8000000000000211
  KeybdGetScancode_                        rodata  011d08
  KeybdGetScancode_.0001                     code  011dd0
  KeybdGetScancode_.0002                     code  011dc0
  KeybdGetStatus                             code  800000000000020f
  KeybdGetStatus_                          rodata  011c60
  KeybdGetStatus_.0001                       code  011cfc
  KeybdGetStatus_.0002                       code  011cf0
  KeybdIRQ                                   code  0122c0
  KeybdIRQ.0001                              code  0123a8
  KeybdIRQ.0002                              code  0123c0
  KeybdIRQ1                                  code  0123c8
  KeybdIRQ_                                  code  0169d0
  KeybdInit                                  code  011bae
  KeybdInit.0001                             code  011bb8
  KeybdInit.0002                             code  011bc8
  KeybdInit.0004                             code  011c48
  KeybdInit.config                           code  011c04
  KeybdInit.keybdErr                         code  011c34
  KeybdInit.tryAgain                         code  011c2c
  KeybdLEDs                                   bss  c20143
  KeybdLocks                                  bss  c20140
  KeybdRecvByte                              code  011de8
  KeybdRecvByte.0003                         code  011df4
  KeybdRecvByte.0004                         code  011e18
  KeybdSendByte                              code  012284
  KeybdSetLEDStatus                          code  0121dc
  KeybdSetLEDStatus.0001                     code  012274
  KeybdSetLEDStatus.0002                     code  012210
  KeybdSetLEDStatus.0003                     code  01222c
  KeybdSetLEDStatus.0004                     code  012248
  KeybdWaitFlag                               bss  c20142
  KeybdWaitTx                                code  011e28
  KeybdWaitTx.0001                           code  011e38
  KeybdWaitTx.0002                           code  011e64
  LEDS                                      const  ffdc0600
  LF                                        const  00000a
  LoadFromSerial                             code  012964
  LoadFromSerial.0001                        code  012978
  LockBIOS                                   code  010d90
  LockBIOS1                                  code  010dd4
  LockIOF_                                 rodata  01e190
  LockSYS                                    code  8000000000000204
  LockSYS_                                 rodata  01e158
  LockSema                                 rodata  01e0e0
  LockSema.0001                            rodata  01e0ec
  LockSema.0002                            rodata  01e11c
  LockSema.0003                            rodata  01e104
  LockSemaphore_                             code  0170f0
  LockSemaphore_.0001                        code  017108
  LockSemaphore_.0002                        code  017140
  LockSemaphore_.0003                        code  017128
  LockSemaphore_.0004                        code  017148
  LockSemaphore_.0005                        code  01714c
  LockSemaphore_1                            code  01714c
  LockVideoBIOS                              code  010958
  MAX_BIOS_CALL                             const  000064
  MAX_DEV_OP                                const  00001f
  MAX_VIDEO_BIOS_CALL                       const  000023
  MON_STACK                                 const  006000
  MON_r1                                      bss  c20008
  MON_r10                                     bss  c20050
  MON_r11                                     bss  c20058
  MON_r12                                     bss  c20060
  MON_r13                                     bss  c20068
  MON_r14                                     bss  c20070
  MON_r15                                     bss  c20078
  MON_r16                                     bss  c20080
  MON_r17                                     bss  c20088
  MON_r18                                     bss  c20090
  MON_r19                                     bss  c20098
  MON_r2                                      bss  c20010
  MON_r20                                     bss  c200a0
  MON_r21                                     bss  c200a8
  MON_r22                                     bss  c200b0
  MON_r23                                     bss  c200b8
  MON_r24                                     bss  c200c0
  MON_r25                                     bss  c200c8
  MON_r26                                     bss  c200d0
  MON_r27                                     bss  c200d8
  MON_r28                                     bss  c200e0
  MON_r29                                     bss  c200e8
  MON_r3                                      bss  c20018
  MON_r30                                     bss  c200f0
  MON_r31                                     bss  c200f8
  MON_r4                                      bss  c20020
  MON_r5                                      bss  c20028
  MON_r6                                      bss  c20030
  MON_r7                                      bss  c20038
  MON_r8                                      bss  c20040
  MON_r9                                      bss  c20048
  MicroDelay                                 code  012934
  MicroDelay.0001                            code  012940
  Milliseconds                                bss  c20108
  Milliseconds_                            rodata  000000
  MonGetch                                   code  011158
  Monitor                                    code  011084
  NR_DCB                                    const  000020
  NR_JCB                                     code  8000000000000200
  NUMWKA                                      bss  c20144
  NormAttr                                    bss  c20130
  OutChar                                    code  011298
  OutputVec                                   bss  c20110
  PIC                                       const  ffdc0fc0
  PIC_1                                      code  013250
  PIC_10                                     code  013330
  PIC_11                                     code  013344
  PIC_12                                     code  013344
  PIC_2                                      code  0132d0
  PIC_3                                      code  013294
  PIC_5                                      code  013280
  PIC_6                                      code  0132ac
  PIC_8                                      code  0132a8
  PIC_9                                      code  013358
  PIC_ES                                    const  ffdc0fd0
  PIC_IE                                    const  ffdc0fc4
  PIC_RSTE                                  const  ffdc0fd4
  PN1                                        code  010bc8
  PN2                                        code  010bc8
  PN3                                        code  010be8
  PN4                                        code  010bf4
  PN5                                        code  010c00
  PN6                                        code  010be4
  PNRET                                      code  010c18
  PROG_LOAD_AREA                            const  c23000
  PRTNUM                                     code  010b98
  PopTimeoutList_                          rodata  015ad8
  PrintSc_                                   code  018f58
  QueueMsg_                                  code  014460
  RANDOM_NUM                                const  ffdc0c00
  ROMChecksum                                code  010d04
  ROMChecksum.0001                           code  010d1c
  ROOTDIR_BUF                                 bss  c23000
  RTCCOscOn                                  code  011a7c
  RTCCReadbuf                                code  011a24
  RTCCReadbuf.0001                           code  011a30
  RTCCWritebuf                               code  011a50
  RTCCWritebuf.0001                          code  011a5c
  RTCC_BUF                                    bss  c203f0
  RTCC_BUF_                                rodata  000000
  RW_READ_SD_BLOCK                          const  000002
  RW_WRITE_SD_BLOCK                         const  000003
  ReleaseIOFocus_                            code  0173c4
  RemoveFromReadyList_                       code  0157b0
  RemoveFromTimeoutList_                     code  015a24
  RequestIOFocus_                          rodata  0172d8
  RestoreContext                             code  013a94
  SC_ALT                                    const  000011
  SC_CAPSLOCK                               const  000058
  SC_CTRL                                   const  000014
  SC_DEL                                    const  000071
  SC_EXTEND                                 const  0000e0
  SC_KEYUP                                  const  0000f0
  SC_LCTRL                                  const  000058
  SC_LSHIFT                                 const  000012
  SC_NUMLOCK                                const  000077
  SC_RSHIFT                                 const  000059
  SC_SCROLLLOCK                             const  00007e
  SC_TAB                                    const  00000d
  SDDiskSize                                 code  80000000000000c6
  SDInit                                     code  80000000000000c2
  SDReadBoot                                 code  80000000000001a5
  SDReadMultiple                             code  80000000000000c3
  SDReadPart                                 code  80000000000000c5
  SDWriteMultiple                            code  80000000000000c4
  SD_2_0                                     code  8000000000000246
  SD_CMD8                                    code  01271c
  SD_CMD8.0001                               code  01278c
  SD_CMD8.0002                               code  012794
  SD_CMD8.0003                               code  0127f0
  SD_CMD8.0004                               code  0127a4
  SD_CMD8.respOk                             code  012834
  SD_INIT                                    code  0126d0
  SD_MASTER                                 const  ffdc0b00
  SD_WAIT_RESP                               code  01284c
  SD_WAIT_RESP.0001                          code  012860
  SD_WAIT_RESP.0002                          code  01288c
  SECTOR_BUF                                  bss  c22000
  SPIMASTER                                 const  ffdc0500
  SPI_DIRECT_ACCESS_DATA_REG                const  000018
  SPI_INIT_NO_ERROR                         const  000000
  SPI_INIT_SD                               const  000001
  SPI_MASTER_CONTROL_REG                    const  000004
  SPI_MASTER_VERSION_REG                    const  000000
  SPI_READ_NO_ERROR                         const  000000
  SPI_RESP_BYTE1                            const  0000c0
  SPI_RESP_BYTE2                            const  0000c4
  SPI_RESP_BYTE3                            const  0000c8
  SPI_RESP_BYTE4                            const  0000cc
  SPI_RX_FIFO_CTRL_REG                      const  000050
  SPI_RX_FIFO_DATA_COUNT_LSB                const  00004c
  SPI_RX_FIFO_DATA_COUNT_MSB                const  000048
  SPI_RX_FIFO_DATA_REG                      const  000040
  SPI_SD_SECT_15_8_REG                      const  000020
  SPI_SD_SECT_23_16_REG                     const  000024
  SPI_SD_SECT_31_24_REG                     const  000028
  SPI_SD_SECT_7_0_REG                       const  00001c
  SPI_TRANS_BUSY                            const  000001
  SPI_TRANS_CTRL_REG                        const  00000c
  SPI_TRANS_ERROR_REG                       const  000014
  SPI_TRANS_START                           const  000001
  SPI_TRANS_STATUS_REG                      const  000010
  SPI_TRANS_TYPE_REG                        const  000008
  SPI_TX_FIFO_CTRL_REG                      const  000090
  SPI_TX_FIFO_DATA_REG                      const  000080
  SPI_WRITE_NO_ERROR                        const  000000
  SSM_ISR                                    code  012c14
  ScreenToAscii_                             code  016054
  ScrollUp_                                  code  016420
  SelectTaskToRun_                           code  013440
  SerialCheckForCharDirect                   code  010564
  SerialGetChar                              code  0106cc
  SerialGetCharDirect                        code  010548
  SerialIRQ                                  code  0107b8
  SerialPutChar                              code  010574
  SerialStartMsg                             code  0102c8
  ServiceRequestIRQ                          code  80000000000000fc
  SetBkColor                                 code  800000000000013f
  SetCurrAttr_                               code  015d80
  SetCursorCol_                              code  015e68
  SetCursorPos_                              code  015e04
  SetMbxMsgQueStrategy_                      code  014ad8
  SetNormAttr_                               code  018820
  SetPixel                                   code  8000000000000140
  SetRunningTCB_                             code  015648
  SetVideoReg_                             rodata  015dd8
  SetupIntVectors                            code  0102fc
  SetupIntVectors.0001                       code  010318
  SetupIntVectors1                           code  0103ec
  SetupIntVectors1.0001                      code  010408
  SetupMemtags                               code  0128f0
  StartCPU1Addr                               bss  c203c8
  StartCPU1Flag                               bss  c203c0
  SwitchIOFocus_                             code  017228
  TAB                                       const  000009
  TCB_1                                      code  015624
  TCB_11                                     code  0156c0
  TCB_12                                     code  0156c4
  TCB_13                                     code  01570c
  TCB_15                                     code  01576c
  TCB_18                                     code  015824
  TCB_20                                     code  015808
  TCB_21                                     code  01580c
  TCB_22                                     code  01585c
  TCB_24                                     code  015894
  TCB_27                                     code  01595c
  TCB_29                                     code  015944
  TCB_30                                     code  015974
  TCB_31                                     code  0159b0
  TCB_32                                     code  0159f0
  TCB_34                                     code  015a08
  TCB_35                                     code  015a10
  TCB_37                                     code  015a94
  TCB_39                                     code  015ab0
  TCB_41                                     code  015ac4
  TCB_43                                     code  015b54
  TCB_45                                     code  015b54
  TCB_47                                     code  015b5c
  TCB_48                                   rodata  01e094
  TCB_49                                   rodata  01e040
  TCB_50                                     code  015cc0
  TCB_51                                     code  015cd8
  TCB_52                                     code  015ba0
  TCB_53                                     code  015cc0
  TCB_54                                     code  015cb8
  TCB_55                                     code  015cb8
  TCB_57                                     code  015bf0
  TCB_58                                     code  015cb8
  TCB_59                                     code  015c6c
  TCB_61                                     code  015c68
  TCB_62                                     code  015c94
  TCB_64                                     code  015cb8
  TCB_65                                     code  015cc0
  TCB_7                                      code  015664
  TCB_9                                      code  0156dc
  TCB_BIOS_Stack                            const  000280
  TCB_SYS_Stack                              code  800000000000025c
  TCB_hJCB                                   code  80000000000001ff
  TEXTREG                                   const  0a0000
  TEXTSCR                                   const  ffd00000
  TEXT_COLS                                 const  000000
  TEXT_CURCTL                               const  000020
  TEXT_CURPOS                               const  00002c
  TEXT_ROWS                                 const  000004
  TXTCOLS                                   const  000054
  TXTROWS                                   const  00001f
  Tick1024Rout                               code  011010
  TickRout                                   code  010fac
  TickRout.0001                              code  010fd4
  TickVec                                     bss  c20128
  Ticks                                       bss  c20000
  TimeoutList_                                bss  11e3408
  ToJul_                                     code  012e24
  UART                                      const  ffdc0a00
  UART_CM0                                  const  000008
  UART_CM1                                  const  000009
  UART_CM2                                  const  00000a
  UART_CM3                                  const  00000b
  UART_CTRL                                 const  000007
  UART_FF                                   const  000005
  UART_IE                                   const  000004
  UART_IS                                   const  000003
  UART_LS                                   const  000001
  UART_MC                                   const  000006
  UART_MS                                   const  000002
  UART_RX                                   const  000000
  UART_SPR                                  const  00000f
  UART_TX                                   const  000000
  Uart_foff                                   bss  c20196
  Uart_fon                                    bss  c20198
  Uart_ms                                     bss  c2018c
  Uart_rxdtr                                  bss  c20194
  Uart_rxfifo                                 bss  c2019d
  Uart_rxflow                                 bss  c20192
  Uart_rxhead                                 bss  c2018e
  Uart_rxrts                                  bss  c20193
  Uart_rxtail                                 bss  c20190
  Uart_rxxon                                  bss  c20195
  Uart_txdtr                                  bss  c2019b
  Uart_txrts                                  bss  c2019a
  Uart_txxon                                  bss  c2019c
  Uart_txxonoff                               bss  c2018d
  UninitIRQ                                  code  012b5c
  UninitIRQ.0001                             code  012b80
  UnlockBIOS                                 code  010db8
  UnlockBIOS1                                code  010dfc
  UnlockIOF_                               rodata  01e1ac
  UnlockSYS                                  code  8000000000000207
  UnlockSYS_                               rodata  01e174
  UnlockSema                               rodata  01e128
  UnlockSema.0001                          rodata  01e130
  UnlockSema.0002                          rodata  01e14c
  UnlockSemaphore_                           code  017160
  UnlockSemaphore_.0001                      code  017170
  UnlockSemaphore_.0002                      code  01718c
  UnlockSemaphore_1                          code  01718c
  UnlockVideoBIOS                            code  010974
  UpdateCursorPos_                           code  0160c0
  UserTickRout                               code  010fe0
  VBAsciiToScreen                            code  010a8c
  VBDisplayChar                              code  010a78
  VBDisplayString                            code  8000000000000142
  VBDisplayString16                          code  8000000000000144
  VBGetCurrAttr                              code  010ab4
  VBGetCursorPos                             code  010a6c
  VBScreenToAscii                            code  010c2c
  VBScrollUp                                 code  010c48
  VBScrollUp.0001                            code  010c9c
  VBSetCurrAttr                              code  010aa0
  VBSetCursorPos                             code  010a54
  VideoBIOSCall                              code  010990
  VideoBIOSCall.0003                         code  0109e4
  VideoBIOSCall.0004                         code  0109d0
  VideoBIOSCall.0005                         code  0109ec
  VideoBIOSSema                             const  ffdb0000
  VideoBIOS_FuncTable                        code  010910
  VideoBIOS_sema                              bss  c20100
  Wait10ms                                   code  012290
  Wait10ms.0001                              code  01229c
  Wait10ms.0002                              code  0122b4
  XOFF                                      const  000013
  XON                                       const  000011
  _LockSema                                rodata  01e1d0
  _LockSema.0001                           rodata  01e1dc
  _LockSema.0002                           rodata  01e214
  _LockSema.0003                           rodata  01e1fc
  _LockSema.0004                           rodata  01e224
  _UnlockSema                              rodata  01e238
  _UnlockSema.0001                         rodata  01e240
  _UnlockSema.0002                         rodata  01e25c
  badaddr                                    code  01ce10
  begin_init_data                          rodata  01f310
  berr_rout                                  code  012bac
  bios_stacks_                                bss  f45000
  bmem_                                       bss  11e6640
  brkpt1                                     code  0128f8
  brkpt1.0001                                code  012914
  chkTCB_                                    code  015610
  cirxb1                                     code  0106c8
  cmem_                                       bss  11e6648
  console_0                                  code  015d2c
  console_1                                  code  015d18
  console_10                                 code  015eb8
  console_11                                 code  015ea0
  console_12                                 code  015f1c
  console_13                                 code  015f04
  console_14                                 code  015f64
  console_15                                 code  015f50
  console_16                                 code  015fac
  console_17                                 code  015f98
  console_19                                 code  015fe0
  console_2                                  code  015d74
  console_21                                 code  015fd4
  console_22                                 code  015ff4
  console_24                                 code  016024
  console_26                                 code  01603c
  console_29                                 code  016088
  console_3                                  code  015d60
  console_31                                 code  01607c
  console_32                                 code  01609c
  console_34                                 code  0160b4
  console_36                                 code  016130
  console_37                                 code  016118
  console_38                                 code  01618c
  console_39                                 code  016174
  console_4                                  code  015dcc
  console_40                                 code  016228
  console_41                                 code  016210
  console_42                                 code  0162ec
  console_43                                 code  0162d4
  console_44                                 code  016340
  console_45                                 code  01632c
  console_46                                 code  016414
  console_47                                 code  0163fc
  console_5                                  code  015db8
  console_50                                 code  0164a8
  console_51                                 code  016490
  console_53                                 code  016478
  console_54                                 code  016524
  console_55                                 code  016518
  console_57                                 code  016500
  console_58                                 code  0168bc
  console_59                                 code  0168a0
  console_60                                 code  0165c0
  console_61                                 code  0165cc
  console_62                                 code  0165d4
  console_63                                 code  0165fc
  console_64                                 code  01661c
  console_65                                 code  01663c
  console_66                                 code  016664
  console_67                                 code  01667c
  console_68                                 code  016738
  console_69                                 code  01680c
  console_7                                  code  015df8
  console_70                                 code  016818
  console_71                                 code  01684c
  console_72                                 code  0165f8
  console_74                                 code  016618
  console_76                                 code  016638
  console_78                                 code  016660
  console_8                                  code  015e5c
  console_80                                 code  016670
  console_82                                 code  016694
  console_83                                 code  0166e4
  console_84                                 code  0166dc
  console_85                                 code  016808
  console_87                                 code  016768
  console_88                                 code  0167b8
  console_89                                 code  0167b0
  console_9                                  code  015e44
  console_90                                 code  0168a0
  console_91                                 code  01690c
  console_92                                 code  0168f8
  console_93                                 code  016970
  console_94                                 code  016938
  console_95                                 code  016958
  console_96                                 code  016958
  console_97                                 code  0169b8
  console_98                                 code  0169a4
  cr0save_                                    bss  11e65f8
  ctype_1                                    code  018234
  ctype_11                                   code  0182a4
  ctype_13                                   code  0182ec
  ctype_15                                   code  0182e0
  ctype_16                                   code  01830c
  ctype_19                                   code  018348
  ctype_21                                   code  01833c
  ctype_22                                   code  018368
  ctype_24                                   code  018388
  ctype_27                                   code  0183b8
  ctype_29                                   code  0183ac
  ctype_3                                    code  018228
  ctype_30                                   code  0183cc
  ctype_32                                   code  0183e0
  ctype_34                                   code  0183f4
  ctype_36                                   code  018408
  ctype_39                                   code  018440
  ctype_4                                    code  018254
  ctype_41                                   code  018448
  ctype_43                                   code  018484
  ctype_45                                   code  01848c
  ctype_47                                   code  0184c4
  ctype_48                                   code  0184c8
  ctype_49                                   code  0184cc
  ctype_51                                   code  018504
  ctype_52                                   code  018508
  ctype_53                                   code  01850c
  ctype_55                                   code  018604
  ctype_56                                   code  0185ec
  ctype_57                                   code  0185fc
  ctype_58                                   code  0185f0
  ctype_59                                   code  018674
  ctype_6                                    code  018274
  ctype_60                                   code  018658
  ctype_61                                   code  01865c
  ctype_62                                   code  018650
  ctype_63                                   code  018660
  ctype_64                                   code  0186e0
  ctype_65                                   code  0186c4
  ctype_66                                   code  0186c8
  ctype_67                                   code  0186bc
  ctype_68                                   code  0186cc
  ctype_70                                   code  018748
  ctype_71                                   code  018730
  ctype_72                                   code  018740
  ctype_73                                   code  018734
  ctype_9                                    code  0182b0
  curaddr_                                    bss  11e6610
  curfill_                                    bss  11e6620
  curfmt_                                     bss  11e6628
  currep_                                     bss  11e6630
  cursz_                                      bss  11e6618
  dbg_DisplayHelp_                           code  01a920
  dbg_GetCursorCol_                          code  01aa6c
  dbg_GetCursorRow_                          code  01aa48
  dbg_GetDBAD_                               code  01aab8
  dbg_HomeCursor_                            code  01aa90
  dbg_ReadSetDB_                             code  01b090
  dbg_ReadSetDSB_                            code  01b280
  dbg_ReadSetIB_                             code  01aed0
  dbg_SetDBAD_                               code  01ab1c
  dbg_arm_                                   code  01ab8c
  dbg_dbctrl_                                 bss  11e64f0
  dbg_getDecNumber_                          code  01b660
  dbg_getDumpFormat_                         code  01b8c0
  dbg_getHexNumber_                          code  01ada0
  dbg_getchar_                               code  01abd0
  dbg_init_                                  code  01cd10
  dbg_irq_                                   code  01c814
  dbg_nextNonSpace_                          code  01aca4
  dbg_nextSpace_                             code  01ad2c
  dbg_parse_begin_                           code  01b81c
  dbg_parse_line_                            code  01bac0
  dbg_processReg_                            code  01b720
  dbg_prompt_                                code  01b60c
  dbg_stack_                                  bss  11e44f0
  dbg_ungetch_                               code  01ac78
  debugger_                                  code  01ca50
  debugger_1                               rodata  01f260
  debugger_10                              rodata  01ef4c
  debugger_100                               code  01b26c
  debugger_101                               code  01b174
  debugger_102                               code  01b1c0
  debugger_103                               code  01b26c
  debugger_105                               code  01b258
  debugger_106                               code  01b26c
  debugger_109                             rodata  01ed28
  debugger_11                              rodata  01eedc
  debugger_110                             rodata  01ecfe
  debugger_111                               code  01b460
  debugger_112                               code  01b2cc
  debugger_114                               code  01b2b4
  debugger_115                               code  01b3b4
  debugger_116                               code  01b45c
  debugger_117                               code  01b364
  debugger_118                               code  01b3b0
  debugger_119                               code  01b45c
  debugger_12                              rodata  01ee6e
  debugger_121                               code  01b448
  debugger_122                               code  01b45c
  debugger_126                             rodata  01ecc6
  debugger_127                             rodata  01ec92
  debugger_128                             rodata  01ec58
  debugger_129                             rodata  01ec1c
  debugger_13                              rodata  01ee16
  debugger_130                             rodata  01ebe0
  debugger_131                             rodata  01eba6
  debugger_132                             rodata  01eb6a
  debugger_133                             rodata  01eb40
  debugger_134                               code  01b5a4
  debugger_135                               code  01b58c
  debugger_137                             rodata  01eb2e
  debugger_138                               code  01b600
  debugger_139                               code  01b5ec
  debugger_14                              rodata  01edee
  debugger_140                             rodata  01eb20
  debugger_141                               code  01b648
  debugger_142                               code  01b634
  debugger_143                               code  01b710
  debugger_144                               code  01b6a4
  debugger_146                               code  01b68c
  debugger_147                               code  01b6ac
  debugger_148                               code  01b6f4
  debugger_149                               code  01b810
  debugger_15                              rodata  01ede0
  debugger_150                               code  01b80c
  debugger_151                               code  01b75c
  debugger_152                               code  01b764
  debugger_153                               code  01b808
  debugger_155                               code  01b808
  debugger_156                               code  01b7b8
  debugger_157                               code  01b7d4
  debugger_158                               code  01b804
  debugger_159                               code  01b7c0
  debugger_16                                code  01aa3c
  debugger_160                               code  01b800
  debugger_162                               code  01b8a8
  debugger_163                               code  01b884
  debugger_165                               code  01b890
  debugger_166                               code  01baa8
  debugger_167                               code  01b93c
  debugger_169                               code  01ba80
  debugger_17                                code  01aa28
  debugger_170                               code  01b96c
  debugger_171                               code  01b998
  debugger_172                               code  01b9c4
  debugger_173                               code  01b994
  debugger_175                               code  01b9c0
  debugger_177                               code  01ba5c
  debugger_178                               code  01ba04
  debugger_179                               code  01ba18
  debugger_180                               code  01ba2c
  debugger_181                               code  01ba40
  debugger_182                               code  01ba54
  debugger_183                               code  01ba7c
  debugger_185                               code  01ba80
  debugger_186                             rodata  01eb0c
  debugger_187                             rodata  01eaf8
  debugger_188                             rodata  01eae4
  debugger_189                             rodata  01ead0
  debugger_19                                code  01aa60
  debugger_190                             rodata  01eaca
  debugger_191                             rodata  01eab6
  debugger_192                             rodata  01eaa2
  debugger_193                             rodata  01ea8e
  debugger_194                             rodata  01ea7a
  debugger_195                             rodata  01ea64
  debugger_196                             rodata  01ea4e
  debugger_197                             rodata  01ea38
  debugger_198                             rodata  01ea22
  debugger_199                             rodata  01ea1c
  debugger_2                               rodata  01f24c
  debugger_200                             rodata  01ea16
  debugger_201                             rodata  01ea06
  debugger_202                             rodata  01e9f6
  debugger_203                             rodata  01e9e6
  debugger_204                             rodata  01e9d6
  debugger_205                             rodata  01e9ca
  debugger_206                             rodata  01e9be
  debugger_207                             rodata  01e9b2
  debugger_208                             rodata  01e9a4
  debugger_209                             rodata  01e99e
  debugger_21                                code  01aa84
  debugger_210                               code  01c808
  debugger_211                               code  01bb30
  debugger_212                               code  01c800
  debugger_213                               code  01c7fc
  debugger_214                               code  01bbb0
  debugger_215                               code  01bbe0
  debugger_216                               code  01bbe4
  debugger_217                               code  01bbec
  debugger_218                               code  01bbf4
  debugger_219                               code  01bc08
  debugger_220                               code  01bda0
  debugger_221                               code  01c1dc
  debugger_222                               code  01c1e4
  debugger_223                               code  01c2b0
  debugger_224                               code  01c45c
  debugger_225                               code  01bbb0
  debugger_226                               code  01bd9c
  debugger_227                               code  01bc48
  debugger_228                               code  01bd6c
  debugger_229                               code  01bd78
  debugger_23                                code  01aaac
  debugger_230                               code  01bd84
  debugger_231                               code  01bd90
  debugger_232                               code  01bc90
  debugger_234                               code  01bcd8
  debugger_236                               code  01bd20
  debugger_238                               code  01bd68
  debugger_240                               code  01c1d8
  debugger_241                               code  01bdf0
  debugger_242                               code  01be5c
  debugger_243                               code  01bfb0
  debugger_244                               code  01bfbc
  debugger_245                               code  01bfc8
  debugger_246                               code  01bfd4
  debugger_247                               code  01bfe0
  debugger_248                               code  01c198
  debugger_249                               code  01be58
  debugger_25                                code  01ab18
  debugger_251                               code  01be48
  debugger_252                               code  01be58
  debugger_253                               code  01be24
  debugger_254                               code  01be44
  debugger_255                               code  01be3c
  debugger_256                               code  01bebc
  debugger_258                               code  01bf0c
  debugger_26                                code  01aaec
  debugger_260                               code  01bf5c
  debugger_262                               code  01bfac
  debugger_264                               code  01c194
  debugger_265                               code  01c020
  debugger_266                               code  01c164
  debugger_267                               code  01c170
  debugger_268                               code  01c17c
  debugger_269                               code  01c188
  debugger_27                                code  01aaf4
  debugger_270                               code  01c070
  debugger_272                               code  01c0c0
  debugger_274                               code  01c110
  debugger_276                               code  01c160
  debugger_278                               code  01c2ac
  debugger_28                                code  01aafc
  debugger_280                               code  01c254
  debugger_281                               code  01c2ac
  debugger_282                               code  01c2ac
  debugger_284                               code  01c26c
  debugger_285                               code  01c2d0
  debugger_287                               code  01c32c
  debugger_289                               code  01c30c
  debugger_29                                code  01ab04
  debugger_290                               code  01c31c
  debugger_291                               code  01c32c
  debugger_293                               code  01c458
  debugger_294                               code  01c33c
  debugger_295                               code  01c458
  debugger_296                               code  01c364
  debugger_297                               code  01c39c
  debugger_298                               code  01c3d8
  debugger_299                               code  01c418
  debugger_3                               rodata  01f1de
  debugger_30                                code  01ab0c
  debugger_300                               code  01c368
  debugger_301                               code  01c398
  debugger_302                               code  01c390
  debugger_303                               code  01c3a0
  debugger_304                               code  01c3d4
  debugger_305                               code  01c3cc
  debugger_306                               code  01c3dc
  debugger_307                               code  01c414
  debugger_308                               code  01c40c
  debugger_309                               code  01c41c
  debugger_310                               code  01c454
  debugger_311                               code  01c44c
  debugger_312                               code  01c47c
  debugger_314                               code  01c7fc
  debugger_315                               code  01c49c
  debugger_316                               code  01c4f0
  debugger_317                               code  01c574
  debugger_318                               code  01c4b0
  debugger_319                               code  01c4ec
  debugger_32                                code  01ab80
  debugger_320                               code  01c4e4
  debugger_321                               code  01c4d4
  debugger_323                               code  01c4f4
  debugger_324                               code  01c570
  debugger_325                               code  01c568
  debugger_326                               code  01c518
  debugger_328                               code  01c578
  debugger_329                               code  01c764
  debugger_33                                code  01ab50
  debugger_330                               code  01c75c
  debugger_331                               code  01c59c
  debugger_333                               code  01c674
  debugger_335                               code  01c674
  debugger_336                               code  01c5d8
  debugger_337                               code  01c5fc
  debugger_338                               code  01c624
  debugger_339                               code  01c64c
  debugger_34                                code  01ab5c
  debugger_340                               code  01c75c
  debugger_341                               code  01c69c
  debugger_342                               code  01c6c8
  debugger_343                               code  01c6f8
  debugger_344                               code  01c72c
  debugger_345                               code  01c7e8
  debugger_346                               code  01c78c
  debugger_347                               code  01c7a0
  debugger_348                               code  01c7b8
  debugger_349                               code  01c7d0
  debugger_35                                code  01ab68
  debugger_352                             rodata  01e990
  debugger_353                               code  01cd04
  debugger_354                               code  01cad0
  debugger_356                               code  01cad0
  debugger_357                               code  01cd00
  debugger_358                               code  01cae0
  debugger_359                               code  01cc74
  debugger_36                                code  01ab74
  debugger_360                               code  01cc38
  debugger_361                               code  01cc6c
  debugger_362                               code  01cb54
  debugger_364                               code  01cb30
  debugger_365                               code  01cb90
  debugger_367                               code  01cb6c
  debugger_368                               code  01cc34
  debugger_37                                code  01ab80
  debugger_370                               code  01cbfc
  debugger_371                               code  01cc1c
  debugger_372                               code  01cc18
  debugger_373                               code  01cc1c
  debugger_374                               code  01cc48
  debugger_376                               code  01cc60
  debugger_378                               code  01cc98
  debugger_379                               code  01cce8
  debugger_380                               code  01cce0
  debugger_381                               code  01ccfc
  debugger_383                               code  01cdd4
  debugger_384                               code  01cdc0
  debugger_39                                code  01aba0
  debugger_4                               rodata  01f1b6
  debugger_41                                code  01abc4
  debugger_43                                code  01ac18
  debugger_45                                code  01ac20
  debugger_47                                code  01ac40
  debugger_48                                code  01ac6c
  debugger_49                                code  01ac6c
  debugger_5                               rodata  01f154
  debugger_51                                code  01ac98
  debugger_53                                code  01ac98
  debugger_54                                code  01ad20
  debugger_55                                code  01acc0
  debugger_56                                code  01ad18
  debugger_57                                code  01ad14
  debugger_59                                code  01acf8
  debugger_6                               rodata  01f0e4
  debugger_60                                code  01ad00
  debugger_61                                code  01ad90
  debugger_62                                code  01ad48
  debugger_63                                code  01ad74
  debugger_64                                code  01ad68
  debugger_66                                code  01ad7c
  debugger_67                                code  01aec0
  debugger_68                                code  01add0
  debugger_69                                code  01aebc
  debugger_7                               rodata  01f074
  debugger_70                                code  01ae1c
  debugger_71                                code  01aeac
  debugger_72                                code  01ae50
  debugger_73                                code  01aeac
  debugger_74                                code  01ae84
  debugger_75                                code  01aeac
  debugger_76                                code  01ae98
  debugger_77                              rodata  01edbe
  debugger_78                              rodata  01ed96
  debugger_79                                code  01b078
  debugger_8                               rodata  01f00a
  debugger_80                                code  01af1c
  debugger_82                                code  01af04
  debugger_83                                code  01afe4
  debugger_84                                code  01b074
  debugger_85                                code  01af94
  debugger_86                                code  01afe0
  debugger_87                                code  01b074
  debugger_89                                code  01b060
  debugger_9                               rodata  01ef9e
  debugger_90                                code  01b074
  debugger_93                              rodata  01ed74
  debugger_94                              rodata  01ed4c
  debugger_95                                code  01b270
  debugger_96                                code  01b0dc
  debugger_98                                code  01b0c4
  debugger_99                                code  01b1c4
  demo_stack                                  bss  c27008
  disassem20_                              rodata  01a8a8
  disassem_                                rodata  0196f0
  disassem_386                               code  018840
  disassem_388                               code  018868
  disassem_389                               code  0188f8
  disassem_390                               code  0188e4
  disassem_391                             rodata  01e950
  disassem_392                               code  018980
  disassem_393                               code  01896c
  disassem_395                             rodata  01e948
  disassem_396                               code  0189d8
  disassem_397                               code  0189c4
  disassem_399                             rodata  01e93e
  disassem_400                               code  018a30
  disassem_401                               code  018a1c
  disassem_403                             rodata  01e934
  disassem_404                               code  018a88
  disassem_405                               code  018a74
  disassem_407                             rodata  01e92c
  disassem_408                               code  018ae0
  disassem_409                               code  018acc
  disassem_411                             rodata  01e924
  disassem_412                               code  018b38
  disassem_413                               code  018b24
  disassem_415                             rodata  01e91c
  disassem_416                             rodata  01e914
  disassem_417                             rodata  01e90a
  disassem_418                             rodata  01e902
  disassem_419                             rodata  01e8fa
  disassem_420                             rodata  01e8f2
  disassem_421                             rodata  01e8ea
  disassem_422                             rodata  01e8e2
  disassem_423                             rodata  01e8d6
  disassem_424                             rodata  01e8ca
  disassem_425                             rodata  01e8be
  disassem_426                             rodata  01e8b2
  disassem_427                             rodata  01e8a4
  disassem_428                             rodata  01e896
  disassem_429                             rodata  01e88a
  disassem_430                               code  018d28
  disassem_431                               code  018d14
  disassem_432                               code  018be8
  disassem_433                               code  018bfc
  disassem_434                               code  018c10
  disassem_435                               code  018c24
  disassem_436                               code  018c38
  disassem_437                               code  018c4c
  disassem_438                               code  018c60
  disassem_439                               code  018c74
  disassem_440                               code  018c88
  disassem_441                               code  018c9c
  disassem_442                               code  018cb0
  disassem_443                               code  018cc4
  disassem_444                               code  018cd8
  disassem_445                               code  018cec
  disassem_446                               code  018d00
  disassem_447                               code  018d14
  disassem_449                             rodata  01e882
  disassem_450                             rodata  01e87a
  disassem_451                             rodata  01e86a
  disassem_452                             rodata  01e864
  disassem_453                               code  018e04
  disassem_454                               code  018d8c
  disassem_455                               code  018dac
  disassem_456                               code  018de0
  disassem_457                               code  018df0
  disassem_458                               code  018df0
  disassem_460                             rodata  01e856
  disassem_461                             rodata  01e848
  disassem_462                             rodata  01e840
  disassem_463                             rodata  01e838
  disassem_464                             rodata  01e834
  disassem_465                             rodata  01e826
  disassem_466                             rodata  01e81a
  disassem_467                               code  018f4c
  disassem_468                               code  018e90
  disassem_469                               code  018ea0
  disassem_470                               code  018ed4
  disassem_471                               code  018ef4
  disassem_472                               code  018f10
  disassem_473                               code  018f24
  disassem_474                               code  018f38
  disassem_476                             rodata  01e80c
  disassem_477                             rodata  01e804
  disassem_478                               code  018fb8
  disassem_479                               code  018f94
  disassem_480                               code  018fa4
  disassem_481                               code  018fa4
  disassem_483                             rodata  01e7ec
  disassem_484                             rodata  01e7d4
  disassem_485                             rodata  01e7bc
  disassem_486                             rodata  01e7a4
  disassem_487                               code  01909c
  disassem_488                               code  019088
  disassem_489                               code  019038
  disassem_490                               code  01904c
  disassem_491                               code  019060
  disassem_492                               code  019074
  disassem_493                               code  019088
  disassem_495                             rodata  01e794
  disassem_496                             rodata  01e78c
  disassem_497                             rodata  01e77a
  disassem_498                             rodata  01e770
  disassem_499                             rodata  01e760
  disassem_500                               code  019218
  disassem_501                               code  019190
  disassem_503                               code  0191c0
  disassem_504                               code  019204
  disassem_505                               code  0191ec
  disassem_506                               code  019204
  disassem_507                               code  019204
  disassem_509                               code  019204
  disassem_511                             rodata  01e758
  disassem_512                               code  019294
  disassem_513                               code  019280
  disassem_515                             rodata  01e750
  disassem_516                             rodata  01e742
  disassem_517                             rodata  01e734
  disassem_518                               code  019368
  disassem_519                               code  019334
  disassem_520                               code  019354
  disassem_521                               code  019354
  disassem_522                             rodata  01e72c
  disassem_523                             rodata  01e71e
  disassem_524                               code  01942c
  disassem_525                               code  0193c8
  disassem_527                               code  019418
  disassem_528                             rodata  01e710
  disassem_529                             rodata  01e70a
  disassem_530                             rodata  01e702
  disassem_531                             rodata  01e6fc
  disassem_532                               code  019554
  disassem_533                               code  0194fc
  disassem_535                               code  0194e8
  disassem_536                             rodata  01e6ee
  disassem_537                             rodata  01e6ea
  disassem_538                             rodata  01e6da
  disassem_539                             rodata  01e6ca
  disassem_540                             rodata  01e6c2
  disassem_541                             rodata  01e6ba
  disassem_542                             rodata  01e6ae
  disassem_543                             rodata  01e6a6
  disassem_544                               code  0196e0
  disassem_545                               code  019624
  disassem_546                               code  019634
  disassem_547                               code  019610
  disassem_548                               code  019620
  disassem_549                               code  019670
  disassem_550                               code  0196a0
  disassem_551                               code  0196a0
  disassem_553                               code  0196bc
  disassem_555                               code  0196cc
  disassem_556                             rodata  01e69a
  disassem_557                             rodata  01e68e
  disassem_558                             rodata  01e682
  disassem_559                             rodata  01e676
  disassem_560                             rodata  01e66a
  disassem_561                             rodata  01e65e
  disassem_562                             rodata  01e652
  disassem_563                             rodata  01e646
  disassem_564                             rodata  01e63a
  disassem_565                             rodata  01e62e
  disassem_566                             rodata  01e622
  disassem_567                             rodata  01e616
  disassem_568                             rodata  01e60a
  disassem_569                             rodata  01e5fe
  disassem_570                             rodata  01e5f2
  disassem_571                             rodata  01e5e6
  disassem_572                             rodata  01e5da
  disassem_573                             rodata  01e5ce
  disassem_574                             rodata  01e5c2
  disassem_575                             rodata  01e5b6
  disassem_576                             rodata  01e5aa
  disassem_577                             rodata  01e59c
  disassem_578                             rodata  01e596
  disassem_579                             rodata  01e588
  disassem_580                             rodata  01e584
  disassem_581                             rodata  01e57e
  disassem_582                             rodata  01e572
  disassem_583                             rodata  01e566
  disassem_584                             rodata  01e55a
  disassem_585                             rodata  01e54e
  disassem_586                             rodata  01e542
  disassem_587                             rodata  01e536
  disassem_588                             rodata  01e52a
  disassem_589                             rodata  01e51e
  disassem_590                             rodata  01e512
  disassem_591                             rodata  01e506
  disassem_592                             rodata  01e4fa
  disassem_593                             rodata  01e4ee
  disassem_594                             rodata  01e4e2
  disassem_595                             rodata  01e4d6
  disassem_596                             rodata  01e4ca
  disassem_597                             rodata  01e4be
  disassem_598                             rodata  01e4b2
  disassem_599                             rodata  01e4a6
  disassem_600                             rodata  01e49a
  disassem_601                             rodata  01e48e
  disassem_602                             rodata  01e476
  disassem_603                             rodata  01e45e
  disassem_604                             rodata  01e446
  disassem_605                             rodata  01e42e
  disassem_606                             rodata  01e422
  disassem_607                             rodata  01e416
  disassem_608                             rodata  01e40a
  disassem_609                             rodata  01e3fe
  disassem_610                             rodata  01e3f2
  disassem_611                             rodata  01e3e6
  disassem_612                             rodata  01e3da
  disassem_613                             rodata  01e3ce
  disassem_614                             rodata  01e3c2
  disassem_615                             rodata  01e3b6
  disassem_616                             rodata  01e3aa
  disassem_617                             rodata  01e39e
  disassem_618                             rodata  01e392
  disassem_619                             rodata  01e386
  disassem_620                             rodata  01e37a
  disassem_621                             rodata  01e36e
  disassem_622                             rodata  01e362
  disassem_623                             rodata  01e356
  disassem_624                             rodata  01e34a
  disassem_625                             rodata  01e33e
  disassem_626                             rodata  01e332
  disassem_627                             rodata  01e326
  disassem_628                             rodata  01e31a
  disassem_629                             rodata  01e30e
  disassem_630                             rodata  01e302
  disassem_631                             rodata  01e2f6
  disassem_632                             rodata  01e2e8
  disassem_633                             rodata  01e2e2
  disassem_634                             rodata  01e2d4
  disassem_635                             rodata  01e2ce
  disassem_636                             rodata  01e2c2
  disassem_637                             rodata  01e2b4
  disassem_638                             rodata  01e2a6
  disassem_639                             rodata  01e298
  disassem_640                             rodata  01e288
  disassem_641                               code  01a89c
  disassem_642                               code  019730
  disassem_643                               code  01a880
  disassem_644                               code  01974c
  disassem_646                               code  01a858
  disassem_647                               code  019944
  disassem_648                               code  0199d4
  disassem_649                               code  019e24
  disassem_650                               code  019e4c
  disassem_651                               code  019e74
  disassem_652                               code  019e9c
  disassem_653                               code  019ec4
  disassem_654                               code  019eec
  disassem_655                               code  019f14
  disassem_656                               code  019f3c
  disassem_657                               code  019f64
  disassem_658                               code  019f8c
  disassem_659                               code  019fb4
  disassem_660                               code  019fdc
  disassem_661                               code  01a004
  disassem_662                               code  01a02c
  disassem_663                               code  01a168
  disassem_664                               code  01a188
  disassem_665                               code  01a19c
  disassem_666                               code  01a210
  disassem_667                               code  01a284
  disassem_668                               code  01a2c4
  disassem_669                               code  01a304
  disassem_670                               code  01a32c
  disassem_671                               code  01a354
  disassem_672                               code  01a37c
  disassem_673                               code  01a3a4
  disassem_674                               code  01a3cc
  disassem_675                               code  01a3f4
  disassem_676                               code  01a41c
  disassem_677                               code  01a444
  disassem_678                               code  01a464
  disassem_679                               code  01a484
  disassem_680                               code  01a4a4
  disassem_681                               code  01a4c4
  disassem_682                               code  01a4e4
  disassem_683                               code  01a504
  disassem_684                               code  01a524
  disassem_685                               code  01a544
  disassem_686                               code  01a574
  disassem_687                               code  01a59c
  disassem_688                               code  01a5c4
  disassem_689                               code  01a5ec
  disassem_690                               code  01a614
  disassem_691                               code  01a634
  disassem_692                               code  01a654
  disassem_693                               code  01a674
  disassem_694                               code  01a694
  disassem_695                               code  01a6bc
  disassem_696                               code  01a6e4
  disassem_697                               code  01a72c
  disassem_698                               code  01a774
  disassem_699                               code  01a79c
  disassem_700                               code  01a830
  disassem_701                               code  019988
  disassem_702                               code  0199a8
  disassem_703                               code  019984
  disassem_705                               code  019e20
  disassem_706                               code  019a5c
  disassem_707                               code  019bc0
  disassem_708                               code  019be0
  disassem_709                               code  019c00
  disassem_710                               code  019c20
  disassem_711                               code  019c40
  disassem_712                               code  019c60
  disassem_713                               code  019c80
  disassem_714                               code  019ca0
  disassem_715                               code  019cc0
  disassem_716                               code  019ce0
  disassem_717                               code  019d00
  disassem_718                               code  019d20
  disassem_719                               code  019d40
  disassem_720                               code  019d60
  disassem_721                               code  019db8
  disassem_722                               code  019bbc
  disassem_723                               code  019aa4
  disassem_724                               code  019acc
  disassem_725                               code  019af4
  disassem_726                               code  019b1c
  disassem_727                               code  019b44
  disassem_728                               code  019b6c
  disassem_729                               code  019b94
  disassem_730                               code  01a164
  disassem_731                               code  01a084
  disassem_732                               code  01a0a4
  disassem_733                               code  01a0c4
  disassem_734                               code  01a0e4
  disassem_735                               code  01a104
  disassem_736                               code  01a124
  disassem_737                               code  01a144
  disassem_738                               code  01a1e4
  disassem_740                               code  01a258
  disassem_742                               code  01a80c
  disassem_743                               code  01a82c
  disassem_744                               code  01a874
  disassem_746                               code  01a880
  disassem_747                             rodata  01e270
  disassem_748                               code  01a910
  disassem_749                               code  01a8d8
  disassem_750                               code  01a8fc
  disassem_751                               code  01a8f4
  disassem_752                               code  01a8fc
  disk_size                                   bss  c20188
  doCLS                                      code  011894
  doDate                                     code  0114a8
  doDate.0001                                code  011504
  doDay                                      code  011548
  doDebug                                    code  01158c
  doDisassem                                 code  011564
  doDumpTL                                   code  0111e0
  doFillmem                                  code  0111f0
  doFillmem.0001                             code  01124c
  doFillmem.0002                             code  011234
  doFillmem.0003                             code  011254
  doFillmem.0004                             code  011204
  doJump                                     code  0112a0
  doRand                                     code  8000000000000194
  doSDBoot                                   code  011274
  drf_rout                                   code  0129f4
  drf_rout.0001                              code  012a0c
  dwf_rout                                   code  012a10
  dwf_rout.0001                              code  012a28
  end_init_data                            rodata  022970
  eval                                       code  8000000000000195
  exf_rout                                   code  0129d8
  exf_rout.0001                              code  0129f0
  fmtk_irq_stack_                             bss  1045000
  fmtk_sys_stack_                             bss  1046000
  freeMBX_                                    bss  10d7018
  freeMSG_                                    bss  10d7010
  freeTCB_                                    bss  11e3400
  getCPU_                                  rodata  018750
  get_datetime_                              code  012c50
  getcharNoWait                            rodata  000000
  getcharNoWait_                           rodata  017a44
  getchar_                                 rodata  017a64
  hangprg                                    code  0128e0
  hasUltraHighPriorityTasks_                  bss  10d7070
  here                                       code  01c674
  hmem_                                       bss  11e6650
  ignBlanks                                  code  011184
  ignBlanks1                                 code  01118c
  ignore_blanks_                             code  01ac30
  iof_sema_                                   bss  10d7058
  iof_switch_                                 bss  10d7048
  irq_stack_                                  bss  c28408
  isalnum_                                   code  018314
  isalpha_                                   code  0182b8
  iscntrl_                                   code  0186ec
  isdigit_                                 rodata  01827c
  isgraph_                                   code  018608
  islower_                                   code  0184d8
  isprint_                                   code  018680
  ispunct_                                   code  018518
  isspace_                                   code  018390
  isupper_                                   code  018498
  isxdigit_                                  code  018200
  jcbs_                                       bss  c29800
  jmp_vector                                  bss  c20120
  kbdi5                                      code  011b7c
  keybdControlCodes_                       rodata  0125d0
  keybdExtendedCodes_                      rodata  012650
  keybd_0                                    code  016bd8
  keybd_1                                    code  016b44
  keybd_11                                   code  016b44
  keybd_12                                   code  016c78
  keybd_13                                   code  016c44
  keybd_15                                   code  016c70
  keybd_17                                   code  016c58
  keybd_18                                   code  016d5c
  keybd_19                                   code  016d38
  keybd_21                                   code  016d28
  keybd_22                                   code  016d2c
  keybd_23                                   code  016d44
  keybd_25                                   code  01701c
  keybd_26                                   code  016da0
  keybd_27                                   code  017018
  keybd_28                                   code  016da0
  keybd_29                                   code  016dd8
  keybd_3                                    code  016b44
  keybd_30                                   code  016dd4
  keybd_32                                   code  016db8
  keybd_33                                   code  017014
  keybd_34                                   code  016e28
  keybd_35                                   code  016e34
  keybd_36                                   code  016e4c
  keybd_37                                   code  016e78
  keybd_38                                   code  016ea4
  keybd_39                                   code  016eb8
  keybd_40                                   code  016ecc
  keybd_41                                   code  016ee0
  keybd_42                                   code  016f0c
  keybd_43                                   code  016e64
  keybd_44                                   code  016e70
  keybd_45                                   code  016e90
  keybd_46                                   code  016e9c
  keybd_47                                   code  016ef8
  keybd_48                                   code  016f04
  keybd_49                                   code  016f34
  keybd_5                                    code  016b24
  keybd_50                                   code  017014
  keybd_51                                   code  016f44
  keybd_52                                   code  017014
  keybd_53                                   code  016f80
  keybd_54                                   code  017014
  keybd_55                                   code  016fbc
  keybd_56                                   code  017014
  keybd_57                                   code  016ff8
  keybd_58                                   code  017014
  keybd_59                                   code  017080
  keybd_60                                   code  017068
  keybd_61                                   code  0170e0
  keybd_62                                   code  0170c8
  keybd_7                                    code  016b18
  keybd_9                                    code  016b44
  keybd_irq_stack_                            bss  11e3420
  ld                                         code  017a58
  linebuf_                                    bss  11e4428
  linendx_                                    bss  11e4420
  loadBootFile                               code  80000000000001a6
  mailbox_                                    bss  1047000
  memchr_                                    code  017f20
  memcpyH_                                   code  017de4
  memcpyH_.0001                              code  017dfc
  memcpyW_                                   code  017e28
  memcpyW_.0001                              code  017e40
  memcpy_                                    code  017da0
  memcpy_.0001                               code  017db8
  memsetH_                                 rodata  017ea8
  memsetH_.0001                              code  017ec0
  memsetW_                                 rodata  017ee4
  memsetW_.0001                              code  017efc
  memset_                                    code  017e6c
  memset_.0001                               code  017e84
  message_                                    bss  1057000
  missed_ticks_                               bss  10d7078
  mon1                                       code  0110a4
  mon1.Prompt1                               code  0110d4
  mon1.Prompt2                               code  0110f8
  mon1.Prompt3                               code  0110bc
  mon1.PromptLn                              code  0110b0
  mon1.doHelp                                code  011144
  msgBadAddr                                 data  c13658
  msgBadKeybd                                code  011b7c
  msgBounds                                  code  012b28
  msgBusErr                                  code  012ad6
  msgEA                                      code  012af6
  msgErr                                     code  0116dc
  msgHelp                                    code  0116ec
  msgMonitorStarted                          code  011872
  msgParErr                                  code  0129bc
  msgPriv                                    code  012a9e
  msgROMChecksum                             code  010d54
  msgStart                                   code  01104a
  msgUninit                                  code  012abe
  msgUninitIRQ                               code  012b00
  msgdrf                                     code  012a8a
  msgdwf                                     code  012a94
  msgexf                                     code  012a80
  muol_                                       bss  11e6638
  nMailbox_                                   bss  10d7008
  nMsgBlk_                                    bss  10d7000
  nmi_rout                                   code  012990
  nmi_rout1                                  code  0129b8
  outb_                                      code  018760
  outb_1                                     code  018778
  outc_                                      code  018790
  outc_1                                     code  0187a8
  outh_                                    rodata  0187c0
  outh_1                                     code  0187d8
  outw_                                      code  0187f0
  outw_1                                     code  018808
  pSpriteController                          data  c10000
  panic_                                     code  013b58
  printf_                                  rodata  017ac4
  priv_rout                                  code  012a2c
  priv_rout.0001                             code  012a7c
  putaddr                                    code  01cde0
  putch_                                   rodata  017650
  puthexnum_                                 code  0177f0
  putnum_                                    code  01767c
  putstr2_                                 rodata  017a18
  putstr_                                  rodata  017994
  r6                                         code  017a58
  ramtest                                    code  01cfb8
  ramtest_0                                rodata  01f2e0
  ramtest_10                                 code  01cea4
  ramtest_11                                 code  01cf04
  ramtest_12                                 code  01cefc
  ramtest_13                                 code  01cefc
  ramtest_15                                 code  01cefc
  ramtest_17                                 code  01cf10
  ramtest_18                                 code  01cf98
  ramtest_19                                 code  01cf90
  ramtest_20                                 code  01cf44
  ramtest_22                                 code  01cf54
  ramtest_24                                 code  01cf90
  ramtest_26                                 code  01cf90
  ramtest_28                                 code  01cf98
  ramtest_29                                 code  01d074
  ramtest_3                                  code  01ce04
  ramtest_30                                 code  01d060
  ramtest_6                                  code  01ce50
  ramtest_8                                  code  01cf98
  ramtest_9                                  code  01cfac
  ramtest_betweem                          rodata  000000
  ramtest_between                            code  01ce5c
  readyQ_                                     bss  11e3410
  regs_                                       bss  11e64f8
  repcount_                                   bss  11e6608
  reverse_video_                             code  018874
  right                                      code  01c674
  rxfull                                    const  000001
  set_time_serial_                           code  012f18
  set_time_serial_755                        code  012cd8
  set_time_serial_757                        code  012d10
  set_time_serial_759                        code  012d48
  set_time_serial_761                        code  012d8c
  set_time_serial_763                        code  012dc4
  set_time_serial_765                        code  012dfc
  set_time_serial_767                        code  012dfc
  set_time_serial_770                        code  012f0c
  set_time_serial_772                        code  012fd0
  set_time_serial_773                        code  012fbc
  set_vector_                              rodata  01325c
  sgc1                                       code  010548
  sgcfifo1                                   code  0107a0
  sgcfifo2                                   code  01078c
  sgcfifo3                                   code  01075c
  sgcfifo4                                   code  010774
  sgcfifo5                                   code  01078c
  shiftedScanCodes_                        rodata  0124d0
  sirq1                                      code  0107fc
  smsirq                                     code  010810
  sp_tmp_                                     bss  c29408
  spcabort                                   code  010684
  spcb1                                      code  0105e0
  spcb2                                      code  010624
  spcb3                                      code  0105b4
  spcb4                                      code  0105f8
  spcb5                                      code  010648
  spcb6                                      code  010630
  spcb7                                      code  010680
  spcb8                                      code  010654
  sprite_demo                                code  012ff4
  sprite_demo_10                             code  0130a0
  sprite_demo_11                             code  013120
  sprite_demo_12                             code  013118
  sprite_demo_13                             code  013120
  sprite_demo_14                             code  01322c
  sprite_demo_15                             code  01312c
  sprite_demo_16                             code  0131ec
  sprite_demo_17                             code  0131e4
  sprite_demo_18                             code  013228
  sprite_demo_20                             code  013208
  sprite_demo_3                              code  013230
  sprite_demo_4                              code  013038
  sprite_demo_5                              code  013070
  sprite_demo_6                              code  013068
  sprite_demo_7                              code  013074
  sprite_demo_8                              code  01309c
  sprite_demo_9                              code  013094
  sprite_main                                code  012fe0
  sprites                                     bss  c28008
  srxirq                                     code  010824
  srxirq1                                    code  010824
  srxirq2                                    code  01084c
  srxirq3                                    code  010860
  srxirq5                                    code  010888
  srxirq6                                    code  0108e0
  srxirq7                                    code  0108f8
  srxirq8                                    code  01090c
  ssm_                                        bss  11e6600
  stacks_                                     bss  c45000
  start                                      code  0100a8
  startSector                                 bss  c20184
  stdio_1                                    code  017670
  stdio_10                                   code  0176f0
  stdio_11                                   code  017764
  stdio_12                                   code  017720
  stdio_14                                   code  017764
  stdio_15                                   code  017784
  stdio_17                                   code  017784
  stdio_18                                   code  0177a8
  stdio_19                                   code  0177a0
  stdio_2                                    code  0177e4
  stdio_20                                   code  0177a8
  stdio_21                                   code  0177cc
  stdio_22                                   code  0177cc
  stdio_23                                   code  017988
  stdio_24                                   code  017830
  stdio_26                                   code  01782c
  stdio_27                                   code  017844
  stdio_28                                   code  01784c
  stdio_29                                   code  017864
  stdio_3                                    code  0176bc
  stdio_31                                   code  017864
  stdio_32                                   code  0178ec
  stdio_33                                   code  017894
  stdio_34                                   code  0178c8
  stdio_35                                   code  0178b4
  stdio_36                                   code  0178c8
  stdio_37                                   code  0178ec
  stdio_38                                   code  01790c
  stdio_40                                   code  01790c
  stdio_41                                   code  01794c
  stdio_42                                   code  017930
  stdio_43                                   code  01793c
  stdio_44                                   code  01794c
  stdio_45                                   code  017970
  stdio_46                                   code  017970
  stdio_47                                   code  017a0c
  stdio_48                                   code  0179bc
  stdio_49                                   code  0179e4
  stdio_5                                    code  0176b8
  stdio_50                                   code  0179d8
  stdio_51                                   code  0179f4
  stdio_53                                   code  017a38
  stdio_56                                   code  017ab8
  stdio_57                                   code  017a80
  stdio_58                                   code  017a98
  stdio_59                                   code  017aa4
  stdio_6                                    code  0176cc
  stdio_60                                   code  017b2c
  stdio_61                                   code  017d8c
  stdio_62                                   code  017af4
  stdio_63                                   code  017d70
  stdio_64                                   code  017d68
  stdio_65                                   code  017d58
  stdio_66                                   code  017d68
  stdio_67                                   code  017d54
  stdio_68                                   code  017bc0
  stdio_69                                   code  017bcc
  stdio_7                                    code  0176d4
  stdio_70                                   code  017bdc
  stdio_71                                   code  017bfc
  stdio_72                                   code  017c1c
  stdio_73                                   code  017c3c
  stdio_74                                   code  017c58
  stdio_75                                   code  017c60
  stdio_76                                   code  017cd0
  stdio_77                                   code  017c74
  stdio_78                                   code  017cbc
  stdio_79                                   code  017cd0
  stdio_8                                    code  0176ec
  stdio_81                                   code  017cf4
  stdio_83                                   code  017d08
  stdio_84                                   code  017d50
  stdio_85                                   code  017d70
  strchr_                                    code  018198
  strcpy_                                    code  017fd4
  string_1                                   code  017dd8
  string_11                                  code  017f14
  string_13                                  code  017f38
  string_14                                  code  017f74
  string_15                                  code  017f68
  string_16                                  code  017f68
  string_18                                  code  017f5c
  string_20                                  code  017fac
  string_22                                  code  017f9c
  string_23                                  code  017fb0
  string_24                                  code  017fc8
  string_25                                  code  017fc0
  string_27                                  code  017ff8
  string_28                                  code  018028
  string_29                                  code  018020
  string_3                                   code  017e1c
  string_30                                  code  018038
  string_32                                  code  018070
  string_33                                  code  0180b4
  string_34                                  code  0180ac
  string_35                                  code  0180ac
  string_37                                  code  0180b4
  string_38                                  code  0180d8
  string_39                                  code  0180d0
  string_40                                  code  0180dc
  string_42                                  code  018130
  string_44                                  code  01811c
  string_45                                  code  018130
  string_46                                  code  018190
  string_47                                  code  018180
  string_48                                  code  018170
  string_49                                  code  018180
  string_5                                   code  017e60
  string_50                                  code  018160
  string_51                                  code  018168
  string_52                                  code  018180
  string_55                                  code  0181b0
  string_56                                  code  0181ec
  string_57                                  code  0181e0
  string_58                                  code  0181e0
  string_60                                  code  0181d4
  string_7                                   code  017e9c
  string_9                                   code  017ed8
  strlen_                                    code  017f7c
  strncmp_                                   code  0180f0
  strncpy_                                   code  01804c
  stxirq                                     code  010820
  sys_sema_                                   bss  10d7060
  sys_stacks_                                 bss  e45000
  sysstack_                                   bss  c43000
  tcbs_                                       bss  11a3400
  tolower_                                   code  018410
  toupper_                                   code  018454
  unshiftedScanCodes_                      rodata  0123d0
  video_bufs_                                 bss  10d7080
  wmem_                                       bss  11e6658
