                        	; ============================================================================
                        	; bootrom3.asm
                        	;        __
                        	;   \\__/ o\    (C) 2014  Robert Finch, Stratford
                        	;    \  __ /    All rights reserved.
                        	;     \/_//     robfinch<remove>@finitron.ca
                        	;       ||
                        	;  
                        	;
                        	; This source file is free software: you can redistribute it and/or modify 
                        	; it under the terms of the GNU Lesser General Public License as published 
                        	; by the Free Software Foundation, either version 3 of the License, or     
                        	; (at your option) any later version.                                      
                        	;                                                                          
                        	; This source file is distributed in the hope that it will be useful,      
                        	; but WITHOUT ANY WARRANTY; without even the implied warranty of           
                        	; MERCHANTABILITY or FITNESS FOR A PARTICULAR PURPOSE.  See the            
                        	; GNU General Public License for more details.                             
                        	;                                                                          
                        	; You should have received a copy of the GNU General Public License        
                        	; along with this program.  If not, see <http://www.gnu.org/licenses/>.    
                        	;                                                                          
                        	; ============================================================================
                        	;
                        	CR	EQU	0x0D		;ASCII equates
                        	LF	EQU	0x0A
                        	TAB	EQU	0x09
                        	CTRLC	EQU	0x03
                        	CTRLH	EQU	0x08
                        	CTRLI	EQU	0x09
                        	CTRLJ	EQU	0x0A
                        	CTRLK	EQU	0x0B
                        	CTRLM   EQU 0x0D
                        	CTRLS	EQU	0x13
                        	CTRLX	EQU	0x18
                        	XON		EQU	0x11
                        	XOFF	EQU	0x13
                        	
                        	; Boot sector info (62 byte structure) */
                        	BSI_JMP		= 0x00
                        	BSI_OEMName	= 0x03
                        	BSI_bps		= 0x0B
                        	BSI_SecPerCluster	= 0x0D
                        	BSI_ResSectors	= 0x0E
                        	BSI_FATS	= 0x10
                        	BSI_RootDirEnts	= 0x11
                        	BSI_Sectors	= 0x13
                        	BSI_Media	= 0x15
                        	BSI_SecPerFAT	= 0x16
                        	BSI_SecPerTrack	= 0x18
                        	BSI_Heads	= 0x1A
                        	BSI_HiddenSecs	= 0x1C
                        	BSI_HugeSecs	= 0x1E
                        	
                        	BSI_DriveNum	= 0x24
                        	BSI_Rsvd1		= 0x25
                        	BSI_BootSig		= 0x26
                        	BSI_VolID		= 0x27
                        	BSI_VolLabel	= 0x2B
                        	BSI_FileSysType = 0x36
                        	
                        	; error codes
                        	E_Ok		=		0x00
                        	E_Arg		=		0x01
                        	E_BadMbx	=		0x04
                        	E_QueFull	=		0x05
                        	E_NoThread	=		0x06
                        	E_NotAlloc	=		0x09
                        	E_NoMsg		=		0x0b
                        	E_Timeout	=		0x10
                        	E_BadAlarm	=		0x11
                        	E_NotOwner	=		0x12
                        	E_QueStrategy =		0x13
                        	E_DCBInUse	=		0x19
                        	; Device driver errors
                        	E_BadDevNum	=		0x20
                        	E_NoDev		=		0x21
                        	E_BadDevOp	=		0x22
                        	E_ReadError	=		0x23
                        	E_WriteError =		0x24
                        	E_BadBlockNum	=	0x25
                        	E_TooManyBlocks	=	0x26
                        	
                        	; resource errors
                        	E_NoMoreMbx	=		0x40
                        	E_NoMoreMsgBlks	=	0x41
                        	E_NoMoreAlarmBlks	= 0x44
                        	E_NoMoreTCBs	=	0x45
                        	E_NoMem		= 12
                        	
                        	TS_READY	EQU		1
                        	TS_RUNNING	EQU		2
                        	TS_PREEMPT	EQU		4
                        	
                        	LEDS	equ		$FFDC0600
                        	TEXTSCR	equ		$FFD00000
                        	TEXTREG		EQU		$FFDA0000
                        	TEXT_COLS	EQU		0x00
                        	TEXT_ROWS	EQU		0x04
                        	TEXT_CURPOS	EQU		0x2C
                        	TEXT_CURCTL	EQU		0x20
                        	BMP_CLUT	EQU		$FFDC5800
                        	
                        	PIC			EQU		0xFFDC0FC0
                        	PIC_IE		EQU		0xFFDC0FC4
                        	PIC_ES		EQU		0xFFDC0FD0
                        	PIC_RSTE	EQU		0xFFDC0FD4
                        	
                        	KEYBD		EQU		0xFFDC0000
                        	KEYBDCLR	EQU		0xFFDC0004
                        	
                        	SPIMASTER	EQU		0xFFDC0500
                        	SPI_MASTER_VERSION_REG	EQU	0x00
                        	SPI_MASTER_CONTROL_REG	EQU	0x04
                        	SPI_TRANS_TYPE_REG	EQU		0x08
                        	SPI_TRANS_CTRL_REG	EQU		0x0C
                        	SPI_TRANS_STATUS_REG	EQU	0x10
                        	SPI_TRANS_ERROR_REG		EQU	0x14
                        	SPI_DIRECT_ACCESS_DATA_REG		EQU	0x18
                        	SPI_SD_SECT_7_0_REG		EQU	0x1C
                        	SPI_SD_SECT_15_8_REG	EQU	0x20
                        	SPI_SD_SECT_23_16_REG	EQU	0x24
                        	SPI_SD_SECT_31_24_REG	EQU	0x28
                        	SPI_RX_FIFO_DATA_REG	EQU	0x40
                        	SPI_RX_FIFO_DATA_COUNT_MSB	EQU	0x48
                        	SPI_RX_FIFO_DATA_COUNT_LSB  EQU 0x4C
                        	SPI_RX_FIFO_CTRL_REG		EQU	0x50
                        	SPI_TX_FIFO_DATA_REG	EQU	0x80
                        	SPI_TX_FIFO_CTRL_REG	EQU	0x90
                        	SPI_RESP_BYTE1			EQU	0xC0
                        	SPI_RESP_BYTE2			EQU	0xC4
                        	SPI_RESP_BYTE3			EQU	0xC8
                        	SPI_RESP_BYTE4			EQU	0xCC
                        	
                        	SPI_INIT_SD			EQU		0x01
                        	SPI_TRANS_START		EQU		0x01
                        	SPI_TRANS_BUSY		EQU		0x01
                        	SPI_INIT_NO_ERROR	EQU		0x00
                        	SPI_READ_NO_ERROR	EQU		0x00
                        	SPI_WRITE_NO_ERROR	EQU		0x00
                        	RW_READ_SD_BLOCK	EQU		0x02
                        	RW_WRITE_SD_BLOCK	EQU		0x03
                        	
                        	NR_TCB		EQU		256
                        	TCB_Regs		EQU		0
                        	TCB_SP0Save		EQU		2040
                        	TCB_SP1Save		EQU		2048
                        	TCB_SP2Save		EQU		2056
                        	TCB_SP3Save		EQU		2064
                        	TCB_SP4Save		EQU		2072
                        	TCB_SP5Save		EQU		2080
                        	TCB_SP6Save		EQU		2088
                        	TCB_SP7Save		EQU		2096
                        	TCB_SP8Save		EQU		2104
                        	TCB_SP9Save		EQU		2112
                        	TCB_SP10Save	EQU		2120
                        	TCB_SP11Save	EQU		2128
                        	TCB_SP12Save	EQU		2136
                        	TCB_SP13Save	EQU		2144
                        	TCB_SP14Save	EQU		2152
                        	TCB_SP15Save	EQU		2160
                        	TCB_Seg1Save	EQU		2168
                        	TCB_Seg2Save	EQU		2176
                        	TCB_Seg3Save	EQU		2184
                        	TCB_Seg4Save	EQU		2192
                        	TCB_Seg5Save	EQU		2200
                        	TCB_Seg6Save	EQU		2208
                        	TCB_Seg7Save	EQU		2216
                        	TCB_Seg8Save	EQU		2224
                        	TCB_Seg9Save	EQU		2232
                        	TCB_Seg10Save	EQU		2240
                        	TCB_Seg11Save	EQU		2248
                        	TCB_Seg12Save	EQU		2256
                        	TCB_Seg13Save	EQU		2264
                        	TCB_Seg14Save	EQU		2272
                        	TCB_Seg15Save	EQU		2280
                        	TCB_SPSave		EQU		2288
                        	TCB_Next		EQU		2296
                        	TCB_Prev		EQU		2304
                        	TCB_Status		EQU		2312
                        	TCB_Priority	EQU		2313
                        	TCB_hJob		EQU		2314
                        	TCB_Size	EQU		8192
                        	
                        		code
                        		org		$00008000
008000 5A 89 00 00 00 00 00 00 		dw		ClearScreen				; $8000
008008 40 89 00 00 00 00 00 00 		dw		HomeCursor				; $8008
008010 9A 8A 00 00 00 00 00 00 		dw		DisplayString			; $8010
008018 F0 93 00 00 00 00 00 00 		dw		KeybdGetCharDirectNB	; $8018
008020 05 8A 00 00 00 00 00 00 		dw		ClearBmpScreen			; $8020
008028 55 8C 00 00 00 00 00 00 		dw		DisplayChar				; $8028
008030 80 97 00 00 00 00 00 00 		dw		SDInit					; $8030
008038 8A 9A 00 00 00 00 00 00 		dw		SDReadMultiple			; $8038
008040 D0 9A 00 00 00 00 00 00 		dw		SDWriteMultiple			; $8040
008048 15 9B 00 00 00 00 00 00 		dw		SDReadPart				; $8048
008050 B5 9B 00 00 00 00 00 00 		dw		SDDiskSize				; $8050
008058 2A 8A 00 00 00 00 00 00 		dw		DisplayWord				; $8058
008060 3A 8A 00 00 00 00 00 00 		dw		DisplayHalf				; $8060
008068 4A 8A 00 00 00 00 00 00 		dw		DisplayCharHex			; $8068
008070 5A 8A 00 00 00 00 00 00 		dw		DisplayByte				; $8070
                        	
008078 00 00 00 00 00 00 00 00 		org		$8200
008080 00 00 00 00 00 00 00 00 
008088 00 00 00 00 00 00 00 00 
008090 00 00 00 00 00 00 00 00 
008098 00 00 00 00 00 00 00 00 
0080A0 00 00 00 00 00 00 00 00 
0080A8 00 00 00 00 00 00 00 00 
0080B0 00 00 00 00 00 00 00 00 
0080B8 00 00 00 00 00 00 00 00 
0080C0 00 00 00 00 00 00 00 00 
0080C8 00 00 00 00 00 00 00 00 
0080D0 00 00 00 00 00 00 00 00 
0080D8 00 00 00 00 00 00 00 00 
0080E0 00 00 00 00 00 00 00 00 
0080E8 00 00 00 00 00 00 00 00 
0080F0 00 00 00 00 00 00 00 00 
0080F8 00 00 00 00 00 00 00 00 
008100 00 00 00 00 00 00 00 00 
008108 00 00 00 00 00 00 00 00 
008110 00 00 00 00 00 00 00 00 
008118 00 00 00 00 00 00 00 00 
008120 00 00 00 00 00 00 00 00 
008128 00 00 00 00 00 00 00 00 
008130 00 00 00 00 00 00 00 00 
008138 00 00 00 00 00 00 00 00 
008140 00 00 00 00 00 00 00 00 
008148 00 00 00 00 00 00 00 00 
008150 00 00 00 00 00 00 00 00 
008158 00 00 00 00 00 00 00 00 
008160 00 00 00 00 00 00 00 00 
008168 00 00 00 00 00 00 00 00 
008170 00 00 00 00 00 00 00 00 
008178 00 00 00 00 00 00 00 00 
008180 00 00 00 00 00 00 00 00 
008188 00 00 00 00 00 00 00 00 
008190 00 00 00 00 00 00 00 00 
008198 00 00 00 00 00 00 00 00 
0081A0 00 00 00 00 00 00 00 00 
0081A8 00 00 00 00 00 00 00 00 
0081B0 00 00 00 00 00 00 00 00 
0081B8 00 00 00 00 00 00 00 00 
0081C0 00 00 00 00 00 00 00 00 
0081C8 00 00 00 00 00 00 00 00 
0081D0 00 00 00 00 00 00 00 00 
0081D8 00 00 00 00 00 00 00 00 
0081E0 00 00 00 00 00 00 00 00 
0081E8 00 00 00 00 00 00 00 00 
0081F0 00 00 00 00 00 00 00 00 
0081F8 00 00 00 00 00 00 00 00 
                        	start:
008200 01 00 00 00 30          		sei
008205 FD 00 00 F0 0F    ; imm
00820A 16 01 01 00 00          		ldi     r1,#$000FF00000000001  ; 256 entries, base address $1000
008210 01 01 19 00 48          		mtspr   GDT,r1
008215 FD 00 00 F0 0F    ; imm
00821A 16 01 02 00 00          		ldi     r1,#$000FF00000000002  ; 256 entries, base address $2000
008220 01 01 18 00 48          		mtspr   LDT,r1
                        		; Clear descriptor tables
008225 16 01 FF 01 00          		ldi     r1,#511
00822A    ; imm
00822A FD 00 04 00 00    ; imm
008230 AB 00 01 00 07          		sw      r0,$1000[r0+r1*8]
008235 5A 01 2A 82 00          		dbnz    r1,.strt1
00823A    ; imm
00823A    ; imm
00823A FD 01 00 00 00    ; imm
008240 A3 00 00 01 00          		sw      r0,$1000
008245 FD 01 00 00 00    ; imm
00824A A3 00 00 81 00          		sw      r0,$1008
008250 FD FF FF FF 0F    ; imm
008255 FE 92 00 00 00    ; imm
00825A 16 01 FF FF FF          		ldi     r1,#$920FFFFFFFFFFFFF  ; data segment
008260 16 02 00 10 00          		ldi     r2,#$1000
008265 A3 02 01 81 01          	    sw      r1,$18[r2]
00826A A3 02 01 81 02          	    sw      r1,$28[r2]
008270 A3 02 01 81 03          	    sw      r1,$38[r2]
008275 A3 02 01 81 04          	    sw      r1,$48[r2]
00827A A3 02 01 81 05          	    sw      r1,$58[r2]
008280 A3 02 01 81 06          	    sw      r1,$68[r2]
008285 A3 02 01 81 07          	    sw      r1,$78[r2]
00828A A3 02 01 81 08          	    sw      r1,$88[r2]
008290 A3 02 01 81 09          	    sw      r1,$98[r2]
008295 A3 02 01 81 0A          	    sw      r1,$A8[r2]
00829A A3 02 01 81 0B          	    sw      r1,$B8[r2]
0082A0 A3 02 01 81 0C          	    sw      r1,$C8[r2]
0082A5 A3 02 01 81 0D          	    sw      r1,$D8[r2]
0082AA A3 02 01 81 0E          	    sw      r1,$E8[r2]
0082B0 FD FF FF FF 0F    ; imm
0082B5 FE 9A 00 00 00    ; imm
0082BA 16 01 FF FF FF          		ldi     r1,#$9A0FFFFFFFFFFFFF
0082C0 A3 02 00 01 0F          		sw      r0,$F0[r2]               ; setup code segment
0082C5 A3 02 01 81 0F          		sw      r1,$F8[r2]
                        		; Setup data and stack segment
0082CA 16 01 01 00 00          		ldi     r1,#1
0082D0 01 01 21 00 48          		mtspr	ds,r1					; setup data and stack segments
0082D5 16 01 0E 00 00          		ldi     r1,#14
0082DA 01 01 2E 00 48          		mtspr	ss,r1
0082E0 61 00 0F 00 00          		jsp     r0,#15                  ; selector index 15, GDT
0082E5 50 EA 82 00 00          		jmp     .strt2
                        	.strt2:
0082EA 16 01 80 00 00          		ldi		r1,#$00000080			; tmr writes
0082F0 01 01 05 00 48          		mtspr	cr0,r1
                        	
                        		; copy the ROM to RAM
                        		
0082F5 16 03 FF 0F 00          		ldi		r3,#$FFF
0082FA 16 01 00 80 00          		ldi		r1,#$8000
                        	.st1:
008300 8E 01 03 02 07          		lw		r2,[r1+r3*8]
008305 AB 01 03 02 07          		sw		r2,[r1+r3*8]
00830A 5A 03 00 83 00          		dbnz	r3,.st1
008310 16 01 C0 00 00          		ldi		r1,#$000000C0			; tmr reads/writes
008315 01 01 05 00 48          		mtspr	cr0,r1
                        	
                        	;	icache_on
00831A EA EA EA EA EA          		nop
008320 16 01 FF 00 00          		ldi		r1,#$FF
008325 FD C0 FD 0F 00    ; imm
00832A A0 00 01 01 60          		sb		r1,LEDS
008330 16 FF F8 FF 3F          		ldi		sp,#$3FFFF8
008335 16 01 00 00 01          		ldi		r1,#IVTBaseAddress
00833A 02 01 0D 01 52          		shr     r1,r1,#13
008340 01 01 01 00 48          		mtspr	vbr,r1
                        	
                        		; setup page tables and the page table address register
008345 56 00 90 85 00          		bsr		SetupPageTbl
00834A 16 01 02 40 01          		ldi		r1,#RootPageTbl+4096+2	; 3 level page table system
008350 01 01 04 00 48          		mtspr	cr3,r1
                        		; turn on paging
008355 16 01 C0 01 00          		ldi		r1,#$000001C0			; cache on, paging and protection on; tmr read/write/execute
00835A 01 01 05 00 48          		mtspr	cr0,r1
008360 56 00 C5 89 00          		bsr		InitBMP
                        	
008365 16 01 50 8B 00          		ldi		r1,#TickRout
00836A A3 00 01 01 02          		sw		r1,TickVec
008370 16 01 FC 00 00          		ldi		r1,#$FC
008375 FD C0 FD 0F 00    ; imm
00837A A0 00 01 01 60          		sb		r1,LEDS
008380 A3 00 00 01 01          		sw		r0,Milliseconds
008385 16 01 00 B8 26          		ldi		r1,#%000000100_110101110_0000000000
00838A A0 00 01 41 08          		sb		r1,KeybdEcho
008390 A0 00 00 51 08          		sb		r0,KeybdBad
008395 A2 00 01 81 07          		sh		r1,NormAttr
00839A A0 00 00 01 08          		sb		r0,CursorRow
0083A0 A0 00 00 11 08          		sb		r0,CursorCol
0083A5 56 00 5A 89 00          		bsr		ClearScreen
0083AA 16 01 55 8C 00          		ldi		r1,#DisplayChar
0083B0 A3 00 01 81 01          		sw		r1,OutputVec
0083B5 56 00 70 84 00          		bsr		SetupIntVectors
0083BA 56 00 2A 95 00          		bsr		KeybdInit
0083C0 56 00 6A 85 00          		bsr		InitPIC
0083C5 46 00 95 8F 00          		bra		Monitor
0083CA 56 00 40 9F 00          		bsr		FMTKInitialize
0083D0 01 00 00 00 31          		cli
                        	
0083D5 16 01 FF 00 00          		ldi		r1,#$FF
0083DA FD C0 FD 0F 00    ; imm
0083E0 A0 00 01 01 60          		sb		r1,LEDS
0083E5 16 01 FE 00 00          		ldi		r1,#$FE
0083EA A6 01 02 03 04          		push	r1/r2/r3/r4
0083F0 56 00 5A 89 00          		bsr		ClearScreen
0083F5 16 01 06 00 00          		ldi		r1,#$6
0083FA FD C0 FD 0F 00    ; imm
008400 A0 00 01 01 60          		sb		r1,LEDS
008405 56 00 0A 8B 00          		bsr		DispStartMsg
00840A 16 01 FD 00 00          		ldi		r1,#$FD
008410 A7 04 03 02 01          		pop		r4/r3/r2/r1
008415 FD C0 FD 0F 00    ; imm
00841A A0 00 01 01 60          		sb		r1,LEDS
                        	j1:
008420 56 00 40 89 00          		bsr		HomeCursor
008425 FD FF 00 00 00    ; imm
00842A 16 03 E0 00 D0          		ldi		r3,#TEXTSCR+224
008430 86 00 01 01 01          		lw		r1,Milliseconds
008435 56 00 2A 8A 00          		bsr		DisplayWord
00843A FD 00 FD 0F 00    ; imm
008440 84 00 01 C1 1B          		lh		r1,TEXTSCR+444
008445 04 01 01 01 00          		add		r1,r1,#1
00844A FD 00 FD 0F 00    ; imm
008450 A2 00 01 C1 1B          		sh		r1,TEXTSCR+444
008455 46 00 20 84 00          		bra		j1
                        		
                        	DispLed:
00845A 86 FF 01 8E 00          		lw		r1,8[sp]
008460 FD C0 FD 0F 00    ; imm
008465 A0 00 01 01 60          		sb		r1,LEDS
00846A 60 00 08 00 00          		rts		#8
                        	SetupIntVectors:
008470 01 00 00 00 32          		php
008475 01 00 00 00 30          		sei
00847A 16 02 00 00 01          		ldi		r2,#IVTBaseAddress
008480 16 03 FF 01 00          		ldi		r3,#511
008485 16 01 E0 A6 00          		ldi		r1,#uninit_rout
00848A FD 00 00 0F 00    ; imm
008490 16 05 00 00 00          		ldi     r5,#15<<40      ; CS selector
                        	.siv1:
                        		; setup specific vectors
008495 02 03 04 04 50          		shli	r4,r3,#4
00849A AB 02 04 01 04          		sw		r1,[r2+r4]
0084A0 FD 02 00 00 00    ; imm
0084A5 AB 02 04 05 04          		sw		r5,8[r2+r4]		; set CS to #15
0084AA 5A 03 95 84 00          		dbnz	r3,.siv1	
0084B0 16 01 00 82 00          		ldi		r1,#start
0084B5 FD 01 00 00 00    ; imm
0084BA A3 02 01 01 C1          		sw		r1,449*16[r2]
0084C0 16 01 70 8B 00          		ldi		r1,#Tick1000Rout
0084C5 FD 01 00 00 00    ; imm
0084CA A3 02 01 01 C2          		sw		r1,450*16[r2]
0084D0 16 01 40 8B 00          		ldi		r1,#KeybdIRQ
0084D5 FD 01 00 00 00    ; imm
0084DA A3 02 01 01 CF          		sw		r1,463*16[r2]
0084E0 16 01 40 A7 00          		ldi		r1,#exf_rout
0084E5 FD 01 00 00 00    ; imm
0084EA A3 02 01 01 F1          		sw		r1,497*16[r2]
0084F0 16 01 80 A7 00          		ldi		r1,#dwf_rout
0084F5 FD 01 00 00 00    ; imm
0084FA A3 02 01 01 F2          		sw		r1,498*16[r2]
008500 16 01 60 A7 00          		ldi		r1,#drf_rout
008505 FD 01 00 00 00    ; imm
00850A A3 02 01 01 F3          		sw		r1,499*16[r2]
008510 16 01 A0 A7 00          		ldi		r1,#sbv_rout
008515 FD 01 00 00 00    ; imm
00851A A3 02 01 01 F4          		sw		r1,500*16[r2]
008520 16 01 C0 A7 00          		ldi		r1,#priv_rout
008525 FD 01 00 00 00    ; imm
00852A A3 02 01 01 F5          		sw		r1,501*16[r2]
008530 16 01 E0 A7 00          		ldi		r1,#stv_rout
008535 FD 01 00 00 00    ; imm
00853A A3 02 01 01 F6          		sw		r1,502*16[r2]
008540 16 01 40 A8 00          		ldi		r1,#snp_rout
008545 FD 01 00 00 00    ; imm
00854A A3 02 01 01 F7          		sw		r1,503*16[r2]
008550 16 01 AA A8 00          		ldi		r1,#berr_rout
008555 FD 01 00 00 00    ; imm
00855A A3 02 01 01 FC          		sw		r1,508*16[r2]
008560 01 00 00 00 33          		plp
008565 60 00 00 00 00          		rts

                        	;------------------------------------------------------------------------------
                        	; Initialize the interrupt controller.
                        	;------------------------------------------------------------------------------
                        	
                        	InitPIC:
00856A 16 01 0C 00 00          		ldi		r1,#$0C			; timer interrupt(s) are edge sensitive
008570 FD C0 FD 0F 00    ; imm
008575 A2 00 01 01 FD          		sh		r1,PIC_ES
00857A 16 01 0F 00 00          		ldi		r1,#$000F		; enable keyboard reset, timer interrupts
008580 FD C0 FD 0F 00    ; imm
008585 A2 00 01 41 FC          		sh		r1,PIC_IE
00858A 60 00 00 00 00          		rts

                        	SetupPageTbl:
008590 A6 01 02 03 04          		push	r1/r2/r3/r4
                        	
                        		;--------------------------------------------------------------------------
                        		; Setup the root page directory
                        		; The root page directory only has two valid entries in it.
                        		; 0) A pointer to a subdirectory representing the memory in the system (128MB)
                        		; 3) A pointer to a subdirectory locating the I/O in the system (2MB)
                        		;           ++--------------- these two bits mapped by the root directory
                        		; xrrr rrrr rrss_ssss_ssst_tttt_tttt_xxxx_xxxx_xxxx
                        		; 0000_0000_rrxx_xxxx_xxxx_xxxx_xxxx_xxxx_xxxx_xxxx
                        		;--------------------------------------------------------------------------
008595 16 01 00 40 01          		ldi		r1,#RootPageTbl+4096
00859A 56 00 05 88 00          		bsr		ClearPageTable
0085A0 01 01 02 00 04          		mov		r2,r1
0085A5 16 01 00 30 03          		ldi		r1,#PgSD0
0085AA 0C 01 01 00 F0          		and		r1,r1,#-4096
0085B0 0D 01 01 0F 00          		or		r1,r1,#$0F	; priv 0, cacheable, readable, executable, writeable
0085B5 A3 02 01 01 00          		sw		r1,[r2]
0085BA 16 01 00 30 03          		ldi		r1,#PgSD0
0085C0 0C 01 01 00 F0          		and		r1,r1,#-4096
0085C5 0D 01 01 0F 00          		or		r1,r1,#$0F	; priv 0, cacheable, readable, executable, writeable
0085CA A3 02 01 81 00          		sw		r1,8[r2]
0085D0 16 01 00 40 03          		ldi		r1,#PgSD3
0085D5 0C 01 01 00 F0          		and		r1,r1,#-4096
0085DA 0D 01 01 8D 00          		or		r1,r1,#$8D	; priv 8, cacheable, readable, executable, writeable
0085E0 A3 02 01 81 01          		sw		r1,24[r2]
                        	
                        		;--------------------------------------------------------------------------
                        		; Setup subdirectory zero.
                        		; This sub-directory is capable of mapping all the memory in the system
                        		; (and more). Only the first 64 pages are used.
                        		; clear out subdirectory entries
                        		; ++--------------- these two bits mapped by the root directory
                        		; ||++-++++-+++---- these nine bits mapped by subirectory SD0
                        		; rrss_ssss_sss
                        		; 0000_0sss_sssx_xxxx_xxxx_xxxx_xxxx_xxxx
                        		;--------------------------------------------------------------------------
0085E5 16 02 00 30 03          		ldi		r2,#PgSD0
0085EA 16 03 FF 01 00          		ldi		r3,#511
0085F0 16 04 F8 0F 00          		ldi     r4,#511*8
                        	.0002:
0085F5 AB 02 04 00 04          		sw		r0,[r2+r4]
0085FA 15 04 04 08 00          		subui   r4,r4,#8
008600 5A 03 F5 85 00          		dbnz	r3,.0002
                        	
008605 16 01 00 50 03          		ldi		r1,#PgTbl0
00860A 0C 01 01 00 F0          		and		r1,r1,#-4096
008610 0D 01 01 0F 00          		or		r1,r1,#$0F	; priv 0, cacheable, readable, executable, writeable
008615 A3 02 01 01 00          		sw		r1,[r2]
                        	
00861A 16 01 00 60 03          		ldi		r1,#PgTbl1
008620 0C 01 01 00 F0          		and		r1,r1,#-4096
008625 0D 01 01 0F 00          		or		r1,r1,#$0F	; priv 0, cacheable, readable, executable, writeable
00862A A3 02 01 81 00          		sw		r1,8[r2]
008630 16 01 00 70 03          		ldi		r1,#PgTbl2
008635 0C 01 01 00 F0          		and		r1,r1,#-4096
00863A 0D 01 01 8D 00          		or		r1,r1,#$8D	; priv 8, cacheable, readable, executable, writeable
008640 A3 02 01 01 01          		sw		r1,2*8[r2]
008645 16 01 00 80 03          		ldi		r1,#PgTbl3
00864A 0C 01 01 00 F0          		and		r1,r1,#-4096
008650 0D 01 01 8D 00          		or		r1,r1,#$8D	; priv 8, cacheable, readable, executable, writeable
008655 A3 02 01 81 01          		sw		r1,3*8[r2]
00865A 16 01 00 90 03          		ldi		r1,#PgTbl4
008660 0C 01 01 00 F0          		and		r1,r1,#-4096
008665 0D 01 01 8D 00          		or		r1,r1,#$8D	; priv 8, cacheable, readable, executable, writeable
00866A A3 02 01 01 02          		sw		r1,4*8[r2]
008670 16 01 00 A0 03          		ldi		r1,#PgTbl5
008675 0C 01 01 00 F0          		and		r1,r1,#-4096
00867A 0D 01 01 8D 00          		or		r1,r1,#$8D	; priv 8, cacheable, readable, executable, writeable
008680 A3 02 01 81 02          		sw		r1,5*8[r2]
                        	
                        		; setup first four pages
                        		; the lowest 16kB of memory is a scratch space
008685 16 01 00 50 03          		ldi		r1,#PgTbl0
00868A 56 00 05 88 00          		bsr		ClearPageTable
008690 01 01 02 00 04          		mov		r2,r1
008695 16 01 8F 00 00          		ldi		r1,#$008F
00869A A3 02 01 01 00          		sw		r1,[r2]
0086A0 16 01 8F 10 00          		ldi		r1,#$108F
0086A5 A3 02 01 81 00          		sw		r1,8[r2]
0086AA 16 01 8F 20 00          		ldi		r1,#$208F
0086B0 A3 02 01 01 01          		sw		r1,16[r2]
0086B5 16 01 8F 30 00          		ldi		r1,#$308F
0086BA A3 02 01 81 01          		sw		r1,24[r2]
0086C0 16 03 07 00 00          		ldi		r3,#7		; eight pages to setup
0086C5 16 04 38 00 00          		ldi     r4,#7*8
0086CA 16 01 0E F0 00          		ldi		r1,#$F00E	; priv 0, cacheable, readable, executable, but not writeable
0086D0    ; imm
0086D0 FD 10 00 00 00    ; imm
0086D5 AB 02 04 01 04          		sw		r1,8*8[r2+r4]
0086DA 15 01 01 00 10          		subui	r1,r1,#$1000
0086E0 15 04 04 08 00          		subui   r4,r4,#8
0086E5 5A 03 D0 86 00          		dbnz	r3,.0003
                        		
                        		; memmory above $FFFF to $1FFFFF is RAM for the OS (2MB)
0086EA 16 03 EF 01 00          		ldi		r3,#495		; 512- 16-1
0086F0 16 04 78 0F 00          		ldi     r4,#495*8
0086F5 16 01 FF FF 1F          		ldi		r1,#$1FFFFF
0086FA    ; imm
0086FA FD 20 00 00 00    ; imm
008700 AB 02 04 01 04          		sw		r1,16*8[r2+r4]
008705 15 01 01 00 10          		subui	r1,r1,#$1000
00870A 15 04 04 08 00          		subui   r4,r4,#8
008710 5A 03 FA 86 00          		dbnz	r3,.0006
                        	
                        		; memory between $200000 and $3FFFFF is RAM for the OS (2MB)
008715 16 02 00 60 03          		ldi		r2,#PgTbl1
00871A 16 01 FF FF 3F          		ldi		r1,#$3FFFFF
008720 56 00 30 88 00          		bsr		SetupBMTable
                        	
                        		; Page2 range $400000 to $5FFFFF
                        		; 0000_0000_010x_xxxx_xxxx_xxxx_xxxx_xxxx
008725 16 02 00 70 03          		ldi		r2,#PgTbl2
00872A 16 01 FF FF 5F          		ldi		r1,#$5FFFFF
008730 56 00 30 88 00          		bsr		SetupBMTable
                        	
                        		; Page3 range $600000 to $7FFFFF
                        		; 0000_0000_011x_xxxx_xxxx_xxxx_xxxx_xxxx
008735 16 02 00 80 03          		ldi		r2,#PgTbl3
00873A 16 01 FF FF 7F          		ldi		r1,#$7FFFFF
008740 56 00 30 88 00          		bsr		SetupBMTable
                        	
                        		; Page4 range $800000 to $9FFFFF
                        		; 0000_0000_100x_xxxx_xxxx_xxxx_xxxx_xxxx
008745 16 02 00 90 03          		ldi		r2,#PgTbl4
00874A FD 00 00 00 00    ; imm
008750 16 01 FF FF 9F          		ldi		r1,#$9FFFFF
008755 56 00 30 88 00          		bsr		SetupBMTable
                        	
                        		; Page5 range $A00000 to $BFFFFF
                        		; 0000_0000_101x_xxxx_xxxx_xxxx_xxxx_xxxx
00875A 16 02 00 A0 03          		ldi		r2,#PgTbl5
008760 FD 00 00 00 00    ; imm
008765 16 01 FF FF BF          		ldi		r1,#$BFFFFF
00876A 56 00 30 88 00          		bsr		SetupBMTable
008770 16 03 FF 01 00          		ldi		r3,#32768/64-1	; number of pages
008775 16 01 00 00 00          		ldi		r1,#0
00877A    ; imm
00877A FD 11 00 00 00    ; imm
008780 A3 03 00 01 00          		sw		r0,PAM1[r3]
008785 5A 03 7A 87 00          		dbnz	r3,.0007
                        	
                        		; We've allocated the first 12MB of RAM to the OS and bitmapped
                        		; graphics display. Mark it in the PAM.
00878A 16 03 63 00 00          		ldi		r3,#$63		; 3072 pages /64 - 1
008790 16 01 FF FF FF          		ldi		r1,#-1
008795    ; imm
008795 FD 11 00 00 00    ; imm
00879A A3 03 01 01 00          		sw		r1,PAM1[r3]
0087A0 5A 03 95 87 00          		dbnz	r3,.0008
                        	
                        		;--------------------------------------------------------------------------
                        		; Setup the I/O subdirectory
                        		; clear out subdirectory entries
                        		; The I/O subdirectory has only a single valid entry at #510
                        		; ++--------------- these two bit mapped by the root directory
                        		; ||++-++++-+++---- these nine bits mapped by subirectory SD3
                        		; rrss_ssss_sss
                        		; 1111_1111_110x_xxxx_xxxx_xxxx_xxxx_xxxx
                        		;--------------------------------------------------------------------------
0087A5 16 01 00 40 03          		ldi		r1,#PgSD3
0087AA 56 00 05 88 00          		bsr		ClearPageTable
0087B0 01 01 02 00 04          		mov		r2,r1
0087B5 16 01 00 B0 03          		ldi		r1,#IOPgTbl
0087BA 0D 01 01 8D 00          		or		r1,r1,#$8D		; priv 8,cachable, readable, non-executable, writeable
0087C0 FD 00 00 00 00    ; imm
0087C5 A3 02 01 01 FF          		sw		r1,510*8[r2]	; put in proper slot
                        	
                        		;--------------------------------------------------------------------------
                        		; Setup the I/O page table
                        		; We setup the I/O page table with linear addresses matching
                        		; physical ones between $FFCxxxxx and $FFDFFFFF
                        		; We map all entries assuming there is I/O in each one. In
                        		; reality all the I/O is above $FFDx, it's too cumbersone
                        		; to map on a device by device basis. If there happens not to be an I/O
                        		; device at a memory location, a bus error will result.
                        		; ++--------------- these two bit mapped by the root directory
                        		; ||++-++++-+++---- these nine bits mapped by subirectory SD3
                        		; |||| |||| |||+-++++-++++---- these nine bits mapped by the I/O page table
                        		; rrss_ssss_sss| |||| ||||
                        		; 1111_1111_110t_tttt_tttt_xxxx_xxxx_xxxx
                        		;--------------------------------------------------------------------------
0087CA 16 02 00 B0 03          		ldi		r2,#IOPgTbl
0087D0 16 03 FF 01 00          		ldi		r3,#511
0087D5 16 04 F8 0F 00          		ldi     r4,#511*8
0087DA FD FF 00 00 00    ; imm
0087E0 16 01 85 F0 DF          		ldi		r1,#$FFDFF085	; priv 8, non-cachable, readable, non-executable, writeable
                        	.0005:
0087E5 AB 02 04 01 04          		sw		r1,[r2+r4]
0087EA 15 01 01 00 10          		subui	r1,r1,#$1000
0087F0 15 04 04 08 00          		subui   r4,r4,#8
0087F5 5A 03 E5 87 00          		dbnz	r3,.0005
                        	
0087FA A7 04 03 02 01          		pop		r4/r3/r2/r1
008800 60 00 00 00 00          		rts

                        	;------------------------------------------------------------------------------
                        	; Clear the page table ( a block of 512 words).
                        	; Parameters:
                        	;	r1 = address of page table
                        	;------------------------------------------------------------------------------
                        	
                        	ClearPageTable:
008805 A6 02 03 00 00          		push	r2/r3
00880A 16 02 FF 01 00          		ldi		r2,#511
008810 16 03 F8 0F 00          		ldi     r3,#511*8
                        	.0001:
008815 AB 01 03 00 04          		sw		r0,[r1+r3]
00881A 15 03 03 08 00          		subui   r3,r3,#8
008820 5A 02 15 88 00          		dbnz	r2,.0001
008825 A7 03 02 00 00          		pop		r3/r2
00882A 60 00 00 00 00          		rts

                        	SetupBMTable:
008830 A6 03 04 00 00          		push	r3/r4
008835 16 03 FF 01 00          		ldi		r3,#511
00883A 16 04 F8 0F 00          		ldi     r4,#511*8
                        	.0006:
008840 0C 01 01 00 F0          		and		r1,r1,#-4096
008845 0D 01 01 8F 00          		or		r1,r1,#$8F
00884A AB 02 04 01 04          		sw		r1,[r2+r4]
008850 15 01 01 00 10          		subui	r1,r1,#$1000
008855 15 04 04 08 00          		subui   r4,r4,#8
00885A 5A 03 40 88 00          		dbnz	r3,.0006
008860 A7 04 03 00 00          		pop		r4/r3
008865 60 00 00 00 00          		rts

                        	;------------------------------------------------------------------------------
                        	; Find the highest available page number and allocate it.
                        	;
                        	; Returns:
                        	;	r1 = physical page number, 0 if none available
                        	;------------------------------------------------------------------------------
                        	
                        	FindHiPage:
00886A A6 02 03 00 00          		push	r2/r3
008870 16 01 F8 0F 00          		ldi		r1,#511*8		; start at top of map
008875    ; imm
008875 FD 11 00 00 00    ; imm
00887A 86 01 02 01 00          		lw		r2,PAM1[r1]
008880 01 02 02 00 06          		com		r2,r2			; com bit pattern so we can test for all ones
008885 59 02 A0 88 00          		brnz	r2,.0001		; is any page free ?
00888A 5A 01 75 88 00          		dbnz	r1,.0002		; no, try next word
008890 01 00 01 00 04          		mov		r1,r0
008895 A7 03 02 00 00          		pop		r3/r2
00889A 60 00 00 00 00          		rts

                        	.0001:
0088A0 01 02 02 00 06          		com		r2,r2			; get back positive bits
0088A5 16 03 3F 00 00          		ldi		r3,#63			; number of bits to test - 1
                        	.0004:
0088AA 45 02 BA 88 00          		brpl	r2,.0003		; check MSB, is it clear ?
0088B0 02 02 01 02 51          		rol		r2,r2,#1		; rotate to next bit
0088B5 5A 03 AA 88 00          		dbnz	r3,.0004		; loop back
                        	.0003:
0088BA 02 02 01 02 51          		rol		r2,r2,#1		; make MSB the LSB
0088C0 0D 02 02 01 00          		or		r2,r2,#1		; and set bit
0088C5 02 02 03 02 41          		rol		r2,r2,r3		; put the bits back in original place
0088CA FD 11 00 00 00    ; imm
0088D0 A3 01 02 01 00          		sw		r2,PAM1[r1]		; update word in memory
                        	
0088D5 02 03 0D 03 50          		shl		r3,r3,#13		; multiply bit # by page size
0088DA 02 01 13 01 50          		shl		r1,r1,#19		; 
0088E0 02 01 03 01 21          		or		r1,r1,r3		; r1 = physical address
0088E5 A7 03 02 00 00          		pop		r3/r2
0088EA 60 00 00 00 00          		rts

                        	AddOSPT:
                        		
                        	
                        	;------------------------------------------------------------------------------
                        	; Convert ASCII character to screen display character.
                        	;------------------------------------------------------------------------------
                        	
                        	AsciiToScreen:
0088F0 0C 01 01 FF 00          		and		r1,r1,#$FF
0088F5 0D 01 01 00 01          		or		r1,r1,#$100
0088FA 0C 01 F4 20 00          		and		fl0,r1,#%00100000	; if bit 5 or 6 isn't set
008900 58 F4 15 89 00          		brz		fl0,.00001
008905 0C 01 F4 40 00          		and		fl0,r1,#%01000000
00890A 58 F4 15 89 00          		brz		fl0,.00001
008910 0C 01 01 9F 01          		and		r1,r1,#%110011111
                        	.00001:
008915 60 00 00 00 00          		rts

                        	ScreenChar:
                        	    db     
                        	    
                        	;------------------------------------------------------------------------------
                        	; Convert screen display character to ascii.
                        	;------------------------------------------------------------------------------
                        	
                        	ScreenToAscii:
00891A 0C 01 01 FF 00          		and		r1,r1,#$FF
008920 06 01 F4 1B 00          		cmp		fl0,r1,#26+1
008925 4E F4 30 89 00          		bhs		fl0,.stasc1
00892A 04 01 01 60 00          		add		r1,r1,#$60
                        	.stasc1:
008930 60 00 00 00 00          		rts

                        	CursorOff:
008935 60 00 00 00 00          		rts
CursorOn:
00893A 60 00 00 00 00 00       		rts
HomeCursor:
008940 A0 00 00 01 08          		sb		r0,CursorRow
008945 A0 00 00 11 08          		sb		r0,CursorCol
00894A FD A0 FD 0F 00    ; imm
008950 A1 00 00 C1 02          		sc	    r0,TEXTREG+TEXT_CURPOS
008955 60 00 00 00 00          		rts

                        	;------------------------------------------------------------------------------
                        	;------------------------------------------------------------------------------
                        	
                        	ClearScreen:
00895A A6 01 02 03 04          		push	r1/r2/r3/r4
008960 16 01 05 00 00          		ldi		r1,#$5
008965 FD C0 FD 0F 00    ; imm
00896A A0 00 01 01 60          		sb		r1,LEDS
008970 FD A0 FD 0F 00    ; imm
008975 81 00 01 01 00          		lbu		r1,TEXTREG+TEXT_COLS
00897A FD A0 FD 0F 00    ; imm
008980 81 00 02 41 00          		lbu		r2,TEXTREG+TEXT_ROWS
008985 02 02 01 04 17          		mulu	r4,r2,r1
00898A FD FF 00 00 00    ; imm
008990 16 03 00 00 D0          		ldi		r3,#TEXTSCR
008995 16 01 20 00 00          		ldi		r1,#' '
00899A 56 00 F0 88 00          		bsr		AsciiToScreen
0089A0 85 00 02 81 07          		lhu		r2,NormAttr
0089A5 02 01 02 01 21          		or		r1,r1,r2
                        	.cs1:
0089AA A2 03 01 01 00          		sh		r1,[r3]
0089B0 14 03 03 04 00          		addui	r3,r3,#4
0089B5 5A 04 AA 89 00          		dbnz	r4,.cs1
0089BA A7 04 03 02 01          		pop		r4/r3/r2/r1
0089C0 60 00 00 00 00          		rts

                        	;------------------------------------------------------------------------------
                        	; Randomize the color lookup table for 8bpp mode (the default), so that
                        	; something will show on the bitmap display if it's written to.
                        	;------------------------------------------------------------------------------
                        	
                        	InitBMP:
0089C5 01 00 02 00 49          		mfspr	r2,tick
0089CA 01 02 10 00 48          		mtspr	srand1,r2
0089D0 01 00 02 00 49          		mfspr	r2,tick
0089D5 01 02 11 00 48          		mtspr	srand2,r2
0089DA 16 02 FF 01 00          		ldi		r2,#511
                        	.ibmp1:
0089E0 01 00 01 00 14          		gran	r1
0089E5 02 02 02 02 50          		shl     r2,r2,#2
0089EA FD 00 16 F7 3F    ; imm
0089F0 AA 00 02 01 04          		sh		r1,BMP_CLUT[r0+r2]
0089F5 02 02 02 02 52          		shr     r2,r2,#2
0089FA 5A 02 E0 89 00          		dbnz	r2,.ibmp1
008A00 60 00 00 00 00          		rts

                        	;------------------------------------------------------------------------------
                        	;------------------------------------------------------------------------------
                        	
                        	ClearBmpScreen:
008A05 16 01 00 00 40          		ldi		r1,#$400000
008A0A 16 02 FF FF 07          		ldi		r2,#$7FFFF
                        	.0001:
008A10 02 02 03 02 50          	    shl     r2,r2,#3
008A15 AB 01 02 00 04          		sw		r0,[r1+r2]
008A1A 02 02 03 02 52          		shr     r2,r2,#3
008A20 5A 02 10 8A 00          		dbnz	r2,.0001
008A25 60 00 00 00 00          		rts

                        	;------------------------------------------------------------------------------
                        	; Display the word in r1
                        	;------------------------------------------------------------------------------
                        	
                        	DisplayWord:
008A2A 01 01 01 00 03          		swap	r1,r1
008A30 56 00 3A 8A 00          		bsr		DisplayHalf
008A35 01 01 01 00 03          		swap	r1,r1
                        	
                        	;------------------------------------------------------------------------------
                        	; Display the half-word in r1
                        	;------------------------------------------------------------------------------
                        	
                        	DisplayHalf:
008A3A 02 01 10 01 53          		ror		r1,r1,#16
008A40 56 00 4A 8A 00          		bsr		DisplayCharHex
008A45 02 01 10 01 51          		rol		r1,r1,#16
                        	
                        	;------------------------------------------------------------------------------
                        	; Display the char in r1
                        	;------------------------------------------------------------------------------
                        	
                        	DisplayCharHex:
008A4A 02 01 08 01 53          		ror		r1,r1,#8
008A50 56 00 5A 8A 00          		bsr		DisplayByte
008A55 02 01 08 01 51          		rol		r1,r1,#8
                        	
                        	;------------------------------------------------------------------------------
                        	; Display the byte in r1
                        	;------------------------------------------------------------------------------
                        	
                        	DisplayByte:
008A5A 02 01 04 01 53          		ror		r1,r1,#4
008A60 56 00 6A 8A 00          		bsr		DisplayNybble
008A65 02 01 04 01 51          		rol		r1,r1,#4
                        	
                        	;------------------------------------------------------------------------------
                        	; Display nybble in r1
                        	;------------------------------------------------------------------------------
                        	
                        	DisplayNybble:
008A6A A6 01 00 00 00          		push	r1
008A70 0C 01 01 0F 00          		and		r1,r1,#$0F
008A75 04 01 01 30 00          		add		r1,r1,#'0'
008A7A 06 01 F4 3A 00          		cmp		fl0,r1,#'9'+1
008A80 4F F4 8A 8A 00          		blo		fl0,.0001
008A85 04 01 01 07 00          		add		r1,r1,#7
                        	.0001:
008A8A 53 00 81 01 00          		jsr		(OutputVec)
008A90 A7 01 00 00 00          		pop		r1
008A95 60 00 00 00 00          		rts

                        	DisplayString:
008A9A A6 01 02 00 00          		push	r1/r2
008AA0 01 01 02 00 04          		mov		r2,r1
                        	.dm2:
008AA5 81 02 01 01 00          		lbu		r1,[r2]
008AAA 04 02 02 01 00          		add		r2,r2,#1	; increment text pointer
008AB0 58 01 C0 8A 00          		brz		r1,.dm1
008AB5 56 00 40 91 00          		bsr		OutChar
008ABA 58 00 A5 8A 00          		brz		r0,.dm2
                        	.dm1:
008AC0 A7 02 01 00 00          		pop		r2/r1
008AC5 60 00 00 00 00          		rts

                        	DisplayStringCRLF:
008ACA 56 00 9A 8A 00          		bsr		DisplayString
                        	CRLF:
008AD0 A6 01 00 00 00          		push	r1
008AD5 16 01 0D 00 00          		ldi		r1,#CR
008ADA 56 00 40 91 00          		bsr		OutChar
008AE0 16 01 0A 00 00          		ldi		r1,#LF
008AE5 56 00 40 91 00          		bsr		OutChar
008AEA A7 01 00 00 00          		pop		r1
008AF0 60 00 00 00 00          		rts

                        	
                        	DispCharQ:
008AF5 56 00 F0 88 00          		bsr		AsciiToScreen
008AFA A1 03 01 01 00          		sc		r1,[r3]
008B00 04 03 03 04 00          		add		r3,r3,#4
008B05 60 00 00 00 00          		rts

                        	DispStartMsg:
008B0A 16 01 20 8B 00          		ldi		r1,#msgStart
008B10 56 00 9A 8A 00          		bsr		DisplayString
008B15 60 00 00 00 00          		rts

008B1A 00                      		db	0
008B1B 00 00 00 00 00          	msgStart:
008B20 54 61 62 6C 65 38 38 38 		db	"Table888 test system starting.",0
008B28 20 74 65 73 74 20 73 79 
008B30 73 74 65 6D 20 73 74 61 
008B38 72 74 69 6E 67 2E 00    
008B40    ; imm
008B40    ; imm
008B40    ; imm
008B40    ; imm
008B40    ; imm
008B40 FD C0 FD 0F 00    ; imm
008B45 A2 00 00 41 00          		sh		r0,KEYBD+4
008B4A 01 00 00 00 40          		rti
008B50    ; imm
008B50    ; imm
008B50    ; imm
008B50    ; imm
008B50    ; imm
008B50 FD 00 FD 0F 00    ; imm
008B55 84 00 FC C1 0D          		lh		tr,TEXTSCR+220
008B5A 04 FC FC 01 00          		add		tr,tr,#1
008B60 FD 00 FD 0F 00    ; imm
008B65 A2 00 FC C1 0D          		sh		tr,TEXTSCR+220
008B6A 60 00 00 00 00          		rts

                        	Tick1000Rout:
008B70 A6 01 00 00 00          		push	r1
008B75 16 01 02 00 00          		ldi		r1,#2				; reset the edge sense circuit
008B7A FD C0 FD 0F 00    ; imm
008B80 A2 00 01 41 FD          		sh		r1,PIC_RSTE
008B85 86 00 01 01 01          		lw		r1,Milliseconds
008B8A 04 01 01 01 00          		add		r1,r1,#1
008B90 A3 00 01 01 01          		sw		r1,Milliseconds
008B95 A7 01 00 00 00          		pop		r1
008B9A 01 00 00 00 40          		rti
008BA0    ; imm
008BA0    ; imm
008BA0    ; imm
008BA0    ; imm
008BA0    ; imm
008BA0 FD FF 00 00 00    ; imm
008BA5 16 01 00 00 D0          		ldi		r1,#TEXTSCR
008BAA 60 00 00 00 00 00       		rts
GetCurrAttr:
008BB0 85 00 01 81 07          		lhu		r1,NormAttr
008BB5 60 00 00 00 00          		rts

                        	;------------------------------------------------------------------------------
                        	;------------------------------------------------------------------------------
                        	
                        	UpdateCursorPos:
008BBA A6 01 02 04 00          		push	r1/r2/r4
008BC0 81 00 01 01 08          		lbu		r1,CursorRow
008BC5 0C 01 01 3F 00          		and		r1,r1,#$3f
008BCA FD A0 FD 0F 00    ; imm
008BD0 81 00 02 01 00          		lbu		r2,TEXTREG+TEXT_COLS
008BD5 02 02 01 02 07          		mul		r2,r2,r1
008BDA 81 00 01 11 08          		lbu		r1,CursorCol
008BE0 0C 01 01 7F 00          		and		r1,r1,#$7f
008BE5 02 02 01 02 04          		add		r2,r2,r1
008BEA FD A0 FD 0F 00    ; imm
008BF0 A1 00 02 C1 02          		sc		r2,TEXTREG+TEXT_CURPOS
008BF5 A7 04 02 01 00          		pop		r4/r2/r1
008BFA 60 00 00 00 00          		rts
	
                        	CalcScreenLoc:
008C00 A6 02 04 00 00          		push	r2/r4
008C05 81 00 01 01 08          		lbu		r1,CursorRow
008C0A 0C 01 01 3F 00          		and		r1,r1,#$3f
008C10 FD A0 FD 0F 00    ; imm
008C15 81 00 02 01 00          		lbu		r2,TEXTREG+TEXT_COLS
008C1A 02 02 01 02 07          		mul		r2,r2,r1
008C20 81 00 01 11 08          		lbu		r1,CursorCol
008C25 0C 01 01 7F 00          		and		r1,r1,#$7f
008C2A 02 02 01 02 04          		add		r2,r2,r1
008C30 FD A0 FD 0F 00    ; imm
008C35 A1 00 02 C1 02          		sc		r2,TEXTREG+TEXT_CURPOS
008C3A 56 00 A0 8B 00          		bsr		GetScreenLocation
008C40 02 02 02 02 50          		shl		r2,r2,#2
008C45 02 01 02 01 04          		add		r1,r1,r2
008C4A A7 04 02 00 00          		pop		r4/r2
008C50 60 00 00 00 00          		rts

                        	;------------------------------------------------------------------------------
                        	;------------------------------------------------------------------------------
                        	
                        	DisplayChar:
008C55 A6 01 02 03 04          		push	r1/r2/r3/r4
008C5A 0C 01 01 FF 00          		and		r1,r1,#$FF
008C60 06 01 F4 0D 00          		cmp		fl0,r1,#'\r'
008C65 40 F4 00 8D 00          		beq		fl0,.docr
008C6A 06 01 F4 91 00          		cmp		fl0,r1,#$91		; cursor right ?
008C70 40 F4 15 8D 00          		beq		fl0,.doCursorRight
008C75 06 01 F4 90 00          		cmp		fl0,r1,#$90		; cursor up ?
008C7A 40 F4 40 8D 00          		beq		fl0,.doCursorUp
008C80 06 01 F4 93 00          		cmp		fl0,r1,#$93		; cursor left ?
008C85 40 F4 5A 8D 00          		beq		fl0,.doCursorLeft
008C8A 06 01 F4 92 00          		cmp		fl0,r1,#$92		; cursor down ?
008C90 40 F4 75 8D 00          		beq		fl0,.doCursorDown
008C95 06 01 F4 94 00          		cmp		fl0,r1,#$94		; cursor home ?
008C9A 40 F4 95 8D 00          		beq		fl0,.doCursorHome
008CA0 06 01 F4 99 00          		cmp		fl0,r1,#$99		; delete ?
008CA5 40 F4 B5 8D 00          		beq		fl0,.doDelete
008CAA 06 01 F4 08 00          		cmp		fl0,r1,#CTRLH	; backspace ?
008CB0 40 F4 CA 8D 00          		beq		fl0,.doBackspace
008CB5 06 01 F4 0A 00          		cmp		fl0,r1,#'\n'	; line feed ?
008CBA 40 F4 35 8E 00          		beq		fl0,.doLinefeed
008CC0 01 01 02 00 04          		mov		r2,r1
008CC5 56 00 00 8C 00          		bsr		CalcScreenLoc
008CCA 01 01 03 00 04          		mov		r3,r1
008CD0 01 02 01 00 04          		mov		r1,r2
008CD5 56 00 F0 88 00          		bsr		AsciiToScreen
008CDA 01 01 02 00 04          		mov		r2,r1
008CE0 56 00 B0 8B 00          		bsr		GetCurrAttr
008CE5 02 01 02 01 21          		or		r1,r1,r2
008CEA A2 03 01 01 00          		sh		r1,[r3]
008CF0 56 00 40 8E 00          		bsr		IncCursorPos
                        	.dcx4:
008CF5 A7 04 03 02 01          		pop		r4/r3/r2/r1
008CFA 60 00 00 00 00 00       		rts
.docr:
008D00 A0 00 00 11 08          		sb		r0,CursorCol
008D05 56 00 BA 8B 00          		bsr		UpdateCursorPos
008D0A A7 04 03 02 01          		pop		r4/r3/r2/r1
008D10 60 00 00 00 00          		rts
.doCursorRight:
008D15 81 00 01 11 08          		lbu		r1,CursorCol
008D1A 04 01 01 01 00          		add		r1,r1,#1
008D20 06 01 F4 38 00          		cmp		fl0,r1,#56
008D25 4E F4 30 8D 00          		bhs		fl0,.dcx7
008D2A A0 00 01 11 08          		sb		r1,CursorCol
                        	.dcx7:
008D30 56 00 BA 8B 00          		bsr		UpdateCursorPos
008D35 A7 04 03 02 01          		pop		r4/r3/r2/r1
008D3A 60 00 00 00 00 00       		rts
.doCursorUp:
008D40 81 00 01 01 08          		lbu		r1,CursorRow
008D45 58 01 30 8D 00          		brz		r1,.dcx7
008D4A 05 01 01 01 00          		sub		r1,r1,#1
008D50 A0 00 01 01 08          		sb		r1,CursorRow
008D55 46 00 30 8D 00          		bra		.dcx7
                        	.doCursorLeft:
008D5A 81 00 01 11 08          		lbu		r1,CursorCol
008D60 58 01 30 8D 00          		brz		r1,.dcx7
008D65 05 01 01 01 00          		sub		r1,r1,#1
008D6A A0 00 01 11 08          		sb		r1,CursorCol
008D70 46 00 30 8D 00          		bra		.dcx7
                        	.doCursorDown:
008D75 81 00 01 01 08          		lbu		r1,CursorRow
008D7A 04 01 01 01 00          		add		r1,r1,#1
008D80 06 01 F4 1F 00          		cmp		fl0,r1,#31
008D85 4E F4 30 8D 00          		bhs		fl0,.dcx7
008D8A A0 00 01 01 08          		sb		r1,CursorRow
008D90 46 00 30 8D 00          		bra		.dcx7
                        	.doCursorHome:
008D95 81 00 01 11 08          		lbu		r1,CursorCol
008D9A 58 01 AA 8D 00          		brz		r1,.dcx12
008DA0 A0 00 00 11 08          		sb		r0,CursorCol
008DA5 46 00 30 8D 00          		bra		.dcx7
                        	.dcx12:
008DAA A0 00 00 01 08          		sb		r0,CursorRow
008DB0 46 00 30 8D 00          		bra		.dcx7
                        	.doDelete:
008DB5 56 00 00 8C 00          		bsr		CalcScreenLoc
008DBA 01 01 03 00 04          		mov		r3,r1
008DC0 81 00 01 11 08          		lbu		r1,CursorCol
008DC5 46 00 F0 8D 00          		bra		.dcx5
                        	.doBackspace:
008DCA 81 00 01 11 08          		lbu		r1,CursorCol
008DD0 58 01 F5 8C 00          		brz		r1,.dcx4
008DD5 05 01 01 01 00          		sub		r1,r1,#1
008DDA A0 00 01 11 08          		sb		r1,CursorCol
008DE0 56 00 00 8C 00          		bsr		CalcScreenLoc
008DE5 01 01 03 00 04          		mov		r3,r1
008DEA 81 00 01 11 08          		lbu		r1,CursorCol
                        	.dcx5:
008DF0 85 03 02 41 00          		lhu		r2,4[r3]
008DF5 A2 03 02 01 00          		sh		r2,[r3]
008DFA 04 03 03 04 00          		add		r3,r3,#4
008E00 04 01 01 01 00          		add		r1,r1,#1
008E05 06 01 F4 38 00          		cmp		fl0,r1,#56
008E0A 4F F4 F0 8D 00          		blo		fl0,.dcx5
008E10 16 01 20 00 00          		ldi		r1,#' '
008E15 56 00 F0 88 00          		bsr		AsciiToScreen
008E1A 85 00 02 81 07          		lhu		r2,NormAttr
008E20 02 01 02 01 21          		or		r1,r1,r2
008E25 05 03 03 04 00          		sub		r3,r3,#4
008E2A A2 03 01 01 00          		sh		r1,[r3]
008E30 46 00 F5 8C 00          		bra		.dcx4
                        	.doLinefeed:
008E35 56 00 6A 8E 00          		bsr		IncCursorRow
008E3A 46 00 F5 8C 00          		bra		.dcx4
                        	IncCursorPos:
008E40 A6 01 02 04 00          		push	r1/r2/r4
008E45 81 00 01 11 08          		lbu		r1,CursorCol
008E4A 04 01 01 01 00          		add		r1,r1,#1
008E50 A0 00 01 11 08          		sb		r1,CursorCol
008E55 06 01 F4 38 00          		cmp		fl0,r1,#56
008E5A 4F F4 9A 8E 00          		blo		fl0,icc1
008E60 A0 00 00 11 08          		sb		r0,CursorCol
008E65 46 00 70 8E 00          		bra		icr1
                        	IncCursorRow:
008E6A A6 01 02 04 00          		push	r1/r2/r4
                        	icr1:
008E70 81 00 01 01 08          		lbu		r1,CursorRow
008E75 04 01 01 01 00          		add		r1,r1,#1
008E7A A0 00 01 01 08          		sb		r1,CursorRow
008E80 06 01 F4 1F 00          		cmp		fl0,r1,#31
008E85 4F F4 9A 8E 00          		blo		fl0,icc1
008E8A 16 02 1E 00 00          		ldi		r2,#30
008E90 A0 00 02 01 08          		sb		r2,CursorRow
008E95 56 00 AA 8E 00          		bsr		ScrollUp
                        	icc1:
008E9A 56 00 BA 8B 00          		bsr		UpdateCursorPos
008EA0 A7 04 02 01 00          		pop		r4/r2/r1
008EA5 60 00 00 00 00          		rts

                        	;------------------------------------------------------------------------------
                        	;------------------------------------------------------------------------------
                        	
                        	ScrollUp:
008EAA A6 01 02 03 05          		push	r1/r2/r3/r5
008EB0 A6 06 00 00 00          		push	r6
008EB5 FD A0 FD 0F 00    ; imm
008EBA 81 00 01 01 00          		lbu		r1,TEXTREG+TEXT_COLS
008EC0 FD A0 FD 0F 00    ; imm
008EC5 81 00 02 41 00          		lbu		r2,TEXTREG+TEXT_ROWS
008ECA 05 02 02 01 00          		sub		r2,r2,#1
008ED0 02 01 02 06 07          		mul		r6,r1,r2
008ED5 FD FF 00 00 00    ; imm
008EDA 16 01 00 00 D0          		ldi		r1,#TEXTSCR
008EE0 FD FF 00 00 00    ; imm
008EE5 16 02 E0 00 D0          		ldi		r2,#TEXTSCR+224
008EEA 16 03 00 00 00          		ldi		r3,#0
                        	.0001:
008EF0 02 03 02 03 50          	    shl     r3,r3,#2
008EF5 8C 02 03 05 04          		lh		r5,[r2+r3]
008EFA AA 01 03 05 04          		sh		r5,[r1+r3]
008F00 02 03 02 03 52          		shr     r3,r3,#2
008F05 04 03 03 01 00          		add		r3,r3,#1
008F0A 5A 06 F0 8E 00          		dbnz	r6,.0001
008F10 FD A0 FD 0F 00    ; imm
008F15 81 00 01 41 00          		lbu		r1,TEXTREG+TEXT_ROWS
008F1A 05 01 01 01 00          		sub		r1,r1,#1
008F20 56 00 35 8F 00          		bsr		BlankLine
008F25 A7 06 00 00 00          		pop		r6
008F2A A7 05 03 02 01          		pop		r5/r3/r2/r1
008F30 60 00 00 00 00          		rts

                        	;------------------------------------------------------------------------------
                        	; Blank out a line on the screen.
                        	;
                        	; Parameters:
                        	;	r1 = line number to blank out
                        	;------------------------------------------------------------------------------
                        	
                        	BlankLine:
008F35 A6 01 02 03 04          		push	r1/r2/r3/r4
008F3A FD A0 FD 0F 00    ; imm
008F40 81 00 02 01 00          		lbu	    r2,TEXTREG+TEXT_COLS
008F45 02 02 01 03 07          		mul		r3,r2,r1
008F4A 05 02 02 01 00          		sub		r2,r2,#1		; r2 = #chars to blank - 1
008F50 02 03 02 03 50          		shl		r3,r3,#2
008F55 FD D0 FF 00 00    ; imm
008F5A 04 03 03 00 00          		add		r3,r3,#TEXTSCR
008F60 16 01 20 00 00          		ldi		r1,#' '
008F65 56 00 F0 88 00          		bsr		AsciiToScreen
008F6A 85 00 04 81 07          		lhu		r4,NormAttr
008F70 02 01 04 01 21          		or		r1,r1,r4
                        	.0001:
008F75 02 02 02 02 50          	    shl     r2,r2,#2	
008F7A AA 03 02 01 04          		sh		r1,[r3+r2]
008F80 02 02 02 02 52          		shr     r2,r2,#2
008F85 5A 02 75 8F 00          		dbnz	r2,.0001
008F8A A7 04 03 02 01          		pop		r4/r3/r2/r1
008F90 60 00 00 00 00          		rts

                        	; ============================================================================
                        	; Monitor Task
                        	; ============================================================================
                        	
                        	Monitor:
008F95 16 01 31 00 00          		ldi		r1,#49
008F9A FD C0 FD 0F 00    ; imm
008FA0 A0 00 01 01 60          		sb		r1,LEDS
008FA5 56 00 5A 89 00          		bsr		ClearScreen
008FAA 16 01 CA 93 00          		ldi		r1,#msgMonitorStarted
008FB0 56 00 9A 8A 00          		bsr		DisplayString
008FB5 A0 00 00 41 08          		sb		r0,KeybdEcho
                        		;ldi		r1,#7
                        		;ldi		r2,#0
                        		;ldi		r3,#IdleTask
                        		;ldi		r4,#0
                        		;ldi		r5,#0
                        		;bsr		StartTask
                        	mon1:
008FBA 16 01 32 00 00          		ldi		r1,#50
008FC0 FD C0 FD 0F 00    ; imm
008FC5 A0 00 01 01 60          		sb		r1,LEDS
008FCA 16 FF F8 FF 03          		ldi		sp,#TCBs+TCB_Size-8		; reload the stack pointer, it may have been trashed
008FD0 01 00 00 00 31          		cli
                        	.PromptLn:
008FD5 56 00 D0 8A 00          		bsr		CRLF
008FDA 16 01 24 00 00          		ldi		r1,#'$'
008FE0 56 00 40 91 00          		bsr		OutChar
                        	.Prompt3:
008FE5 56 00 F0 93 00          		bsr		KeybdGetCharDirectNB
008FEA 44 01 E5 8F 00          		brmi	r1,.Prompt3
008FF0 06 01 F4 0D 00          		cmp		fl0,r1,#CR
008FF5 40 F4 05 90 00          		beq		fl0,.Prompt1
008FFA 56 00 40 91 00          		bsr		OutChar
009000 46 00 E5 8F 00          		bra		.Prompt3
                        	.Prompt1:
009005 A0 00 00 11 08          		sb		r0,CursorCol
00900A 56 00 00 8C 00          		bsr		CalcScreenLoc
009010 01 01 03 00 04          		mov		r3,r1
009015 56 00 80 90 00          		bsr		MonGetch
00901A 06 01 F4 24 00          		cmp		fl0,r1,#'$'
009020 41 F4 2A 90 00          		bne		fl0,.Prompt2
009025 56 00 80 90 00          		bsr		MonGetch
                        	.Prompt2:
00902A 06 01 F4 3F 00          		cmp		fl0,r1,#'?'
009030 40 F4 70 90 00          		beq		fl0,.doHelp
009035 06 01 F4 43 00          		cmp		fl0,r1,#'C'
00903A 40 F4 E0 93 00          		beq		fl0,doCLS
009040 06 01 F4 4D 00          		cmp		fl0,r1,#'M'
009045 40 F4 EA 90 00          		beq		fl0,doDumpmem
00904A 06 01 F4 6D 00          		cmp		fl0,r1,#'m'
009050 40 F4 45 97 00          		beq		fl0,MRTest
009055 06 01 F4 53 00          		cmp		fl0,r1,#'S'
00905A 40 F4 15 91 00          		beq		fl0,doSDBoot
009060 06 01 F4 67 00          		cmp		fl0,r1,#'g'
009065 40 F4 45 91 00          		beq		fl0,doRand
00906A 46 00 BA 8F 00          		bra mon1
                        	.doHelp:
009070 16 01 7A 93 00          		ldi		r1,#msgHelp
009075 56 00 9A 8A 00          		bsr		DisplayString
00907A 46 00 BA 8F 00          		bra mon1
                        	MonGetch:
009080 85 03 01 01 00          		lhu		r1,[r3]
009085 0C 01 01 FF 01          		andi	r1,r1,#$1FF
00908A 04 03 03 04 00          		add		r3,r3,#4
009090 56 00 1A 89 00          		bsr		ScreenToAscii
009095 60 00 00 00 00          		rts

                        	;------------------------------------------------------------------------------
                        	; Ignore blanks in the input
                        	; r3 = text pointer
                        	; r1 destroyed
                        	;------------------------------------------------------------------------------
                        	
                        	ignBlanks:
                        	ignBlanks1:
00909A 56 00 80 90 00          		bsr		MonGetch
0090A0 06 01 F4 20 00          		cmp		fl0,r1,#' '
0090A5 40 F4 9A 90 00          		beq		fl0,ignBlanks1
0090AA 05 03 03 04 00          		sub		r3,r3,#4
0090B0 60 00 00 00 00          		rts

                        	;------------------------------------------------------------------------------
                        	;------------------------------------------------------------------------------
                        	
                        	GetTwoParams:
0090B5 56 00 9A 90 00          		bsr		ignBlanks
0090BA 56 00 A0 92 00          		bsr		GetHexNumber	; get start address of dump
0090C0 01 01 02 00 04          		mov		r2,r1
0090C5 56 00 9A 90 00          		bsr		ignBlanks
0090CA 56 00 A0 92 00          		bsr		GetHexNumber	; get end address of dump
0090D0 60 00 00 00 00          		rts

                        	;------------------------------------------------------------------------------
                        	; Get a range, the end must be greater or equal to the start.
                        	;------------------------------------------------------------------------------
                        	
                        	GetRange:
0090D5 56 00 B5 90 00          		bsr		GetTwoParams
0090DA 02 02 01 F4 06          		cmp		fl0,r2,r1
0090E0 4C F4 60 93 00          		bhi		fl0,DisplayErr
0090E5 60 00 00 00 00          		rts

                        	doDumpmem:
0090EA 56 00 35 89 00          		bsr		CursorOff
0090F0 56 00 D5 90 00          		bsr		GetRange
0090F5 56 00 D0 8A 00          		bsr		CRLF
                        	.001:
0090FA 56 00 45 92 00          		bsr		CheckKeys
009100 56 00 75 91 00          		bsr		DisplayMemBytes
009105 02 02 01 F4 06          		cmp		fl0,r2,r1
00910A 4D F4 FA 90 00          		bls		fl0,.001
009110 46 00 BA 8F 00          		bra mon1
                        	
                        	doSDBoot:
                        	;	sub		r3,r3,#4
009115 56 00 80 97 00          		bsr		SDInit
00911A 59 01 BA 8F 00          		brnz	r1,mon1
009120 56 00 15 9B 00          		bsr		SDReadPart
009125 59 01 BA 8F 00          		brnz	r1,mon1
00912A 56 00 C0 9B 00          		bsr		SDReadBoot
009130 59 01 BA 8F 00          		brnz	r1,mon1
009135 56 00 8A 9C 00          		bsr		loadBootFile
00913A 50 BA 8F 00 00          		jmp		mon1
                        	OutChar:
009140 52 00 81 01 00          		jmp		(OutputVec)
                        	
                        	doRand:
009145 01 00 01 00 49          		mfspr	r1,tick
00914A 01 01 10 00 48          		mtspr	srand1,r1
009150 01 00 01 00 49          		mfspr	r1,tick
009155 01 01 11 00 48          		mtspr	srand2,r1
                        	.0001:
00915A 01 00 01 00 14          		gran	r1
009160 56 00 2A 8A 00          		bsr		DisplayWord
009165 56 00 D0 8A 00          		bsr		CRLF
00916A 56 00 45 92 00          		bsr		CheckKeys
009170 46 00 5A 91 00          		bra .0001
                        	
                        	;------------------------------------------------------------------------------
                        	; Display memory pointed to by r2.
                        	; destroys r1,r3
                        	;------------------------------------------------------------------------------
                        	;
                        	DisplayMemBytes:
009175 A6 01 03 00 00          		push	r1/r3
00917A 16 01 3E 00 00          		ldi		r1,#'>'
009180 56 00 40 91 00          		bsr		OutChar
009185 16 01 42 00 00          		ldi		r1,#'B'
00918A 56 00 40 91 00          		bsr		OutChar
009190 16 01 20 00 00          		ldi		r1,#' '
009195 56 00 40 91 00          		bsr		OutChar
00919A 01 02 01 00 04          		mov		r1,r2
0091A0 56 00 3A 8A 00          		bsr		DisplayHalf
0091A5 16 03 07 00 00          		ldi		r3,#7
                        	.001:
0091AA 16 01 20 00 00          		ldi		r1,#' '
0091B0 56 00 40 91 00          		bsr		OutChar
0091B5 81 02 01 01 00          		lbu		r1,[r2]
0091BA 51 5A 8A 00 00          		jsr		DisplayByte
0091C0 04 02 02 01 00          		add		r2,r2,#1
0091C5 5A 03 AA 91 00          		dbnz	r3,.001
0091CA 16 01 3A 00 00          		ldi		r1,#':'
0091D0 56 00 40 91 00          		bsr		OutChar
0091D5 FD 0D 00 00 00    ; imm
0091DA 16 01 00 10 70          		ldi		r1,#%110101110_000000100_0000000000	; reverse video
0091E0 A2 00 01 81 07          		sh		r1,NormAttr
0091E5 16 03 07 00 00          		ldi		r3,#7
0091EA 05 02 02 08 00          		sub		r2,r2,#8
                        	.002
0091F0 81 02 01 01 00          		lbu		r1,[r2]
0091F5 06 01 F4 1A 00          		cmp		fl0,r1,#26				; convert control characters to '.'
0091FA 4E F4 0A 92 00          		bhs		fl0,.004
009200 16 01 2E 00 00          		ldi		r1,#'.'
009205 46 00 1A 92 00          		bra .003
                        	.004:
00920A 06 01 F4 80 00          		cmp		fl0,r1,#$80				; convert other non-ascii to '.'
009210 4F F4 1A 92 00          		blo		fl0,.003
009215 16 01 2E 00 00          		ldi		r1,#'.'
                        	.003:
00921A 56 00 40 91 00          		bsr		OutChar
009220 04 02 02 01 00          		add		r2,r2,#1
009225 5A 03 F0 91 00          		dbnz	r3,.002
00922A 16 01 00 B8 26          		ldi		r1,#%000000100_110101110_0000000000	; normal video
009230 A2 00 01 81 07          		sh		r1,NormAttr
009235 56 00 D0 8A 00          		bsr		CRLF
00923A A7 03 01 00 00          		pop		r3/r1
009240 60 00 00 00 00          		rts

                        	;------------------------------------------------------------------------------
                        	; CheckKeys:
                        	;	Checks for a CTRLC or a scroll lock during long running dumps.
                        	;------------------------------------------------------------------------------
                        	
                        	CheckKeys:
009245 56 00 50 92 00          		bsr		CTRLCCheck
00924A 46 00 7A 92 00          		bra CheckScrollLock
                        	CTRLCCheck:
009250 A6 01 00 00 00          		push	r1
009255 56 00 F0 93 00          		bsr		KeybdGetCharDirectNB
00925A 06 01 F4 03 00          		cmp		fl0,r1,#CTRLC
009260 40 F4 70 92 00          		beq		fl0,.0001
009265 A7 01 00 00 00          		pop		r1
00926A 60 00 00 00 00 00       		rts
.0001:
009270 04 FF FF 10 00          		add		sp,sp,#16
009275 46 00 BA 8F 00          		bra mon1
                        	
                        	;------------------------------------------------------------------------------
                        	; CheckScrollLock:
                        	;	Check for a scroll lock by the user. If scroll lock is active then tasks
                        	; are rescheduled while the scroll lock state is tested in a loop.
                        	;------------------------------------------------------------------------------
                        	
                        	CheckScrollLock:
00927A A6 01 00 00 00          		push	r1
                        	.0002:
009280 83 00 01 61 08          		lcu		r1,KeybdLocks
009285 0C 01 F4 00 40          		and		fl0,r1,#$4000		; is scroll lock active ?
00928A 58 F4 95 92 00          		brz		fl0,.0001
009290 46 00 80 92 00          		bra .0002
                        	.0001:
009295 A7 01 00 00 00          		pop		r1
00929A 60 00 00 00 00          		rts

                        	GetHexNumber:
0092A0 A6 02 04 00 00          		push	r2/r4
0092A5 16 02 00 00 00          		ldi		r2,#0
0092AA 16 04 0F 00 00          		ldi		r4,#15
                        	.gthxn2:
0092B0 56 00 80 90 00          		bsr		MonGetch
0092B5 56 00 EA 92 00          		bsr		AsciiToHexNybble
0092BA 06 01 F4 FF FF          		cmp		fl0,r1,#-1
0092C0 40 F4 DA 92 00          		beq		fl0,.gthxn1
0092C5 02 02 04 02 50          		shl		r2,r2,#4
0092CA 0C 01 01 0F 00          		and		r1,r1,#$0f
0092D0 02 02 01 02 21          		or		r2,r2,r1
0092D5 5A 04 B0 92 00          		dbnz	r4,.gthxn2
                        	.gthxn1:
0092DA 01 02 01 00 04          		mov		r1,r2
0092E0 A7 04 02 00 00          		pop		r4/r2
0092E5 60 00 00 00 00          		rts

                        	;------------------------------------------------------------------------------
                        	; Convert ASCII character in the range '0' to '9', 'a' to 'f' or 'A' to 'F'
                        	; to a hex nybble.
                        	;------------------------------------------------------------------------------
                        	;
                        	AsciiToHexNybble:
0092EA 06 01 F4 30 00          		cmp		fl0,r1,#'0'
0092F0 4F F4 55 93 00          		blo		fl0,.gthx3
0092F5 06 01 F4 3A 00          		cmp		fl0,r1,#'9'+1
0092FA 4E F4 0A 93 00          		bhs		fl0,.gthx5
009300 05 01 01 30 00          		sub		r1,r1,#'0'
009305 60 00 00 00 00          		rts
.gthx5:
00930A 06 01 F4 41 00          		cmp		fl0,r1,#'A'
009310 4F F4 55 93 00          		blo		fl0,.gthx3
009315 06 01 F4 47 00          		cmp		fl0,r1,#'F'+1
00931A 4E F4 30 93 00          		bhs		fl0,.gthx6
009320 05 01 01 41 00          		sub		r1,r1,#'A'
009325 04 01 01 0A 00          		add		r1,r1,#10
00932A 60 00 00 00 00 00       		rts
.gthx6:
009330 06 01 F4 61 00          		cmp		fl0,r1,#'a'
009335 4F F4 55 93 00          		blo		fl0,.gthx3
00933A 06 01 F4 7B 00          		cmp		fl0,r1,#'z'+1
009340 4E F4 55 93 00          		bhs		fl0,.gthx3
009345 05 01 01 61 00          		sub		r1,r1,#'a'
00934A 04 01 01 0A 00          		add		r1,r1,#10
009350 60 00 00 00 00          		rts
.gthx3:
009355 16 01 FF FF FF          		ldi		r1,#-1		; not a hex number
00935A 60 00 00 00 00          		rts

                        	DisplayErr:
009360 16 01 70 93 00          		ldi		r1,#msgErr
009365 56 00 9A 8A 00          		bsr		DisplayString
00936A 46 00 BA 8F 00          		bra mon1
                        	msgErr:
009370 2A 2A 45 72 72 0D 0A 00 		db	"**Err",CR,LF,0
                        	
009378 00 00                   	msgHelp:
00937A 3F 20 3D 20 44 69 73 70 		db		"? = Display Help",CR,LF
009382 6C 61 79 20 48 65 6C 70 
00938A 0D 0A                   
00938C 43 4C 53 20 3D 20 63 6C 		db		"CLS = clear screen",CR,LF
009394 65 61 72 20 73 63 72 65 
00939C 65 6E 0D 0A             
0093A0 4D 42 20 3D 20 64 75 6D 		db		"MB = dump memory",CR,LF
0093A8 70 20 6D 65 6D 6F 72 79 
0093B0 0D 0A                   
0093B2 53 20 3D 20 62 6F 6F 74 		db		"S = boot from SD card",CR,LF
0093BA 20 66 72 6F 6D 20 53 44 
0093C2 20 63 61 72 64 0D 0A    
0093C9 00                      		db		0
                        	
                        	msgMonitorStarted
0093CA 4D 6F 6E 69 74 6F 72 20 		db		"Monitor started.",0
0093D2 73 74 61 72 74 65 64 2E 
0093DA 00                      
                        	
0093DB 00 00 00 00 00          	doCLS:
0093E0 56 00 5A 89 00          		bsr		ClearScreen
0093E5 56 00 40 89 00          		bsr		HomeCursor
0093EA 46 00 BA 8F 00          		bra mon1
                        	KEYBD_DELAY		EQU		1000
                        	
                        	KeybdGetCharDirectNB:
0093F0 A6 02 00 00 00          		push	r2
0093F5 01 00 00 00 30          		sei
0093FA 01 05 01 00 49          		mfspr	r1,cr0			; turn off tmr for i/o
009400 A6 01 00 00 00          		push	r1
009405 16 01 00 00 00          		ldi		r1,#0
00940A 01 01 05 00 48          		mtspr	cr0,r1
009410 FD C0 FD 0F 00    ; imm
009415 83 00 01 01 00          		lcu		r1,KEYBD
00941A FD 00 00 00 00    ; imm
009420 0C 01 F4 00 80          		and		fl0,r1,#$8000
009425 58 F4 85 94 00          		brz		fl0,.0001
00942A FD C0 FD 0F 00    ; imm
009430 81 00 00 41 00          		lbu		r0,KEYBD+4		; clear keyboard strobe
009435 01 00 00 00 31          		cli
00943A 0C 01 F4 00 08          		and		fl0,r1,#$800	; is it keydown ?
009440 59 F4 85 94 00          		brnz	fl0,.0001
009445 A7 02 00 00 00          		pop		r2
00944A 01 02 05 00 48          		mtspr	cr0,r2			; set tmr mode back
009450 0C 01 01 FF 00          		and		r1,r1,#$FF
009455 81 00 02 41 08          		lbu		r2,KeybdEcho
00945A 58 02 7A 94 00          		brz		r2,.0002
009460 06 01 F4 0D 00          		cmp		fl0,r1,#CR
009465 41 F4 75 94 00          		bne		fl0,.0003
00946A 56 00 D0 8A 00          		bsr		CRLF
009470 46 00 7A 94 00          		bra .0002
                        	.0003:
009475 53 00 81 01 00          		jsr		(OutputVec)
                        	.0002:
00947A A7 02 00 00 00          		pop		r2
009480 60 00 00 00 00          		rts
.0001:
009485 A7 02 00 00 00          		pop		r2
00948A 01 02 05 00 48          		mtspr	cr0,r2			; set tmr mode back
009490 01 00 00 00 31          		cli
009495 16 01 FF FF FF          		ldi		r1,#-1
00949A A7 02 00 00 00          		pop		r2
0094A0 60 00 00 00 00          		rts

                        	KeybdGetCharDirect:
0094A5 A6 02 00 00 00          		push	r2
0094AA 01 05 01 00 49          		mfspr	r1,cr0
0094B0 A6 01 00 00 00          		push	r1
0094B5 01 00 05 00 48          		mtspr	cr0,r0			; clear tmr mode
0094BA    ; imm
0094BA FD C0 FD 0F 00    ; imm
0094C0 82 00 01 01 00          		lc		r1,KEYBD
0094C5 FD 00 00 00 00    ; imm
0094CA 0C 01 F4 00 80          		and		fl0,r1,#$8000
0094D0 58 F4 BA 94 00          		brz		fl0,.0001
0094D5 FD C0 FD 0F 00    ; imm
0094DA 81 00 00 41 00          		lbu		r0,KEYBD+4		; clear keyboard strobe
0094E0 0C 01 F4 00 08          		and		fl0,r1,#$800	; is it keydown ?
0094E5 59 F4 BA 94 00          		brnz	fl0,.0001
0094EA A7 02 00 00 00          		pop		r2				; restore tmr mode
0094F0 01 02 05 00 48          		mtspr	cr0,r2
0094F5 0C 01 01 FF 00          		and		r1,r1,#$FF
0094FA 81 00 02 41 08          		lbu		r2,KeybdEcho
009500 58 02 20 95 00          		brz		r2,.gk1
009505 06 01 F4 0D 00          		cmp		fl0,r1,#CR
00950A 41 F4 1A 95 00          		bne		fl0,.gk2
009510 56 00 D0 8A 00          		bsr		CRLF
009515 46 00 20 95 00          		bra .gk1
                        	.gk2:
00951A 53 00 81 01 00          		jsr		(OutputVec)
                        	.gk1:
009520 A7 02 00 00 00          		pop		r2
009525 60 00 00 00 00          		rts

                        	KeybdInit:
00952A 01 05 01 00 49          		mfspr	r1,cr0		; turn off tmr mode
009530 A6 01 00 00 00          		push	r1
009535 01 00 05 00 48          		mtspr	cr0,r0
00953A 16 01 21 00 00          		ldi		r1,#33
009540 FD C0 FD 0F 00    ; imm
009545 A0 00 01 01 60          		sb		r1,LEDS
00954A 16 01 FF 00 00          		ldi		r1,#$ff		; issue keyboard reset
009550 56 00 20 96 00          		bsr		SendByteToKeybd
009555 16 01 26 00 00          		ldi		r1,#38
00955A FD C0 FD 0F 00    ; imm
009560 A0 00 01 01 60          		sb		r1,LEDS
009565 16 01 04 00 00          		ldi		r1,#4
                        	;	jsr		Sleep
00956A 16 01 E8 03 00          		ldi		r1,#KEYBD_DELAY	; delay a bit
                        	kbdi5:
009570 05 01 01 01 00          		sub		r1,r1,#1
009575 59 01 70 95 00          		brnz	r1,kbdi5
00957A 16 01 22 00 00          		ldi		r1,#34
009580 FD C0 FD 0F 00    ; imm
009585 A0 00 01 01 60          		sb		r1,LEDS
00958A 16 01 F0 00 00          		ldi		r1,#0xf0		; send scan code select
009590 56 00 20 96 00          		bsr		SendByteToKeybd
009595 16 01 23 00 00          		ldi		r1,#35
00959A FD C0 FD 0F 00    ; imm
0095A0 A0 00 01 01 60          		sb		r1,LEDS
0095A5 16 02 FA 00 00          		ldi		r2,#0xFA
0095AA 56 00 E5 96 00          		bsr		WaitForKeybdAck
0095B0 06 01 F4 FA 00          		cmp		fl0,r1,#$FA
0095B5 41 F4 E5 95 00          		bne		fl0,kbdi2
0095BA 16 01 24 00 00          		ldi		r1,#36
0095C0 FD C0 FD 0F 00    ; imm
0095C5 A0 00 01 01 60          		sb		r1,LEDS
0095CA 16 01 02 00 00          		ldi		r1,#2			; select scan code set#2
0095D0 56 00 20 96 00          		bsr		SendByteToKeybd
0095D5 16 01 27 00 00          		ldi		r1,#39
0095DA FD C0 FD 0F 00    ; imm
0095E0 A0 00 01 01 60          		sb		r1,LEDS
                        	kbdi2:
0095E5 16 01 2D 00 00          		ldi		r1,#45
0095EA FD C0 FD 0F 00    ; imm
0095F0 A0 00 01 01 60          		sb		r1,LEDS
0095F5 A7 01 00 00 00          		pop		r1				; turn back on tmr mode
0095FA 01 01 05 00 48          		mtspr	cr0,r1
009600 60 00 00 00 00          		rts

                        	msgBadKeybd:
009605 4B 65 79 62 6F 61 72 64 		db		"Keyboard not responding.",0
00960D 20 6E 6F 74 20 72 65 73 
009615 70 6F 6E 64 69 6E 67 2E 
00961D 00                      
                        	
00961E 00 00                   	SendByteToKeybd:
009620 A6 02 00 00 00          		push	r2
009625 FD C0 FD 0F 00    ; imm
00962A A0 00 01 01 00          		sb		r1,KEYBD
009630 16 01 28 00 00          		ldi		r1,#40
009635 FD C0 FD 0F 00    ; imm
00963A A0 00 01 01 60          		sb		r1,LEDS
009640 01 00 03 00 49          		mfspr	r3,tick
                        	kbdi4:						; wait for transmit complete
009645 01 00 04 00 49          		mfspr	r4,tick
00964A 02 04 03 04 05          		sub		r4,r4,r3
009650 06 04 F4 E8 03          		cmp		fl0,r4,#KEYBD_DELAY
009655 4C F4 85 96 00          		bhi		fl0,kbdbad
00965A 16 01 29 00 00          		ldi		r1,#41
009660 FD C0 FD 0F 00    ; imm
009665 A0 00 01 01 60          		sb		r1,LEDS
00966A FD C0 FD 0F 00    ; imm
009670 81 00 01 C1 00          		lbu		r1,KEYBD+12
009675 0C 01 F4 40 00          		and		fl0,r1,#64
00967A 58 F4 45 96 00          		brz		fl0,kbdi4
009680 46 00 C5 96 00          		bra sbtk1
                        	kbdbad:
009685 16 01 2A 00 00          		ldi		r1,#42
00968A FD C0 FD 0F 00    ; imm
009690 A0 00 01 01 60          		sb		r1,LEDS
009695 81 00 01 51 08          		lbu		r1,KeybdBad
00969A 59 01 E0 96 00          		brnz	r1,sbtk2
0096A0 16 01 01 00 00          		ldi		r1,#1
0096A5 A0 00 01 51 08          		sb		r1,KeybdBad
0096AA 16 01 2B 00 00          		ldi		r1,#43
0096B0 FD C0 FD 0F 00    ; imm
0096B5 A0 00 01 01 60          		sb		r1,LEDS
0096BA 16 01 05 96 00          		ldi		r1,#msgBadKeybd
0096C0 56 00 CA 8A 00          		bsr		DisplayStringCRLF
                        	sbtk1:
0096C5 16 01 2C 00 00          		ldi		r1,#44
0096CA FD C0 FD 0F 00    ; imm
0096D0 A0 00 01 01 60          		sb		r1,LEDS
0096D5 A7 02 00 00 00          		pop		r2
0096DA 60 00 00 00 00 00       		rts
sbtk2:
0096E0 46 00 C5 96 00          		bra sbtk1
                        	
                        	; Wait for keyboard to respond with an ACK (FA)
                        	;
                        	WaitForKeybdAck:
0096E5 16 01 40 00 00          		ldi		r1,#64
0096EA FD C0 FD 0F 00    ; imm
0096F0 A0 00 01 01 60          		sb		r1,LEDS
0096F5 01 00 03 00 49          		mfspr	r3,tick
                        	wkbdack1:
0096FA 01 00 04 00 49          		mfspr	r4,tick
009700 02 04 03 04 05          		sub		r4,r4,r3
009705 06 04 F4 E8 03          		cmp		fl0,r4,#KEYBD_DELAY
00970A 4C F4 40 97 00          		bhi		fl0,wkbdbad
009710 16 01 41 00 00          		ldi		r1,#65
009715 FD C0 FD 0F 00    ; imm
00971A A0 00 01 01 60          		sb		r1,LEDS
009720 FD C0 FD 0F 00    ; imm
009725 83 00 01 01 00          		lcu		r1,KEYBD
00972A FD 00 00 00 00    ; imm
009730 0C 01 F4 00 80          		and		fl0,r1,#$8000
009735 58 F4 FA 96 00          		brz		fl0,wkbdack1
                        	;	lcu		r1,KEYBD+8
00973A 0C 01 01 FF 00          		and		r1,r1,#$ff
                        	wkbdbad:
009740 60 00 00 00 00          		rts

                        	MRTest:
009745 16 01 00 00 00          		ldi		r1,#0
00974A 16 03 FF 00 00          		ldi		r3,#255
                        	.0001:
009750 02 03 03 04 50          	    shl     r4,r3,#3
009755 FD 00 00 04 00    ; imm
00975A AB 00 04 03 04          		sw		r3,$100000[r0+r4]
009760 5A 03 50 97 00          		dbnz	r3,.0001
009765 16 01 00 00 10          		ldi		r1,#$100000
00976A 9C 02 FF 01 01          		lmr		r2,r255,[r1]
009770 16 01 00 00 12          		ldi		r1,#$120000
009775 BC 02 FF 01 01          		smr		r2,r255,[r1]
00977A 50 BA 8F 00 00          		jmp		mon1
                        	SDInit:
009780 A6 02 00 00 00          		push	r2
009785 01 05 02 00 49          		mfspr	r2,cr0		; turn off tmr
00978A A6 02 00 00 00          		push	r2
009790 01 00 05 00 48          		mtspr	cr0,r0
009795 FD FF 00 00 00    ; imm
00979A 16 02 00 05 DC          		ldi		r2,#SPIMASTER
0097A0 16 01 01 00 00          		ldi		r1,#SPI_INIT_SD
0097A5 A0 02 01 81 00          		sb		r1,SPI_TRANS_TYPE_REG[r2]
0097AA 16 01 01 00 00          		ldi		r1,#SPI_TRANS_START
0097B0 A0 02 01 C1 00          		sb		r1,SPI_TRANS_CTRL_REG[r2]
0097B5 EA EA EA EA EA          		nop
                        	.spi_init1
0097BA 81 02 01 01 01          		lbu		r1,SPI_TRANS_STATUS_REG[r2]
0097C0 56 00 55 98 00          		bsr		spi_delay
0097C5 06 01 F4 01 00          		cmp		fl0,r1,#SPI_TRANS_BUSY
0097CA 40 F4 BA 97 00          		beq		fl0,.spi_init1
0097D0 81 02 01 41 01          		lbu		r1,SPI_TRANS_ERROR_REG[r2]
0097D5 0C 01 01 03 00          		and		r1,r1,#3
0097DA 06 01 F4 00 00          		cmp		fl0,r1,#SPI_INIT_NO_ERROR
0097E0 41 F4 00 98 00          		bne		fl0,.spi_error
                        	;	lda		#spi_init_ok_msg
                        	;	jsr		DisplayStringB
0097E5 A7 02 00 00 00          		pop		r2
0097EA 01 02 05 00 48          		mtspr	cr0,r2
0097F0 A7 02 00 00 00          		pop		r2
0097F5 16 01 00 00 00          		ldi		r1,#E_Ok
0097FA 60 00 00 00 00 00       		rts
.spi_error
009800 56 00 5A 8A 00          		bsr		DisplayByte
009805 16 01 C0 9E 00          		ldi		r1,#spi_init_error_msg
00980A 56 00 9A 8A 00          		bsr		DisplayString
009810 81 02 01 01 0C          		lbu		r1,SPI_RESP_BYTE1[r2]
009815 56 00 5A 8A 00          		bsr		DisplayByte
00981A 81 02 01 41 0C          		lbu		r1,SPI_RESP_BYTE2[r2]
009820 56 00 5A 8A 00          		bsr		DisplayByte
009825 81 02 01 81 0C          		lbu		r1,SPI_RESP_BYTE3[r2]
00982A 56 00 5A 8A 00          		bsr		DisplayByte
009830 81 02 01 C1 0C          		lbu		r1,SPI_RESP_BYTE4[r2]
009835 56 00 5A 8A 00          		bsr		DisplayByte
00983A A7 02 00 00 00          		pop		r2
009840 01 02 05 00 48          		mtspr	cr0,r2
009845 A7 02 00 00 00          		pop		r2
00984A 16 01 01 00 00          		ldi		r1,#1
009850 60 00 00 00 00          		rts

                        	spi_delay:
009855 EA EA EA EA EA          		nop
00985A EA EA EA EA EA          		nop
009860 60 00 00 00 00          		rts

                        	
                        	;------------------------------------------------------------------------------
                        	; SD read sector
                        	;
                        	; r1= sector number to read
                        	; r2= address to place read data
                        	; Returns:
                        	; r1 = 0 if successful
                        	;------------------------------------------------------------------------------
                        	;
                        	SDReadSector:
009865 A6 02 03 04 05          		push	r2/r3/r4/r5
00986A A6 06 00 00 00          		push	r6
009870 01 05 06 00 49          		mfspr	r6,cr0
009875 01 00 05 00 48          		mtspr	cr0,r0
00987A FD FF 00 00 00    ; imm
009880 16 05 00 05 DC          		ldi		r5,#SPIMASTER	
009885 A0 05 01 C1 01          		sb		r1,SPI_SD_SECT_7_0_REG[r5]
00988A 02 01 08 01 52          		shr		r1,r1,#8
009890 A0 05 01 01 02          		sb		r1,SPI_SD_SECT_15_8_REG[r5]
009895 02 01 08 01 52          		shr		r1,r1,#8
00989A A0 05 01 41 02          		sb		r1,SPI_SD_SECT_23_16_REG[r5]
0098A0 02 01 08 01 52          		shr		r1,r1,#8
0098A5 A0 05 01 81 02          		sb		r1,SPI_SD_SECT_31_24_REG[r5]
                        	
0098AA 16 04 13 00 00          		ldi		r4,#19	; retry count
                        	.spi_read_retry:
                        		; Force the reciever fifo to be empty, in case a prior error leaves it
                        		; in an unknown state.
0098B0 16 01 01 00 00          		ldi		r1,#1
0098B5 A0 05 01 01 05          		sb		r1,SPI_RX_FIFO_CTRL_REG[r5]
                        	
0098BA 16 01 02 00 00          		ldi		r1,#RW_READ_SD_BLOCK
0098C0 A0 05 01 81 00          		sb		r1,SPI_TRANS_TYPE_REG[r5]
0098C5 16 01 01 00 00          		ldi		r1,#SPI_TRANS_START
0098CA A0 05 01 C1 00          		sb		r1,SPI_TRANS_CTRL_REG[r5]
0098D0 EA EA EA EA EA          		nop
                        	.spi_read_sect1:
0098D5 81 05 01 01 01          		lbu		r1,SPI_TRANS_STATUS_REG[r5]
0098DA 56 00 55 98 00          		bsr		spi_delay			; just a delay between consecutive status reg reads
0098E0 06 01 F4 01 00          		cmp		fl0,r1,#SPI_TRANS_BUSY
0098E5 40 F4 D5 98 00          		beq		fl0,.spi_read_sect1
0098EA 81 05 01 41 01          		lbu		r1,SPI_TRANS_ERROR_REG[r5]
0098F0 02 01 02 01 52          		shr		r1,r1,#2
0098F5 0C 01 01 03 00          		and		r1,r1,#3
0098FA 06 01 F4 00 00          		cmp		fl0,r1,#SPI_READ_NO_ERROR
009900 41 F4 35 99 00          		bne		fl0,.spi_read_error
009905 16 03 FF 01 00          		ldi		r3,#511		; read 512 bytes from fifo
                        	.spi_read_sect2:
00990A 81 05 01 01 04          		lbu		r1,SPI_RX_FIFO_DATA_REG[r5]
009910 01 06 05 00 48          		mtspr	cr0,r6
009915 A0 02 01 01 00          		sb		r1,[r2]		; store byte in buffer using tmr
00991A 01 00 05 00 48          		mtspr	cr0,r0
009920 04 02 02 01 00          		add		r2,r2,#1
009925 5A 03 0A 99 00          		dbnz	r3,.spi_read_sect2
00992A 16 01 00 00 00          		ldi		r1,#0
009930 46 00 50 99 00          		bra		.spi_read_ret
                        	.spi_read_error:
009935 5A 04 B0 98 00          		dbnz	r4,.spi_read_retry
00993A 56 00 5A 8A 00          		bsr		DisplayByte
009940 16 01 00 9F 00          		ldi		r1,#spi_read_error_msg
009945 56 00 9A 8A 00          		bsr		DisplayString
00994A 16 01 01 00 00          		ldi		r1,#1
                        	.spi_read_ret:
009950 01 06 05 00 48          		mtspr	cr0,r6
009955 A7 06 00 00 00          		pop		r6
00995A A7 05 04 03 02          		pop		r5/r4/r3/r2
009960 60 00 00 00 00          		rts

                        	;------------------------------------------------------------------------------
                        	; BlocksToSectors:
                        	;	Convert a logical block number (LBA) to a sector number
                        	;------------------------------------------------------------------------------
                        	
                        	BlocksToSectors:
009965 02 01 01 01 50          		shl		r1,r1,#1			; 1k blocks = 2 sectors
00996A 60 00 00 00 00          		rts

                        	SDReadBlocks:
009970 60 00 00 00 00          		rts

                        	;------------------------------------------------------------------------------
                        	; SDWriteBlocks:
                        	;
                        	; Parameters:
                        	;	r1 = pointer to DCB
                        	;	r3 = block number
                        	;	r4 = number of blocks
                        	;	r5 = pointer to data area
                        	;------------------------------------------------------------------------------
                        	
                        	SDWriteBlocks:
009975 60 00 00 00 00          		rts

                        	;------------------------------------------------------------------------------
                        	; SDWriteSector:
                        	;
                        	; r1= sector number to write
                        	; r2= address to get data from
                        	; Returns:
                        	; r1 = 0 if successful
                        	;------------------------------------------------------------------------------
                        	;
                        	SDWriteSector:
00997A A6 02 03 04 05          		push	r2/r3/r4/r5
009980 A6 01 00 00 00          		push	r1
009985 01 05 05 00 49          		mfspr	r5,cr0
00998A 01 00 05 00 48          		mtspr	cr0,r0
009990 FD FF 00 00 00    ; imm
009995 16 04 00 05 DC          		ldi		r4,#SPIMASTER
                        	
                        		; Force the transmitter fifo to be empty, in case a prior error leaves it
                        		; in an unknown state.
00999A 16 01 01 00 00          		ldi		r1,#1
0099A0 A0 04 01 01 09          		sb		r1,SPI_TX_FIFO_CTRL_REG[r4]
0099A5 EA EA EA EA EA          		nop			; give I/O time to respond
0099AA EA EA EA EA EA          		nop
0099B0 16 03 FF 01 00          		ldi		r3,#511
                        	.spi_write_sect1:
0099B5 01 05 05 00 48          		mtspr	cr0,r5
0099BA 81 02 01 01 00          		lbu		r1,[r2]
0099C0 01 00 05 00 48          		mtspr	cr0,r0
0099C5 A0 04 01 01 08          		sb		r1,SPI_TX_FIFO_DATA_REG[r4]
0099CA EA EA EA EA EA          		nop			; give the I/O time to respond
0099D0 EA EA EA EA EA          		nop
0099D5 04 02 02 01 00          		add		r2,r2,#1
0099DA 5A 03 B5 99 00          		dbnz	r3,.spi_write_sect1
0099E0 A7 01 00 00 00          		pop		r1
0099E5 A0 04 01 C1 01          		sb		r1,SPI_SD_SECT_7_0_REG[r4]
0099EA 02 01 08 01 52          		shr		r1,r1,#8
0099F0 A0 04 01 01 02          		sb		r1,SPI_SD_SECT_15_8_REG[r4]
0099F5 02 01 08 01 52          		shr		r1,r1,#8
0099FA A0 04 01 41 02          		sb		r1,SPI_SD_SECT_23_16_REG[r4]
009A00 02 01 08 01 52          		shr		r1,r1,#8
009A05 A0 04 01 81 02          		sb		r1,SPI_SD_SECT_31_24_REG[r4]
                        	
                        		; issue the write command
009A0A 16 01 03 00 00          		ldi		r1,#RW_WRITE_SD_BLOCK
009A10 A0 04 01 81 00          		sb		r1,SPI_TRANS_TYPE_REG[r4]
009A15 16 01 01 00 00          		ldi		r1,#SPI_TRANS_START
009A1A A0 04 01 C1 00          		sb		r1,SPI_TRANS_CTRL_REG[r4]
009A20 EA EA EA EA EA          		nop
                        	.spi_write_sect2:
009A25 81 04 01 01 01          		lbu		r1,SPI_TRANS_STATUS_REG[r4]
009A2A EA EA EA EA EA          		nop							; just a delay between consecutive status reg reads
009A30 EA EA EA EA EA          		nop
009A35 06 01 F4 01 00          		cmp		fl0,r1,#SPI_TRANS_BUSY
009A3A 40 F4 25 9A 00          		beq		fl0,.spi_write_sect2
009A40 81 04 01 41 01          		lbu		r1,SPI_TRANS_ERROR_REG[r4]
009A45 02 01 04 01 52          		shr		r1,r1,#4
009A4A 0C 01 01 03 00          		and		r1,r1,#3
009A50 06 01 F4 00 00          		cmp		fl0,r1,#SPI_WRITE_NO_ERROR
009A55 41 F4 65 9A 00          		bne		fl0,.spi_write_error
009A5A 16 01 00 00 00          		ldi		r1,#0
009A60 46 00 7A 9A 00          		bra		.spi_write_ret
                        	.spi_write_error:
009A65 56 00 5A 8A 00          		bsr		DisplayByte
009A6A 16 01 15 9F 00          		ldi		r1,#spi_write_error_msg
009A70 56 00 9A 8A 00          		bsr		DisplayString
009A75 16 01 01 00 00          		ldi		r1,#1
                        	
                        	.spi_write_ret:
009A7A 01 05 05 00 48          		mtspr	cr0,r5
009A80 A7 05 04 03 02          		pop		r5/r4/r3/r2
009A85 60 00 00 00 00          		rts

                        	;------------------------------------------------------------------------------
                        	; SDReadMultiple: read multiple sectors
                        	;
                        	; r1= sector number to read
                        	; r2= address to write data
                        	; r3= number of sectors to read
                        	;
                        	; Returns:
                        	; r1 = 0 if successful
                        	;
                        	;------------------------------------------------------------------------------
                        	
                        	SDReadMultiple:
009A8A A6 04 00 00 00          		push	r4
009A90 16 04 00 00 00          		ldi		r4,#0
                        	.spi_rm1:
009A95 A6 01 00 00 00          		push	r1
009A9A 56 00 65 98 00          		bsr		SDReadSector
009AA0 02 04 01 04 04          		add		r4,r4,r1
009AA5 04 02 02 00 02          		add		r2,r2,#512
009AAA A7 01 00 00 00          		pop		r1
009AB0 04 01 01 01 00          		add		r1,r1,#1
009AB5 05 03 03 01 00          		sub		r3,r3,#1
009ABA 59 03 95 9A 00          		brnz	r3,.spi_rm1
009AC0 01 04 01 00 04          		mov		r1,r4
009AC5 A7 04 00 00 00          		pop		r4
009ACA 60 00 00 00 00          		rts

                        	SDWriteMultiple:
009AD0 A6 04 00 00 00          		push	r4
009AD5 16 04 00 00 00          		ldi		r4,#0
                        	.spi_wm1:
009ADA A6 01 00 00 00          		push	r1
009AE0 56 00 7A 99 00          		bsr		SDWriteSector
009AE5 02 04 01 04 04          		add		r4,r4,r1		; accumulate an error count
009AEA 04 02 02 00 02          		add		r2,r2,#512		; 512 bytes per sector
009AF0 A7 01 00 00 00          		pop		r1
009AF5 04 01 01 01 00          		add		r1,r1,#1
009AFA 05 03 03 01 00          		sub		r3,r3,#1
009B00 59 03 DA 9A 00          		brnz	r3,.spi_wm1
009B05 01 04 01 00 04          		mov		r1,r4
009B0A A7 04 00 00 00          		pop		r4
009B10 60 00 00 00 00          		rts
	
                        	;------------------------------------------------------------------------------
                        	; read the partition table to find out where the boot sector is.
                        	; Returns
                        	; r1 = 0 everything okay, 1=read error
                        	; also Z=1=everything okay, Z=0=read error
                        	;------------------------------------------------------------------------------
                        	
                        	SDReadPart:
009B15 A6 02 03 00 00          		push	r2/r3
009B1A A2 00 00 81 08          		sh		r0,startSector					; default starting sector
009B20 16 01 00 00 00          		ldi		r1,#0							; r1 = sector number (#0)
009B25 16 02 00 E0 23          		ldi		r2,#BYTE_SECTOR_BUF				; r2 = target address (word to byte address)
009B2A 56 00 65 98 00          		bsr		SDReadSector
009B30 59 01 A5 9B 00          		brnz	r1,.spi_rp1
009B35 FD 3E 02 00 00    ; imm
009B3A 83 00 01 81 1C          		lcu		r1,BYTE_SECTOR_BUF+$1C8
009B40 FD 3E 02 00 00    ; imm
009B45 83 00 03 61 1C          		lcu		r3,BYTE_SECTOR_BUF+$1C6
009B4A 02 01 10 01 50          		shl		r1,r1,#16
009B50 02 01 03 01 21          		or		r1,r1,r3
009B55 A2 00 01 81 08          		sh		r1,startSector					; r1 = 0, for okay status
009B5A 56 00 3A 8A 00          		bsr		DisplayHalf
009B60 56 00 D0 8A 00          		bsr		CRLF
009B65 FD 3E 02 00 00    ; imm
009B6A 83 00 01 C1 1C          		lcu		r1,BYTE_SECTOR_BUF+$1CC
009B70 FD 3E 02 00 00    ; imm
009B75 83 00 03 A1 1C          		lcu		r3,BYTE_SECTOR_BUF+$1CA
009B7A 02 01 10 01 50          		shl		r1,r1,#16
009B80 02 01 03 01 21          		or		r1,r1,r3
009B85 A2 00 01 C1 08          		sh		r1,disk_size					; r1 = 0, for okay status
009B8A 56 00 3A 8A 00          		bsr		DisplayHalf
009B90 56 00 D0 8A 00          		bsr		CRLF
009B95 A7 03 02 00 00          		pop		r3/r2
009B9A 16 01 00 00 00          		ldi		r1,#0
009BA0 60 00 00 00 00          		rts
.spi_rp1:
009BA5 A7 03 02 00 00          		pop		r3/r2
009BAA 16 01 01 00 00          		ldi		r1,#1
009BB0 60 00 00 00 00          		rts

                        	SDDiskSize:
009BB5 85 00 01 C1 08          		lhu		r1,disk_size
009BBA 60 00 00 00 00          		rts

                        	SDReadBoot:
009BC0 A6 02 03 05 00          		push	r2/r3/r5
009BC5 85 00 01 81 08          		lhu		r1,startSector				; r1 = sector number
009BCA 16 02 00 E0 23          		ldi		r2,#BYTE_SECTOR_BUF			; r2 = target address
009BD0 56 00 65 98 00          		bsr		SDReadSector
009BD5 59 01 35 9C 00          		brnz	r1,spi_read_boot_err
009BDA FD 3E 02 00 00    ; imm
009BE0 81 00 01 01 00          		lbu		r1,BYTE_SECTOR_BUF
009BE5 06 01 F4 EB 00          		cmp		fl0,r1,#$EB
009BEA 41 F4 45 9C 00          		bne		fl0,spi_eb_err
                        	spi_read_boot2:
009BF0 16 01 60 9C 00          		ldi		r1,#msgFoundEB
009BF5 56 00 CA 8A 00          		bsr		DisplayStringCRLF
009BFA FD 3E 02 00 00    ; imm
009C00 81 00 01 E1 1F          		lbu		r1,BYTE_SECTOR_BUF+$1FE		; check for 0x55AA signature
009C05 06 01 F4 55 00          		cmp		fl0,r1,#$55
009C0A 41 F4 45 9C 00          		bne		fl0,spi_eb_err
009C10 FD 3E 02 00 00    ; imm
009C15 81 00 01 F1 1F          		lbu		r1,BYTE_SECTOR_BUF+$1FF		; check for 0x55AA signature
009C1A 06 01 F4 AA 00          		cmp		fl0,r1,#$AA
009C20 41 F4 45 9C 00          		bne		fl0,spi_eb_err
009C25 A7 05 03 02 00          		pop		r5/r3/r2
009C2A 16 01 00 00 00          		ldi		r1,#0						; r1 = 0, for okay status
009C30 60 00 00 00 00          		rts
spi_read_boot_err:
009C35 A7 05 03 02 00          		pop		r5/r3/r2
009C3A 16 01 01 00 00          		ldi		r1,#1
009C40 60 00 00 00 00          		rts
spi_eb_err:
009C45 16 01 70 9C 00          		ldi		r1,#msgNotFoundEB
009C4A 56 00 CA 8A 00          		bsr		DisplayStringCRLF
009C50 A7 05 03 02 00          		pop		r5/r3/r2
009C55 16 01 02 00 00          		ldi		r1,#2
009C5A 60 00 00 00 00          		rts

                        	msgFoundEB:
009C60 46 6F 75 6E 64 20 45 42 		db	"Found EB code.",0
009C68 20 63 6F 64 65 2E 00    
                        	msgNotFoundEB:
009C70 45 42 2F 35 35 41 41 20 		db	"EB/55AA Code missing.",0
009C78 43 6F 64 65 20 6D 69 73 
009C80 73 69 6E 67 2E 00       
                        	
                        	
                        	; Load the root directory from disk
                        	; r2 = where to place root directory in memory
                        	;
009C86 00 00 00 00             	loadBootFile:
009C8A FD 3E 02 00 00    ; imm
009C90 81 00 01 71 01          		lbu		r1,BYTE_SECTOR_BUF+BSI_SecPerFAT+1			; sectors per FAT
009C95 02 01 08 02 50          		shl		r2,r1,#8
009C9A FD 3E 02 00 00    ; imm
009CA0 81 00 01 61 01          		lbu		r1,BYTE_SECTOR_BUF+BSI_SecPerFAT
009CA5 02 02 01 01 21          		or		r1,r2,r1
009CAA 59 01 BA 9C 00          		brnz	r1,loadBootFile7
009CB0 FD 3E 02 00 00    ; imm
009CB5 85 00 01 41 02          		lhu		r1,BYTE_SECTOR_BUF+$24			; sectors per FAT, FAT32
009CBA    ; imm
009CBA FD 3E 02 00 00    ; imm
009CC0 81 00 04 01 01          		lbu		r4,BYTE_SECTOR_BUF+$10			; number of FATs
009CC5 02 01 04 03 07          		mul		r3,r1,r4						; offset
009CCA FD 3E 02 00 00    ; imm
009CD0 83 00 01 E1 00          		lcu		r1,BYTE_SECTOR_BUF+$E			; r1 = # reserved sectors before FAT
009CD5 FD 3E 02 00 00    ; imm
009CDA 81 00 0D D1 00          		lbu     r13,BYTE_SECTOR_BUF+$D          ; r13 = sectors per cluster
009CE0 02 03 01 03 04          		add		r3,r3,r1						; r3 = root directory sector number
009CE5 85 00 06 81 08          		lhu		r6,startSector
009CEA 02 03 06 05 04          		add		r5,r3,r6						; r5 = root directory sector number
009CF0 FD 3E 02 00 00    ; imm
009CF5 81 00 07 11 01          		lbu     r7,BYTE_SECTOR_BUF+BSI_RootDirEnts
009CFA FD 3E 02 00 00    ; imm
009D00 81 00 08 21 01          		lbu     r8,BYTE_SECTOR_BUF+BSI_RootDirEnts+1
009D05 02 08 08 08 50          		shl     r8,r8,#8
009D0A 02 07 08 07 21          		or      r7,r7,r8                        ; r7 = #root directory entries
009D10 02 07 04 07 52          		shru    r7,r7,#4                        ; r7 = #sectors for directory (likely 32)
009D15 02 07 05 08 04          		add     r8,r7,r5                        ; r8 = start of data area (cluster #2)
                        	
                        	; r1= sector number to read
                        	; r2= address to write data
                        	; r3= number of sectors to read
009D1A 01 05 01 00 04          	    mov      r1,r5                          ; r1 = root directory sector
009D20 16 02 00 E2 23          	    ldi      r2,#ROOTDIR_BUF                ; r2 = where to place directory info
009D25 01 07 03 00 04          	    mov      r3,r7                          ; r3 = number of sectors in roor dir
009D2A 56 00 8A 9A 00          	    bsr      SDReadMultiple                 ; read it
009D30 02 07 04 07 50          	    shl      r7,r7,#4                       ; r7 = # root directory entries
009D35 01 07 03 00 04          	    mov      r3,r7                          ; r3 = # root directory entries
009D3A 05 03 03 01 00          	    sub      r3,r3,#1                       ; r3 = count which is one less
009D40 16 02 00 E2 23          	    ldi      r2,#ROOTDIR_BUF                ; r2 = where to start search
                        	.0002:
009D45 A0 02 00 B1 00          	    sb       r0,11[r2]
                        	;    mov      r1,r2
                        	;    bsr      DisplayString
                        	;    bsr      CRLF
009D4A 86 02 01 01 00          	    lw       r1,[r2]
009D50 FD 53 20 20 20    ; imm
009D55 FE 20 20 00 00    ; imm
009D5A 06 01 F4 44 4F          	    cmp      flg0,r1,#$2020202020534F44     ; look for "DOS"
009D60 41 F4 A5 9D 00          	    bne      flg0,.0001
009D65 83 02 01 A1 01          	    lcu      r1,$1A[r2]                     ; r1 = starting cluster
009D6A 85 02 0A C1 01          	    lhu      r10,$1C[r2]                    ; r10 = size of file
009D70 05 01 01 02 00          	    sub      r1,r1,#2                       ; clusters start at 2
009D75 02 01 0D 09 07          	    mul      r9,r1,r13                      ; r9 = clusters to sectors
009D7A 02 09 08 09 04          	    add      r9,r9,r8                       ; r9 = starting sector of file
009D80 01 09 01 00 04          	    mov      r1,r9
009D85 16 02 00 E2 23          	    ldi      r2,#PROG_LOAD_AREA
009D8A 01 0A 03 00 04          	    mov      r3,r10
009D90 04 03 03 FF 01          	    add      r3,r3,#511                     ; round up to next sector
009D95 02 03 09 03 52          	    shru     r3,r3,#9                       ; divide by sector size (512)
009D9A 56 00 8A 9A 00          	    bsr      SDReadMultiple
009DA0 46 00 25 9E 00          	    bra      loadBootFile3
                        	.0001:
009DA5 04 02 02 20 00          	    add      r2,r2,#32                      ; directory entry size
009DAA 5A 03 45 9D 00          	    dbnz     r3,.0002
009DB0 16 01 2A 9F 00          	    ldi      r1,#msgDOSNotFound
009DB5 56 00 9A 8A 00          	    bsr      DisplayString
009DBA 46 00 BA 8F 00          	    bra      mon1
009DC0 02 07 05 03 04          		add		r3,r7,r5						; r3 = start of data area
009DC5 01 03 01 00 04          		mov     r1,r3
009DCA 56 00 3A 8A 00          		bsr     DisplayHalf
009DD0 56 00 D0 8A 00          		bsr     CRLF
009DD5 46 00 DA 9D 00          		bra		loadBootFile6
                        	
                        	loadBootFile6:
                        		; For now we cheat and just go directly to sector 512.
009DDA 46 00 E0 9D 00          		bra		loadBootFileTmp
                        	loadBootFileTmp:
                        		; We load the number of sectors per cluster, then load a single cluster of the file.
                        		; This is 16kib
009DE0 01 03 05 00 04          		mov		r5,r3							; r5 = start sector of data area	
009DE5 16 02 00 E2 23          		ldi		r2,#PROG_LOAD_AREA				; where to place file in memory
009DEA FD 3E 02 00 00    ; imm
009DF0 81 00 03 D1 00          		lbu		r3,BYTE_SECTOR_BUF+$D			; sectors per cluster
009DF5 17 03 03 10 00          		mului	r3,r3,#16						; read 16 clusters (256kb)
009DFA 05 03 03 01 00          		sub		r3,r3,#1
                        	loadBootFile1:
009E00 16 01 2E 00 00          		ldi		r1,#'.'
009E05 56 00 55 8C 00          		bsr		DisplayChar
009E0A 01 05 01 00 04          		mov		r1,r5							; r1=sector to read
009E10 56 00 65 98 00          		bsr		SDReadSector
009E15 04 05 05 01 00          		add		r5,r5,#1						; r5 = next sector
009E1A 04 02 02 00 02          		add		r2,r2,#512
009E20 5A 03 00 9E 00          		dbnz	r3,loadBootFile1
009E25    ; imm
009E25 FD 3E 02 00 00    ; imm
009E2A 85 00 01 01 20          		lhu		r1,PROG_LOAD_AREA		; make sure it's bootable
009E30 FD 4F 54 00 00    ; imm
009E35 06 01 F4 42 4F          		cmp		fl0,r1,#$544F4F42
009E3A 41 F4 55 9E 00          		bne		fl0,loadBootFile2
009E40 16 01 80 9E 00          		ldi		r1,#msgJumpingToBoot
009E45 56 00 9A 8A 00          		bsr		DisplayString
009E4A 51 00 E3 23 00          		jsr		PROG_LOAD_AREA+$100
009E50 46 00 BA 8F 00          		bra		mon1
                        	loadBootFile2:
009E55 16 01 90 9E 00          		ldi		r1,#msgNotBootable
009E5A 56 00 9A 8A 00          		bsr		DisplayString
009E60 16 02 00 E2 23          		ldi		r2,#PROG_LOAD_AREA
009E65 56 00 75 91 00          		bsr		DisplayMemBytes
009E6A 56 00 75 91 00          		bsr		DisplayMemBytes
009E70 56 00 75 91 00          		bsr		DisplayMemBytes
009E75 56 00 75 91 00          		bsr		DisplayMemBytes
009E7A 46 00 BA 8F 00          		bra		mon1
                        	msgJumpingToBoot:
009E80 4A 75 6D 70 69 6E 67 20 		db	"Jumping to boot",0	
009E88 74 6F 20 62 6F 6F 74 00 
                        	msgNotBootable:
009E90 63 61 72 64 20 6E 6F 74 		db	"card not bootable.",0
009E98 20 62 6F 6F 74 61 62 6C 
009EA0 65 2E 00                
009EA3 00 00                   	spi_init_ok_msg:
009EA5 63 61 72 64 20 69 6E 69 		db "card initialized okay.",0
009EAD 74 69 61 6C 69 7A 65 64 
009EB5 20 6F 6B 61 79 2E 00    
009EBC 00 00 00 00             	spi_init_error_msg:
009EC0 3A 20 65 72 72 6F 72 20 		db	": error occurred initializing the card.",0
009EC8 6F 63 63 75 72 72 65 64 
009ED0 20 69 6E 69 74 69 61 6C 
009ED8 69 7A 69 6E 67 20 74 68 
009EE0 65 20 63 61 72 64 2E 00 
009EE8 00 00                   	spi_boot_error_msg:
009EEA 63 61 72 64 20 62 6F 6F 		db	"card boot error",CR,LF,0
009EF2 74 20 65 72 72 6F 72 0D 
009EFA 0A 00                   
009EFC 00 00 00 00             	spi_read_error_msg:
009F00 63 61 72 64 20 72 65 61 		db	"card read error",CR,LF,0
009F08 64 20 65 72 72 6F 72 0D 
009F10 0A 00                   
009F12 00 00 00                	spi_write_error_msg:
009F15 63 61 72 64 20 77 72 69 		db	"card write error",0
009F1D 74 65 20 65 72 72 6F 72 
009F25 00                      
009F26 00 00 00 00             	msgDOSNotFound:
009F2A 44 4F 53 20 66 69 6C 65 	    db  "DOS file not found",CR,LF,0
009F32 20 6E 6F 74 20 66 6F 75 
009F3A 6E 64 0D 0A 00          
                        	FMTKInitialize:
009F40 01 00 00 00 32          		php
009F45 01 00 00 00 30          		sei
009F4A 16 01 2E 00 00          		ldi		r1,#46
009F50 FD C0 FD 0F 00    ; imm
009F55 A0 00 01 01 60          		sb		r1,LEDS
009F5A 01 01 01 00 49          		mfspr	r1,vbr
009F60 16 02 C5 A2 00          		ldi		r2,#FMTKScheduler
009F65 A3 01 02 01 02          		sw		r2,2*16[r1]
009F6A 16 02 35 A3 00          		ldi		r2,#FMTKTick
009F70 FD 01 00 00 00    ; imm
009F75 A3 01 02 01 C3          		sw		r2,451*16[r1]
009F7A 01 00 00 00 33          		plp
009F80 A3 00 00 81 02          		sw		r0,RunningTCB
009F85 A3 00 00 81 03          		sw		r0,QNdx0
009F8A A3 00 00 01 04          		sw		r0,QNdx0+8
009F90 A3 00 00 81 04          		sw		r0,QNdx0+16	
009F95 A3 00 00 01 05          		sw		r0,QNdx0+24
009F9A A3 00 00 81 05          		sw		r0,QNdx0+32
009FA0 A3 00 00 01 06          		sw		r0,QNdx0+40
009FA5 A3 00 00 81 06          		sw		r0,QNdx0+48
009FAA A3 00 00 01 07          		sw		r0,QNdx0+56
009FB0 16 02 00 E0 03          		ldi		r2,#TCBs			; r2 = pointer to TCB
009FB5 16 03 00 00 04          		ldi		r3,#TCBs+TCB_Size	; r3 = pointer to next TCB
009FBA 16 06 FF 00 00          		ldi		r6,#NR_TCB-1		; r6 = counter
009FC0 A3 00 02 01 03          		sw		r2,FreeTCB
009FC5    ; imm
009FC5 FD 00 00 00 00    ; imm
009FCA A3 02 03 81 8F          		sw		r3,TCB_Next[r2]
009FD0 FD 00 00 00 00    ; imm
009FD5 A3 02 00 01 90          		sw		r0,TCB_Prev[r2]
009FDA FD 00 00 00 00    ; imm
009FE0 A0 02 00 81 90          		sb		r0,TCB_Status[r2]	; status = none
009FE5 FD 00 00 00 00    ; imm
009FEA A0 02 00 A1 90          		sb		r0,TCB_hJob[r2]
009FF0 16 04 07 00 00          		ldi		r4,#7
009FF5 FD 00 00 00 00    ; imm
009FFA A0 02 04 91 90          		sb		r4,TCB_Priority[r2]	; lowest priority
00A000 01 03 02 00 04          		mov		r2,r3				; current = next
00A005 04 03 03 00 20          		add		r3,r3,#TCB_Size
00A00A 5A 06 C5 9F 00          		dbnz	r6,.0001
00A010 FD 00 00 00 00    ; imm
00A015 A3 02 00 81 8F          		sw		r0,TCB_Next[r2]		; initialize last link
                        	
00A01A 16 01 2F 00 00          		ldi		r1,#47
00A020 FD C0 FD 0F 00    ; imm
00A025 A0 00 01 01 60          		sb		r1,LEDS
00A02A 16 FC 00 E0 03          		ldi		tr,#TCBs
00A030 16 01 04 00 00          		ldi		r1,#4
00A035 16 02 00 00 00          		ldi		r2,#0
00A03A 16 03 95 8F 00          		ldi		r3,#Monitor
00A040 16 04 00 00 00          		ldi		r4,#0
00A045 16 05 00 00 00          		ldi		r5,#0
00A04A 56 00 85 A0 00          		bsr		StartTask
00A050 16 01 30 00 00          		ldi		r1,#48
00A055 FD C0 FD 0F 00    ; imm
00A05A A0 00 01 01 60          		sb		r1,LEDS
00A060 60 00 00 00 00          		rts

00A065    ; imm
00A065    ; imm
00A065 FD 00 FD 0F 00    ; imm
00A06A 85 00 C7 C1 1B          		lhu		r199,TEXTSCR+444
00A070 04 C7 C7 01 00          		add		r199,r199,#1
00A075 FD 00 FD 0F 00    ; imm
00A07A A2 00 C7 C1 1B          		sh		r199,TEXTSCR+444
00A080 50 65 A0 00 00          		jmp		.it1
                        	
                        	;------------------------------------------------------------------------------
                        	; Parameters:
                        	;	r1 = priority
                        	;	r2 = flags
                        	;	r3 = start address
                        	;	r4 = parameter
                        	;	r5 = job
                        	;------------------------------------------------------------------------------
                        	
                        	StartTask:
00A085 A6 06 07 08 00          		push	r6/r7/r8
                        	
                        		; Get a TCB from the free list
00A08A 01 00 00 00 32          		php
00A090 01 00 00 00 30          		sei
00A095 16 06 33 00 00          		ldi		r6,#51
00A09A FD C0 FD 0F 00    ; imm
00A0A0 A0 00 06 01 60          		sb		r6,LEDS
00A0A5 86 00 06 01 03          		lw		r6,FreeTCB
00A0AA FD 00 00 00 00    ; imm
00A0B0 86 06 07 81 8F          		lw		r7,TCB_Next[r6]
00A0B5 A3 00 07 01 03          		sw		r7,FreeTCB
00A0BA 01 00 00 00 33          		plp
00A0C0    ; imm
00A0C0    ; imm
00A0C0 FD 00 00 00 00    ; imm
00A0C5 A0 06 01 91 90          		sb		r1,TCB_Priority[r6]
00A0CA FD 00 00 00 00    ; imm
00A0D0 A0 06 05 A1 90          		sb		r5,TCB_hJob[r6]
00A0D5 04 06 07 F8 1F          		add		r7,r6,#TCB_Size-8
00A0DA 05 07 07 18 00          		sub		r7,r7,#24
00A0E0 16 08 40 A1 00          		ldi		r8,#ExitTask
00A0E5 0C 08 08 FC FF          		and		r8,r8,#-4				; flag: short form address
00A0EA A3 07 08 01 01          		sw		r8,16[r7]				; setup exit address on stack
00A0F0 A3 07 00 81 00          		sw		r0,8[r7]				; setup code segment
00A0F5 0C 03 03 FC FF          		and		r3,r3,#-4				; flag:
00A0FA 0D 03 03 00 00          		or		r3,r3,#0				; interrupt flag
00A100 A3 07 03 01 00          		sw		r3,[r7]					; setup return address (start address)
00A105 A3 06 07 81 7F          		sw		r7,TCB_SP0Save[r6]		; save the stack pointer
00A10A 01 06 01 00 04          		mov		r1,r6
00A110 01 00 00 00 32          		php
00A115 01 00 00 00 30          		sei
00A11A 56 00 85 A1 00          		bsr		AddTaskToReadyList
00A120 01 00 00 00 33          		plp
00A125 16 06 36 00 00          		ldi		r6,#54
00A12A FD C0 FD 0F 00    ; imm
00A130 A0 00 06 01 60          		sb		r6,LEDS
                        		brk		#2*16						; reschedule tasks
00A135 A7 08 07 06 00          		pop		r8/r7/r6
00A13A 60 00 00 00 00          		rts

                        	ExitTask:
00A140 01 00 00 00 30          		sei
00A145 86 00 FC 81 02          		lw		tr,RunningTCB			; refuse to exit the Monitor task
00A14A FD 03 00 00 00    ; imm
00A150 06 FC F4 00 E0          		cmp		fl0,tr,#TCBs
00A155 40 F4 7A A1 00          		beq		fl0,.0001
00A15A 86 00 06 01 03          		lw		r6,FreeTCB
00A160 FD 00 00 00 00    ; imm
00A165 A3 FC 06 8C 8F          		sw		r6,TCB_Next[tr]
00A16A A3 00 FC 01 03          		sw		tr,FreeTCB
00A170 A3 00 00 81 02          		sw		r0,RunningTCB
00A175 50 9A A3 00 00          		jmp		SelectTaskToRun
                        	.0001:
00A17A 01 00 00 00 31          		cli
00A180 60 00 00 00 00          		rts

                        	;------------------------------------------------------------------------------
                        	; Inserts a task into the ready queue at the tail.
                        	;------------------------------------------------------------------------------
                        	
                        	AddTaskToReadyList:
00A185 A6 03 04 05 06          		push	r3/r4/r5/r6
00A18A FD 00 00 00 00    ; imm
00A190 81 01 03 91 90          		lbu		r3,TCB_Priority[r1]
00A195 0C 03 03 07 00          		and		r3,r3,#7
00A19A 02 03 03 04 50          		shl     r4,r3,#3
00A1A0 86 04 04 81 03          		lw		r4,QNdx0[r4]
00A1A5 58 04 05 A2 00          		brz		r4,.initQ				; is the queue empty ?
00A1AA FD 00 00 00 00    ; imm
00A1B0 86 04 05 01 90          		lw		r5,TCB_Prev[r4]
00A1B5 FD 00 00 00 00    ; imm
00A1BA 86 05 06 81 8F          		lw		r6,TCB_Next[r5]
00A1C0 FD 00 00 00 00    ; imm
00A1C5 A3 05 01 81 8F          		sw		r1,TCB_Next[r5]
00A1CA FD 00 00 00 00    ; imm
00A1D0 A3 04 01 01 90          		sw		r1,TCB_Prev[r4]
00A1D5 FD 00 00 00 00    ; imm
00A1DA A3 01 05 01 90          		sw		r5,TCB_Prev[r1]
00A1E0 FD 00 00 00 00    ; imm
00A1E5 A3 01 04 81 8F          		sw		r4,TCB_Next[r1]
00A1EA 16 04 01 00 00          		ldi		r4,#TS_READY
00A1F0 FD 00 00 00 00    ; imm
00A1F5 A0 01 04 81 90          		sb		r4,TCB_Status[r1]
00A1FA A7 06 05 04 03          		pop		r6/r5/r4/r3
00A200 60 00 00 00 00          		rts
.initQ:
00A205 02 03 03 04 50          	    shl     r4,r3,#3
00A20A A3 04 01 81 03          		sw		r1,QNdx0[r4]
00A210 FD 00 00 00 00    ; imm
00A215 A3 01 01 81 8F          		sw		r1,TCB_Next[r1]
00A21A FD 00 00 00 00    ; imm
00A220 A3 01 01 01 90          		sw		r1,TCB_Prev[r1]
00A225 16 04 01 00 00          		ldi		r4,#TS_READY
00A22A FD 00 00 00 00    ; imm
00A230 A0 01 04 81 90          		sb		r4,TCB_Status[r1]
00A235 A7 06 05 04 03          		pop		r6/r5/r4/r3
00A23A 60 00 00 00 00          		rts

                        	RemoveTaskFromReadyList:
00A240 A6 03 04 06 07          		push	r3/r4/r6/r7
00A245 FD 00 00 00 00    ; imm
00A24A 86 01 06 81 8F          		lw		r6,TCB_Next[r1]
00A250 FD 00 00 00 00    ; imm
00A255 86 01 07 01 90          		lw		r7,TCB_Prev[r1]
00A25A FD 00 00 00 00    ; imm
00A260 A3 06 07 01 90          		sw		r7,TCB_Prev[r6]
00A265 FD 00 00 00 00    ; imm
00A26A A3 07 06 81 8F          		sw		r6,TCB_Next[r7]
00A270 FD 00 00 00 00    ; imm
00A275 81 01 03 91 90          		lbu		r3,TCB_Priority[r1]
00A27A 02 03 03 04 50          		shl     r4,r3,#3
00A280 86 04 04 81 03          		lw		r4,QNdx0[r4]
00A285 02 04 01 F4 06          		cmp		fl0,r4,r1
00A28A 41 F4 9A A2 00          		bne		fl0,.0001
00A290 02 03 03 04 50          		shl     r4,r3,#3
00A295 A3 04 06 81 03          		sw		r6,QNdx0[r4]
00A29A    ; imm
00A29A FD 00 00 00 00    ; imm
00A2A0 A3 01 00 81 8F          		sw		r0,TCB_Next[r1]
00A2A5 FD 00 00 00 00    ; imm
00A2AA A3 01 00 01 90          		sw		r0,TCB_Prev[r1]
00A2B0 FD 00 00 00 00    ; imm
00A2B5 A0 01 00 81 90          		sb		r0,TCB_Status[r1]
00A2BA A7 07 06 04 03          		pop		r7/r6/r4/r3
00A2C0 60 00 00 00 00          		rts
	
                        	;------------------------------------------------------------------------------
                        	;------------------------------------------------------------------------------
                        	
                        	FMTKScheduler:
00A2C5 01 00 00 00 30          		sei
00A2CA 16 FC 34 00 00          		ldi		tr,#52
00A2D0 FD C0 FD 0F 00    ; imm
00A2D5 A0 00 FC 01 60          		sb		tr,LEDS
00A2DA 86 00 FC 81 02          		lw		tr,RunningTCB
00A2E0 59 FC EA A2 00          		brnz	tr,.0002
00A2E5 16 FC 00 C0 03          		ldi		tr,#TCBs-TCB_Size
                        	.0002:
                        		;mfspr	r250,cs
                        		;shr		r250,r250,#60
00A2EA A3 FC FF 8C 7F          		sw		sp,TCB_SP0Save[tr]	;+r250*8]
00A2F0 A6 FC 00 00 00          		push	tr
00A2F5 56 00 8A A4 00          		bsr		SaveContext
00A2FA A7 FC 00 00 00          		pop		tr
00A300 16 C9 01 00 00          		ldi		r201,#TS_READY
00A305 FD 00 00 00 00    ; imm
00A30A A0 FC C9 8C 90          		sb		r201,TCB_Status[tr]
00A310 46 00 9A A3 00          		bra		SelectTaskToRun
                        	
                        	;------------------------------------------------------------------------------
                        	;------------------------------------------------------------------------------
                        	
                        	nStartQue:
00A315 00 01 00 02 00 03 00 01 		db		0,1,0,2,0,3,0,1,0,4,0,5,0,6,0,7
00A31D 00 04 00 05 00 06 00 07 
00A325 00 01 00 02 00 03 00 01 		db		0,1,0,2,0,3,0,1,0,4,0,5,0,6,0,7
00A32D 00 04 00 05 00 06 00 07 
                        	
                        	;------------------------------------------------------------------------------
                        	; FMTKTick:
                        	;	Timer tick routine that does the pre-emptive multi-tasking.
                        	;------------------------------------------------------------------------------
                        	;interrupt link register......
                        	
                        	FMTKTick:
00A335 16 FC 03 00 00          		ldi		tr,#3				; reset the edge sense circuit
00A33A FD C0 FD 0F 00    ; imm
00A340 A2 00 FC 41 FD          		sh		tr,PIC_RSTE
00A345 86 00 FC 01 02          		lw		tr,TickVec
00A34A 58 FC 55 A3 00          		brz		tr,.0001
00A350 53 00 01 02 00          		jsr		(TickVec)
                        	.0001:
00A355 84 00 FC 81 00          		lh		tr,Ticks
00A35A 04 FC FC 01 00          		add		tr,tr,#1
00A360 A2 00 FC 81 00          		sh		tr,Ticks
00A365 86 00 FC 81 02          		lw		tr,RunningTCB
00A36A 59 FC 75 A3 00          		brnz	tr,.0002
00A370 16 FC 00 C0 03          		ldi		tr,#TCBs-TCB_Size
                        	.0002:
00A375 A3 FC FF 8C 7F          		sw		sp,TCB_SP0Save[tr]
00A37A A6 FC 00 00 00          		push	tr
00A380 56 00 8A A4 00          		bsr		SaveContext
00A385 A7 FC 00 00 00          		pop		tr
00A38A 16 CE 04 00 00          		ldi		r206,#TS_PREEMPT
00A390 FD 00 00 00 00    ; imm
00A395 A0 FC CE 8C 90          		sb		r206,TCB_Status[tr]
                        	
                        	;------------------------------------------------------------------------------
                        	; SelectTaskToRun:
                        	;
                        	;------------------------------------------------------------------------------
                        	
                        	SelectTaskToRun:
00A39A 16 C9 35 00 00          		ldi		r201,#53
00A3A0 FD C0 FD 0F 00    ; imm
00A3A5 A0 00 C9 01 60          		sb		r201,LEDS
00A3AA 84 00 C9 81 00          		lh		r201,Ticks
00A3B0 0C C9 C9 1F 00          		and		r201,r201,#$1F
00A3B5 FD 0A 00 00 00    ; imm
00A3BA 80 C9 CB 51 31          		lb		r203,nStartQue[r201]
00A3C0 16 CE 07 00 00          		ldi		r206,#7				; number of queues to check - 1
                        	.qagain:
00A3C5 0C CB CB 07 00          		and		r203,r203,#7			; max 0-7 queues
00A3CA 02 CB 03 CB 50          		shl     r203,r203,#3
00A3D0 86 CB C9 81 03          		lw		r201,QNdx0[r203]
00A3D5 58 C9 05 A4 00          		brz		r201,.qempty
00A3DA FD 00 00 00 00    ; imm
00A3E0 86 C9 FC 81 8F          		lw		tr,TCB_Next[r201]
00A3E5 A3 CB FC 81 03          		sw		tr,QNdx0[r203]
00A3EA A3 00 FC 81 02          		sw		tr,RunningTCB
00A3F0 16 CE 02 00 00          		ldi		r206,#TS_RUNNING
00A3F5 FD 00 00 00 00    ; imm
00A3FA A0 FC CE 8C 90          		sb		r206,TCB_Status[tr]
00A400 46 00 40 A4 00          		bra		.qxit
                        	.qempty:
00A405 02 CB 03 CB 52          	    shr     r203,r203,#3
00A40A 04 CB CB 01 00          		add		r203,r203,#1
00A410 5A CE C5 A3 00          		dbnz	r206,.qagain
00A415 16 FC 00 C0 03          		ldi		tr,#TCBs-TCB_Size
00A41A 50 40 A4 00 00          		jmp		.qxit
00A420 16 01 6A A4 00          		ldi		r1,#msgNoTasks
00A425 56 00 80 A4 00          		bsr		kernel_panic
                        	.qerr:
00A42A 16 FA 0C 00 00          		ldi		r250,#$C
00A430 FD C0 FD 0F 00    ; imm
00A435 A0 00 FA 01 60          		sb		r250,LEDS
00A43A 58 00 2A A4 00          		brz		r0,.qerr
                        	.qxit:
00A440 16 C9 0A 00 00          		ldi		r201,#$A
00A445 FD C0 FD 0F 00    ; imm
00A44A A0 00 C9 01 60          		sb		r201,LEDS
00A450 86 FC FA 8C 7F          		lw		r250,TCB_SP0Save[tr]
00A455 A6 FA 00 00 00          		push	r250
00A45A 56 00 45 A5 00          		bsr		RestoreContext
00A460 A7 FF 00 00 00          		pop		sp
00A465 01 00 00 00 40          		rti
                        	
                        	msgNoTasks:
00A46A 4E 6F 20 74 61 73 6B 73 		db		"No tasks in queue.",0
00A472 20 69 6E 20 71 75 65 75 
00A47A 65 2E 00                
                        	
00A47D 00 00 00                	kernel_panic:
00A480 56 00 9A 8A 00          		bsr		DisplayString
00A485 60 00 00 00 00          		rts

                        	;------------------------------------------------------------------------------
                        	; Save the task context. The context is saved in blocks of 16 registers at
                        	; a time in order to minimize interrupt latency.
                        	;------------------------------------------------------------------------------
                        	
                        	SaveContext:
00A48A A6 FC 00 00 00          		push	tr
00A490 BC 01 0F FC 0C          		smr		r1,r15,[tr]
00A495 04 FC FC 78 00          		add		tr,tr,#15*8
00A49A BC 10 1F FC 0C          		smr		r16,r31,[tr]
00A4A0 04 FC FC 80 00          		add		tr,tr,#16*8
00A4A5 BC 20 2F FC 0C          		smr		r32,r47,[tr]
00A4AA 04 FC FC 80 00          		add		tr,tr,#16*8
00A4B0 BC 30 3F FC 0C          		smr		r48,r63,[tr]
00A4B5 04 FC FC 80 00          		add		tr,tr,#16*8
00A4BA BC 40 4F FC 0C          		smr		r64,r79,[tr]
00A4C0 04 FC FC 80 00          		add		tr,tr,#16*8
00A4C5 BC 50 5F FC 0C          		smr		r80,r95,[tr]
00A4CA 04 FC FC 80 00          		add		tr,tr,#16*8
00A4D0 BC 60 6F FC 0C          		smr		r96,r111,[tr]
00A4D5 04 FC FC 80 00          		add		tr,tr,#16*8
00A4DA BC 70 7F FC 0C          		smr		r112,r127,[tr]
00A4E0 04 FC FC 80 00          		add		tr,tr,#16*8
00A4E5 BC 80 8F FC 0C          		smr		r128,r143,[tr]
00A4EA 04 FC FC 80 00          		add		tr,tr,#16*8
00A4F0 BC 90 9F FC 0C          		smr		r144,r159,[tr]
00A4F5 04 FC FC 80 00          		add		tr,tr,#16*8
00A4FA BC A0 AF FC 0C          		smr		r160,r175,[tr]
00A500 04 FC FC 80 00          		add		tr,tr,#16*8
00A505 BC B0 BF FC 0C          		smr		r176,r191,[tr]
00A50A 04 FC FC 80 00          		add		tr,tr,#16*8
00A510 BC C0 CF FC 0C          		smr		r192,r207,[tr]
00A515 04 FC FC 80 00          		add		tr,tr,#16*8
00A51A BC D0 DF FC 0C          		smr		r208,r223,[tr]
00A520 04 FC FC 80 00          		add		tr,tr,#16*8
00A525 BC E0 EF FC 0C          		smr		r224,r239,[tr]
00A52A 04 FC FC 80 00          		add		tr,tr,#16*8
00A530 BC F0 FE FC 0C          		smr		r240,r254,[tr]
00A535 04 FC FC 78 00          		add		tr,tr,#15*8
00A53A A7 FC 00 00 00          		pop		tr
00A540 60 00 00 00 00          		rts

                        	;------------------------------------------------------------------------------
                        	; Restore the task context. The context is saved in blocks of 16 registers at
                        	; a time in otder to minimize interrupt latency.
                        	;------------------------------------------------------------------------------
                        	
                        	RestoreContext:
00A545 9C 01 0F FC 0C          		lmr		r1,r15,[tr]
00A54A 04 FC FC 78 00          		add		tr,tr,#15*8
00A550 9C 10 1F FC 0C          		lmr		r16,r31,[tr]
00A555 04 FC FC 80 00          		add		tr,tr,#16*8
00A55A 9C 20 2F FC 0C          		lmr		r32,r47,[tr]
00A560 04 FC FC 80 00          		add		tr,tr,#16*8
00A565 9C 30 3F FC 0C          		lmr		r48,r63,[tr]
00A56A 04 FC FC 80 00          		add		tr,tr,#16*8
00A570 9C 40 4F FC 0C          		lmr		r64,r79,[tr]
00A575 04 FC FC 80 00          		add		tr,tr,#16*8
00A57A 9C 50 5F FC 0C          		lmr		r80,r95,[tr]
00A580 04 FC FC 80 00          		add		tr,tr,#16*8
00A585 9C 60 6F FC 0C          		lmr		r96,r111,[tr]
00A58A 04 FC FC 80 00          		add		tr,tr,#16*8
00A590 9C 70 7F FC 0C          		lmr		r112,r127,[tr]
00A595 04 FC FC 80 00          		add		tr,tr,#16*8
00A59A 9C 80 8F FC 0C          		lmr		r128,r143,[tr]
00A5A0 04 FC FC 80 00          		add		tr,tr,#16*8
00A5A5 9C 90 9F FC 0C          		lmr		r144,r159,[tr]
00A5AA 04 FC FC 80 00          		add		tr,tr,#16*8
00A5B0 9C A0 AF FC 0C          		lmr		r160,r175,[tr]
00A5B5 04 FC FC 80 00          		add		tr,tr,#16*8
00A5BA 9C B0 BF FC 0C          		lmr		r176,r191,[tr]
00A5C0 04 FC FC 80 00          		add		tr,tr,#16*8
00A5C5 9C C0 CF FC 0C          		lmr		r192,r207,[tr]
00A5CA 04 FC FC 80 00          		add		tr,tr,#16*8
00A5D0 9C D0 DF FC 0C          		lmr		r208,r223,[tr]
00A5D5 04 FC FC 80 00          		add		tr,tr,#16*8
00A5DA 9C E0 EF FC 0C          		lmr		r224,r239,[tr]
00A5E0 04 FC FC 80 00          		add		tr,tr,#16*8
00A5E5 9C F0 FB FC 0C          		lmr		r240,r251,[tr]
00A5EA 04 FC FC 60 00          		add		tr,tr,#12*8
00A5F0 86 FC FD 8C 00          		lw		r253,8[tr]
00A5F5 60 00 00 00 00          		rts

                        	;------------------------------------------------------------------------------
                        	; Test RAM using checkerboard pattern.
                        	;------------------------------------------------------------------------------
                        	
                        	RAMTest:
00A5FA 56 00 D0 8A 00          		bsr		CRLF
00A600 16 01 00 00 01          		ldi		r1,$10000				; start past the ROM
00A605 FD 55 AA AA AA    ; imm
00A60A FE AA 00 00 00    ; imm
00A610 16 02 55 55 55          		ldi		r2,#$AAAAAAAA55555555	; Checkerboard pattern
                        		
                        		; First store the checkerboard pattern to all memory locations
                        	.0002:
00A615 A3 01 02 01 00          		sw		r2,[r1]
00A61A 0C 01 03 FF 0F          		andi	r3,r1,#$FFF				; display progress and check
00A620 59 03 50 A6 00          		brnz	r3,.0001				; for CTRL-C every so often
00A625 56 00 3A 8A 00          		bsr		DisplayHalf
00A62A 01 01 04 00 04          		mov		r4,r1
00A630 16 01 0D 00 00          		ldi		r1,#CR
00A635 56 00 55 8C 00          		bsr		DisplayChar
00A63A 56 00 F0 93 00          		bsr		KeybdGetCharDirectNB
00A640 05 01 01 03 00          		sub		r1,r1,#CTRLC
00A645 58 01 DA A6 00          		brz		r1,.0006
00A64A 01 04 01 00 04          		mov		r1,r4
                        	.0001:
00A650 04 01 01 08 00          		addi	r1,r1,#8				; increment to next word
00A655 FD 80 00 00 00    ; imm
00A65A 06 01 F4 00 00          		cmp		flg0,r1,#$0800000		; 128MB is the RAM onboard
00A660 4F F4 15 A6 00          		bltu	flg0,.0002
                        		
                        		; Readback the checkboard pattern from all memory locations
00A665 16 01 00 00 01          		ldi		r1,#$10000
                        	.0005:
00A66A 86 01 02 01 00          		lw		r2,[r1]
00A670 FD 55 55 AA AA    ; imm
00A675 FE AA AA 00 00    ; imm
00A67A 06 02 F4 55 55          		cmp		flg0,r2,#$AAAAAAAA55555555
00A680 40 F4 90 A6 00          		beq		flg0,.0003
00A685 56 00 3A 8A 00          		bsr		DisplayHalf
00A68A 56 00 D0 8A 00          		bsr		CRLF
                        	.0003:
00A690 0C 01 03 FF 0F          		andi	r3,r1,#$FFF			; display progress and check
00A695 59 03 C5 A6 00          		brnz	r3,.0004			; for CTRL-C every so often
00A69A 56 00 3A 8A 00          		bsr		DisplayHalf
00A6A0 01 01 04 00 04          		mov		r4,r1
00A6A5 16 01 0D 00 00          		ldi		r1,#CR
00A6AA 56 00 55 8C 00          		bsr		DisplayChar
00A6B0 56 00 F0 93 00          		bsr		KeybdGetCharDirectNB
00A6B5 05 01 01 03 00          		sub		r1,r1,#CTRLC
00A6BA 58 01 DA A6 00          		brz		r1,.0006
00A6C0 01 04 01 00 04          		mov		r1,r4
                        	.0004:
00A6C5 04 01 01 08 00          		addi	r1,r1,#8			; increment to next word
00A6CA FD 80 00 00 00    ; imm
00A6D0 06 01 F4 00 00          		cmp		flg0,r1,#$0800000
00A6D5 4F F4 6A A6 00          		bltu	flg0,.0005
                        	.0006:
00A6DA 60 00 00 00 00          		rts

                        	uninit_rout:
00A6E0 16 01 BA 00 00          		ldi		r1,#$ba
00A6E5 FD C0 FD 0F 00    ; imm
00A6EA A0 00 01 01 60          		sb		r1,LEDS
00A6F0 16 01 9A A8 00          		ldi		r1,#msgUninit
00A6F5 56 00 CA 8A 00          		bsr		DisplayStringCRLF
00A6FA 01 FF 01 00 49 00       		mfspr	r1,ivno
00A700 56 00 3A 8A 00          		bsr		DisplayHalf
00A705 56 00 D0 8A 00          		bsr		CRLF
00A70A A7 01 00 00 00          		pop		r1
00A710 56 00 3A 8A 00          		bsr		DisplayHalf
00A715 56 00 D0 8A 00          		bsr		CRLF
00A71A 16 03 3F 00 00          		ldi		r3,#63
                        	.0002:
00A720 01 0D 01 00 49          		mfspr	r1,history
00A725 56 00 3A 8A 00          		bsr		DisplayHalf
00A72A 16 01 20 00 00          		ldi		r1,#' '
00A730 56 00 55 8C 00          		bsr		DisplayChar
00A735 5A 03 20 A7 00          		dbnz	r3,.0002
                        	.0001:
00A73A 46 00 3A A7 00          		bra .0001
                        	exf_rout:
00A740 16 01 BB 00 00          		ldi		r1,#$bb
00A745 FD C0 FD 0F 00    ; imm
00A74A A0 00 01 01 60          		sb		r1,LEDS
00A750 16 01 60 A8 00          		ldi		r1,#msgexf
00A755 56 00 CA 8A 00          		bsr		DisplayStringCRLF
                        	.0001:
00A75A 46 00 5A A7 00          		bra .0001
                        	drf_rout:
00A760 16 01 BB 00 00          		ldi		r1,#$bb
00A765 FD C0 FD 0F 00    ; imm
00A76A A0 00 01 01 60          		sb		r1,LEDS
00A770 16 01 65 A8 00          		ldi		r1,#msgdrf
00A775 56 00 CA 8A 00          		bsr		DisplayStringCRLF
                        	.0001:
00A77A 46 00 7A A7 00          		bra .0001
                        	dwf_rout:
00A780 16 01 BB 00 00          		ldi		r1,#$bb
00A785 FD C0 FD 0F 00    ; imm
00A78A A0 00 01 01 60          		sb		r1,LEDS
00A790 16 01 6A A8 00          		ldi		r1,#msgdwf
00A795 56 00 CA 8A 00          		bsr		DisplayStringCRLF
                        	.0001:
00A79A 46 00 9A A7 00          		bra .0001
                        	sbv_rout:
00A7A0 16 01 BB 00 00          		ldi		r1,#$bb
00A7A5 FD C0 FD 0F 00    ; imm
00A7AA A0 00 01 01 60          		sb		r1,LEDS
00A7B0 16 01 70 A8 00          		ldi		r1,#msgSBV
00A7B5 56 00 CA 8A 00          		bsr		DisplayStringCRLF
                        	.0001:
00A7BA 46 00 BA A7 00          		bra .0001
                        	priv_rout:
00A7C0 16 01 BC 00 00          		ldi		r1,#$bc
00A7C5 FD C0 FD 0F 00    ; imm
00A7CA A3 00 01 01 60          		st		r1,LEDS
00A7D0 16 01 7A A8 00          		ldi		r1,#msgPriv
00A7D5 56 00 CA 8A 00          		bsr		DisplayStringCRLF
                        	.0001:
00A7DA 46 00 DA A7 00          		bra .0001
                        	stv_rout:
00A7E0 16 01 BD 00 00          		ldi		r1,#$bd
00A7E5 FD C0 FD 0F 00    ; imm
00A7EA A0 00 01 01 60          		sb		r1,LEDS
00A7F0 16 01 85 A8 00          		ldi		r1,#msgSTV
00A7F5 56 00 CA 8A 00          		bsr		DisplayStringCRLF
00A7FA 01 FF 01 00 49 00       		mfspr	r1,fault_pc
00A800 56 00 2A 8A 00          		bsr		DisplayWord
00A805 56 00 D0 8A 00          		bsr		CRLF
00A80A 01 FF 01 00 49 00       		mfspr	r1,fault_cs
00A810 56 00 3A 8A 00          		bsr		DisplayHalf
00A815 56 00 D0 8A 00          		bsr		CRLF
00A81A 01 FF 01 00 49 00       		mfspr	r1,fault_seg
00A820 56 00 3A 8A 00          		bsr		DisplayHalf
00A825 56 00 D0 8A 00          		bsr		CRLF
00A82A 01 FF 01 00 49 00       		mfspr	r1,fault_st
00A830 56 00 5A 8A 00          		bsr		DisplayByte
00A835 56 00 D0 8A 00          		bsr		CRLF
                        	.0001:
00A83A 46 00 3A A8 00          		bra .0001
                        	snp_rout:
00A840 16 01 BE 00 00          		ldi		r1,#$be
00A845 FD C0 FD 0F 00    ; imm
00A84A A0 00 01 01 60          		sb		r1,LEDS
00A850 16 01 90 A8 00          		ldi		r1,#msgSNP
00A855 56 00 CA 8A 00          		bsr		DisplayStringCRLF
                        	.0001:
00A85A 46 00 5A A8 00          		bra .0001
                        	msgexf:
00A860 65 78 66 20 00          		db	"exf ",0
                        	msgdrf:
00A865 64 72 66 20 00          		db	"drf ",0
                        	msgdwf:
00A86A 64 77 66 20 00          		db	"dwf ",0
                        	msgSBV:
00A870 73 62 76 20 66 61 75 6C 		db	"sbv fault",0
00A878 74 00                   
                        	msgPriv:
00A87A 70 72 69 76 20 66 61 75 		db	"priv fault",0
00A882 6C 74 00                
                        	msgSTV:
00A885 73 74 76 20 66 61 75 6C 		db	"stv fault",0
00A88D 74 00                   
                        	msgSNP:
00A890 73 6E 70 20 66 61 75 6C 		db	"snp fault",0
00A898 74 00                   
                        	msgUninit:
00A89A 75 6E 69 6E 69 74 20 69 		db	"uninit int.",0
00A8A2 6E 74 2E 00             
                        	
                        	;------------------------------------------------------------------------------
                        	; Bus error routine.
                        	;------------------------------------------------------------------------------
                        	
00A8A6 00 00 00 00             	berr_rout:
00A8AA 16 01 AA 00 00          		ldi		r1,#$AA
00A8B0 FD C0 FD 0F 00    ; imm
00A8B5 A3 00 01 01 60          		st		r1,LEDS
00A8BA 01 FF 01 00 49 00       		mfspr	r1,bear
                        	;	bsr		DisplayWord
                        	.be1:
00A8C0 46 00 C0 A8 00          		bra .be1
                        	
                        	;------------------------------------------------------------------------------
                        	;------------------------------------------------------------------------------
                        	
                        	AlgnFault:
00A8C5 16 01 AF 00 00          		ldi		r1,#$AF
00A8CA FD C0 FD 0F 00    ; imm
00A8D0 A3 00 01 01 60          		sw		r1,LEDS
00A8D5 46 00 C5 A8 00          		bra AlgnFault
                        	
                        	;------------------------------------------------------------------------------
                        	;------------------------------------------------------------------------------
                        	
                        	DebugRout:
00A8DA 16 01 DB 00 00          		ldi		r1,#$DB
00A8E0 FD C0 FD 0F 00    ; imm
00A8E5 A3 00 01 01 60          		sw		r1,LEDS
00A8EA 46 00 DA A8 00          		bra DebugRout
00A8F0 00 00 00 00 00 00 00 00 		org		$0000FFB0		; Alignment fault
00A8F8 00 00 00 00 00 00 00 00 
00A900 00 00 00 00 00 00 00 00 
00A908 00 00 00 00 00 00 00 00 
00A910 00 00 00 00 00 00 00 00 
00A918 00 00 00 00 00 00 00 00 
00A920 00 00 00 00 00 00 00 00 
00A928 00 00 00 00 00 00 00 00 
00A930 00 00 00 00 00 00 00 00 
00A938 00 00 00 00 00 00 00 00 
00A940 00 00 00 00 00 00 00 00 
00A948 00 00 00 00 00 00 00 00 
00A950 00 00 00 00 00 00 00 00 
00A958 00 00 00 00 00 00 00 00 
00A960 00 00 00 00 00 00 00 00 
00A968 00 00 00 00 00 00 00 00 
00A970 00 00 00 00 00 00 00 00 
00A978 00 00 00 00 00 00 00 00 
00A980 00 00 00 00 00 00 00 00 
00A988 00 00 00 00 00 00 00 00 
00A990 00 00 00 00 00 00 00 00 
00A998 00 00 00 00 00 00 00 00 
00A9A0 00 00 00 00 00 00 00 00 
00A9A8 00 00 00 00 00 00 00 00 
00A9B0 00 00 00 00 00 00 00 00 
00A9B8 00 00 00 00 00 00 00 00 
00A9C0 00 00 00 00 00 00 00 00 
00A9C8 00 00 00 00 00 00 00 00 
00A9D0 00 00 00 00 00 00 00 00 
00A9D8 00 00 00 00 00 00 00 00 
00A9E0 00 00 00 00 00 00 00 00 
00A9E8 00 00 00 00 00 00 00 00 
00A9F0 00 00 00 00 00 00 00 00 
00A9F8 00 00 00 00 00 00 00 00 
00AA00 00 00 00 00 00 00 00 00 
00AA08 00 00 00 00 00 00 00 00 
00AA10 00 00 00 00 00 00 00 00 
00AA18 00 00 00 00 00 00 00 00 
00AA20 00 00 00 00 00 00 00 00 
00AA28 00 00 00 00 00 00 00 00 
00AA30 00 00 00 00 00 00 00 00 
00AA38 00 00 00 00 00 00 00 00 
00AA40 00 00 00 00 00 00 00 00 
00AA48 00 00 00 00 00 00 00 00 
00AA50 00 00 00 00 00 00 00 00 
00AA58 00 00 00 00 00 00 00 00 
00AA60 00 00 00 00 00 00 00 00 
00AA68 00 00 00 00 00 00 00 00 
00AA70 00 00 00 00 00 00 00 00 
00AA78 00 00 00 00 00 00 00 00 
00AA80 00 00 00 00 00 00 00 00 
00AA88 00 00 00 00 00 00 00 00 
00AA90 00 00 00 00 00 00 00 00 
00AA98 00 00 00 00 00 00 00 00 
00AAA0 00 00 00 00 00 00 00 00 
00AAA8 00 00 00 00 00 00 00 00 
00AAB0 00 00 00 00 00 00 00 00 
00AAB8 00 00 00 00 00 00 00 00 
00AAC0 00 00 00 00 00 00 00 00 
00AAC8 00 00 00 00 00 00 00 00 
00AAD0 00 00 00 00 00 00 00 00 
00AAD8 00 00 00 00 00 00 00 00 
00AAE0 00 00 00 00 00 00 00 00 
00AAE8 00 00 00 00 00 00 00 00 
00AAF0 00 00 00 00 00 00 00 00 
00AAF8 00 00 00 00 00 00 00 00 
00AB00 00 00 00 00 00 00 00 00 
00AB08 00 00 00 00 00 00 00 00 
00AB10 00 00 00 00 00 00 00 00 
00AB18 00 00 00 00 00 00 00 00 
00AB20 00 00 00 00 00 00 00 00 
00AB28 00 00 00 00 00 00 00 00 
00AB30 00 00 00 00 00 00 00 00 
00AB38 00 00 00 00 00 00 00 00 
00AB40 00 00 00 00 00 00 00 00 
00AB48 00 00 00 00 00 00 00 00 
00AB50 00 00 00 00 00 00 00 00 
00AB58 00 00 00 00 00 00 00 00 
00AB60 00 00 00 00 00 00 00 00 
00AB68 00 00 00 00 00 00 00 00 
00AB70 00 00 00 00 00 00 00 00 
00AB78 00 00 00 00 00 00 00 00 
00AB80 00 00 00 00 00 00 00 00 
00AB88 00 00 00 00 00 00 00 00 
00AB90 00 00 00 00 00 00 00 00 
00AB98 00 00 00 00 00 00 00 00 
00ABA0 00 00 00 00 00 00 00 00 
00ABA8 00 00 00 00 00 00 00 00 
00ABB0 00 00 00 00 00 00 00 00 
00ABB8 00 00 00 00 00 00 00 00 
00ABC0 00 00 00 00 00 00 00 00 
00ABC8 00 00 00 00 00 00 00 00 
00ABD0 00 00 00 00 00 00 00 00 
00ABD8 00 00 00 00 00 00 00 00 
00ABE0 00 00 00 00 00 00 00 00 
00ABE8 00 00 00 00 00 00 00 00 
00ABF0 00 00 00 00 00 00 00 00 
00ABF8 00 00 00 00 00 00 00 00 
00AC00 00 00 00 00 00 00 00 00 
00AC08 00 00 00 00 00 00 00 00 
00AC10 00 00 00 00 00 00 00 00 
00AC18 00 00 00 00 00 00 00 00 
00AC20 00 00 00 00 00 00 00 00 
00AC28 00 00 00 00 00 00 00 00 
00AC30 00 00 00 00 00 00 00 00 
00AC38 00 00 00 00 00 00 00 00 
00AC40 00 00 00 00 00 00 00 00 
00AC48 00 00 00 00 00 00 00 00 
00AC50 00 00 00 00 00 00 00 00 
00AC58 00 00 00 00 00 00 00 00 
00AC60 00 00 00 00 00 00 00 00 
00AC68 00 00 00 00 00 00 00 00 
00AC70 00 00 00 00 00 00 00 00 
00AC78 00 00 00 00 00 00 00 00 
00AC80 00 00 00 00 00 00 00 00 
00AC88 00 00 00 00 00 00 00 00 
00AC90 00 00 00 00 00 00 00 00 
00AC98 00 00 00 00 00 00 00 00 
00ACA0 00 00 00 00 00 00 00 00 
00ACA8 00 00 00 00 00 00 00 00 
00ACB0 00 00 00 00 00 00 00 00 
00ACB8 00 00 00 00 00 00 00 00 
00ACC0 00 00 00 00 00 00 00 00 
00ACC8 00 00 00 00 00 00 00 00 
00ACD0 00 00 00 00 00 00 00 00 
00ACD8 00 00 00 00 00 00 00 00 
00ACE0 00 00 00 00 00 00 00 00 
00ACE8 00 00 00 00 00 00 00 00 
00ACF0 00 00 00 00 00 00 00 00 
00ACF8 00 00 00 00 00 00 00 00 
00AD00 00 00 00 00 00 00 00 00 
00AD08 00 00 00 00 00 00 00 00 
00AD10 00 00 00 00 00 00 00 00 
00AD18 00 00 00 00 00 00 00 00 
00AD20 00 00 00 00 00 00 00 00 
00AD28 00 00 00 00 00 00 00 00 
00AD30 00 00 00 00 00 00 00 00 
00AD38 00 00 00 00 00 00 00 00 
00AD40 00 00 00 00 00 00 00 00 
00AD48 00 00 00 00 00 00 00 00 
00AD50 00 00 00 00 00 00 00 00 
00AD58 00 00 00 00 00 00 00 00 
00AD60 00 00 00 00 00 00 00 00 
00AD68 00 00 00 00 00 00 00 00 
00AD70 00 00 00 00 00 00 00 00 
00AD78 00 00 00 00 00 00 00 00 
00AD80 00 00 00 00 00 00 00 00 
00AD88 00 00 00 00 00 00 00 00 
00AD90 00 00 00 00 00 00 00 00 
00AD98 00 00 00 00 00 00 00 00 
00ADA0 00 00 00 00 00 00 00 00 
00ADA8 00 00 00 00 00 00 00 00 
00ADB0 00 00 00 00 00 00 00 00 
00ADB8 00 00 00 00 00 00 00 00 
00ADC0 00 00 00 00 00 00 00 00 
00ADC8 00 00 00 00 00 00 00 00 
00ADD0 00 00 00 00 00 00 00 00 
00ADD8 00 00 00 00 00 00 00 00 
00ADE0 00 00 00 00 00 00 00 00 
00ADE8 00 00 00 00 00 00 00 00 
00ADF0 00 00 00 00 00 00 00 00 
00ADF8 00 00 00 00 00 00 00 00 
00AE00 00 00 00 00 00 00 00 00 
00AE08 00 00 00 00 00 00 00 00 
00AE10 00 00 00 00 00 00 00 00 
00AE18 00 00 00 00 00 00 00 00 
00AE20 00 00 00 00 00 00 00 00 
00AE28 00 00 00 00 00 00 00 00 
00AE30 00 00 00 00 00 00 00 00 
00AE38 00 00 00 00 00 00 00 00 
00AE40 00 00 00 00 00 00 00 00 
00AE48 00 00 00 00 00 00 00 00 
00AE50 00 00 00 00 00 00 00 00 
00AE58 00 00 00 00 00 00 00 00 
00AE60 00 00 00 00 00 00 00 00 
00AE68 00 00 00 00 00 00 00 00 
00AE70 00 00 00 00 00 00 00 00 
00AE78 00 00 00 00 00 00 00 00 
00AE80 00 00 00 00 00 00 00 00 
00AE88 00 00 00 00 00 00 00 00 
00AE90 00 00 00 00 00 00 00 00 
00AE98 00 00 00 00 00 00 00 00 
00AEA0 00 00 00 00 00 00 00 00 
00AEA8 00 00 00 00 00 00 00 00 
00AEB0 00 00 00 00 00 00 00 00 
00AEB8 00 00 00 00 00 00 00 00 
00AEC0 00 00 00 00 00 00 00 00 
00AEC8 00 00 00 00 00 00 00 00 
00AED0 00 00 00 00 00 00 00 00 
00AED8 00 00 00 00 00 00 00 00 
00AEE0 00 00 00 00 00 00 00 00 
00AEE8 00 00 00 00 00 00 00 00 
00AEF0 00 00 00 00 00 00 00 00 
00AEF8 00 00 00 00 00 00 00 00 
00AF00 00 00 00 00 00 00 00 00 
00AF08 00 00 00 00 00 00 00 00 
00AF10 00 00 00 00 00 00 00 00 
00AF18 00 00 00 00 00 00 00 00 
00AF20 00 00 00 00 00 00 00 00 
00AF28 00 00 00 00 00 00 00 00 
00AF30 00 00 00 00 00 00 00 00 
00AF38 00 00 00 00 00 00 00 00 
00AF40 00 00 00 00 00 00 00 00 
00AF48 00 00 00 00 00 00 00 00 
00AF50 00 00 00 00 00 00 00 00 
00AF58 00 00 00 00 00 00 00 00 
00AF60 00 00 00 00 00 00 00 00 
00AF68 00 00 00 00 00 00 00 00 
00AF70 00 00 00 00 00 00 00 00 
00AF78 00 00 00 00 00 00 00 00 
00AF80 00 00 00 00 00 00 00 00 
00AF88 00 00 00 00 00 00 00 00 
00AF90 00 00 00 00 00 00 00 00 
00AF98 00 00 00 00 00 00 00 00 
00AFA0 00 00 00 00 00 00 00 00 
00AFA8 00 00 00 00 00 00 00 00 
00AFB0 00 00 00 00 00 00 00 00 
00AFB8 00 00 00 00 00 00 00 00 
00AFC0 00 00 00 00 00 00 00 00 
00AFC8 00 00 00 00 00 00 00 00 
00AFD0 00 00 00 00 00 00 00 00 
00AFD8 00 00 00 00 00 00 00 00 
00AFE0 00 00 00 00 00 00 00 00 
00AFE8 00 00 00 00 00 00 00 00 
00AFF0 00 00 00 00 00 00 00 00 
00AFF8 00 00 00 00 00 00 00 00 
00B000 00 00 00 00 00 00 00 00 
00B008 00 00 00 00 00 00 00 00 
00B010 00 00 00 00 00 00 00 00 
00B018 00 00 00 00 00 00 00 00 
00B020 00 00 00 00 00 00 00 00 
00B028 00 00 00 00 00 00 00 00 
00B030 00 00 00 00 00 00 00 00 
00B038 00 00 00 00 00 00 00 00 
00B040 00 00 00 00 00 00 00 00 
00B048 00 00 00 00 00 00 00 00 
00B050 00 00 00 00 00 00 00 00 
00B058 00 00 00 00 00 00 00 00 
00B060 00 00 00 00 00 00 00 00 
00B068 00 00 00 00 00 00 00 00 
00B070 00 00 00 00 00 00 00 00 
00B078 00 00 00 00 00 00 00 00 
00B080 00 00 00 00 00 00 00 00 
00B088 00 00 00 00 00 00 00 00 
00B090 00 00 00 00 00 00 00 00 
00B098 00 00 00 00 00 00 00 00 
00B0A0 00 00 00 00 00 00 00 00 
00B0A8 00 00 00 00 00 00 00 00 
00B0B0 00 00 00 00 00 00 00 00 
00B0B8 00 00 00 00 00 00 00 00 
00B0C0 00 00 00 00 00 00 00 00 
00B0C8 00 00 00 00 00 00 00 00 
00B0D0 00 00 00 00 00 00 00 00 
00B0D8 00 00 00 00 00 00 00 00 
00B0E0 00 00 00 00 00 00 00 00 
00B0E8 00 00 00 00 00 00 00 00 
00B0F0 00 00 00 00 00 00 00 00 
00B0F8 00 00 00 00 00 00 00 00 
00B100 00 00 00 00 00 00 00 00 
00B108 00 00 00 00 00 00 00 00 
00B110 00 00 00 00 00 00 00 00 
00B118 00 00 00 00 00 00 00 00 
00B120 00 00 00 00 00 00 00 00 
00B128 00 00 00 00 00 00 00 00 
00B130 00 00 00 00 00 00 00 00 
00B138 00 00 00 00 00 00 00 00 
00B140 00 00 00 00 00 00 00 00 
00B148 00 00 00 00 00 00 00 00 
00B150 00 00 00 00 00 00 00 00 
00B158 00 00 00 00 00 00 00 00 
00B160 00 00 00 00 00 00 00 00 
00B168 00 00 00 00 00 00 00 00 
00B170 00 00 00 00 00 00 00 00 
00B178 00 00 00 00 00 00 00 00 
00B180 00 00 00 00 00 00 00 00 
00B188 00 00 00 00 00 00 00 00 
00B190 00 00 00 00 00 00 00 00 
00B198 00 00 00 00 00 00 00 00 
00B1A0 00 00 00 00 00 00 00 00 
00B1A8 00 00 00 00 00 00 00 00 
00B1B0 00 00 00 00 00 00 00 00 
00B1B8 00 00 00 00 00 00 00 00 
00B1C0 00 00 00 00 00 00 00 00 
00B1C8 00 00 00 00 00 00 00 00 
00B1D0 00 00 00 00 00 00 00 00 
00B1D8 00 00 00 00 00 00 00 00 
00B1E0 00 00 00 00 00 00 00 00 
00B1E8 00 00 00 00 00 00 00 00 
00B1F0 00 00 00 00 00 00 00 00 
00B1F8 00 00 00 00 00 00 00 00 
00B200 00 00 00 00 00 00 00 00 
00B208 00 00 00 00 00 00 00 00 
00B210 00 00 00 00 00 00 00 00 
00B218 00 00 00 00 00 00 00 00 
00B220 00 00 00 00 00 00 00 00 
00B228 00 00 00 00 00 00 00 00 
00B230 00 00 00 00 00 00 00 00 
00B238 00 00 00 00 00 00 00 00 
00B240 00 00 00 00 00 00 00 00 
00B248 00 00 00 00 00 00 00 00 
00B250 00 00 00 00 00 00 00 00 
00B258 00 00 00 00 00 00 00 00 
00B260 00 00 00 00 00 00 00 00 
00B268 00 00 00 00 00 00 00 00 
00B270 00 00 00 00 00 00 00 00 
00B278 00 00 00 00 00 00 00 00 
00B280 00 00 00 00 00 00 00 00 
00B288 00 00 00 00 00 00 00 00 
00B290 00 00 00 00 00 00 00 00 
00B298 00 00 00 00 00 00 00 00 
00B2A0 00 00 00 00 00 00 00 00 
00B2A8 00 00 00 00 00 00 00 00 
00B2B0 00 00 00 00 00 00 00 00 
00B2B8 00 00 00 00 00 00 00 00 
00B2C0 00 00 00 00 00 00 00 00 
00B2C8 00 00 00 00 00 00 00 00 
00B2D0 00 00 00 00 00 00 00 00 
00B2D8 00 00 00 00 00 00 00 00 
00B2E0 00 00 00 00 00 00 00 00 
00B2E8 00 00 00 00 00 00 00 00 
00B2F0 00 00 00 00 00 00 00 00 
00B2F8 00 00 00 00 00 00 00 00 
00B300 00 00 00 00 00 00 00 00 
00B308 00 00 00 00 00 00 00 00 
00B310 00 00 00 00 00 00 00 00 
00B318 00 00 00 00 00 00 00 00 
00B320 00 00 00 00 00 00 00 00 
00B328 00 00 00 00 00 00 00 00 
00B330 00 00 00 00 00 00 00 00 
00B338 00 00 00 00 00 00 00 00 
00B340 00 00 00 00 00 00 00 00 
00B348 00 00 00 00 00 00 00 00 
00B350 00 00 00 00 00 00 00 00 
00B358 00 00 00 00 00 00 00 00 
00B360 00 00 00 00 00 00 00 00 
00B368 00 00 00 00 00 00 00 00 
00B370 00 00 00 00 00 00 00 00 
00B378 00 00 00 00 00 00 00 00 
00B380 00 00 00 00 00 00 00 00 
00B388 00 00 00 00 00 00 00 00 
00B390 00 00 00 00 00 00 00 00 
00B398 00 00 00 00 00 00 00 00 
00B3A0 00 00 00 00 00 00 00 00 
00B3A8 00 00 00 00 00 00 00 00 
00B3B0 00 00 00 00 00 00 00 00 
00B3B8 00 00 00 00 00 00 00 00 
00B3C0 00 00 00 00 00 00 00 00 
00B3C8 00 00 00 00 00 00 00 00 
00B3D0 00 00 00 00 00 00 00 00 
00B3D8 00 00 00 00 00 00 00 00 
00B3E0 00 00 00 00 00 00 00 00 
00B3E8 00 00 00 00 00 00 00 00 
00B3F0 00 00 00 00 00 00 00 00 
00B3F8 00 00 00 00 00 00 00 00 
00B400 00 00 00 00 00 00 00 00 
00B408 00 00 00 00 00 00 00 00 
00B410 00 00 00 00 00 00 00 00 
00B418 00 00 00 00 00 00 00 00 
00B420 00 00 00 00 00 00 00 00 
00B428 00 00 00 00 00 00 00 00 
00B430 00 00 00 00 00 00 00 00 
00B438 00 00 00 00 00 00 00 00 
00B440 00 00 00 00 00 00 00 00 
00B448 00 00 00 00 00 00 00 00 
00B450 00 00 00 00 00 00 00 00 
00B458 00 00 00 00 00 00 00 00 
00B460 00 00 00 00 00 00 00 00 
00B468 00 00 00 00 00 00 00 00 
00B470 00 00 00 00 00 00 00 00 
00B478 00 00 00 00 00 00 00 00 
00B480 00 00 00 00 00 00 00 00 
00B488 00 00 00 00 00 00 00 00 
00B490 00 00 00 00 00 00 00 00 
00B498 00 00 00 00 00 00 00 00 
00B4A0 00 00 00 00 00 00 00 00 
00B4A8 00 00 00 00 00 00 00 00 
00B4B0 00 00 00 00 00 00 00 00 
00B4B8 00 00 00 00 00 00 00 00 
00B4C0 00 00 00 00 00 00 00 00 
00B4C8 00 00 00 00 00 00 00 00 
00B4D0 00 00 00 00 00 00 00 00 
00B4D8 00 00 00 00 00 00 00 00 
00B4E0 00 00 00 00 00 00 00 00 
00B4E8 00 00 00 00 00 00 00 00 
00B4F0 00 00 00 00 00 00 00 00 
00B4F8 00 00 00 00 00 00 00 00 
00B500 00 00 00 00 00 00 00 00 
00B508 00 00 00 00 00 00 00 00 
00B510 00 00 00 00 00 00 00 00 
00B518 00 00 00 00 00 00 00 00 
00B520 00 00 00 00 00 00 00 00 
00B528 00 00 00 00 00 00 00 00 
00B530 00 00 00 00 00 00 00 00 
00B538 00 00 00 00 00 00 00 00 
00B540 00 00 00 00 00 00 00 00 
00B548 00 00 00 00 00 00 00 00 
00B550 00 00 00 00 00 00 00 00 
00B558 00 00 00 00 00 00 00 00 
00B560 00 00 00 00 00 00 00 00 
00B568 00 00 00 00 00 00 00 00 
00B570 00 00 00 00 00 00 00 00 
00B578 00 00 00 00 00 00 00 00 
00B580 00 00 00 00 00 00 00 00 
00B588 00 00 00 00 00 00 00 00 
00B590 00 00 00 00 00 00 00 00 
00B598 00 00 00 00 00 00 00 00 
00B5A0 00 00 00 00 00 00 00 00 
00B5A8 00 00 00 00 00 00 00 00 
00B5B0 00 00 00 00 00 00 00 00 
00B5B8 00 00 00 00 00 00 00 00 
00B5C0 00 00 00 00 00 00 00 00 
00B5C8 00 00 00 00 00 00 00 00 
00B5D0 00 00 00 00 00 00 00 00 
00B5D8 00 00 00 00 00 00 00 00 
00B5E0 00 00 00 00 00 00 00 00 
00B5E8 00 00 00 00 00 00 00 00 
00B5F0 00 00 00 00 00 00 00 00 
00B5F8 00 00 00 00 00 00 00 00 
00B600 00 00 00 00 00 00 00 00 
00B608 00 00 00 00 00 00 00 00 
00B610 00 00 00 00 00 00 00 00 
00B618 00 00 00 00 00 00 00 00 
00B620 00 00 00 00 00 00 00 00 
00B628 00 00 00 00 00 00 00 00 
00B630 00 00 00 00 00 00 00 00 
00B638 00 00 00 00 00 00 00 00 
00B640 00 00 00 00 00 00 00 00 
00B648 00 00 00 00 00 00 00 00 
00B650 00 00 00 00 00 00 00 00 
00B658 00 00 00 00 00 00 00 00 
00B660 00 00 00 00 00 00 00 00 
00B668 00 00 00 00 00 00 00 00 
00B670 00 00 00 00 00 00 00 00 
00B678 00 00 00 00 00 00 00 00 
00B680 00 00 00 00 00 00 00 00 
00B688 00 00 00 00 00 00 00 00 
00B690 00 00 00 00 00 00 00 00 
00B698 00 00 00 00 00 00 00 00 
00B6A0 00 00 00 00 00 00 00 00 
00B6A8 00 00 00 00 00 00 00 00 
00B6B0 00 00 00 00 00 00 00 00 
00B6B8 00 00 00 00 00 00 00 00 
00B6C0 00 00 00 00 00 00 00 00 
00B6C8 00 00 00 00 00 00 00 00 
00B6D0 00 00 00 00 00 00 00 00 
00B6D8 00 00 00 00 00 00 00 00 
00B6E0 00 00 00 00 00 00 00 00 
00B6E8 00 00 00 00 00 00 00 00 
00B6F0 00 00 00 00 00 00 00 00 
00B6F8 00 00 00 00 00 00 00 00 
00B700 00 00 00 00 00 00 00 00 
00B708 00 00 00 00 00 00 00 00 
00B710 00 00 00 00 00 00 00 00 
00B718 00 00 00 00 00 00 00 00 
00B720 00 00 00 00 00 00 00 00 
00B728 00 00 00 00 00 00 00 00 
00B730 00 00 00 00 00 00 00 00 
00B738 00 00 00 00 00 00 00 00 
00B740 00 00 00 00 00 00 00 00 
00B748 00 00 00 00 00 00 00 00 
00B750 00 00 00 00 00 00 00 00 
00B758 00 00 00 00 00 00 00 00 
00B760 00 00 00 00 00 00 00 00 
00B768 00 00 00 00 00 00 00 00 
00B770 00 00 00 00 00 00 00 00 
00B778 00 00 00 00 00 00 00 00 
00B780 00 00 00 00 00 00 00 00 
00B788 00 00 00 00 00 00 00 00 
00B790 00 00 00 00 00 00 00 00 
00B798 00 00 00 00 00 00 00 00 
00B7A0 00 00 00 00 00 00 00 00 
00B7A8 00 00 00 00 00 00 00 00 
00B7B0 00 00 00 00 00 00 00 00 
00B7B8 00 00 00 00 00 00 00 00 
00B7C0 00 00 00 00 00 00 00 00 
00B7C8 00 00 00 00 00 00 00 00 
00B7D0 00 00 00 00 00 00 00 00 
00B7D8 00 00 00 00 00 00 00 00 
00B7E0 00 00 00 00 00 00 00 00 
00B7E8 00 00 00 00 00 00 00 00 
00B7F0 00 00 00 00 00 00 00 00 
00B7F8 00 00 00 00 00 00 00 00 
00B800 00 00 00 00 00 00 00 00 
00B808 00 00 00 00 00 00 00 00 
00B810 00 00 00 00 00 00 00 00 
00B818 00 00 00 00 00 00 00 00 
00B820 00 00 00 00 00 00 00 00 
00B828 00 00 00 00 00 00 00 00 
00B830 00 00 00 00 00 00 00 00 
00B838 00 00 00 00 00 00 00 00 
00B840 00 00 00 00 00 00 00 00 
00B848 00 00 00 00 00 00 00 00 
00B850 00 00 00 00 00 00 00 00 
00B858 00 00 00 00 00 00 00 00 
00B860 00 00 00 00 00 00 00 00 
00B868 00 00 00 00 00 00 00 00 
00B870 00 00 00 00 00 00 00 00 
00B878 00 00 00 00 00 00 00 00 
00B880 00 00 00 00 00 00 00 00 
00B888 00 00 00 00 00 00 00 00 
00B890 00 00 00 00 00 00 00 00 
00B898 00 00 00 00 00 00 00 00 
00B8A0 00 00 00 00 00 00 00 00 
00B8A8 00 00 00 00 00 00 00 00 
00B8B0 00 00 00 00 00 00 00 00 
00B8B8 00 00 00 00 00 00 00 00 
00B8C0 00 00 00 00 00 00 00 00 
00B8C8 00 00 00 00 00 00 00 00 
00B8D0 00 00 00 00 00 00 00 00 
00B8D8 00 00 00 00 00 00 00 00 
00B8E0 00 00 00 00 00 00 00 00 
00B8E8 00 00 00 00 00 00 00 00 
00B8F0 00 00 00 00 00 00 00 00 
00B8F8 00 00 00 00 00 00 00 00 
00B900 00 00 00 00 00 00 00 00 
00B908 00 00 00 00 00 00 00 00 
00B910 00 00 00 00 00 00 00 00 
00B918 00 00 00 00 00 00 00 00 
00B920 00 00 00 00 00 00 00 00 
00B928 00 00 00 00 00 00 00 00 
00B930 00 00 00 00 00 00 00 00 
00B938 00 00 00 00 00 00 00 00 
00B940 00 00 00 00 00 00 00 00 
00B948 00 00 00 00 00 00 00 00 
00B950 00 00 00 00 00 00 00 00 
00B958 00 00 00 00 00 00 00 00 
00B960 00 00 00 00 00 00 00 00 
00B968 00 00 00 00 00 00 00 00 
00B970 00 00 00 00 00 00 00 00 
00B978 00 00 00 00 00 00 00 00 
00B980 00 00 00 00 00 00 00 00 
00B988 00 00 00 00 00 00 00 00 
00B990 00 00 00 00 00 00 00 00 
00B998 00 00 00 00 00 00 00 00 
00B9A0 00 00 00 00 00 00 00 00 
00B9A8 00 00 00 00 00 00 00 00 
00B9B0 00 00 00 00 00 00 00 00 
00B9B8 00 00 00 00 00 00 00 00 
00B9C0 00 00 00 00 00 00 00 00 
00B9C8 00 00 00 00 00 00 00 00 
00B9D0 00 00 00 00 00 00 00 00 
00B9D8 00 00 00 00 00 00 00 00 
00B9E0 00 00 00 00 00 00 00 00 
00B9E8 00 00 00 00 00 00 00 00 
00B9F0 00 00 00 00 00 00 00 00 
00B9F8 00 00 00 00 00 00 00 00 
00BA00 00 00 00 00 00 00 00 00 
00BA08 00 00 00 00 00 00 00 00 
00BA10 00 00 00 00 00 00 00 00 
00BA18 00 00 00 00 00 00 00 00 
00BA20 00 00 00 00 00 00 00 00 
00BA28 00 00 00 00 00 00 00 00 
00BA30 00 00 00 00 00 00 00 00 
00BA38 00 00 00 00 00 00 00 00 
00BA40 00 00 00 00 00 00 00 00 
00BA48 00 00 00 00 00 00 00 00 
00BA50 00 00 00 00 00 00 00 00 
00BA58 00 00 00 00 00 00 00 00 
00BA60 00 00 00 00 00 00 00 00 
00BA68 00 00 00 00 00 00 00 00 
00BA70 00 00 00 00 00 00 00 00 
00BA78 00 00 00 00 00 00 00 00 
00BA80 00 00 00 00 00 00 00 00 
00BA88 00 00 00 00 00 00 00 00 
00BA90 00 00 00 00 00 00 00 00 
00BA98 00 00 00 00 00 00 00 00 
00BAA0 00 00 00 00 00 00 00 00 
00BAA8 00 00 00 00 00 00 00 00 
00BAB0 00 00 00 00 00 00 00 00 
00BAB8 00 00 00 00 00 00 00 00 
00BAC0 00 00 00 00 00 00 00 00 
00BAC8 00 00 00 00 00 00 00 00 
00BAD0 00 00 00 00 00 00 00 00 
00BAD8 00 00 00 00 00 00 00 00 
00BAE0 00 00 00 00 00 00 00 00 
00BAE8 00 00 00 00 00 00 00 00 
00BAF0 00 00 00 00 00 00 00 00 
00BAF8 00 00 00 00 00 00 00 00 
00BB00 00 00 00 00 00 00 00 00 
00BB08 00 00 00 00 00 00 00 00 
00BB10 00 00 00 00 00 00 00 00 
00BB18 00 00 00 00 00 00 00 00 
00BB20 00 00 00 00 00 00 00 00 
00BB28 00 00 00 00 00 00 00 00 
00BB30 00 00 00 00 00 00 00 00 
00BB38 00 00 00 00 00 00 00 00 
00BB40 00 00 00 00 00 00 00 00 
00BB48 00 00 00 00 00 00 00 00 
00BB50 00 00 00 00 00 00 00 00 
00BB58 00 00 00 00 00 00 00 00 
00BB60 00 00 00 00 00 00 00 00 
00BB68 00 00 00 00 00 00 00 00 
00BB70 00 00 00 00 00 00 00 00 
00BB78 00 00 00 00 00 00 00 00 
00BB80 00 00 00 00 00 00 00 00 
00BB88 00 00 00 00 00 00 00 00 
00BB90 00 00 00 00 00 00 00 00 
00BB98 00 00 00 00 00 00 00 00 
00BBA0 00 00 00 00 00 00 00 00 
00BBA8 00 00 00 00 00 00 00 00 
00BBB0 00 00 00 00 00 00 00 00 
00BBB8 00 00 00 00 00 00 00 00 
00BBC0 00 00 00 00 00 00 00 00 
00BBC8 00 00 00 00 00 00 00 00 
00BBD0 00 00 00 00 00 00 00 00 
00BBD8 00 00 00 00 00 00 00 00 
00BBE0 00 00 00 00 00 00 00 00 
00BBE8 00 00 00 00 00 00 00 00 
00BBF0 00 00 00 00 00 00 00 00 
00BBF8 00 00 00 00 00 00 00 00 
00BC00 00 00 00 00 00 00 00 00 
00BC08 00 00 00 00 00 00 00 00 
00BC10 00 00 00 00 00 00 00 00 
00BC18 00 00 00 00 00 00 00 00 
00BC20 00 00 00 00 00 00 00 00 
00BC28 00 00 00 00 00 00 00 00 
00BC30 00 00 00 00 00 00 00 00 
00BC38 00 00 00 00 00 00 00 00 
00BC40 00 00 00 00 00 00 00 00 
00BC48 00 00 00 00 00 00 00 00 
00BC50 00 00 00 00 00 00 00 00 
00BC58 00 00 00 00 00 00 00 00 
00BC60 00 00 00 00 00 00 00 00 
00BC68 00 00 00 00 00 00 00 00 
00BC70 00 00 00 00 00 00 00 00 
00BC78 00 00 00 00 00 00 00 00 
00BC80 00 00 00 00 00 00 00 00 
00BC88 00 00 00 00 00 00 00 00 
00BC90 00 00 00 00 00 00 00 00 
00BC98 00 00 00 00 00 00 00 00 
00BCA0 00 00 00 00 00 00 00 00 
00BCA8 00 00 00 00 00 00 00 00 
00BCB0 00 00 00 00 00 00 00 00 
00BCB8 00 00 00 00 00 00 00 00 
00BCC0 00 00 00 00 00 00 00 00 
00BCC8 00 00 00 00 00 00 00 00 
00BCD0 00 00 00 00 00 00 00 00 
00BCD8 00 00 00 00 00 00 00 00 
00BCE0 00 00 00 00 00 00 00 00 
00BCE8 00 00 00 00 00 00 00 00 
00BCF0 00 00 00 00 00 00 00 00 
00BCF8 00 00 00 00 00 00 00 00 
00BD00 00 00 00 00 00 00 00 00 
00BD08 00 00 00 00 00 00 00 00 
00BD10 00 00 00 00 00 00 00 00 
00BD18 00 00 00 00 00 00 00 00 
00BD20 00 00 00 00 00 00 00 00 
00BD28 00 00 00 00 00 00 00 00 
00BD30 00 00 00 00 00 00 00 00 
00BD38 00 00 00 00 00 00 00 00 
00BD40 00 00 00 00 00 00 00 00 
00BD48 00 00 00 00 00 00 00 00 
00BD50 00 00 00 00 00 00 00 00 
00BD58 00 00 00 00 00 00 00 00 
00BD60 00 00 00 00 00 00 00 00 
00BD68 00 00 00 00 00 00 00 00 
00BD70 00 00 00 00 00 00 00 00 
00BD78 00 00 00 00 00 00 00 00 
00BD80 00 00 00 00 00 00 00 00 
00BD88 00 00 00 00 00 00 00 00 
00BD90 00 00 00 00 00 00 00 00 
00BD98 00 00 00 00 00 00 00 00 
00BDA0 00 00 00 00 00 00 00 00 
00BDA8 00 00 00 00 00 00 00 00 
00BDB0 00 00 00 00 00 00 00 00 
00BDB8 00 00 00 00 00 00 00 00 
00BDC0 00 00 00 00 00 00 00 00 
00BDC8 00 00 00 00 00 00 00 00 
00BDD0 00 00 00 00 00 00 00 00 
00BDD8 00 00 00 00 00 00 00 00 
00BDE0 00 00 00 00 00 00 00 00 
00BDE8 00 00 00 00 00 00 00 00 
00BDF0 00 00 00 00 00 00 00 00 
00BDF8 00 00 00 00 00 00 00 00 
00BE00 00 00 00 00 00 00 00 00 
00BE08 00 00 00 00 00 00 00 00 
00BE10 00 00 00 00 00 00 00 00 
00BE18 00 00 00 00 00 00 00 00 
00BE20 00 00 00 00 00 00 00 00 
00BE28 00 00 00 00 00 00 00 00 
00BE30 00 00 00 00 00 00 00 00 
00BE38 00 00 00 00 00 00 00 00 
00BE40 00 00 00 00 00 00 00 00 
00BE48 00 00 00 00 00 00 00 00 
00BE50 00 00 00 00 00 00 00 00 
00BE58 00 00 00 00 00 00 00 00 
00BE60 00 00 00 00 00 00 00 00 
00BE68 00 00 00 00 00 00 00 00 
00BE70 00 00 00 00 00 00 00 00 
00BE78 00 00 00 00 00 00 00 00 
00BE80 00 00 00 00 00 00 00 00 
00BE88 00 00 00 00 00 00 00 00 
00BE90 00 00 00 00 00 00 00 00 
00BE98 00 00 00 00 00 00 00 00 
00BEA0 00 00 00 00 00 00 00 00 
00BEA8 00 00 00 00 00 00 00 00 
00BEB0 00 00 00 00 00 00 00 00 
00BEB8 00 00 00 00 00 00 00 00 
00BEC0 00 00 00 00 00 00 00 00 
00BEC8 00 00 00 00 00 00 00 00 
00BED0 00 00 00 00 00 00 00 00 
00BED8 00 00 00 00 00 00 00 00 
00BEE0 00 00 00 00 00 00 00 00 
00BEE8 00 00 00 00 00 00 00 00 
00BEF0 00 00 00 00 00 00 00 00 
00BEF8 00 00 00 00 00 00 00 00 
00BF00 00 00 00 00 00 00 00 00 
00BF08 00 00 00 00 00 00 00 00 
00BF10 00 00 00 00 00 00 00 00 
00BF18 00 00 00 00 00 00 00 00 
00BF20 00 00 00 00 00 00 00 00 
00BF28 00 00 00 00 00 00 00 00 
00BF30 00 00 00 00 00 00 00 00 
00BF38 00 00 00 00 00 00 00 00 
00BF40 00 00 00 00 00 00 00 00 
00BF48 00 00 00 00 00 00 00 00 
00BF50 00 00 00 00 00 00 00 00 
00BF58 00 00 00 00 00 00 00 00 
00BF60 00 00 00 00 00 00 00 00 
00BF68 00 00 00 00 00 00 00 00 
00BF70 00 00 00 00 00 00 00 00 
00BF78 00 00 00 00 00 00 00 00 
00BF80 00 00 00 00 00 00 00 00 
00BF88 00 00 00 00 00 00 00 00 
00BF90 00 00 00 00 00 00 00 00 
00BF98 00 00 00 00 00 00 00 00 
00BFA0 00 00 00 00 00 00 00 00 
00BFA8 00 00 00 00 00 00 00 00 
00BFB0 00 00 00 00 00 00 00 00 
00BFB8 00 00 00 00 00 00 00 00 
00BFC0 00 00 00 00 00 00 00 00 
00BFC8 00 00 00 00 00 00 00 00 
00BFD0 00 00 00 00 00 00 00 00 
00BFD8 00 00 00 00 00 00 00 00 
00BFE0 00 00 00 00 00 00 00 00 
00BFE8 00 00 00 00 00 00 00 00 
00BFF0 00 00 00 00 00 00 00 00 
00BFF8 00 00 00 00 00 00 00 00 
00C000 00 00 00 00 00 00 00 00 
00C008 00 00 00 00 00 00 00 00 
00C010 00 00 00 00 00 00 00 00 
00C018 00 00 00 00 00 00 00 00 
00C020 00 00 00 00 00 00 00 00 
00C028 00 00 00 00 00 00 00 00 
00C030 00 00 00 00 00 00 00 00 
00C038 00 00 00 00 00 00 00 00 
00C040 00 00 00 00 00 00 00 00 
00C048 00 00 00 00 00 00 00 00 
00C050 00 00 00 00 00 00 00 00 
00C058 00 00 00 00 00 00 00 00 
00C060 00 00 00 00 00 00 00 00 
00C068 00 00 00 00 00 00 00 00 
00C070 00 00 00 00 00 00 00 00 
00C078 00 00 00 00 00 00 00 00 
00C080 00 00 00 00 00 00 00 00 
00C088 00 00 00 00 00 00 00 00 
00C090 00 00 00 00 00 00 00 00 
00C098 00 00 00 00 00 00 00 00 
00C0A0 00 00 00 00 00 00 00 00 
00C0A8 00 00 00 00 00 00 00 00 
00C0B0 00 00 00 00 00 00 00 00 
00C0B8 00 00 00 00 00 00 00 00 
00C0C0 00 00 00 00 00 00 00 00 
00C0C8 00 00 00 00 00 00 00 00 
00C0D0 00 00 00 00 00 00 00 00 
00C0D8 00 00 00 00 00 00 00 00 
00C0E0 00 00 00 00 00 00 00 00 
00C0E8 00 00 00 00 00 00 00 00 
00C0F0 00 00 00 00 00 00 00 00 
00C0F8 00 00 00 00 00 00 00 00 
00C100 00 00 00 00 00 00 00 00 
00C108 00 00 00 00 00 00 00 00 
00C110 00 00 00 00 00 00 00 00 
00C118 00 00 00 00 00 00 00 00 
00C120 00 00 00 00 00 00 00 00 
00C128 00 00 00 00 00 00 00 00 
00C130 00 00 00 00 00 00 00 00 
00C138 00 00 00 00 00 00 00 00 
00C140 00 00 00 00 00 00 00 00 
00C148 00 00 00 00 00 00 00 00 
00C150 00 00 00 00 00 00 00 00 
00C158 00 00 00 00 00 00 00 00 
00C160 00 00 00 00 00 00 00 00 
00C168 00 00 00 00 00 00 00 00 
00C170 00 00 00 00 00 00 00 00 
00C178 00 00 00 00 00 00 00 00 
00C180 00 00 00 00 00 00 00 00 
00C188 00 00 00 00 00 00 00 00 
00C190 00 00 00 00 00 00 00 00 
00C198 00 00 00 00 00 00 00 00 
00C1A0 00 00 00 00 00 00 00 00 
00C1A8 00 00 00 00 00 00 00 00 
00C1B0 00 00 00 00 00 00 00 00 
00C1B8 00 00 00 00 00 00 00 00 
00C1C0 00 00 00 00 00 00 00 00 
00C1C8 00 00 00 00 00 00 00 00 
00C1D0 00 00 00 00 00 00 00 00 
00C1D8 00 00 00 00 00 00 00 00 
00C1E0 00 00 00 00 00 00 00 00 
00C1E8 00 00 00 00 00 00 00 00 
00C1F0 00 00 00 00 00 00 00 00 
00C1F8 00 00 00 00 00 00 00 00 
00C200 00 00 00 00 00 00 00 00 
00C208 00 00 00 00 00 00 00 00 
00C210 00 00 00 00 00 00 00 00 
00C218 00 00 00 00 00 00 00 00 
00C220 00 00 00 00 00 00 00 00 
00C228 00 00 00 00 00 00 00 00 
00C230 00 00 00 00 00 00 00 00 
00C238 00 00 00 00 00 00 00 00 
00C240 00 00 00 00 00 00 00 00 
00C248 00 00 00 00 00 00 00 00 
00C250 00 00 00 00 00 00 00 00 
00C258 00 00 00 00 00 00 00 00 
00C260 00 00 00 00 00 00 00 00 
00C268 00 00 00 00 00 00 00 00 
00C270 00 00 00 00 00 00 00 00 
00C278 00 00 00 00 00 00 00 00 
00C280 00 00 00 00 00 00 00 00 
00C288 00 00 00 00 00 00 00 00 
00C290 00 00 00 00 00 00 00 00 
00C298 00 00 00 00 00 00 00 00 
00C2A0 00 00 00 00 00 00 00 00 
00C2A8 00 00 00 00 00 00 00 00 
00C2B0 00 00 00 00 00 00 00 00 
00C2B8 00 00 00 00 00 00 00 00 
00C2C0 00 00 00 00 00 00 00 00 
00C2C8 00 00 00 00 00 00 00 00 
00C2D0 00 00 00 00 00 00 00 00 
00C2D8 00 00 00 00 00 00 00 00 
00C2E0 00 00 00 00 00 00 00 00 
00C2E8 00 00 00 00 00 00 00 00 
00C2F0 00 00 00 00 00 00 00 00 
00C2F8 00 00 00 00 00 00 00 00 
00C300 00 00 00 00 00 00 00 00 
00C308 00 00 00 00 00 00 00 00 
00C310 00 00 00 00 00 00 00 00 
00C318 00 00 00 00 00 00 00 00 
00C320 00 00 00 00 00 00 00 00 
00C328 00 00 00 00 00 00 00 00 
00C330 00 00 00 00 00 00 00 00 
00C338 00 00 00 00 00 00 00 00 
00C340 00 00 00 00 00 00 00 00 
00C348 00 00 00 00 00 00 00 00 
00C350 00 00 00 00 00 00 00 00 
00C358 00 00 00 00 00 00 00 00 
00C360 00 00 00 00 00 00 00 00 
00C368 00 00 00 00 00 00 00 00 
00C370 00 00 00 00 00 00 00 00 
00C378 00 00 00 00 00 00 00 00 
00C380 00 00 00 00 00 00 00 00 
00C388 00 00 00 00 00 00 00 00 
00C390 00 00 00 00 00 00 00 00 
00C398 00 00 00 00 00 00 00 00 
00C3A0 00 00 00 00 00 00 00 00 
00C3A8 00 00 00 00 00 00 00 00 
00C3B0 00 00 00 00 00 00 00 00 
00C3B8 00 00 00 00 00 00 00 00 
00C3C0 00 00 00 00 00 00 00 00 
00C3C8 00 00 00 00 00 00 00 00 
00C3D0 00 00 00 00 00 00 00 00 
00C3D8 00 00 00 00 00 00 00 00 
00C3E0 00 00 00 00 00 00 00 00 
00C3E8 00 00 00 00 00 00 00 00 
00C3F0 00 00 00 00 00 00 00 00 
00C3F8 00 00 00 00 00 00 00 00 
00C400 00 00 00 00 00 00 00 00 
00C408 00 00 00 00 00 00 00 00 
00C410 00 00 00 00 00 00 00 00 
00C418 00 00 00 00 00 00 00 00 
00C420 00 00 00 00 00 00 00 00 
00C428 00 00 00 00 00 00 00 00 
00C430 00 00 00 00 00 00 00 00 
00C438 00 00 00 00 00 00 00 00 
00C440 00 00 00 00 00 00 00 00 
00C448 00 00 00 00 00 00 00 00 
00C450 00 00 00 00 00 00 00 00 
00C458 00 00 00 00 00 00 00 00 
00C460 00 00 00 00 00 00 00 00 
00C468 00 00 00 00 00 00 00 00 
00C470 00 00 00 00 00 00 00 00 
00C478 00 00 00 00 00 00 00 00 
00C480 00 00 00 00 00 00 00 00 
00C488 00 00 00 00 00 00 00 00 
00C490 00 00 00 00 00 00 00 00 
00C498 00 00 00 00 00 00 00 00 
00C4A0 00 00 00 00 00 00 00 00 
00C4A8 00 00 00 00 00 00 00 00 
00C4B0 00 00 00 00 00 00 00 00 
00C4B8 00 00 00 00 00 00 00 00 
00C4C0 00 00 00 00 00 00 00 00 
00C4C8 00 00 00 00 00 00 00 00 
00C4D0 00 00 00 00 00 00 00 00 
00C4D8 00 00 00 00 00 00 00 00 
00C4E0 00 00 00 00 00 00 00 00 
00C4E8 00 00 00 00 00 00 00 00 
00C4F0 00 00 00 00 00 00 00 00 
00C4F8 00 00 00 00 00 00 00 00 
00C500 00 00 00 00 00 00 00 00 
00C508 00 00 00 00 00 00 00 00 
00C510 00 00 00 00 00 00 00 00 
00C518 00 00 00 00 00 00 00 00 
00C520 00 00 00 00 00 00 00 00 
00C528 00 00 00 00 00 00 00 00 
00C530 00 00 00 00 00 00 00 00 
00C538 00 00 00 00 00 00 00 00 
00C540 00 00 00 00 00 00 00 00 
00C548 00 00 00 00 00 00 00 00 
00C550 00 00 00 00 00 00 00 00 
00C558 00 00 00 00 00 00 00 00 
00C560 00 00 00 00 00 00 00 00 
00C568 00 00 00 00 00 00 00 00 
00C570 00 00 00 00 00 00 00 00 
00C578 00 00 00 00 00 00 00 00 
00C580 00 00 00 00 00 00 00 00 
00C588 00 00 00 00 00 00 00 00 
00C590 00 00 00 00 00 00 00 00 
00C598 00 00 00 00 00 00 00 00 
00C5A0 00 00 00 00 00 00 00 00 
00C5A8 00 00 00 00 00 00 00 00 
00C5B0 00 00 00 00 00 00 00 00 
00C5B8 00 00 00 00 00 00 00 00 
00C5C0 00 00 00 00 00 00 00 00 
00C5C8 00 00 00 00 00 00 00 00 
00C5D0 00 00 00 00 00 00 00 00 
00C5D8 00 00 00 00 00 00 00 00 
00C5E0 00 00 00 00 00 00 00 00 
00C5E8 00 00 00 00 00 00 00 00 
00C5F0 00 00 00 00 00 00 00 00 
00C5F8 00 00 00 00 00 00 00 00 
00C600 00 00 00 00 00 00 00 00 
00C608 00 00 00 00 00 00 00 00 
00C610 00 00 00 00 00 00 00 00 
00C618 00 00 00 00 00 00 00 00 
00C620 00 00 00 00 00 00 00 00 
00C628 00 00 00 00 00 00 00 00 
00C630 00 00 00 00 00 00 00 00 
00C638 00 00 00 00 00 00 00 00 
00C640 00 00 00 00 00 00 00 00 
00C648 00 00 00 00 00 00 00 00 
00C650 00 00 00 00 00 00 00 00 
00C658 00 00 00 00 00 00 00 00 
00C660 00 00 00 00 00 00 00 00 
00C668 00 00 00 00 00 00 00 00 
00C670 00 00 00 00 00 00 00 00 
00C678 00 00 00 00 00 00 00 00 
00C680 00 00 00 00 00 00 00 00 
00C688 00 00 00 00 00 00 00 00 
00C690 00 00 00 00 00 00 00 00 
00C698 00 00 00 00 00 00 00 00 
00C6A0 00 00 00 00 00 00 00 00 
00C6A8 00 00 00 00 00 00 00 00 
00C6B0 00 00 00 00 00 00 00 00 
00C6B8 00 00 00 00 00 00 00 00 
00C6C0 00 00 00 00 00 00 00 00 
00C6C8 00 00 00 00 00 00 00 00 
00C6D0 00 00 00 00 00 00 00 00 
00C6D8 00 00 00 00 00 00 00 00 
00C6E0 00 00 00 00 00 00 00 00 
00C6E8 00 00 00 00 00 00 00 00 
00C6F0 00 00 00 00 00 00 00 00 
00C6F8 00 00 00 00 00 00 00 00 
00C700 00 00 00 00 00 00 00 00 
00C708 00 00 00 00 00 00 00 00 
00C710 00 00 00 00 00 00 00 00 
00C718 00 00 00 00 00 00 00 00 
00C720 00 00 00 00 00 00 00 00 
00C728 00 00 00 00 00 00 00 00 
00C730 00 00 00 00 00 00 00 00 
00C738 00 00 00 00 00 00 00 00 
00C740 00 00 00 00 00 00 00 00 
00C748 00 00 00 00 00 00 00 00 
00C750 00 00 00 00 00 00 00 00 
00C758 00 00 00 00 00 00 00 00 
00C760 00 00 00 00 00 00 00 00 
00C768 00 00 00 00 00 00 00 00 
00C770 00 00 00 00 00 00 00 00 
00C778 00 00 00 00 00 00 00 00 
00C780 00 00 00 00 00 00 00 00 
00C788 00 00 00 00 00 00 00 00 
00C790 00 00 00 00 00 00 00 00 
00C798 00 00 00 00 00 00 00 00 
00C7A0 00 00 00 00 00 00 00 00 
00C7A8 00 00 00 00 00 00 00 00 
00C7B0 00 00 00 00 00 00 00 00 
00C7B8 00 00 00 00 00 00 00 00 
00C7C0 00 00 00 00 00 00 00 00 
00C7C8 00 00 00 00 00 00 00 00 
00C7D0 00 00 00 00 00 00 00 00 
00C7D8 00 00 00 00 00 00 00 00 
00C7E0 00 00 00 00 00 00 00 00 
00C7E8 00 00 00 00 00 00 00 00 
00C7F0 00 00 00 00 00 00 00 00 
00C7F8 00 00 00 00 00 00 00 00 
00C800 00 00 00 00 00 00 00 00 
00C808 00 00 00 00 00 00 00 00 
00C810 00 00 00 00 00 00 00 00 
00C818 00 00 00 00 00 00 00 00 
00C820 00 00 00 00 00 00 00 00 
00C828 00 00 00 00 00 00 00 00 
00C830 00 00 00 00 00 00 00 00 
00C838 00 00 00 00 00 00 00 00 
00C840 00 00 00 00 00 00 00 00 
00C848 00 00 00 00 00 00 00 00 
00C850 00 00 00 00 00 00 00 00 
00C858 00 00 00 00 00 00 00 00 
00C860 00 00 00 00 00 00 00 00 
00C868 00 00 00 00 00 00 00 00 
00C870 00 00 00 00 00 00 00 00 
00C878 00 00 00 00 00 00 00 00 
00C880 00 00 00 00 00 00 00 00 
00C888 00 00 00 00 00 00 00 00 
00C890 00 00 00 00 00 00 00 00 
00C898 00 00 00 00 00 00 00 00 
00C8A0 00 00 00 00 00 00 00 00 
00C8A8 00 00 00 00 00 00 00 00 
00C8B0 00 00 00 00 00 00 00 00 
00C8B8 00 00 00 00 00 00 00 00 
00C8C0 00 00 00 00 00 00 00 00 
00C8C8 00 00 00 00 00 00 00 00 
00C8D0 00 00 00 00 00 00 00 00 
00C8D8 00 00 00 00 00 00 00 00 
00C8E0 00 00 00 00 00 00 00 00 
00C8E8 00 00 00 00 00 00 00 00 
00C8F0 00 00 00 00 00 00 00 00 
00C8F8 00 00 00 00 00 00 00 00 
00C900 00 00 00 00 00 00 00 00 
00C908 00 00 00 00 00 00 00 00 
00C910 00 00 00 00 00 00 00 00 
00C918 00 00 00 00 00 00 00 00 
00C920 00 00 00 00 00 00 00 00 
00C928 00 00 00 00 00 00 00 00 
00C930 00 00 00 00 00 00 00 00 
00C938 00 00 00 00 00 00 00 00 
00C940 00 00 00 00 00 00 00 00 
00C948 00 00 00 00 00 00 00 00 
00C950 00 00 00 00 00 00 00 00 
00C958 00 00 00 00 00 00 00 00 
00C960 00 00 00 00 00 00 00 00 
00C968 00 00 00 00 00 00 00 00 
00C970 00 00 00 00 00 00 00 00 
00C978 00 00 00 00 00 00 00 00 
00C980 00 00 00 00 00 00 00 00 
00C988 00 00 00 00 00 00 00 00 
00C990 00 00 00 00 00 00 00 00 
00C998 00 00 00 00 00 00 00 00 
00C9A0 00 00 00 00 00 00 00 00 
00C9A8 00 00 00 00 00 00 00 00 
00C9B0 00 00 00 00 00 00 00 00 
00C9B8 00 00 00 00 00 00 00 00 
00C9C0 00 00 00 00 00 00 00 00 
00C9C8 00 00 00 00 00 00 00 00 
00C9D0 00 00 00 00 00 00 00 00 
00C9D8 00 00 00 00 00 00 00 00 
00C9E0 00 00 00 00 00 00 00 00 
00C9E8 00 00 00 00 00 00 00 00 
00C9F0 00 00 00 00 00 00 00 00 
00C9F8 00 00 00 00 00 00 00 00 
00CA00 00 00 00 00 00 00 00 00 
00CA08 00 00 00 00 00 00 00 00 
00CA10 00 00 00 00 00 00 00 00 
00CA18 00 00 00 00 00 00 00 00 
00CA20 00 00 00 00 00 00 00 00 
00CA28 00 00 00 00 00 00 00 00 
00CA30 00 00 00 00 00 00 00 00 
00CA38 00 00 00 00 00 00 00 00 
00CA40 00 00 00 00 00 00 00 00 
00CA48 00 00 00 00 00 00 00 00 
00CA50 00 00 00 00 00 00 00 00 
00CA58 00 00 00 00 00 00 00 00 
00CA60 00 00 00 00 00 00 00 00 
00CA68 00 00 00 00 00 00 00 00 
00CA70 00 00 00 00 00 00 00 00 
00CA78 00 00 00 00 00 00 00 00 
00CA80 00 00 00 00 00 00 00 00 
00CA88 00 00 00 00 00 00 00 00 
00CA90 00 00 00 00 00 00 00 00 
00CA98 00 00 00 00 00 00 00 00 
00CAA0 00 00 00 00 00 00 00 00 
00CAA8 00 00 00 00 00 00 00 00 
00CAB0 00 00 00 00 00 00 00 00 
00CAB8 00 00 00 00 00 00 00 00 
00CAC0 00 00 00 00 00 00 00 00 
00CAC8 00 00 00 00 00 00 00 00 
00CAD0 00 00 00 00 00 00 00 00 
00CAD8 00 00 00 00 00 00 00 00 
00CAE0 00 00 00 00 00 00 00 00 
00CAE8 00 00 00 00 00 00 00 00 
00CAF0 00 00 00 00 00 00 00 00 
00CAF8 00 00 00 00 00 00 00 00 
00CB00 00 00 00 00 00 00 00 00 
00CB08 00 00 00 00 00 00 00 00 
00CB10 00 00 00 00 00 00 00 00 
00CB18 00 00 00 00 00 00 00 00 
00CB20 00 00 00 00 00 00 00 00 
00CB28 00 00 00 00 00 00 00 00 
00CB30 00 00 00 00 00 00 00 00 
00CB38 00 00 00 00 00 00 00 00 
00CB40 00 00 00 00 00 00 00 00 
00CB48 00 00 00 00 00 00 00 00 
00CB50 00 00 00 00 00 00 00 00 
00CB58 00 00 00 00 00 00 00 00 
00CB60 00 00 00 00 00 00 00 00 
00CB68 00 00 00 00 00 00 00 00 
00CB70 00 00 00 00 00 00 00 00 
00CB78 00 00 00 00 00 00 00 00 
00CB80 00 00 00 00 00 00 00 00 
00CB88 00 00 00 00 00 00 00 00 
00CB90 00 00 00 00 00 00 00 00 
00CB98 00 00 00 00 00 00 00 00 
00CBA0 00 00 00 00 00 00 00 00 
00CBA8 00 00 00 00 00 00 00 00 
00CBB0 00 00 00 00 00 00 00 00 
00CBB8 00 00 00 00 00 00 00 00 
00CBC0 00 00 00 00 00 00 00 00 
00CBC8 00 00 00 00 00 00 00 00 
00CBD0 00 00 00 00 00 00 00 00 
00CBD8 00 00 00 00 00 00 00 00 
00CBE0 00 00 00 00 00 00 00 00 
00CBE8 00 00 00 00 00 00 00 00 
00CBF0 00 00 00 00 00 00 00 00 
00CBF8 00 00 00 00 00 00 00 00 
00CC00 00 00 00 00 00 00 00 00 
00CC08 00 00 00 00 00 00 00 00 
00CC10 00 00 00 00 00 00 00 00 
00CC18 00 00 00 00 00 00 00 00 
00CC20 00 00 00 00 00 00 00 00 
00CC28 00 00 00 00 00 00 00 00 
00CC30 00 00 00 00 00 00 00 00 
00CC38 00 00 00 00 00 00 00 00 
00CC40 00 00 00 00 00 00 00 00 
00CC48 00 00 00 00 00 00 00 00 
00CC50 00 00 00 00 00 00 00 00 
00CC58 00 00 00 00 00 00 00 00 
00CC60 00 00 00 00 00 00 00 00 
00CC68 00 00 00 00 00 00 00 00 
00CC70 00 00 00 00 00 00 00 00 
00CC78 00 00 00 00 00 00 00 00 
00CC80 00 00 00 00 00 00 00 00 
00CC88 00 00 00 00 00 00 00 00 
00CC90 00 00 00 00 00 00 00 00 
00CC98 00 00 00 00 00 00 00 00 
00CCA0 00 00 00 00 00 00 00 00 
00CCA8 00 00 00 00 00 00 00 00 
00CCB0 00 00 00 00 00 00 00 00 
00CCB8 00 00 00 00 00 00 00 00 
00CCC0 00 00 00 00 00 00 00 00 
00CCC8 00 00 00 00 00 00 00 00 
00CCD0 00 00 00 00 00 00 00 00 
00CCD8 00 00 00 00 00 00 00 00 
00CCE0 00 00 00 00 00 00 00 00 
00CCE8 00 00 00 00 00 00 00 00 
00CCF0 00 00 00 00 00 00 00 00 
00CCF8 00 00 00 00 00 00 00 00 
00CD00 00 00 00 00 00 00 00 00 
00CD08 00 00 00 00 00 00 00 00 
00CD10 00 00 00 00 00 00 00 00 
00CD18 00 00 00 00 00 00 00 00 
00CD20 00 00 00 00 00 00 00 00 
00CD28 00 00 00 00 00 00 00 00 
00CD30 00 00 00 00 00 00 00 00 
00CD38 00 00 00 00 00 00 00 00 
00CD40 00 00 00 00 00 00 00 00 
00CD48 00 00 00 00 00 00 00 00 
00CD50 00 00 00 00 00 00 00 00 
00CD58 00 00 00 00 00 00 00 00 
00CD60 00 00 00 00 00 00 00 00 
00CD68 00 00 00 00 00 00 00 00 
00CD70 00 00 00 00 00 00 00 00 
00CD78 00 00 00 00 00 00 00 00 
00CD80 00 00 00 00 00 00 00 00 
00CD88 00 00 00 00 00 00 00 00 
00CD90 00 00 00 00 00 00 00 00 
00CD98 00 00 00 00 00 00 00 00 
00CDA0 00 00 00 00 00 00 00 00 
00CDA8 00 00 00 00 00 00 00 00 
00CDB0 00 00 00 00 00 00 00 00 
00CDB8 00 00 00 00 00 00 00 00 
00CDC0 00 00 00 00 00 00 00 00 
00CDC8 00 00 00 00 00 00 00 00 
00CDD0 00 00 00 00 00 00 00 00 
00CDD8 00 00 00 00 00 00 00 00 
00CDE0 00 00 00 00 00 00 00 00 
00CDE8 00 00 00 00 00 00 00 00 
00CDF0 00 00 00 00 00 00 00 00 
00CDF8 00 00 00 00 00 00 00 00 
00CE00 00 00 00 00 00 00 00 00 
00CE08 00 00 00 00 00 00 00 00 
00CE10 00 00 00 00 00 00 00 00 
00CE18 00 00 00 00 00 00 00 00 
00CE20 00 00 00 00 00 00 00 00 
00CE28 00 00 00 00 00 00 00 00 
00CE30 00 00 00 00 00 00 00 00 
00CE38 00 00 00 00 00 00 00 00 
00CE40 00 00 00 00 00 00 00 00 
00CE48 00 00 00 00 00 00 00 00 
00CE50 00 00 00 00 00 00 00 00 
00CE58 00 00 00 00 00 00 00 00 
00CE60 00 00 00 00 00 00 00 00 
00CE68 00 00 00 00 00 00 00 00 
00CE70 00 00 00 00 00 00 00 00 
00CE78 00 00 00 00 00 00 00 00 
00CE80 00 00 00 00 00 00 00 00 
00CE88 00 00 00 00 00 00 00 00 
00CE90 00 00 00 00 00 00 00 00 
00CE98 00 00 00 00 00 00 00 00 
00CEA0 00 00 00 00 00 00 00 00 
00CEA8 00 00 00 00 00 00 00 00 
00CEB0 00 00 00 00 00 00 00 00 
00CEB8 00 00 00 00 00 00 00 00 
00CEC0 00 00 00 00 00 00 00 00 
00CEC8 00 00 00 00 00 00 00 00 
00CED0 00 00 00 00 00 00 00 00 
00CED8 00 00 00 00 00 00 00 00 
00CEE0 00 00 00 00 00 00 00 00 
00CEE8 00 00 00 00 00 00 00 00 
00CEF0 00 00 00 00 00 00 00 00 
00CEF8 00 00 00 00 00 00 00 00 
00CF00 00 00 00 00 00 00 00 00 
00CF08 00 00 00 00 00 00 00 00 
00CF10 00 00 00 00 00 00 00 00 
00CF18 00 00 00 00 00 00 00 00 
00CF20 00 00 00 00 00 00 00 00 
00CF28 00 00 00 00 00 00 00 00 
00CF30 00 00 00 00 00 00 00 00 
00CF38 00 00 00 00 00 00 00 00 
00CF40 00 00 00 00 00 00 00 00 
00CF48 00 00 00 00 00 00 00 00 
00CF50 00 00 00 00 00 00 00 00 
00CF58 00 00 00 00 00 00 00 00 
00CF60 00 00 00 00 00 00 00 00 
00CF68 00 00 00 00 00 00 00 00 
00CF70 00 00 00 00 00 00 00 00 
00CF78 00 00 00 00 00 00 00 00 
00CF80 00 00 00 00 00 00 00 00 
00CF88 00 00 00 00 00 00 00 00 
00CF90 00 00 00 00 00 00 00 00 
00CF98 00 00 00 00 00 00 00 00 
00CFA0 00 00 00 00 00 00 00 00 
00CFA8 00 00 00 00 00 00 00 00 
00CFB0 00 00 00 00 00 00 00 00 
00CFB8 00 00 00 00 00 00 00 00 
00CFC0 00 00 00 00 00 00 00 00 
00CFC8 00 00 00 00 00 00 00 00 
00CFD0 00 00 00 00 00 00 00 00 
00CFD8 00 00 00 00 00 00 00 00 
00CFE0 00 00 00 00 00 00 00 00 
00CFE8 00 00 00 00 00 00 00 00 
00CFF0 00 00 00 00 00 00 00 00 
00CFF8 00 00 00 00 00 00 00 00 
00D000 00 00 00 00 00 00 00 00 
00D008 00 00 00 00 00 00 00 00 
00D010 00 00 00 00 00 00 00 00 
00D018 00 00 00 00 00 00 00 00 
00D020 00 00 00 00 00 00 00 00 
00D028 00 00 00 00 00 00 00 00 
00D030 00 00 00 00 00 00 00 00 
00D038 00 00 00 00 00 00 00 00 
00D040 00 00 00 00 00 00 00 00 
00D048 00 00 00 00 00 00 00 00 
00D050 00 00 00 00 00 00 00 00 
00D058 00 00 00 00 00 00 00 00 
00D060 00 00 00 00 00 00 00 00 
00D068 00 00 00 00 00 00 00 00 
00D070 00 00 00 00 00 00 00 00 
00D078 00 00 00 00 00 00 00 00 
00D080 00 00 00 00 00 00 00 00 
00D088 00 00 00 00 00 00 00 00 
00D090 00 00 00 00 00 00 00 00 
00D098 00 00 00 00 00 00 00 00 
00D0A0 00 00 00 00 00 00 00 00 
00D0A8 00 00 00 00 00 00 00 00 
00D0B0 00 00 00 00 00 00 00 00 
00D0B8 00 00 00 00 00 00 00 00 
00D0C0 00 00 00 00 00 00 00 00 
00D0C8 00 00 00 00 00 00 00 00 
00D0D0 00 00 00 00 00 00 00 00 
00D0D8 00 00 00 00 00 00 00 00 
00D0E0 00 00 00 00 00 00 00 00 
00D0E8 00 00 00 00 00 00 00 00 
00D0F0 00 00 00 00 00 00 00 00 
00D0F8 00 00 00 00 00 00 00 00 
00D100 00 00 00 00 00 00 00 00 
00D108 00 00 00 00 00 00 00 00 
00D110 00 00 00 00 00 00 00 00 
00D118 00 00 00 00 00 00 00 00 
00D120 00 00 00 00 00 00 00 00 
00D128 00 00 00 00 00 00 00 00 
00D130 00 00 00 00 00 00 00 00 
00D138 00 00 00 00 00 00 00 00 
00D140 00 00 00 00 00 00 00 00 
00D148 00 00 00 00 00 00 00 00 
00D150 00 00 00 00 00 00 00 00 
00D158 00 00 00 00 00 00 00 00 
00D160 00 00 00 00 00 00 00 00 
00D168 00 00 00 00 00 00 00 00 
00D170 00 00 00 00 00 00 00 00 
00D178 00 00 00 00 00 00 00 00 
00D180 00 00 00 00 00 00 00 00 
00D188 00 00 00 00 00 00 00 00 
00D190 00 00 00 00 00 00 00 00 
00D198 00 00 00 00 00 00 00 00 
00D1A0 00 00 00 00 00 00 00 00 
00D1A8 00 00 00 00 00 00 00 00 
00D1B0 00 00 00 00 00 00 00 00 
00D1B8 00 00 00 00 00 00 00 00 
00D1C0 00 00 00 00 00 00 00 00 
00D1C8 00 00 00 00 00 00 00 00 
00D1D0 00 00 00 00 00 00 00 00 
00D1D8 00 00 00 00 00 00 00 00 
00D1E0 00 00 00 00 00 00 00 00 
00D1E8 00 00 00 00 00 00 00 00 
00D1F0 00 00 00 00 00 00 00 00 
00D1F8 00 00 00 00 00 00 00 00 
00D200 00 00 00 00 00 00 00 00 
00D208 00 00 00 00 00 00 00 00 
00D210 00 00 00 00 00 00 00 00 
00D218 00 00 00 00 00 00 00 00 
00D220 00 00 00 00 00 00 00 00 
00D228 00 00 00 00 00 00 00 00 
00D230 00 00 00 00 00 00 00 00 
00D238 00 00 00 00 00 00 00 00 
00D240 00 00 00 00 00 00 00 00 
00D248 00 00 00 00 00 00 00 00 
00D250 00 00 00 00 00 00 00 00 
00D258 00 00 00 00 00 00 00 00 
00D260 00 00 00 00 00 00 00 00 
00D268 00 00 00 00 00 00 00 00 
00D270 00 00 00 00 00 00 00 00 
00D278 00 00 00 00 00 00 00 00 
00D280 00 00 00 00 00 00 00 00 
00D288 00 00 00 00 00 00 00 00 
00D290 00 00 00 00 00 00 00 00 
00D298 00 00 00 00 00 00 00 00 
00D2A0 00 00 00 00 00 00 00 00 
00D2A8 00 00 00 00 00 00 00 00 
00D2B0 00 00 00 00 00 00 00 00 
00D2B8 00 00 00 00 00 00 00 00 
00D2C0 00 00 00 00 00 00 00 00 
00D2C8 00 00 00 00 00 00 00 00 
00D2D0 00 00 00 00 00 00 00 00 
00D2D8 00 00 00 00 00 00 00 00 
00D2E0 00 00 00 00 00 00 00 00 
00D2E8 00 00 00 00 00 00 00 00 
00D2F0 00 00 00 00 00 00 00 00 
00D2F8 00 00 00 00 00 00 00 00 
00D300 00 00 00 00 00 00 00 00 
00D308 00 00 00 00 00 00 00 00 
00D310 00 00 00 00 00 00 00 00 
00D318 00 00 00 00 00 00 00 00 
00D320 00 00 00 00 00 00 00 00 
00D328 00 00 00 00 00 00 00 00 
00D330 00 00 00 00 00 00 00 00 
00D338 00 00 00 00 00 00 00 00 
00D340 00 00 00 00 00 00 00 00 
00D348 00 00 00 00 00 00 00 00 
00D350 00 00 00 00 00 00 00 00 
00D358 00 00 00 00 00 00 00 00 
00D360 00 00 00 00 00 00 00 00 
00D368 00 00 00 00 00 00 00 00 
00D370 00 00 00 00 00 00 00 00 
00D378 00 00 00 00 00 00 00 00 
00D380 00 00 00 00 00 00 00 00 
00D388 00 00 00 00 00 00 00 00 
00D390 00 00 00 00 00 00 00 00 
00D398 00 00 00 00 00 00 00 00 
00D3A0 00 00 00 00 00 00 00 00 
00D3A8 00 00 00 00 00 00 00 00 
00D3B0 00 00 00 00 00 00 00 00 
00D3B8 00 00 00 00 00 00 00 00 
00D3C0 00 00 00 00 00 00 00 00 
00D3C8 00 00 00 00 00 00 00 00 
00D3D0 00 00 00 00 00 00 00 00 
00D3D8 00 00 00 00 00 00 00 00 
00D3E0 00 00 00 00 00 00 00 00 
00D3E8 00 00 00 00 00 00 00 00 
00D3F0 00 00 00 00 00 00 00 00 
00D3F8 00 00 00 00 00 00 00 00 
00D400 00 00 00 00 00 00 00 00 
00D408 00 00 00 00 00 00 00 00 
00D410 00 00 00 00 00 00 00 00 
00D418 00 00 00 00 00 00 00 00 
00D420 00 00 00 00 00 00 00 00 
00D428 00 00 00 00 00 00 00 00 
00D430 00 00 00 00 00 00 00 00 
00D438 00 00 00 00 00 00 00 00 
00D440 00 00 00 00 00 00 00 00 
00D448 00 00 00 00 00 00 00 00 
00D450 00 00 00 00 00 00 00 00 
00D458 00 00 00 00 00 00 00 00 
00D460 00 00 00 00 00 00 00 00 
00D468 00 00 00 00 00 00 00 00 
00D470 00 00 00 00 00 00 00 00 
00D478 00 00 00 00 00 00 00 00 
00D480 00 00 00 00 00 00 00 00 
00D488 00 00 00 00 00 00 00 00 
00D490 00 00 00 00 00 00 00 00 
00D498 00 00 00 00 00 00 00 00 
00D4A0 00 00 00 00 00 00 00 00 
00D4A8 00 00 00 00 00 00 00 00 
00D4B0 00 00 00 00 00 00 00 00 
00D4B8 00 00 00 00 00 00 00 00 
00D4C0 00 00 00 00 00 00 00 00 
00D4C8 00 00 00 00 00 00 00 00 
00D4D0 00 00 00 00 00 00 00 00 
00D4D8 00 00 00 00 00 00 00 00 
00D4E0 00 00 00 00 00 00 00 00 
00D4E8 00 00 00 00 00 00 00 00 
00D4F0 00 00 00 00 00 00 00 00 
00D4F8 00 00 00 00 00 00 00 00 
00D500 00 00 00 00 00 00 00 00 
00D508 00 00 00 00 00 00 00 00 
00D510 00 00 00 00 00 00 00 00 
00D518 00 00 00 00 00 00 00 00 
00D520 00 00 00 00 00 00 00 00 
00D528 00 00 00 00 00 00 00 00 
00D530 00 00 00 00 00 00 00 00 
00D538 00 00 00 00 00 00 00 00 
00D540 00 00 00 00 00 00 00 00 
00D548 00 00 00 00 00 00 00 00 
00D550 00 00 00 00 00 00 00 00 
00D558 00 00 00 00 00 00 00 00 
00D560 00 00 00 00 00 00 00 00 
00D568 00 00 00 00 00 00 00 00 
00D570 00 00 00 00 00 00 00 00 
00D578 00 00 00 00 00 00 00 00 
00D580 00 00 00 00 00 00 00 00 
00D588 00 00 00 00 00 00 00 00 
00D590 00 00 00 00 00 00 00 00 
00D598 00 00 00 00 00 00 00 00 
00D5A0 00 00 00 00 00 00 00 00 
00D5A8 00 00 00 00 00 00 00 00 
00D5B0 00 00 00 00 00 00 00 00 
00D5B8 00 00 00 00 00 00 00 00 
00D5C0 00 00 00 00 00 00 00 00 
00D5C8 00 00 00 00 00 00 00 00 
00D5D0 00 00 00 00 00 00 00 00 
00D5D8 00 00 00 00 00 00 00 00 
00D5E0 00 00 00 00 00 00 00 00 
00D5E8 00 00 00 00 00 00 00 00 
00D5F0 00 00 00 00 00 00 00 00 
00D5F8 00 00 00 00 00 00 00 00 
00D600 00 00 00 00 00 00 00 00 
00D608 00 00 00 00 00 00 00 00 
00D610 00 00 00 00 00 00 00 00 
00D618 00 00 00 00 00 00 00 00 
00D620 00 00 00 00 00 00 00 00 
00D628 00 00 00 00 00 00 00 00 
00D630 00 00 00 00 00 00 00 00 
00D638 00 00 00 00 00 00 00 00 
00D640 00 00 00 00 00 00 00 00 
00D648 00 00 00 00 00 00 00 00 
00D650 00 00 00 00 00 00 00 00 
00D658 00 00 00 00 00 00 00 00 
00D660 00 00 00 00 00 00 00 00 
00D668 00 00 00 00 00 00 00 00 
00D670 00 00 00 00 00 00 00 00 
00D678 00 00 00 00 00 00 00 00 
00D680 00 00 00 00 00 00 00 00 
00D688 00 00 00 00 00 00 00 00 
00D690 00 00 00 00 00 00 00 00 
00D698 00 00 00 00 00 00 00 00 
00D6A0 00 00 00 00 00 00 00 00 
00D6A8 00 00 00 00 00 00 00 00 
00D6B0 00 00 00 00 00 00 00 00 
00D6B8 00 00 00 00 00 00 00 00 
00D6C0 00 00 00 00 00 00 00 00 
00D6C8 00 00 00 00 00 00 00 00 
00D6D0 00 00 00 00 00 00 00 00 
00D6D8 00 00 00 00 00 00 00 00 
00D6E0 00 00 00 00 00 00 00 00 
00D6E8 00 00 00 00 00 00 00 00 
00D6F0 00 00 00 00 00 00 00 00 
00D6F8 00 00 00 00 00 00 00 00 
00D700 00 00 00 00 00 00 00 00 
00D708 00 00 00 00 00 00 00 00 
00D710 00 00 00 00 00 00 00 00 
00D718 00 00 00 00 00 00 00 00 
00D720 00 00 00 00 00 00 00 00 
00D728 00 00 00 00 00 00 00 00 
00D730 00 00 00 00 00 00 00 00 
00D738 00 00 00 00 00 00 00 00 
00D740 00 00 00 00 00 00 00 00 
00D748 00 00 00 00 00 00 00 00 
00D750 00 00 00 00 00 00 00 00 
00D758 00 00 00 00 00 00 00 00 
00D760 00 00 00 00 00 00 00 00 
00D768 00 00 00 00 00 00 00 00 
00D770 00 00 00 00 00 00 00 00 
00D778 00 00 00 00 00 00 00 00 
00D780 00 00 00 00 00 00 00 00 
00D788 00 00 00 00 00 00 00 00 
00D790 00 00 00 00 00 00 00 00 
00D798 00 00 00 00 00 00 00 00 
00D7A0 00 00 00 00 00 00 00 00 
00D7A8 00 00 00 00 00 00 00 00 
00D7B0 00 00 00 00 00 00 00 00 
00D7B8 00 00 00 00 00 00 00 00 
00D7C0 00 00 00 00 00 00 00 00 
00D7C8 00 00 00 00 00 00 00 00 
00D7D0 00 00 00 00 00 00 00 00 
00D7D8 00 00 00 00 00 00 00 00 
00D7E0 00 00 00 00 00 00 00 00 
00D7E8 00 00 00 00 00 00 00 00 
00D7F0 00 00 00 00 00 00 00 00 
00D7F8 00 00 00 00 00 00 00 00 
00D800 00 00 00 00 00 00 00 00 
00D808 00 00 00 00 00 00 00 00 
00D810 00 00 00 00 00 00 00 00 
00D818 00 00 00 00 00 00 00 00 
00D820 00 00 00 00 00 00 00 00 
00D828 00 00 00 00 00 00 00 00 
00D830 00 00 00 00 00 00 00 00 
00D838 00 00 00 00 00 00 00 00 
00D840 00 00 00 00 00 00 00 00 
00D848 00 00 00 00 00 00 00 00 
00D850 00 00 00 00 00 00 00 00 
00D858 00 00 00 00 00 00 00 00 
00D860 00 00 00 00 00 00 00 00 
00D868 00 00 00 00 00 00 00 00 
00D870 00 00 00 00 00 00 00 00 
00D878 00 00 00 00 00 00 00 00 
00D880 00 00 00 00 00 00 00 00 
00D888 00 00 00 00 00 00 00 00 
00D890 00 00 00 00 00 00 00 00 
00D898 00 00 00 00 00 00 00 00 
00D8A0 00 00 00 00 00 00 00 00 
00D8A8 00 00 00 00 00 00 00 00 
00D8B0 00 00 00 00 00 00 00 00 
00D8B8 00 00 00 00 00 00 00 00 
00D8C0 00 00 00 00 00 00 00 00 
00D8C8 00 00 00 00 00 00 00 00 
00D8D0 00 00 00 00 00 00 00 00 
00D8D8 00 00 00 00 00 00 00 00 
00D8E0 00 00 00 00 00 00 00 00 
00D8E8 00 00 00 00 00 00 00 00 
00D8F0 00 00 00 00 00 00 00 00 
00D8F8 00 00 00 00 00 00 00 00 
00D900 00 00 00 00 00 00 00 00 
00D908 00 00 00 00 00 00 00 00 
00D910 00 00 00 00 00 00 00 00 
00D918 00 00 00 00 00 00 00 00 
00D920 00 00 00 00 00 00 00 00 
00D928 00 00 00 00 00 00 00 00 
00D930 00 00 00 00 00 00 00 00 
00D938 00 00 00 00 00 00 00 00 
00D940 00 00 00 00 00 00 00 00 
00D948 00 00 00 00 00 00 00 00 
00D950 00 00 00 00 00 00 00 00 
00D958 00 00 00 00 00 00 00 00 
00D960 00 00 00 00 00 00 00 00 
00D968 00 00 00 00 00 00 00 00 
00D970 00 00 00 00 00 00 00 00 
00D978 00 00 00 00 00 00 00 00 
00D980 00 00 00 00 00 00 00 00 
00D988 00 00 00 00 00 00 00 00 
00D990 00 00 00 00 00 00 00 00 
00D998 00 00 00 00 00 00 00 00 
00D9A0 00 00 00 00 00 00 00 00 
00D9A8 00 00 00 00 00 00 00 00 
00D9B0 00 00 00 00 00 00 00 00 
00D9B8 00 00 00 00 00 00 00 00 
00D9C0 00 00 00 00 00 00 00 00 
00D9C8 00 00 00 00 00 00 00 00 
00D9D0 00 00 00 00 00 00 00 00 
00D9D8 00 00 00 00 00 00 00 00 
00D9E0 00 00 00 00 00 00 00 00 
00D9E8 00 00 00 00 00 00 00 00 
00D9F0 00 00 00 00 00 00 00 00 
00D9F8 00 00 00 00 00 00 00 00 
00DA00 00 00 00 00 00 00 00 00 
00DA08 00 00 00 00 00 00 00 00 
00DA10 00 00 00 00 00 00 00 00 
00DA18 00 00 00 00 00 00 00 00 
00DA20 00 00 00 00 00 00 00 00 
00DA28 00 00 00 00 00 00 00 00 
00DA30 00 00 00 00 00 00 00 00 
00DA38 00 00 00 00 00 00 00 00 
00DA40 00 00 00 00 00 00 00 00 
00DA48 00 00 00 00 00 00 00 00 
00DA50 00 00 00 00 00 00 00 00 
00DA58 00 00 00 00 00 00 00 00 
00DA60 00 00 00 00 00 00 00 00 
00DA68 00 00 00 00 00 00 00 00 
00DA70 00 00 00 00 00 00 00 00 
00DA78 00 00 00 00 00 00 00 00 
00DA80 00 00 00 00 00 00 00 00 
00DA88 00 00 00 00 00 00 00 00 
00DA90 00 00 00 00 00 00 00 00 
00DA98 00 00 00 00 00 00 00 00 
00DAA0 00 00 00 00 00 00 00 00 
00DAA8 00 00 00 00 00 00 00 00 
00DAB0 00 00 00 00 00 00 00 00 
00DAB8 00 00 00 00 00 00 00 00 
00DAC0 00 00 00 00 00 00 00 00 
00DAC8 00 00 00 00 00 00 00 00 
00DAD0 00 00 00 00 00 00 00 00 
00DAD8 00 00 00 00 00 00 00 00 
00DAE0 00 00 00 00 00 00 00 00 
00DAE8 00 00 00 00 00 00 00 00 
00DAF0 00 00 00 00 00 00 00 00 
00DAF8 00 00 00 00 00 00 00 00 
00DB00 00 00 00 00 00 00 00 00 
00DB08 00 00 00 00 00 00 00 00 
00DB10 00 00 00 00 00 00 00 00 
00DB18 00 00 00 00 00 00 00 00 
00DB20 00 00 00 00 00 00 00 00 
00DB28 00 00 00 00 00 00 00 00 
00DB30 00 00 00 00 00 00 00 00 
00DB38 00 00 00 00 00 00 00 00 
00DB40 00 00 00 00 00 00 00 00 
00DB48 00 00 00 00 00 00 00 00 
00DB50 00 00 00 00 00 00 00 00 
00DB58 00 00 00 00 00 00 00 00 
00DB60 00 00 00 00 00 00 00 00 
00DB68 00 00 00 00 00 00 00 00 
00DB70 00 00 00 00 00 00 00 00 
00DB78 00 00 00 00 00 00 00 00 
00DB80 00 00 00 00 00 00 00 00 
00DB88 00 00 00 00 00 00 00 00 
00DB90 00 00 00 00 00 00 00 00 
00DB98 00 00 00 00 00 00 00 00 
00DBA0 00 00 00 00 00 00 00 00 
00DBA8 00 00 00 00 00 00 00 00 
00DBB0 00 00 00 00 00 00 00 00 
00DBB8 00 00 00 00 00 00 00 00 
00DBC0 00 00 00 00 00 00 00 00 
00DBC8 00 00 00 00 00 00 00 00 
00DBD0 00 00 00 00 00 00 00 00 
00DBD8 00 00 00 00 00 00 00 00 
00DBE0 00 00 00 00 00 00 00 00 
00DBE8 00 00 00 00 00 00 00 00 
00DBF0 00 00 00 00 00 00 00 00 
00DBF8 00 00 00 00 00 00 00 00 
00DC00 00 00 00 00 00 00 00 00 
00DC08 00 00 00 00 00 00 00 00 
00DC10 00 00 00 00 00 00 00 00 
00DC18 00 00 00 00 00 00 00 00 
00DC20 00 00 00 00 00 00 00 00 
00DC28 00 00 00 00 00 00 00 00 
00DC30 00 00 00 00 00 00 00 00 
00DC38 00 00 00 00 00 00 00 00 
00DC40 00 00 00 00 00 00 00 00 
00DC48 00 00 00 00 00 00 00 00 
00DC50 00 00 00 00 00 00 00 00 
00DC58 00 00 00 00 00 00 00 00 
00DC60 00 00 00 00 00 00 00 00 
00DC68 00 00 00 00 00 00 00 00 
00DC70 00 00 00 00 00 00 00 00 
00DC78 00 00 00 00 00 00 00 00 
00DC80 00 00 00 00 00 00 00 00 
00DC88 00 00 00 00 00 00 00 00 
00DC90 00 00 00 00 00 00 00 00 
00DC98 00 00 00 00 00 00 00 00 
00DCA0 00 00 00 00 00 00 00 00 
00DCA8 00 00 00 00 00 00 00 00 
00DCB0 00 00 00 00 00 00 00 00 
00DCB8 00 00 00 00 00 00 00 00 
00DCC0 00 00 00 00 00 00 00 00 
00DCC8 00 00 00 00 00 00 00 00 
00DCD0 00 00 00 00 00 00 00 00 
00DCD8 00 00 00 00 00 00 00 00 
00DCE0 00 00 00 00 00 00 00 00 
00DCE8 00 00 00 00 00 00 00 00 
00DCF0 00 00 00 00 00 00 00 00 
00DCF8 00 00 00 00 00 00 00 00 
00DD00 00 00 00 00 00 00 00 00 
00DD08 00 00 00 00 00 00 00 00 
00DD10 00 00 00 00 00 00 00 00 
00DD18 00 00 00 00 00 00 00 00 
00DD20 00 00 00 00 00 00 00 00 
00DD28 00 00 00 00 00 00 00 00 
00DD30 00 00 00 00 00 00 00 00 
00DD38 00 00 00 00 00 00 00 00 
00DD40 00 00 00 00 00 00 00 00 
00DD48 00 00 00 00 00 00 00 00 
00DD50 00 00 00 00 00 00 00 00 
00DD58 00 00 00 00 00 00 00 00 
00DD60 00 00 00 00 00 00 00 00 
00DD68 00 00 00 00 00 00 00 00 
00DD70 00 00 00 00 00 00 00 00 
00DD78 00 00 00 00 00 00 00 00 
00DD80 00 00 00 00 00 00 00 00 
00DD88 00 00 00 00 00 00 00 00 
00DD90 00 00 00 00 00 00 00 00 
00DD98 00 00 00 00 00 00 00 00 
00DDA0 00 00 00 00 00 00 00 00 
00DDA8 00 00 00 00 00 00 00 00 
00DDB0 00 00 00 00 00 00 00 00 
00DDB8 00 00 00 00 00 00 00 00 
00DDC0 00 00 00 00 00 00 00 00 
00DDC8 00 00 00 00 00 00 00 00 
00DDD0 00 00 00 00 00 00 00 00 
00DDD8 00 00 00 00 00 00 00 00 
00DDE0 00 00 00 00 00 00 00 00 
00DDE8 00 00 00 00 00 00 00 00 
00DDF0 00 00 00 00 00 00 00 00 
00DDF8 00 00 00 00 00 00 00 00 
00DE00 00 00 00 00 00 00 00 00 
00DE08 00 00 00 00 00 00 00 00 
00DE10 00 00 00 00 00 00 00 00 
00DE18 00 00 00 00 00 00 00 00 
00DE20 00 00 00 00 00 00 00 00 
00DE28 00 00 00 00 00 00 00 00 
00DE30 00 00 00 00 00 00 00 00 
00DE38 00 00 00 00 00 00 00 00 
00DE40 00 00 00 00 00 00 00 00 
00DE48 00 00 00 00 00 00 00 00 
00DE50 00 00 00 00 00 00 00 00 
00DE58 00 00 00 00 00 00 00 00 
00DE60 00 00 00 00 00 00 00 00 
00DE68 00 00 00 00 00 00 00 00 
00DE70 00 00 00 00 00 00 00 00 
00DE78 00 00 00 00 00 00 00 00 
00DE80 00 00 00 00 00 00 00 00 
00DE88 00 00 00 00 00 00 00 00 
00DE90 00 00 00 00 00 00 00 00 
00DE98 00 00 00 00 00 00 00 00 
00DEA0 00 00 00 00 00 00 00 00 
00DEA8 00 00 00 00 00 00 00 00 
00DEB0 00 00 00 00 00 00 00 00 
00DEB8 00 00 00 00 00 00 00 00 
00DEC0 00 00 00 00 00 00 00 00 
00DEC8 00 00 00 00 00 00 00 00 
00DED0 00 00 00 00 00 00 00 00 
00DED8 00 00 00 00 00 00 00 00 
00DEE0 00 00 00 00 00 00 00 00 
00DEE8 00 00 00 00 00 00 00 00 
00DEF0 00 00 00 00 00 00 00 00 
00DEF8 00 00 00 00 00 00 00 00 
00DF00 00 00 00 00 00 00 00 00 
00DF08 00 00 00 00 00 00 00 00 
00DF10 00 00 00 00 00 00 00 00 
00DF18 00 00 00 00 00 00 00 00 
00DF20 00 00 00 00 00 00 00 00 
00DF28 00 00 00 00 00 00 00 00 
00DF30 00 00 00 00 00 00 00 00 
00DF38 00 00 00 00 00 00 00 00 
00DF40 00 00 00 00 00 00 00 00 
00DF48 00 00 00 00 00 00 00 00 
00DF50 00 00 00 00 00 00 00 00 
00DF58 00 00 00 00 00 00 00 00 
00DF60 00 00 00 00 00 00 00 00 
00DF68 00 00 00 00 00 00 00 00 
00DF70 00 00 00 00 00 00 00 00 
00DF78 00 00 00 00 00 00 00 00 
00DF80 00 00 00 00 00 00 00 00 
00DF88 00 00 00 00 00 00 00 00 
00DF90 00 00 00 00 00 00 00 00 
00DF98 00 00 00 00 00 00 00 00 
00DFA0 00 00 00 00 00 00 00 00 
00DFA8 00 00 00 00 00 00 00 00 
00DFB0 00 00 00 00 00 00 00 00 
00DFB8 00 00 00 00 00 00 00 00 
00DFC0 00 00 00 00 00 00 00 00 
00DFC8 00 00 00 00 00 00 00 00 
00DFD0 00 00 00 00 00 00 00 00 
00DFD8 00 00 00 00 00 00 00 00 
00DFE0 00 00 00 00 00 00 00 00 
00DFE8 00 00 00 00 00 00 00 00 
00DFF0 00 00 00 00 00 00 00 00 
00DFF8 00 00 00 00 00 00 00 00 
00E000 00 00 00 00 00 00 00 00 
00E008 00 00 00 00 00 00 00 00 
00E010 00 00 00 00 00 00 00 00 
00E018 00 00 00 00 00 00 00 00 
00E020 00 00 00 00 00 00 00 00 
00E028 00 00 00 00 00 00 00 00 
00E030 00 00 00 00 00 00 00 00 
00E038 00 00 00 00 00 00 00 00 
00E040 00 00 00 00 00 00 00 00 
00E048 00 00 00 00 00 00 00 00 
00E050 00 00 00 00 00 00 00 00 
00E058 00 00 00 00 00 00 00 00 
00E060 00 00 00 00 00 00 00 00 
00E068 00 00 00 00 00 00 00 00 
00E070 00 00 00 00 00 00 00 00 
00E078 00 00 00 00 00 00 00 00 
00E080 00 00 00 00 00 00 00 00 
00E088 00 00 00 00 00 00 00 00 
00E090 00 00 00 00 00 00 00 00 
00E098 00 00 00 00 00 00 00 00 
00E0A0 00 00 00 00 00 00 00 00 
00E0A8 00 00 00 00 00 00 00 00 
00E0B0 00 00 00 00 00 00 00 00 
00E0B8 00 00 00 00 00 00 00 00 
00E0C0 00 00 00 00 00 00 00 00 
00E0C8 00 00 00 00 00 00 00 00 
00E0D0 00 00 00 00 00 00 00 00 
00E0D8 00 00 00 00 00 00 00 00 
00E0E0 00 00 00 00 00 00 00 00 
00E0E8 00 00 00 00 00 00 00 00 
00E0F0 00 00 00 00 00 00 00 00 
00E0F8 00 00 00 00 00 00 00 00 
00E100 00 00 00 00 00 00 00 00 
00E108 00 00 00 00 00 00 00 00 
00E110 00 00 00 00 00 00 00 00 
00E118 00 00 00 00 00 00 00 00 
00E120 00 00 00 00 00 00 00 00 
00E128 00 00 00 00 00 00 00 00 
00E130 00 00 00 00 00 00 00 00 
00E138 00 00 00 00 00 00 00 00 
00E140 00 00 00 00 00 00 00 00 
00E148 00 00 00 00 00 00 00 00 
00E150 00 00 00 00 00 00 00 00 
00E158 00 00 00 00 00 00 00 00 
00E160 00 00 00 00 00 00 00 00 
00E168 00 00 00 00 00 00 00 00 
00E170 00 00 00 00 00 00 00 00 
00E178 00 00 00 00 00 00 00 00 
00E180 00 00 00 00 00 00 00 00 
00E188 00 00 00 00 00 00 00 00 
00E190 00 00 00 00 00 00 00 00 
00E198 00 00 00 00 00 00 00 00 
00E1A0 00 00 00 00 00 00 00 00 
00E1A8 00 00 00 00 00 00 00 00 
00E1B0 00 00 00 00 00 00 00 00 
00E1B8 00 00 00 00 00 00 00 00 
00E1C0 00 00 00 00 00 00 00 00 
00E1C8 00 00 00 00 00 00 00 00 
00E1D0 00 00 00 00 00 00 00 00 
00E1D8 00 00 00 00 00 00 00 00 
00E1E0 00 00 00 00 00 00 00 00 
00E1E8 00 00 00 00 00 00 00 00 
00E1F0 00 00 00 00 00 00 00 00 
00E1F8 00 00 00 00 00 00 00 00 
00E200 00 00 00 00 00 00 00 00 
00E208 00 00 00 00 00 00 00 00 
00E210 00 00 00 00 00 00 00 00 
00E218 00 00 00 00 00 00 00 00 
00E220 00 00 00 00 00 00 00 00 
00E228 00 00 00 00 00 00 00 00 
00E230 00 00 00 00 00 00 00 00 
00E238 00 00 00 00 00 00 00 00 
00E240 00 00 00 00 00 00 00 00 
00E248 00 00 00 00 00 00 00 00 
00E250 00 00 00 00 00 00 00 00 
00E258 00 00 00 00 00 00 00 00 
00E260 00 00 00 00 00 00 00 00 
00E268 00 00 00 00 00 00 00 00 
00E270 00 00 00 00 00 00 00 00 
00E278 00 00 00 00 00 00 00 00 
00E280 00 00 00 00 00 00 00 00 
00E288 00 00 00 00 00 00 00 00 
00E290 00 00 00 00 00 00 00 00 
00E298 00 00 00 00 00 00 00 00 
00E2A0 00 00 00 00 00 00 00 00 
00E2A8 00 00 00 00 00 00 00 00 
00E2B0 00 00 00 00 00 00 00 00 
00E2B8 00 00 00 00 00 00 00 00 
00E2C0 00 00 00 00 00 00 00 00 
00E2C8 00 00 00 00 00 00 00 00 
00E2D0 00 00 00 00 00 00 00 00 
00E2D8 00 00 00 00 00 00 00 00 
00E2E0 00 00 00 00 00 00 00 00 
00E2E8 00 00 00 00 00 00 00 00 
00E2F0 00 00 00 00 00 00 00 00 
00E2F8 00 00 00 00 00 00 00 00 
00E300 00 00 00 00 00 00 00 00 
00E308 00 00 00 00 00 00 00 00 
00E310 00 00 00 00 00 00 00 00 
00E318 00 00 00 00 00 00 00 00 
00E320 00 00 00 00 00 00 00 00 
00E328 00 00 00 00 00 00 00 00 
00E330 00 00 00 00 00 00 00 00 
00E338 00 00 00 00 00 00 00 00 
00E340 00 00 00 00 00 00 00 00 
00E348 00 00 00 00 00 00 00 00 
00E350 00 00 00 00 00 00 00 00 
00E358 00 00 00 00 00 00 00 00 
00E360 00 00 00 00 00 00 00 00 
00E368 00 00 00 00 00 00 00 00 
00E370 00 00 00 00 00 00 00 00 
00E378 00 00 00 00 00 00 00 00 
00E380 00 00 00 00 00 00 00 00 
00E388 00 00 00 00 00 00 00 00 
00E390 00 00 00 00 00 00 00 00 
00E398 00 00 00 00 00 00 00 00 
00E3A0 00 00 00 00 00 00 00 00 
00E3A8 00 00 00 00 00 00 00 00 
00E3B0 00 00 00 00 00 00 00 00 
00E3B8 00 00 00 00 00 00 00 00 
00E3C0 00 00 00 00 00 00 00 00 
00E3C8 00 00 00 00 00 00 00 00 
00E3D0 00 00 00 00 00 00 00 00 
00E3D8 00 00 00 00 00 00 00 00 
00E3E0 00 00 00 00 00 00 00 00 
00E3E8 00 00 00 00 00 00 00 00 
00E3F0 00 00 00 00 00 00 00 00 
00E3F8 00 00 00 00 00 00 00 00 
00E400 00 00 00 00 00 00 00 00 
00E408 00 00 00 00 00 00 00 00 
00E410 00 00 00 00 00 00 00 00 
00E418 00 00 00 00 00 00 00 00 
00E420 00 00 00 00 00 00 00 00 
00E428 00 00 00 00 00 00 00 00 
00E430 00 00 00 00 00 00 00 00 
00E438 00 00 00 00 00 00 00 00 
00E440 00 00 00 00 00 00 00 00 
00E448 00 00 00 00 00 00 00 00 
00E450 00 00 00 00 00 00 00 00 
00E458 00 00 00 00 00 00 00 00 
00E460 00 00 00 00 00 00 00 00 
00E468 00 00 00 00 00 00 00 00 
00E470 00 00 00 00 00 00 00 00 
00E478 00 00 00 00 00 00 00 00 
00E480 00 00 00 00 00 00 00 00 
00E488 00 00 00 00 00 00 00 00 
00E490 00 00 00 00 00 00 00 00 
00E498 00 00 00 00 00 00 00 00 
00E4A0 00 00 00 00 00 00 00 00 
00E4A8 00 00 00 00 00 00 00 00 
00E4B0 00 00 00 00 00 00 00 00 
00E4B8 00 00 00 00 00 00 00 00 
00E4C0 00 00 00 00 00 00 00 00 
00E4C8 00 00 00 00 00 00 00 00 
00E4D0 00 00 00 00 00 00 00 00 
00E4D8 00 00 00 00 00 00 00 00 
00E4E0 00 00 00 00 00 00 00 00 
00E4E8 00 00 00 00 00 00 00 00 
00E4F0 00 00 00 00 00 00 00 00 
00E4F8 00 00 00 00 00 00 00 00 
00E500 00 00 00 00 00 00 00 00 
00E508 00 00 00 00 00 00 00 00 
00E510 00 00 00 00 00 00 00 00 
00E518 00 00 00 00 00 00 00 00 
00E520 00 00 00 00 00 00 00 00 
00E528 00 00 00 00 00 00 00 00 
00E530 00 00 00 00 00 00 00 00 
00E538 00 00 00 00 00 00 00 00 
00E540 00 00 00 00 00 00 00 00 
00E548 00 00 00 00 00 00 00 00 
00E550 00 00 00 00 00 00 00 00 
00E558 00 00 00 00 00 00 00 00 
00E560 00 00 00 00 00 00 00 00 
00E568 00 00 00 00 00 00 00 00 
00E570 00 00 00 00 00 00 00 00 
00E578 00 00 00 00 00 00 00 00 
00E580 00 00 00 00 00 00 00 00 
00E588 00 00 00 00 00 00 00 00 
00E590 00 00 00 00 00 00 00 00 
00E598 00 00 00 00 00 00 00 00 
00E5A0 00 00 00 00 00 00 00 00 
00E5A8 00 00 00 00 00 00 00 00 
00E5B0 00 00 00 00 00 00 00 00 
00E5B8 00 00 00 00 00 00 00 00 
00E5C0 00 00 00 00 00 00 00 00 
00E5C8 00 00 00 00 00 00 00 00 
00E5D0 00 00 00 00 00 00 00 00 
00E5D8 00 00 00 00 00 00 00 00 
00E5E0 00 00 00 00 00 00 00 00 
00E5E8 00 00 00 00 00 00 00 00 
00E5F0 00 00 00 00 00 00 00 00 
00E5F8 00 00 00 00 00 00 00 00 
00E600 00 00 00 00 00 00 00 00 
00E608 00 00 00 00 00 00 00 00 
00E610 00 00 00 00 00 00 00 00 
00E618 00 00 00 00 00 00 00 00 
00E620 00 00 00 00 00 00 00 00 
00E628 00 00 00 00 00 00 00 00 
00E630 00 00 00 00 00 00 00 00 
00E638 00 00 00 00 00 00 00 00 
00E640 00 00 00 00 00 00 00 00 
00E648 00 00 00 00 00 00 00 00 
00E650 00 00 00 00 00 00 00 00 
00E658 00 00 00 00 00 00 00 00 
00E660 00 00 00 00 00 00 00 00 
00E668 00 00 00 00 00 00 00 00 
00E670 00 00 00 00 00 00 00 00 
00E678 00 00 00 00 00 00 00 00 
00E680 00 00 00 00 00 00 00 00 
00E688 00 00 00 00 00 00 00 00 
00E690 00 00 00 00 00 00 00 00 
00E698 00 00 00 00 00 00 00 00 
00E6A0 00 00 00 00 00 00 00 00 
00E6A8 00 00 00 00 00 00 00 00 
00E6B0 00 00 00 00 00 00 00 00 
00E6B8 00 00 00 00 00 00 00 00 
00E6C0 00 00 00 00 00 00 00 00 
00E6C8 00 00 00 00 00 00 00 00 
00E6D0 00 00 00 00 00 00 00 00 
00E6D8 00 00 00 00 00 00 00 00 
00E6E0 00 00 00 00 00 00 00 00 
00E6E8 00 00 00 00 00 00 00 00 
00E6F0 00 00 00 00 00 00 00 00 
00E6F8 00 00 00 00 00 00 00 00 
00E700 00 00 00 00 00 00 00 00 
00E708 00 00 00 00 00 00 00 00 
00E710 00 00 00 00 00 00 00 00 
00E718 00 00 00 00 00 00 00 00 
00E720 00 00 00 00 00 00 00 00 
00E728 00 00 00 00 00 00 00 00 
00E730 00 00 00 00 00 00 00 00 
00E738 00 00 00 00 00 00 00 00 
00E740 00 00 00 00 00 00 00 00 
00E748 00 00 00 00 00 00 00 00 
00E750 00 00 00 00 00 00 00 00 
00E758 00 00 00 00 00 00 00 00 
00E760 00 00 00 00 00 00 00 00 
00E768 00 00 00 00 00 00 00 00 
00E770 00 00 00 00 00 00 00 00 
00E778 00 00 00 00 00 00 00 00 
00E780 00 00 00 00 00 00 00 00 
00E788 00 00 00 00 00 00 00 00 
00E790 00 00 00 00 00 00 00 00 
00E798 00 00 00 00 00 00 00 00 
00E7A0 00 00 00 00 00 00 00 00 
00E7A8 00 00 00 00 00 00 00 00 
00E7B0 00 00 00 00 00 00 00 00 
00E7B8 00 00 00 00 00 00 00 00 
00E7C0 00 00 00 00 00 00 00 00 
00E7C8 00 00 00 00 00 00 00 00 
00E7D0 00 00 00 00 00 00 00 00 
00E7D8 00 00 00 00 00 00 00 00 
00E7E0 00 00 00 00 00 00 00 00 
00E7E8 00 00 00 00 00 00 00 00 
00E7F0 00 00 00 00 00 00 00 00 
00E7F8 00 00 00 00 00 00 00 00 
00E800 00 00 00 00 00 00 00 00 
00E808 00 00 00 00 00 00 00 00 
00E810 00 00 00 00 00 00 00 00 
00E818 00 00 00 00 00 00 00 00 
00E820 00 00 00 00 00 00 00 00 
00E828 00 00 00 00 00 00 00 00 
00E830 00 00 00 00 00 00 00 00 
00E838 00 00 00 00 00 00 00 00 
00E840 00 00 00 00 00 00 00 00 
00E848 00 00 00 00 00 00 00 00 
00E850 00 00 00 00 00 00 00 00 
00E858 00 00 00 00 00 00 00 00 
00E860 00 00 00 00 00 00 00 00 
00E868 00 00 00 00 00 00 00 00 
00E870 00 00 00 00 00 00 00 00 
00E878 00 00 00 00 00 00 00 00 
00E880 00 00 00 00 00 00 00 00 
00E888 00 00 00 00 00 00 00 00 
00E890 00 00 00 00 00 00 00 00 
00E898 00 00 00 00 00 00 00 00 
00E8A0 00 00 00 00 00 00 00 00 
00E8A8 00 00 00 00 00 00 00 00 
00E8B0 00 00 00 00 00 00 00 00 
00E8B8 00 00 00 00 00 00 00 00 
00E8C0 00 00 00 00 00 00 00 00 
00E8C8 00 00 00 00 00 00 00 00 
00E8D0 00 00 00 00 00 00 00 00 
00E8D8 00 00 00 00 00 00 00 00 
00E8E0 00 00 00 00 00 00 00 00 
00E8E8 00 00 00 00 00 00 00 00 
00E8F0 00 00 00 00 00 00 00 00 
00E8F8 00 00 00 00 00 00 00 00 
00E900 00 00 00 00 00 00 00 00 
00E908 00 00 00 00 00 00 00 00 
00E910 00 00 00 00 00 00 00 00 
00E918 00 00 00 00 00 00 00 00 
00E920 00 00 00 00 00 00 00 00 
00E928 00 00 00 00 00 00 00 00 
00E930 00 00 00 00 00 00 00 00 
00E938 00 00 00 00 00 00 00 00 
00E940 00 00 00 00 00 00 00 00 
00E948 00 00 00 00 00 00 00 00 
00E950 00 00 00 00 00 00 00 00 
00E958 00 00 00 00 00 00 00 00 
00E960 00 00 00 00 00 00 00 00 
00E968 00 00 00 00 00 00 00 00 
00E970 00 00 00 00 00 00 00 00 
00E978 00 00 00 00 00 00 00 00 
00E980 00 00 00 00 00 00 00 00 
00E988 00 00 00 00 00 00 00 00 
00E990 00 00 00 00 00 00 00 00 
00E998 00 00 00 00 00 00 00 00 
00E9A0 00 00 00 00 00 00 00 00 
00E9A8 00 00 00 00 00 00 00 00 
00E9B0 00 00 00 00 00 00 00 00 
00E9B8 00 00 00 00 00 00 00 00 
00E9C0 00 00 00 00 00 00 00 00 
00E9C8 00 00 00 00 00 00 00 00 
00E9D0 00 00 00 00 00 00 00 00 
00E9D8 00 00 00 00 00 00 00 00 
00E9E0 00 00 00 00 00 00 00 00 
00E9E8 00 00 00 00 00 00 00 00 
00E9F0 00 00 00 00 00 00 00 00 
00E9F8 00 00 00 00 00 00 00 00 
00EA00 00 00 00 00 00 00 00 00 
00EA08 00 00 00 00 00 00 00 00 
00EA10 00 00 00 00 00 00 00 00 
00EA18 00 00 00 00 00 00 00 00 
00EA20 00 00 00 00 00 00 00 00 
00EA28 00 00 00 00 00 00 00 00 
00EA30 00 00 00 00 00 00 00 00 
00EA38 00 00 00 00 00 00 00 00 
00EA40 00 00 00 00 00 00 00 00 
00EA48 00 00 00 00 00 00 00 00 
00EA50 00 00 00 00 00 00 00 00 
00EA58 00 00 00 00 00 00 00 00 
00EA60 00 00 00 00 00 00 00 00 
00EA68 00 00 00 00 00 00 00 00 
00EA70 00 00 00 00 00 00 00 00 
00EA78 00 00 00 00 00 00 00 00 
00EA80 00 00 00 00 00 00 00 00 
00EA88 00 00 00 00 00 00 00 00 
00EA90 00 00 00 00 00 00 00 00 
00EA98 00 00 00 00 00 00 00 00 
00EAA0 00 00 00 00 00 00 00 00 
00EAA8 00 00 00 00 00 00 00 00 
00EAB0 00 00 00 00 00 00 00 00 
00EAB8 00 00 00 00 00 00 00 00 
00EAC0 00 00 00 00 00 00 00 00 
00EAC8 00 00 00 00 00 00 00 00 
00EAD0 00 00 00 00 00 00 00 00 
00EAD8 00 00 00 00 00 00 00 00 
00EAE0 00 00 00 00 00 00 00 00 
00EAE8 00 00 00 00 00 00 00 00 
00EAF0 00 00 00 00 00 00 00 00 
00EAF8 00 00 00 00 00 00 00 00 
00EB00 00 00 00 00 00 00 00 00 
00EB08 00 00 00 00 00 00 00 00 
00EB10 00 00 00 00 00 00 00 00 
00EB18 00 00 00 00 00 00 00 00 
00EB20 00 00 00 00 00 00 00 00 
00EB28 00 00 00 00 00 00 00 00 
00EB30 00 00 00 00 00 00 00 00 
00EB38 00 00 00 00 00 00 00 00 
00EB40 00 00 00 00 00 00 00 00 
00EB48 00 00 00 00 00 00 00 00 
00EB50 00 00 00 00 00 00 00 00 
00EB58 00 00 00 00 00 00 00 00 
00EB60 00 00 00 00 00 00 00 00 
00EB68 00 00 00 00 00 00 00 00 
00EB70 00 00 00 00 00 00 00 00 
00EB78 00 00 00 00 00 00 00 00 
00EB80 00 00 00 00 00 00 00 00 
00EB88 00 00 00 00 00 00 00 00 
00EB90 00 00 00 00 00 00 00 00 
00EB98 00 00 00 00 00 00 00 00 
00EBA0 00 00 00 00 00 00 00 00 
00EBA8 00 00 00 00 00 00 00 00 
00EBB0 00 00 00 00 00 00 00 00 
00EBB8 00 00 00 00 00 00 00 00 
00EBC0 00 00 00 00 00 00 00 00 
00EBC8 00 00 00 00 00 00 00 00 
00EBD0 00 00 00 00 00 00 00 00 
00EBD8 00 00 00 00 00 00 00 00 
00EBE0 00 00 00 00 00 00 00 00 
00EBE8 00 00 00 00 00 00 00 00 
00EBF0 00 00 00 00 00 00 00 00 
00EBF8 00 00 00 00 00 00 00 00 
00EC00 00 00 00 00 00 00 00 00 
00EC08 00 00 00 00 00 00 00 00 
00EC10 00 00 00 00 00 00 00 00 
00EC18 00 00 00 00 00 00 00 00 
00EC20 00 00 00 00 00 00 00 00 
00EC28 00 00 00 00 00 00 00 00 
00EC30 00 00 00 00 00 00 00 00 
00EC38 00 00 00 00 00 00 00 00 
00EC40 00 00 00 00 00 00 00 00 
00EC48 00 00 00 00 00 00 00 00 
00EC50 00 00 00 00 00 00 00 00 
00EC58 00 00 00 00 00 00 00 00 
00EC60 00 00 00 00 00 00 00 00 
00EC68 00 00 00 00 00 00 00 00 
00EC70 00 00 00 00 00 00 00 00 
00EC78 00 00 00 00 00 00 00 00 
00EC80 00 00 00 00 00 00 00 00 
00EC88 00 00 00 00 00 00 00 00 
00EC90 00 00 00 00 00 00 00 00 
00EC98 00 00 00 00 00 00 00 00 
00ECA0 00 00 00 00 00 00 00 00 
00ECA8 00 00 00 00 00 00 00 00 
00ECB0 00 00 00 00 00 00 00 00 
00ECB8 00 00 00 00 00 00 00 00 
00ECC0 00 00 00 00 00 00 00 00 
00ECC8 00 00 00 00 00 00 00 00 
00ECD0 00 00 00 00 00 00 00 00 
00ECD8 00 00 00 00 00 00 00 00 
00ECE0 00 00 00 00 00 00 00 00 
00ECE8 00 00 00 00 00 00 00 00 
00ECF0 00 00 00 00 00 00 00 00 
00ECF8 00 00 00 00 00 00 00 00 
00ED00 00 00 00 00 00 00 00 00 
00ED08 00 00 00 00 00 00 00 00 
00ED10 00 00 00 00 00 00 00 00 
00ED18 00 00 00 00 00 00 00 00 
00ED20 00 00 00 00 00 00 00 00 
00ED28 00 00 00 00 00 00 00 00 
00ED30 00 00 00 00 00 00 00 00 
00ED38 00 00 00 00 00 00 00 00 
00ED40 00 00 00 00 00 00 00 00 
00ED48 00 00 00 00 00 00 00 00 
00ED50 00 00 00 00 00 00 00 00 
00ED58 00 00 00 00 00 00 00 00 
00ED60 00 00 00 00 00 00 00 00 
00ED68 00 00 00 00 00 00 00 00 
00ED70 00 00 00 00 00 00 00 00 
00ED78 00 00 00 00 00 00 00 00 
00ED80 00 00 00 00 00 00 00 00 
00ED88 00 00 00 00 00 00 00 00 
00ED90 00 00 00 00 00 00 00 00 
00ED98 00 00 00 00 00 00 00 00 
00EDA0 00 00 00 00 00 00 00 00 
00EDA8 00 00 00 00 00 00 00 00 
00EDB0 00 00 00 00 00 00 00 00 
00EDB8 00 00 00 00 00 00 00 00 
00EDC0 00 00 00 00 00 00 00 00 
00EDC8 00 00 00 00 00 00 00 00 
00EDD0 00 00 00 00 00 00 00 00 
00EDD8 00 00 00 00 00 00 00 00 
00EDE0 00 00 00 00 00 00 00 00 
00EDE8 00 00 00 00 00 00 00 00 
00EDF0 00 00 00 00 00 00 00 00 
00EDF8 00 00 00 00 00 00 00 00 
00EE00 00 00 00 00 00 00 00 00 
00EE08 00 00 00 00 00 00 00 00 
00EE10 00 00 00 00 00 00 00 00 
00EE18 00 00 00 00 00 00 00 00 
00EE20 00 00 00 00 00 00 00 00 
00EE28 00 00 00 00 00 00 00 00 
00EE30 00 00 00 00 00 00 00 00 
00EE38 00 00 00 00 00 00 00 00 
00EE40 00 00 00 00 00 00 00 00 
00EE48 00 00 00 00 00 00 00 00 
00EE50 00 00 00 00 00 00 00 00 
00EE58 00 00 00 00 00 00 00 00 
00EE60 00 00 00 00 00 00 00 00 
00EE68 00 00 00 00 00 00 00 00 
00EE70 00 00 00 00 00 00 00 00 
00EE78 00 00 00 00 00 00 00 00 
00EE80 00 00 00 00 00 00 00 00 
00EE88 00 00 00 00 00 00 00 00 
00EE90 00 00 00 00 00 00 00 00 
00EE98 00 00 00 00 00 00 00 00 
00EEA0 00 00 00 00 00 00 00 00 
00EEA8 00 00 00 00 00 00 00 00 
00EEB0 00 00 00 00 00 00 00 00 
00EEB8 00 00 00 00 00 00 00 00 
00EEC0 00 00 00 00 00 00 00 00 
00EEC8 00 00 00 00 00 00 00 00 
00EED0 00 00 00 00 00 00 00 00 
00EED8 00 00 00 00 00 00 00 00 
00EEE0 00 00 00 00 00 00 00 00 
00EEE8 00 00 00 00 00 00 00 00 
00EEF0 00 00 00 00 00 00 00 00 
00EEF8 00 00 00 00 00 00 00 00 
00EF00 00 00 00 00 00 00 00 00 
00EF08 00 00 00 00 00 00 00 00 
00EF10 00 00 00 00 00 00 00 00 
00EF18 00 00 00 00 00 00 00 00 
00EF20 00 00 00 00 00 00 00 00 
00EF28 00 00 00 00 00 00 00 00 
00EF30 00 00 00 00 00 00 00 00 
00EF38 00 00 00 00 00 00 00 00 
00EF40 00 00 00 00 00 00 00 00 
00EF48 00 00 00 00 00 00 00 00 
00EF50 00 00 00 00 00 00 00 00 
00EF58 00 00 00 00 00 00 00 00 
00EF60 00 00 00 00 00 00 00 00 
00EF68 00 00 00 00 00 00 00 00 
00EF70 00 00 00 00 00 00 00 00 
00EF78 00 00 00 00 00 00 00 00 
00EF80 00 00 00 00 00 00 00 00 
00EF88 00 00 00 00 00 00 00 00 
00EF90 00 00 00 00 00 00 00 00 
00EF98 00 00 00 00 00 00 00 00 
00EFA0 00 00 00 00 00 00 00 00 
00EFA8 00 00 00 00 00 00 00 00 
00EFB0 00 00 00 00 00 00 00 00 
00EFB8 00 00 00 00 00 00 00 00 
00EFC0 00 00 00 00 00 00 00 00 
00EFC8 00 00 00 00 00 00 00 00 
00EFD0 00 00 00 00 00 00 00 00 
00EFD8 00 00 00 00 00 00 00 00 
00EFE0 00 00 00 00 00 00 00 00 
00EFE8 00 00 00 00 00 00 00 00 
00EFF0 00 00 00 00 00 00 00 00 
00EFF8 00 00 00 00 00 00 00 00 
00F000 00 00 00 00 00 00 00 00 
00F008 00 00 00 00 00 00 00 00 
00F010 00 00 00 00 00 00 00 00 
00F018 00 00 00 00 00 00 00 00 
00F020 00 00 00 00 00 00 00 00 
00F028 00 00 00 00 00 00 00 00 
00F030 00 00 00 00 00 00 00 00 
00F038 00 00 00 00 00 00 00 00 
00F040 00 00 00 00 00 00 00 00 
00F048 00 00 00 00 00 00 00 00 
00F050 00 00 00 00 00 00 00 00 
00F058 00 00 00 00 00 00 00 00 
00F060 00 00 00 00 00 00 00 00 
00F068 00 00 00 00 00 00 00 00 
00F070 00 00 00 00 00 00 00 00 
00F078 00 00 00 00 00 00 00 00 
00F080 00 00 00 00 00 00 00 00 
00F088 00 00 00 00 00 00 00 00 
00F090 00 00 00 00 00 00 00 00 
00F098 00 00 00 00 00 00 00 00 
00F0A0 00 00 00 00 00 00 00 00 
00F0A8 00 00 00 00 00 00 00 00 
00F0B0 00 00 00 00 00 00 00 00 
00F0B8 00 00 00 00 00 00 00 00 
00F0C0 00 00 00 00 00 00 00 00 
00F0C8 00 00 00 00 00 00 00 00 
00F0D0 00 00 00 00 00 00 00 00 
00F0D8 00 00 00 00 00 00 00 00 
00F0E0 00 00 00 00 00 00 00 00 
00F0E8 00 00 00 00 00 00 00 00 
00F0F0 00 00 00 00 00 00 00 00 
00F0F8 00 00 00 00 00 00 00 00 
00F100 00 00 00 00 00 00 00 00 
00F108 00 00 00 00 00 00 00 00 
00F110 00 00 00 00 00 00 00 00 
00F118 00 00 00 00 00 00 00 00 
00F120 00 00 00 00 00 00 00 00 
00F128 00 00 00 00 00 00 00 00 
00F130 00 00 00 00 00 00 00 00 
00F138 00 00 00 00 00 00 00 00 
00F140 00 00 00 00 00 00 00 00 
00F148 00 00 00 00 00 00 00 00 
00F150 00 00 00 00 00 00 00 00 
00F158 00 00 00 00 00 00 00 00 
00F160 00 00 00 00 00 00 00 00 
00F168 00 00 00 00 00 00 00 00 
00F170 00 00 00 00 00 00 00 00 
00F178 00 00 00 00 00 00 00 00 
00F180 00 00 00 00 00 00 00 00 
00F188 00 00 00 00 00 00 00 00 
00F190 00 00 00 00 00 00 00 00 
00F198 00 00 00 00 00 00 00 00 
00F1A0 00 00 00 00 00 00 00 00 
00F1A8 00 00 00 00 00 00 00 00 
00F1B0 00 00 00 00 00 00 00 00 
00F1B8 00 00 00 00 00 00 00 00 
00F1C0 00 00 00 00 00 00 00 00 
00F1C8 00 00 00 00 00 00 00 00 
00F1D0 00 00 00 00 00 00 00 00 
00F1D8 00 00 00 00 00 00 00 00 
00F1E0 00 00 00 00 00 00 00 00 
00F1E8 00 00 00 00 00 00 00 00 
00F1F0 00 00 00 00 00 00 00 00 
00F1F8 00 00 00 00 00 00 00 00 
00F200 00 00 00 00 00 00 00 00 
00F208 00 00 00 00 00 00 00 00 
00F210 00 00 00 00 00 00 00 00 
00F218 00 00 00 00 00 00 00 00 
00F220 00 00 00 00 00 00 00 00 
00F228 00 00 00 00 00 00 00 00 
00F230 00 00 00 00 00 00 00 00 
00F238 00 00 00 00 00 00 00 00 
00F240 00 00 00 00 00 00 00 00 
00F248 00 00 00 00 00 00 00 00 
00F250 00 00 00 00 00 00 00 00 
00F258 00 00 00 00 00 00 00 00 
00F260 00 00 00 00 00 00 00 00 
00F268 00 00 00 00 00 00 00 00 
00F270 00 00 00 00 00 00 00 00 
00F278 00 00 00 00 00 00 00 00 
00F280 00 00 00 00 00 00 00 00 
00F288 00 00 00 00 00 00 00 00 
00F290 00 00 00 00 00 00 00 00 
00F298 00 00 00 00 00 00 00 00 
00F2A0 00 00 00 00 00 00 00 00 
00F2A8 00 00 00 00 00 00 00 00 
00F2B0 00 00 00 00 00 00 00 00 
00F2B8 00 00 00 00 00 00 00 00 
00F2C0 00 00 00 00 00 00 00 00 
00F2C8 00 00 00 00 00 00 00 00 
00F2D0 00 00 00 00 00 00 00 00 
00F2D8 00 00 00 00 00 00 00 00 
00F2E0 00 00 00 00 00 00 00 00 
00F2E8 00 00 00 00 00 00 00 00 
00F2F0 00 00 00 00 00 00 00 00 
00F2F8 00 00 00 00 00 00 00 00 
00F300 00 00 00 00 00 00 00 00 
00F308 00 00 00 00 00 00 00 00 
00F310 00 00 00 00 00 00 00 00 
00F318 00 00 00 00 00 00 00 00 
00F320 00 00 00 00 00 00 00 00 
00F328 00 00 00 00 00 00 00 00 
00F330 00 00 00 00 00 00 00 00 
00F338 00 00 00 00 00 00 00 00 
00F340 00 00 00 00 00 00 00 00 
00F348 00 00 00 00 00 00 00 00 
00F350 00 00 00 00 00 00 00 00 
00F358 00 00 00 00 00 00 00 00 
00F360 00 00 00 00 00 00 00 00 
00F368 00 00 00 00 00 00 00 00 
00F370 00 00 00 00 00 00 00 00 
00F378 00 00 00 00 00 00 00 00 
00F380 00 00 00 00 00 00 00 00 
00F388 00 00 00 00 00 00 00 00 
00F390 00 00 00 00 00 00 00 00 
00F398 00 00 00 00 00 00 00 00 
00F3A0 00 00 00 00 00 00 00 00 
00F3A8 00 00 00 00 00 00 00 00 
00F3B0 00 00 00 00 00 00 00 00 
00F3B8 00 00 00 00 00 00 00 00 
00F3C0 00 00 00 00 00 00 00 00 
00F3C8 00 00 00 00 00 00 00 00 
00F3D0 00 00 00 00 00 00 00 00 
00F3D8 00 00 00 00 00 00 00 00 
00F3E0 00 00 00 00 00 00 00 00 
00F3E8 00 00 00 00 00 00 00 00 
00F3F0 00 00 00 00 00 00 00 00 
00F3F8 00 00 00 00 00 00 00 00 
00F400 00 00 00 00 00 00 00 00 
00F408 00 00 00 00 00 00 00 00 
00F410 00 00 00 00 00 00 00 00 
00F418 00 00 00 00 00 00 00 00 
00F420 00 00 00 00 00 00 00 00 
00F428 00 00 00 00 00 00 00 00 
00F430 00 00 00 00 00 00 00 00 
00F438 00 00 00 00 00 00 00 00 
00F440 00 00 00 00 00 00 00 00 
00F448 00 00 00 00 00 00 00 00 
00F450 00 00 00 00 00 00 00 00 
00F458 00 00 00 00 00 00 00 00 
00F460 00 00 00 00 00 00 00 00 
00F468 00 00 00 00 00 00 00 00 
00F470 00 00 00 00 00 00 00 00 
00F478 00 00 00 00 00 00 00 00 
00F480 00 00 00 00 00 00 00 00 
00F488 00 00 00 00 00 00 00 00 
00F490 00 00 00 00 00 00 00 00 
00F498 00 00 00 00 00 00 00 00 
00F4A0 00 00 00 00 00 00 00 00 
00F4A8 00 00 00 00 00 00 00 00 
00F4B0 00 00 00 00 00 00 00 00 
00F4B8 00 00 00 00 00 00 00 00 
00F4C0 00 00 00 00 00 00 00 00 
00F4C8 00 00 00 00 00 00 00 00 
00F4D0 00 00 00 00 00 00 00 00 
00F4D8 00 00 00 00 00 00 00 00 
00F4E0 00 00 00 00 00 00 00 00 
00F4E8 00 00 00 00 00 00 00 00 
00F4F0 00 00 00 00 00 00 00 00 
00F4F8 00 00 00 00 00 00 00 00 
00F500 00 00 00 00 00 00 00 00 
00F508 00 00 00 00 00 00 00 00 
00F510 00 00 00 00 00 00 00 00 
00F518 00 00 00 00 00 00 00 00 
00F520 00 00 00 00 00 00 00 00 
00F528 00 00 00 00 00 00 00 00 
00F530 00 00 00 00 00 00 00 00 
00F538 00 00 00 00 00 00 00 00 
00F540 00 00 00 00 00 00 00 00 
00F548 00 00 00 00 00 00 00 00 
00F550 00 00 00 00 00 00 00 00 
00F558 00 00 00 00 00 00 00 00 
00F560 00 00 00 00 00 00 00 00 
00F568 00 00 00 00 00 00 00 00 
00F570 00 00 00 00 00 00 00 00 
00F578 00 00 00 00 00 00 00 00 
00F580 00 00 00 00 00 00 00 00 
00F588 00 00 00 00 00 00 00 00 
00F590 00 00 00 00 00 00 00 00 
00F598 00 00 00 00 00 00 00 00 
00F5A0 00 00 00 00 00 00 00 00 
00F5A8 00 00 00 00 00 00 00 00 
00F5B0 00 00 00 00 00 00 00 00 
00F5B8 00 00 00 00 00 00 00 00 
00F5C0 00 00 00 00 00 00 00 00 
00F5C8 00 00 00 00 00 00 00 00 
00F5D0 00 00 00 00 00 00 00 00 
00F5D8 00 00 00 00 00 00 00 00 
00F5E0 00 00 00 00 00 00 00 00 
00F5E8 00 00 00 00 00 00 00 00 
00F5F0 00 00 00 00 00 00 00 00 
00F5F8 00 00 00 00 00 00 00 00 
00F600 00 00 00 00 00 00 00 00 
00F608 00 00 00 00 00 00 00 00 
00F610 00 00 00 00 00 00 00 00 
00F618 00 00 00 00 00 00 00 00 
00F620 00 00 00 00 00 00 00 00 
00F628 00 00 00 00 00 00 00 00 
00F630 00 00 00 00 00 00 00 00 
00F638 00 00 00 00 00 00 00 00 
00F640 00 00 00 00 00 00 00 00 
00F648 00 00 00 00 00 00 00 00 
00F650 00 00 00 00 00 00 00 00 
00F658 00 00 00 00 00 00 00 00 
00F660 00 00 00 00 00 00 00 00 
00F668 00 00 00 00 00 00 00 00 
00F670 00 00 00 00 00 00 00 00 
00F678 00 00 00 00 00 00 00 00 
00F680 00 00 00 00 00 00 00 00 
00F688 00 00 00 00 00 00 00 00 
00F690 00 00 00 00 00 00 00 00 
00F698 00 00 00 00 00 00 00 00 
00F6A0 00 00 00 00 00 00 00 00 
00F6A8 00 00 00 00 00 00 00 00 
00F6B0 00 00 00 00 00 00 00 00 
00F6B8 00 00 00 00 00 00 00 00 
00F6C0 00 00 00 00 00 00 00 00 
00F6C8 00 00 00 00 00 00 00 00 
00F6D0 00 00 00 00 00 00 00 00 
00F6D8 00 00 00 00 00 00 00 00 
00F6E0 00 00 00 00 00 00 00 00 
00F6E8 00 00 00 00 00 00 00 00 
00F6F0 00 00 00 00 00 00 00 00 
00F6F8 00 00 00 00 00 00 00 00 
00F700 00 00 00 00 00 00 00 00 
00F708 00 00 00 00 00 00 00 00 
00F710 00 00 00 00 00 00 00 00 
00F718 00 00 00 00 00 00 00 00 
00F720 00 00 00 00 00 00 00 00 
00F728 00 00 00 00 00 00 00 00 
00F730 00 00 00 00 00 00 00 00 
00F738 00 00 00 00 00 00 00 00 
00F740 00 00 00 00 00 00 00 00 
00F748 00 00 00 00 00 00 00 00 
00F750 00 00 00 00 00 00 00 00 
00F758 00 00 00 00 00 00 00 00 
00F760 00 00 00 00 00 00 00 00 
00F768 00 00 00 00 00 00 00 00 
00F770 00 00 00 00 00 00 00 00 
00F778 00 00 00 00 00 00 00 00 
00F780 00 00 00 00 00 00 00 00 
00F788 00 00 00 00 00 00 00 00 
00F790 00 00 00 00 00 00 00 00 
00F798 00 00 00 00 00 00 00 00 
00F7A0 00 00 00 00 00 00 00 00 
00F7A8 00 00 00 00 00 00 00 00 
00F7B0 00 00 00 00 00 00 00 00 
00F7B8 00 00 00 00 00 00 00 00 
00F7C0 00 00 00 00 00 00 00 00 
00F7C8 00 00 00 00 00 00 00 00 
00F7D0 00 00 00 00 00 00 00 00 
00F7D8 00 00 00 00 00 00 00 00 
00F7E0 00 00 00 00 00 00 00 00 
00F7E8 00 00 00 00 00 00 00 00 
00F7F0 00 00 00 00 00 00 00 00 
00F7F8 00 00 00 00 00 00 00 00 
00F800 00 00 00 00 00 00 00 00 
00F808 00 00 00 00 00 00 00 00 
00F810 00 00 00 00 00 00 00 00 
00F818 00 00 00 00 00 00 00 00 
00F820 00 00 00 00 00 00 00 00 
00F828 00 00 00 00 00 00 00 00 
00F830 00 00 00 00 00 00 00 00 
00F838 00 00 00 00 00 00 00 00 
00F840 00 00 00 00 00 00 00 00 
00F848 00 00 00 00 00 00 00 00 
00F850 00 00 00 00 00 00 00 00 
00F858 00 00 00 00 00 00 00 00 
00F860 00 00 00 00 00 00 00 00 
00F868 00 00 00 00 00 00 00 00 
00F870 00 00 00 00 00 00 00 00 
00F878 00 00 00 00 00 00 00 00 
00F880 00 00 00 00 00 00 00 00 
00F888 00 00 00 00 00 00 00 00 
00F890 00 00 00 00 00 00 00 00 
00F898 00 00 00 00 00 00 00 00 
00F8A0 00 00 00 00 00 00 00 00 
00F8A8 00 00 00 00 00 00 00 00 
00F8B0 00 00 00 00 00 00 00 00 
00F8B8 00 00 00 00 00 00 00 00 
00F8C0 00 00 00 00 00 00 00 00 
00F8C8 00 00 00 00 00 00 00 00 
00F8D0 00 00 00 00 00 00 00 00 
00F8D8 00 00 00 00 00 00 00 00 
00F8E0 00 00 00 00 00 00 00 00 
00F8E8 00 00 00 00 00 00 00 00 
00F8F0 00 00 00 00 00 00 00 00 
00F8F8 00 00 00 00 00 00 00 00 
00F900 00 00 00 00 00 00 00 00 
00F908 00 00 00 00 00 00 00 00 
00F910 00 00 00 00 00 00 00 00 
00F918 00 00 00 00 00 00 00 00 
00F920 00 00 00 00 00 00 00 00 
00F928 00 00 00 00 00 00 00 00 
00F930 00 00 00 00 00 00 00 00 
00F938 00 00 00 00 00 00 00 00 
00F940 00 00 00 00 00 00 00 00 
00F948 00 00 00 00 00 00 00 00 
00F950 00 00 00 00 00 00 00 00 
00F958 00 00 00 00 00 00 00 00 
00F960 00 00 00 00 00 00 00 00 
00F968 00 00 00 00 00 00 00 00 
00F970 00 00 00 00 00 00 00 00 
00F978 00 00 00 00 00 00 00 00 
00F980 00 00 00 00 00 00 00 00 
00F988 00 00 00 00 00 00 00 00 
00F990 00 00 00 00 00 00 00 00 
00F998 00 00 00 00 00 00 00 00 
00F9A0 00 00 00 00 00 00 00 00 
00F9A8 00 00 00 00 00 00 00 00 
00F9B0 00 00 00 00 00 00 00 00 
00F9B8 00 00 00 00 00 00 00 00 
00F9C0 00 00 00 00 00 00 00 00 
00F9C8 00 00 00 00 00 00 00 00 
00F9D0 00 00 00 00 00 00 00 00 
00F9D8 00 00 00 00 00 00 00 00 
00F9E0 00 00 00 00 00 00 00 00 
00F9E8 00 00 00 00 00 00 00 00 
00F9F0 00 00 00 00 00 00 00 00 
00F9F8 00 00 00 00 00 00 00 00 
00FA00 00 00 00 00 00 00 00 00 
00FA08 00 00 00 00 00 00 00 00 
00FA10 00 00 00 00 00 00 00 00 
00FA18 00 00 00 00 00 00 00 00 
00FA20 00 00 00 00 00 00 00 00 
00FA28 00 00 00 00 00 00 00 00 
00FA30 00 00 00 00 00 00 00 00 
00FA38 00 00 00 00 00 00 00 00 
00FA40 00 00 00 00 00 00 00 00 
00FA48 00 00 00 00 00 00 00 00 
00FA50 00 00 00 00 00 00 00 00 
00FA58 00 00 00 00 00 00 00 00 
00FA60 00 00 00 00 00 00 00 00 
00FA68 00 00 00 00 00 00 00 00 
00FA70 00 00 00 00 00 00 00 00 
00FA78 00 00 00 00 00 00 00 00 
00FA80 00 00 00 00 00 00 00 00 
00FA88 00 00 00 00 00 00 00 00 
00FA90 00 00 00 00 00 00 00 00 
00FA98 00 00 00 00 00 00 00 00 
00FAA0 00 00 00 00 00 00 00 00 
00FAA8 00 00 00 00 00 00 00 00 
00FAB0 00 00 00 00 00 00 00 00 
00FAB8 00 00 00 00 00 00 00 00 
00FAC0 00 00 00 00 00 00 00 00 
00FAC8 00 00 00 00 00 00 00 00 
00FAD0 00 00 00 00 00 00 00 00 
00FAD8 00 00 00 00 00 00 00 00 
00FAE0 00 00 00 00 00 00 00 00 
00FAE8 00 00 00 00 00 00 00 00 
00FAF0 00 00 00 00 00 00 00 00 
00FAF8 00 00 00 00 00 00 00 00 
00FB00 00 00 00 00 00 00 00 00 
00FB08 00 00 00 00 00 00 00 00 
00FB10 00 00 00 00 00 00 00 00 
00FB18 00 00 00 00 00 00 00 00 
00FB20 00 00 00 00 00 00 00 00 
00FB28 00 00 00 00 00 00 00 00 
00FB30 00 00 00 00 00 00 00 00 
00FB38 00 00 00 00 00 00 00 00 
00FB40 00 00 00 00 00 00 00 00 
00FB48 00 00 00 00 00 00 00 00 
00FB50 00 00 00 00 00 00 00 00 
00FB58 00 00 00 00 00 00 00 00 
00FB60 00 00 00 00 00 00 00 00 
00FB68 00 00 00 00 00 00 00 00 
00FB70 00 00 00 00 00 00 00 00 
00FB78 00 00 00 00 00 00 00 00 
00FB80 00 00 00 00 00 00 00 00 
00FB88 00 00 00 00 00 00 00 00 
00FB90 00 00 00 00 00 00 00 00 
00FB98 00 00 00 00 00 00 00 00 
00FBA0 00 00 00 00 00 00 00 00 
00FBA8 00 00 00 00 00 00 00 00 
00FBB0 00 00 00 00 00 00 00 00 
00FBB8 00 00 00 00 00 00 00 00 
00FBC0 00 00 00 00 00 00 00 00 
00FBC8 00 00 00 00 00 00 00 00 
00FBD0 00 00 00 00 00 00 00 00 
00FBD8 00 00 00 00 00 00 00 00 
00FBE0 00 00 00 00 00 00 00 00 
00FBE8 00 00 00 00 00 00 00 00 
00FBF0 00 00 00 00 00 00 00 00 
00FBF8 00 00 00 00 00 00 00 00 
00FC00 00 00 00 00 00 00 00 00 
00FC08 00 00 00 00 00 00 00 00 
00FC10 00 00 00 00 00 00 00 00 
00FC18 00 00 00 00 00 00 00 00 
00FC20 00 00 00 00 00 00 00 00 
00FC28 00 00 00 00 00 00 00 00 
00FC30 00 00 00 00 00 00 00 00 
00FC38 00 00 00 00 00 00 00 00 
00FC40 00 00 00 00 00 00 00 00 
00FC48 00 00 00 00 00 00 00 00 
00FC50 00 00 00 00 00 00 00 00 
00FC58 00 00 00 00 00 00 00 00 
00FC60 00 00 00 00 00 00 00 00 
00FC68 00 00 00 00 00 00 00 00 
00FC70 00 00 00 00 00 00 00 00 
00FC78 00 00 00 00 00 00 00 00 
00FC80 00 00 00 00 00 00 00 00 
00FC88 00 00 00 00 00 00 00 00 
00FC90 00 00 00 00 00 00 00 00 
00FC98 00 00 00 00 00 00 00 00 
00FCA0 00 00 00 00 00 00 00 00 
00FCA8 00 00 00 00 00 00 00 00 
00FCB0 00 00 00 00 00 00 00 00 
00FCB8 00 00 00 00 00 00 00 00 
00FCC0 00 00 00 00 00 00 00 00 
00FCC8 00 00 00 00 00 00 00 00 
00FCD0 00 00 00 00 00 00 00 00 
00FCD8 00 00 00 00 00 00 00 00 
00FCE0 00 00 00 00 00 00 00 00 
00FCE8 00 00 00 00 00 00 00 00 
00FCF0 00 00 00 00 00 00 00 00 
00FCF8 00 00 00 00 00 00 00 00 
00FD00 00 00 00 00 00 00 00 00 
00FD08 00 00 00 00 00 00 00 00 
00FD10 00 00 00 00 00 00 00 00 
00FD18 00 00 00 00 00 00 00 00 
00FD20 00 00 00 00 00 00 00 00 
00FD28 00 00 00 00 00 00 00 00 
00FD30 00 00 00 00 00 00 00 00 
00FD38 00 00 00 00 00 00 00 00 
00FD40 00 00 00 00 00 00 00 00 
00FD48 00 00 00 00 00 00 00 00 
00FD50 00 00 00 00 00 00 00 00 
00FD58 00 00 00 00 00 00 00 00 
00FD60 00 00 00 00 00 00 00 00 
00FD68 00 00 00 00 00 00 00 00 
00FD70 00 00 00 00 00 00 00 00 
00FD78 00 00 00 00 00 00 00 00 
00FD80 00 00 00 00 00 00 00 00 
00FD88 00 00 00 00 00 00 00 00 
00FD90 00 00 00 00 00 00 00 00 
00FD98 00 00 00 00 00 00 00 00 
00FDA0 00 00 00 00 00 00 00 00 
00FDA8 00 00 00 00 00 00 00 00 
00FDB0 00 00 00 00 00 00 00 00 
00FDB8 00 00 00 00 00 00 00 00 
00FDC0 00 00 00 00 00 00 00 00 
00FDC8 00 00 00 00 00 00 00 00 
00FDD0 00 00 00 00 00 00 00 00 
00FDD8 00 00 00 00 00 00 00 00 
00FDE0 00 00 00 00 00 00 00 00 
00FDE8 00 00 00 00 00 00 00 00 
00FDF0 00 00 00 00 00 00 00 00 
00FDF8 00 00 00 00 00 00 00 00 
00FE00 00 00 00 00 00 00 00 00 
00FE08 00 00 00 00 00 00 00 00 
00FE10 00 00 00 00 00 00 00 00 
00FE18 00 00 00 00 00 00 00 00 
00FE20 00 00 00 00 00 00 00 00 
00FE28 00 00 00 00 00 00 00 00 
00FE30 00 00 00 00 00 00 00 00 
00FE38 00 00 00 00 00 00 00 00 
00FE40 00 00 00 00 00 00 00 00 
00FE48 00 00 00 00 00 00 00 00 
00FE50 00 00 00 00 00 00 00 00 
00FE58 00 00 00 00 00 00 00 00 
00FE60 00 00 00 00 00 00 00 00 
00FE68 00 00 00 00 00 00 00 00 
00FE70 00 00 00 00 00 00 00 00 
00FE78 00 00 00 00 00 00 00 00 
00FE80 00 00 00 00 00 00 00 00 
00FE88 00 00 00 00 00 00 00 00 
00FE90 00 00 00 00 00 00 00 00 
00FE98 00 00 00 00 00 00 00 00 
00FEA0 00 00 00 00 00 00 00 00 
00FEA8 00 00 00 00 00 00 00 00 
00FEB0 00 00 00 00 00 00 00 00 
00FEB8 00 00 00 00 00 00 00 00 
00FEC0 00 00 00 00 00 00 00 00 
00FEC8 00 00 00 00 00 00 00 00 
00FED0 00 00 00 00 00 00 00 00 
00FED8 00 00 00 00 00 00 00 00 
00FEE0 00 00 00 00 00 00 00 00 
00FEE8 00 00 00 00 00 00 00 00 
00FEF0 00 00 00 00 00 00 00 00 
00FEF8 00 00 00 00 00 00 00 00 
00FF00 00 00 00 00 00 00 00 00 
00FF08 00 00 00 00 00 00 00 00 
00FF10 00 00 00 00 00 00 00 00 
00FF18 00 00 00 00 00 00 00 00 
00FF20 00 00 00 00 00 00 00 00 
00FF28 00 00 00 00 00 00 00 00 
00FF30 00 00 00 00 00 00 00 00 
00FF38 00 00 00 00 00 00 00 00 
00FF40 00 00 00 00 00 00 00 00 
00FF48 00 00 00 00 00 00 00 00 
00FF50 00 00 00 00 00 00 00 00 
00FF58 00 00 00 00 00 00 00 00 
00FF60 00 00 00 00 00 00 00 00 
00FF68 00 00 00 00 00 00 00 00 
00FF70 00 00 00 00 00 00 00 00 
00FF78 00 00 00 00 00 00 00 00 
00FF80 00 00 00 00 00 00 00 00 
00FF88 00 00 00 00 00 00 00 00 
00FF90 00 00 00 00 00 00 00 00 
00FF98 00 00 00 00 00 00 00 00 
00FFA0 00 00 00 00 00 00 00 00 
00FFA8 00 00 00 00 00 00 00 00 
00FFB0 46 00 C5 A8 00          		bra AlgnFault
                        	
00FFB5 00 00 00 00 00 00 00 00 		org		$0000FFC0		; debug vector
00FFBD 00 00 00                
00FFC0 46 00 DA A8 00          		bra DebugRout
                        	
00FFC5 00 00 00 00 00 00 00 00 		org		$0000FFE0		; NMI vector
00FFCD 00 00 00 00 00 00 00 00 
00FFD5 00 00 00 00 00 00 00 00 
00FFDD 00 00 00                
00FFE0 01 00 00 00 40          		rti
                        	
00FFE5 00 00 00 00 00 00 00 00 		org		$0000FFF0
00FFED 00 00 00                
00FFF0 50 00 82 00 00          		jmp		start
00FFF5 50 00 82 00 00          		jmp		start
445 symbols
  Symbol Name                              seg     address
  AddOSPT                                    code  0088f0
  AddTaskToReadyList                         code  00a185
  AddTaskToReadyList.initQ                   code  00a205
  AlgnFault                                  code  00a8c5
  AsciiToHexNybble                           code  0092ea
  AsciiToHexNybble.gthx3                     code  009355
  AsciiToHexNybble.gthx5                     code  00930a
  AsciiToHexNybble.gthx6                     code  009330
  AsciiToScreen                              code  0088f0
  AsciiToScreen.00001                        code  008915
  BMP_CLUT                                  const  ffdc5800
  BSI_BootSig                               const  000026
  BSI_DriveNum                              const  000024
  BSI_FATS                                  const  000010
  BSI_FileSysType                           const  000036
  BSI_Heads                                 const  00001a
  BSI_HiddenSecs                            const  00001c
  BSI_HugeSecs                              const  00001e
  BSI_JMP                                   const  000000
  BSI_Media                                 const  000015
  BSI_OEMName                               const  000003
  BSI_ResSectors                            const  00000e
  BSI_RootDirEnts                           const  000011
  BSI_Rsvd1                                 const  000025
  BSI_SecPerCluster                         const  00000d
  BSI_SecPerFAT                             const  000016
  BSI_SecPerTrack                           const  000018
  BSI_Sectors                               const  000013
  BSI_VolID                                 const  000027
  BSI_VolLabel                              const  00002b
  BSI_bps                                   const  00000b
  BYTE_SECTOR_BUF                           const  23e000
  BlankLine                                  code  008f35
  BlankLine.0001                             code  008f75
  BlocksToSectors                            code  009965
  CR                                        const  00000d
  CRLF                                       code  008ad0
  CTRLC                                     const  000003
  CTRLCCheck                                 code  009250
  CTRLCCheck.0001                            code  009270
  CTRLH                                     const  000008
  CTRLI                                     const  000009
  CTRLJ                                     const  00000a
  CTRLK                                     const  00000b
  CTRLM                                     const  00000d
  CTRLS                                     const  000013
  CTRLX                                     const  000018
  CalcScreenLoc                              code  008c00
  CheckKeys                                  code  009245
  CheckScrollLock                            code  00927a
  CheckScrollLock.0001                       code  009295
  CheckScrollLock.0002                       code  009280
  ClearBmpScreen                             code  008a05
  ClearBmpScreen.0001                        code  008a10
  ClearPageTable                             code  008805
  ClearPageTable.0001                        code  008815
  ClearScreen                                code  00895a
  ClearScreen.cs1                            code  0089aa
  CursorCol                                   bss  000081
  CursorOff                                  code  008935
  CursorOn                                   code  00893a
  CursorRow                                   bss  000080
  DebugRout                                  code  00a8da
  DispCharQ                                  code  008af5
  DispLed                                    code  00845a
  DispStartMsg                               code  008b0a
  DisplayByte                                code  008a5a
  DisplayChar                                code  008c55
  DisplayChar.dcx12                          code  008daa
  DisplayChar.dcx4                           code  008cf5
  DisplayChar.dcx5                           code  008df0
  DisplayChar.dcx7                           code  008d30
  DisplayChar.doBackspace                    code  008dca
  DisplayChar.doCursorDown                   code  008d75
  DisplayChar.doCursorHome                   code  008d95
  DisplayChar.doCursorLeft                   code  008d5a
  DisplayChar.doCursorRight                  code  008d15
  DisplayChar.doCursorUp                     code  008d40
  DisplayChar.doDelete                       code  008db5
  DisplayChar.doLinefeed                     code  008e35
  DisplayChar.docr                           code  008d00
  DisplayCharHex                             code  008a4a
  DisplayErr                                 code  009360
  DisplayHalf                                code  008a3a
  DisplayMemBytes                            code  009175
  DisplayMemBytes.001                        code  0091aa
  DisplayMemBytes.002                        code  0091f0
  DisplayMemBytes.003                        code  00921a
  DisplayMemBytes.004                        code  00920a
  DisplayNybble                              code  008a6a
  DisplayNybble.0001                         code  008a8a
  DisplayString                              code  008a9a
  DisplayString.dm1                          code  008ac0
  DisplayString.dm2                          code  008aa5
  DisplayStringCRLF                          code  008aca
  DisplayWord                                code  008a2a
  Dummy1                                      bss  000082
  E_Arg                                     const  000001
  E_BadAlarm                                const  000011
  E_BadBlockNum                             const  000025
  E_BadDevNum                               const  000020
  E_BadDevOp                                const  000022
  E_BadMbx                                  const  000004
  E_DCBInUse                                const  000019
  E_NoDev                                   const  000021
  E_NoMem                                   const  00000c
  E_NoMoreAlarmBlks                         const  000044
  E_NoMoreMbx                               const  000040
  E_NoMoreMsgBlks                           const  000041
  E_NoMoreTCBs                              const  000045
  E_NoMsg                                   const  00000b
  E_NoThread                                const  000006
  E_NotAlloc                                const  000009
  E_NotOwner                                const  000012
  E_Ok                                      const  000000
  E_QueFull                                 const  000005
  E_QueStrategy                             const  000013
  E_ReadError                               const  000023
  E_Timeout                                 const  000010
  E_TooManyBlocks                           const  000026
  E_WriteError                              const  000024
  EndStaticAllocations                        bss  242200
  ExitTask                                   code  00a140
  ExitTask.0001                              code  00a17a
  FMTKInitialize                             code  009f40
  FMTKInitialize.0001                        code  009fc5
  FMTKScheduler                              code  00a2c5
  FMTKScheduler.0002                         code  00a2ea
  FMTKTick                                   code  00a335
  FMTKTick.0001                              code  00a355
  FMTKTick.0002                              code  00a375
  FindHiPage                                 code  00886a
  FindHiPage.0001                            code  0088a0
  FindHiPage.0002                            code  008875
  FindHiPage.0003                            code  0088ba
  FindHiPage.0004                            code  0088aa
  FreeTCB                                     bss  000030
  GetCurrAttr                                code  008bb0
  GetHexNumber                               code  0092a0
  GetHexNumber.gthxn1                        code  0092da
  GetHexNumber.gthxn2                        code  0092b0
  GetRange                                   code  0090d5
  GetScreenLocation                          code  008ba0
  GetTwoParams                               code  0090b5
  HomeCursor                                 code  008940
  IOPgTbl                                     bss  03b000
  IVTBaseAddress                              bss  010000
  IdleTask                                   code  00a065
  IdleTask.it1                               code  00a065
  IncCursorPos                               code  008e40
  IncCursorRow                               code  008e6a
  InitBMP                                    code  0089c5
  InitBMP.ibmp1                              code  0089e0
  InitPIC                                    code  00856a
  KEYBD                                     const  ffdc0000
  KEYBDCLR                                  const  ffdc0004
  KEYBD_DELAY                               const  0003e8
  KeybdBad                                    bss  000085
  KeybdEcho                                   bss  000084
  KeybdGetCharDirect                         code  0094a5
  KeybdGetCharDirect.0001                    code  0094ba
  KeybdGetCharDirect.gk1                     code  009520
  KeybdGetCharDirect.gk2                     code  00951a
  KeybdGetCharDirectNB                       code  0093f0
  KeybdGetCharDirectNB.0001                  code  009485
  KeybdGetCharDirectNB.0002                  code  00947a
  KeybdGetCharDirectNB.0003                  code  009475
  KeybdIRQ                                   code  008b40
  KeybdInit                                  code  00952a
  KeybdLocks                                  bss  000086
  LEDS                                      const  ffdc0600
  LF                                        const  00000a
  MRTest                                     code  009745
  MRTest.0001                                code  009750
  Milliseconds                                bss  000010
  MonGetch                                   code  009080
  Monitor                                    code  008f95
  NR_PTBL                                   const  000020
  NR_TCB                                    const  000100
  NormAttr                                    bss  000078
  OutChar                                    code  009140
  OutputVec                                   bss  000018
  PAM1                                        bss  011000
  PAM2                                        bss  012000
  PIC                                       const  ffdc0fc0
  PIC_ES                                    const  ffdc0fd0
  PIC_IE                                    const  ffdc0fc4
  PIC_RSTE                                  const  ffdc0fd4
  PROG_LOAD_AREA                            const  23e200
  PgSD0                                       bss  033000
  PgSD3                                       bss  034000
  PgTbl0                                      bss  035000
  PgTbl1                                      bss  036000
  PgTbl2                                      bss  037000
  PgTbl3                                      bss  038000
  PgTbl4                                      bss  039000
  PgTbl5                                      bss  03a000
  QNdx0                                       bss  000038
  RAMTest                                    code  00a5fa
  RAMTest.0001                               code  00a650
  RAMTest.0002                               code  00a615
  RAMTest.0003                               code  00a690
  RAMTest.0004                               code  00a6c5
  RAMTest.0005                               code  00a66a
  RAMTest.0006                               code  00a6da
  ROOTDIR_BUF                                 bss  23e200
  RW_READ_SD_BLOCK                          const  000002
  RW_WRITE_SD_BLOCK                         const  000003
  RemoveTaskFromReadyList                    code  00a240
  RemoveTaskFromReadyList.0001               code  00a29a
  RestoreContext                             code  00a545
  RootPageTbl                                 bss  013000
  RunningTCB                                  bss  000028
  SDDiskSize                                 code  009bb5
  SDInit                                     code  009780
  SDInit.spi_error                           code  009800
  SDInit.spi_init1                           code  0097ba
  SDReadBlocks                               code  009970
  SDReadBoot                                 code  009bc0
  SDReadMultiple                             code  009a8a
  SDReadMultiple.spi_rm1                     code  009a95
  SDReadPart                                 code  009b15
  SDReadPart.spi_rp1                         code  009ba5
  SDReadSector                               code  009865
  SDReadSector.spi_read_error                code  009935
  SDReadSector.spi_read_ret                  code  009950
  SDReadSector.spi_read_retry                code  0098b0
  SDReadSector.spi_read_sect1                code  0098d5
  SDReadSector.spi_read_sect2                code  00990a
  SDWriteBlocks                              code  009975
  SDWriteMultiple                            code  009ad0
  SDWriteMultiple.spi_wm1                    code  009ada
  SDWriteSector                              code  00997a
  SDWriteSector.spi_write_error              code  009a65
  SDWriteSector.spi_write_ret                code  009a7a
  SDWriteSector.spi_write_sect1              code  0099b5
  SDWriteSector.spi_write_sect2              code  009a25
  SECTOR_BUF                                  bss  23e000
  SPIMASTER                                 const  ffdc0500
  SPI_DIRECT_ACCESS_DATA_REG                const  000018
  SPI_INIT_NO_ERROR                         const  000000
  SPI_INIT_SD                               const  000001
  SPI_MASTER_CONTROL_REG                    const  000004
  SPI_MASTER_VERSION_REG                    const  000000
  SPI_READ_NO_ERROR                         const  000000
  SPI_RESP_BYTE1                            const  0000c0
  SPI_RESP_BYTE2                            const  0000c4
  SPI_RESP_BYTE3                            const  0000c8
  SPI_RESP_BYTE4                            const  0000cc
  SPI_RX_FIFO_CTRL_REG                      const  000050
  SPI_RX_FIFO_DATA_COUNT_LSB                const  00004c
  SPI_RX_FIFO_DATA_COUNT_MSB                const  000048
  SPI_RX_FIFO_DATA_REG                      const  000040
  SPI_SD_SECT_15_8_REG                      const  000020
  SPI_SD_SECT_23_16_REG                     const  000024
  SPI_SD_SECT_31_24_REG                     const  000028
  SPI_SD_SECT_7_0_REG                       const  00001c
  SPI_TRANS_BUSY                            const  000001
  SPI_TRANS_CTRL_REG                        const  00000c
  SPI_TRANS_ERROR_REG                       const  000014
  SPI_TRANS_START                           const  000001
  SPI_TRANS_STATUS_REG                      const  000010
  SPI_TRANS_TYPE_REG                        const  000008
  SPI_TX_FIFO_CTRL_REG                      const  000090
  SPI_TX_FIFO_DATA_REG                      const  000080
  SPI_WRITE_NO_ERROR                        const  000000
  SaveContext                                code  00a48a
  ScreenChar                                 code  00891a
  ScreenToAscii                              code  00891a
  ScreenToAscii.stasc1                       code  008930
  ScrollUp                                   code  008eaa
  ScrollUp.0001                              code  008ef0
  SelectTaskToRun                            code  00a39a
  SelectTaskToRun.qagain                     code  00a3c5
  SelectTaskToRun.qempty                     code  00a405
  SelectTaskToRun.qerr                       code  00a42a
  SelectTaskToRun.qxit                       code  00a440
  SendByteToKeybd                            code  009620
  SetupBMTable                               code  008830
  SetupBMTable.0006                          code  008840
  SetupIntVectors                            code  008470
  SetupIntVectors.siv1                       code  008495
  SetupPageTbl                               code  008590
  SetupPageTbl.0002                          code  0085f5
  SetupPageTbl.0003                          code  0086d0
  SetupPageTbl.0005                          code  0087e5
  SetupPageTbl.0006                          code  0086fa
  SetupPageTbl.0007                          code  00877a
  SetupPageTbl.0008                          code  008795
  StartTask                                  code  00a085
  TAB                                       const  000009
  TCB_Next                                  const  0008f8
  TCB_Prev                                  const  000900
  TCB_Priority                              const  000909
  TCB_Regs                                  const  000000
  TCB_SP0Save                               const  0007f8
  TCB_SP10Save                              const  000848
  TCB_SP11Save                              const  000850
  TCB_SP12Save                              const  000858
  TCB_SP13Save                              const  000860
  TCB_SP14Save                              const  000868
  TCB_SP15Save                              const  000870
  TCB_SP1Save                               const  000800
  TCB_SP2Save                               const  000808
  TCB_SP3Save                               const  000810
  TCB_SP4Save                               const  000818
  TCB_SP5Save                               const  000820
  TCB_SP6Save                               const  000828
  TCB_SP7Save                               const  000830
  TCB_SP8Save                               const  000838
  TCB_SP9Save                               const  000840
  TCB_SPSave                                const  0008f0
  TCB_Seg10Save                             const  0008c0
  TCB_Seg11Save                             const  0008c8
  TCB_Seg12Save                             const  0008d0
  TCB_Seg13Save                             const  0008d8
  TCB_Seg14Save                             const  0008e0
  TCB_Seg15Save                             const  0008e8
  TCB_Seg1Save                              const  000878
  TCB_Seg2Save                              const  000880
  TCB_Seg3Save                              const  000888
  TCB_Seg4Save                              const  000890
  TCB_Seg5Save                              const  000898
  TCB_Seg6Save                              const  0008a0
  TCB_Seg7Save                              const  0008a8
  TCB_Seg8Save                              const  0008b0
  TCB_Seg9Save                              const  0008b8
  TCB_Size                                  const  002000
  TCB_Status                                const  000908
  TCB_hJob                                  const  00090a
  TCBs                                        bss  03e000
  TEXTREG                                   const  ffda0000
  TEXTSCR                                   const  ffd00000
  TEXT_COLS                                 const  000000
  TEXT_CURCTL                               const  000020
  TEXT_CURPOS                               const  00002c
  TEXT_ROWS                                 const  000004
  TSSBaseAddress                              bss  03e000
  TS_PREEMPT                                const  000004
  TS_READY                                  const  000001
  TS_RUNNING                                const  000002
  TempTCB                                     bss  03c000
  Tick1000Rout                               code  008b70
  TickRout                                   code  008b50
  TickVec                                     bss  000020
  Ticks                                       bss  000008
  UpdateCursorPos                            code  008bba
  WaitForKeybdAck                            code  0096e5
  XOFF                                      const  000013
  XON                                       const  000011
  bear                                       code  00a8c0
  bear.be1                                   code  00a8c0
  berr_rout                                  code  00a8aa
  disk_size                                   bss  00008c
  doCLS                                      code  0093e0
  doDumpmem                                  code  0090ea
  doDumpmem.001                              code  0090fa
  doRand                                     code  009145
  doRand.0001                                code  00915a
  doSDBoot                                   code  009115
  drf_rout                                   code  00a760
  drf_rout.0001                              code  00a77a
  dwf_rout                                   code  00a780
  dwf_rout.0001                              code  00a79a
  exf_rout                                   code  00a740
  exf_rout.0001                              code  00a75a
  fault_cs                                   code  00a810
  fault_pc                                   code  00a800
  fault_seg                                  code  00a820
  fault_st                                   code  00a830
  fault_st.0001                              code  00a83a
  icc1                                       code  008e9a
  icr1                                       code  008e70
  ignBlanks                                  code  00909a
  ignBlanks1                                 code  00909a
  ivno                                       code  00a700
  ivno.0001                                  code  00a73a
  ivno.0002                                  code  00a720
  j1                                         code  008420
  kbdbad                                     code  009685
  kbdi2                                      code  0095e5
  kbdi4                                      code  009645
  kbdi5                                      code  009570
  kernel_panic                               code  00a480
  loadBootFile                               code  009c8a
  loadBootFile1                              code  009e00
  loadBootFile2                              code  009e55
  loadBootFile3                              code  009e25
  loadBootFile6                              code  009dda
  loadBootFile7                              code  009cba
  loadBootFile7.0001                         code  009da5
  loadBootFile7.0002                         code  009d45
  loadBootFileTmp                            code  009de0
  mon1                                       code  008fba
  mon1.Prompt1                               code  009005
  mon1.Prompt2                               code  00902a
  mon1.Prompt3                               code  008fe5
  mon1.PromptLn                              code  008fd5
  mon1.doHelp                                code  009070
  msgBadKeybd                                code  009605
  msgDOSNotFound                             code  009f2a
  msgErr                                     code  009370
  msgFoundEB                                 code  009c60
  msgHelp                                    code  00937a
  msgJumpingToBoot                           code  009e80
  msgMonitorStarted                          code  0093ca
  msgNoTasks                                 code  00a46a
  msgNotBootable                             code  009e90
  msgNotFoundEB                              code  009c70
  msgPriv                                    code  00a87a
  msgSBV                                     code  00a870
  msgSNP                                     code  00a890
  msgSTV                                     code  00a885
  msgStart                                   code  008b20
  msgUninit                                  code  00a89a
  msgdrf                                     code  00a865
  msgdwf                                     code  00a86a
  msgexf                                     code  00a860
  nStartQue                                  code  00a315
  priv_rout                                  code  00a7c0
  priv_rout.0001                             code  00a7da
  sbtk1                                      code  0096c5
  sbtk2                                      code  0096e0
  sbv_rout                                   code  00a7a0
  sbv_rout.0001                              code  00a7ba
  snp_rout                                   code  00a840
  snp_rout.0001                              code  00a85a
  spi_boot_error_msg                         code  009eea
  spi_delay                                  code  009855
  spi_eb_err                                 code  009c45
  spi_init_error_msg                         code  009ec0
  spi_init_ok_msg                            code  009ea5
  spi_read_boot2                             code  009bf0
  spi_read_boot_err                          code  009c35
  spi_read_error_msg                         code  009f00
  spi_write_error_msg                        code  009f15
  start                                      code  008200
  start.st1                                  code  008300
  start.strt1                                code  00822a
  start.strt2                                code  0082ea
  startSector                                 bss  000088
  stv_rout                                   code  00a7e0
  uninit_rout                                code  00a6e0
  wkbdack1                                   code  0096fa
  wkbdbad                                    code  009740
