554 error(s), 7 warning(s) unlisted in pass 1
                      ; Fig FORTH ported for the RTF6809
                      ;
                      ;                        Through the courtesy of
                      ;
                      ;                         FORTH INTEREST GROUP
                      ;                            P.O. BOX  2154
                      ;                         OAKLAND, CALIFORNIA
                      ;                                94621
                      ;
                      ;
                      ;                             Release 1.1
                      ;
                      ;                        with compiler security
                      ;                                  and
                      ;                        variable length names
                      ;
                      ;    Further distribution must include the above notice.
                      ;    The FIG installation Manual is required as it contains
                      ;    the model of FORTH and glossary of the system.
                      ;    Available from FIG at the above address for **.** postpaid.
                      ;
                      ;    Translated from the FIG model by W.F. Ragsdale with input-
                      ;    output given for the Rockwell System-65. Transportation to
                      ;    other systems requires only the alteration of :
                      ;                 XEMIT, XKEY, XQTER, XCR, AND RSLW
                      ;
                      ;    Equates giving memory assignments, machine
                      ;    registers, and disk parameters.
                      ;
                      SSIZE     =512           ; sector size in bytes
                      NBUF      =8             ; number of buffers desired in RAM
                      ;                             (SSIZE*NBUF >= 1024 bytes)
                      SECTR     =800           ; sector per drive
                      ;                              forcing high drive to zero
                      SECTL     =1600          ; sector limit for two drives
                      ;                              of 800 per drive.
                      BMAG      =4128          ; total buffer magnitude, in bytes
                      ;                              expressed by SSIZE+4*NBUF
                      ;
                      BOS       EQU $20           ; bottom of data stack, in zero-page.
                      TOS       EQU $9E           ; top of data stack, in zero-page.
                      N         EQU TOS+8         ; scratch workspace.
                      IP        EQU N+8           ; interpretive pointer.
                      W         EQU IP+4          ; code field pointer.
                      UP        EQU W+4           ; user area pointer.
                      XSAVE     EQU UP+4          ; temporary for X register.
                      YSAVE     EQU XSAVE+2
                      USAVE           EQU     YSAVE+2
                      ;
                      TIBX      EQU $0100         ; terminal input buffer of 84 bytes.
                      ORIG      EQU $C000         ; origin of FORTH's Dictionary.
                      MEM       EQU $C000         ; top of assigned memory+1 byte.
                      UAREA     EQU MEM-256       ; 256 bytes of user area
                      DAREA     EQU UAREA-BMAG    ; disk buffer space.
                      ;
                      ;         Monitor calls for terminal support
                      ;
                      OUTCH     EQU $D2C1         ; output one ASCII char. to term.
                      INCH      EQU $D1DC         ; input one ASCII char. to term.
                      TCR       EQU $D0F1         ; terminal return and line feed.
                      ;
                      ;    From DAREA downward to the top of the dictionary is free
                      ;    space where the user's applications are compiled.
                      ;
                      ;    Boot up parameters. This area provides jump vectors
                      ;    to Boot up  code, and parameters describing the system.
                      ;
                      ;
                                        ORG $C000
                      ;          *=*+2
                      ;
                                               ; User cold entry point
                                               ; User cold entry point
 0000C000 12              ENTER     NOP            ; Vector to COLD entry
 0000C001 7ED1F9                    JMP COLD+4     ;
 0000C004 12              REENTR    NOP            ; User Warm entry point
 0000C005 7ED20B                    JMP WARM       ; Vector to WARM entry
 0000C008 00000004                  FCDW $0004    ; 6502 in radix-36
 0000C00C 00005ED2                  FCDW $5ED2    ;
 0000C010 0000D7A9                  FCDW NTOP     ; Name address of MON
 0000C014 0000007F                  FCDW $7F      ; Backspace Character
 0000C018 0000BF00                  FCDW UAREA    ; Initial User Area
 0000C01C 0000009E                  FCDW TOS      ; Initial Top of Stack
 0000C020 000001FF                  FCDW $1FF     ; Initial Top of Return Stack
 0000C024 00000100                  FCDW TIBX     ; Initial terminal input buffer
                      ;
                      ;
 0000C028 0000001F                  FCDW 31       ; Initial name field width
 0000C02C 00000000                  FCDW 0        ; 0=nod disk, 1=disk
 0000C030 0000D7BC                  FCDW TOP      ; Initial fence address
 0000C034 0000D7BC                  FCDW TOP      ; Initial top of dictionary
 0000C038 0000D1E8                  FCDW VL0      ; Initial Vocabulary link ptr.
                      ;
                      ;    The following offset adjusts all code fields to avoid an
                      ;    address ending $XXFF. This must be checked and altered on
                      ;    any alteration , for the indirect jump at W-1 to operate !
                      ;
 0000C03C 4F5F                    CLRD
 0000C03E DDAE                    STD             IP
 0000C040 DDB0                    STD             IP+2
 0000C042 0CAE                    INC             IP
 0000C044 DDB2                    STD             W
 0000C046 DDB4                    STD             W+2
 0000C048 318F0000                LEAY    0
                      ;
                      ;    The following offset adjusts all code fields to avoid an
                      ;    address ending $XXFF. This must be checked and altered on
                      ;    any alteration , for the indirect jump at W-1 to operate !
                      ;
                                .ORIGIN *+2
                      ;
                      ;
                      ;                                       LIT
                      ;                                       SCREEN 13 LINE 1
                      ;
 0000C04C 834C            L22       FCB $83,'LI',$D4            ; <--- name field
*** Error 2: Illegal addressing mode
                      ;                          <----- link field
 0000C04E 00000000                  FCDW 00                       ; last link marked by zero
 0000C052 0000C056        LIT       FCDW *+4                      ; <----- code address field
 0000C056 DCAE                      LDD   FAR (IP)    ; <----- start of parameter field
 0000C058 3406                      PSHS  D
 0000C05A 8D33                              BSR   INC_IP
 0000C05C 8D31                              BSR   INC_IP
 0000C05E DCAE            L30       LDD   FAR (IP)
 0000C060 8D2D                              BSR   INC_IP
 0000C062 8D2B            L31               BSR   INC_IP
 0000C064 335C            PUSH      LEAU  -4,U
 0000C066 ED42            PUT               STD   2,U
 0000C068 3506                              PULS  D
 0000C06A EDC4                              STD   ,U
 
 0000C06C DCAE            NEXT      LDD   FAR (IP)
 0000C06E DDB2                              STD   W
 0000C070 108E0002                          LDY   #2
 0000C074 15ECA900AE                        LDD   FAR (IP),Y
 0000C079 DDB4                              STD   W+2
 0000C07B DCB0                              LDD   IP+2            ; inline increment IP by 4
 0000C07D C30004                            ADDD  #4
 0000C080 DDB0                              STD   IP+2
 0000C082 DCAE                              LDD   IP
 0000C084 C900                              ADCB  #0
 0000C086 8900                              ADCA  #0
 0000C088 DDAE                              STD   IP
 0000C08A 156E9F00B2                        JMP   FAR [W]
 
                      ; Increment IP by 1
                      ; Most of the time only the LSB of the IP needs to be incremented, so avoid a 
                      ; carry chain adder.
 
 0000C08F 0CB1            INC_IP    INC  IP+3
 0000C091 260A                              BNE  INC_IP_1
 0000C093 0CB0                              INC  IP+2
 0000C095 2606                              BNE  INC_IP_1
 0000C097 0CAF                              INC  IP+1
 0000C099 2602                              BNE  INC_IP_1
 0000C09B 0CAE                              INC  IP
 0000C09D 39              INC_IP_1  RTS
                              
                      ; Increment IP by 2
 
 0000C09E 8DEF            INC2_IP   BSR   INC_IP
 0000C0A0 20ED                              BRA   INC_IP
 
                      ;    CLIT pushes the next inline byte to data stack
                      ;
 0000C0A2 8443            L35       FCB $84,'CLI',$D4
*** Error 2: Illegal addressing mode
 0000C0A4 0000C04C                  FCDW L22      ; Link to LIT
 0000C0A8 0000C0AC        CLIT      FCDW *+4
 0000C0AC 4F5F                              CLRD
 0000C0AE 3406                              PSHS  D
 0000C0B0 D6AE                      LDB   FAR (IP)
 0000C0B2 20AE                      BRA   L31        ; a forced branch into LIT
                      ;
                      ;
                      ;    This is a temporary trace routine, to be used until FORTH
                      ;    is generally operating. Then NOP the terminal query
                      ;    "JSR ONEKEY". This will allow user input to the text
                      ;    interpreter. When crashes occur, the display shows IP, W,
                      ;    and the word locations of the offending code. When all is
                      ;    well, remove : TRACE, TCOLON, PRNAM, DECNP, and the
                      ;    following monitor/register equates.
                      ;
                      ;
                      ;
                      ;    Monitor routines needed to trace.
                      ;
                      XBLANK    EQU $D0AF         ; print one blank
                      CRLF      EQU $D0D2         ; print a carriage return and line feed.
                      HEX2      EQU $D2CE         ; print accum as two hex numbers
                      LETTER    EQU $D2C1         ; print accum as one ASCII character
                      ONEKEY    EQU $D1DC         ; wait for keystroke
                      XW        EQU $12           ; scratch reg. to next code field add
                      NP        EQU $14           ; scratch reg. pointing to name field
                      ;
                      ;
 0000C0B4 9FBA            TRACE     STX XSAVE
 0000C0B6 CF0000D0D2                JSR FAR CRLF
 0000C0BB 96AF                      LDA IP+1
 0000C0BD CF0000D2CE                JSR FAR HEX2
 0000C0C2 96B0                      LDA IP+2
 0000C0C4 CF0000D2CE                JSR FAR HEX2
 0000C0C9 96B1                      LDA IP+3
 0000C0CB CF0000D2CE                JSR FAR HEX2       ; print IP, the interpreter pointer
 0000C0D0 CF0000D0AF                JSR FAR XBLANK
                      ;
                      ;
 0000C0D5 8600                      LDA #0
 0000C0D7 15A6A900AE                LDA FAR (IP),Y
 0000C0DC 9712                      STA XW
 0000C0DE 9714                      STA NP         ; fetch the next code field pointer
 0000C0E0 3121                      INY
 0000C0E2 2602                              BNE TRACE_1
 0000C0E4 0CAF                              INC IP+1
                      TRACE_1:
 0000C0E6 15A6A900AE                LDA FAR (IP),Y
 0000C0EB 9713                      STA XW+1
 0000C0ED 9715                      STA NP+1
 0000C0EF CF0000C167                JSR FAR PRNAM  ; print dictionary name
                      ;
 0000C0F4 9612                      LDA XW
 0000C0F6 CF0000D2CE                JSR FAR HEX2   ; print code field address
 0000C0FB 9613                      LDA XW+1
 0000C0FD CF0000D2CE                JSR FAR HEX2
 0000C102 8600                              LDA #0
 0000C104 CF0000D2CE                        JSR FAR HEX2
 0000C109 CF0000D0AF                JSR FAR XBLANK
                      ;
 0000C10E 96BA                      LDA XSAVE      ; print stack location in zero-page
 0000C110 CF0000D2CE                JSR FAR HEX2
 0000C115 96BB                              LDA XSAVE+1
 0000C117 CF0000D2CE                        JSR FAR HEX2
 0000C11C CF0000D0AF                JSR FAR XBLANK
                      ;
 0000C121 8601                      LDA #1         ; print return stack bottom in page 1
 0000C123 1F40                              TFR S,D
 0000C125 1E89                              EXG A,B
 0000C127 CF0000D2CE                JSR FAR HEX2
 0000C12C 1E89                              EXG A,B
 0000C12E CF0000D2CE                JSR FAR HEX2
 0000C133 CF0000D0AF                JSR FAR XBLANK
                      ;
 0000C138 CF0000D1DC                JSR FAR ONEKEY ; wait for operator keystroke
 0000C13D 9EBA                      LDX XSAVE      ; just to pinpoint early problems
 0000C13F 108E0000                  LDY #0
 0000C143 39                        RTS
                      ;
                      ;    TCOLON is called from DOCOLON to label each point
                      ;    where FORTH 'nests' one level.
                      ;
 0000C144 9FBA            TCOLON    STX XSAVE
 0000C146 DCB2                      LDD W
 0000C148 DD14                      STD NP         ; locate the name of the called word
 0000C14A DCB4                      LDD W+2
 0000C14C DD16                      STD NP+2
 0000C14E CF0000D0D2                JSR FAR CRLF
 0000C153 863A                      LDA #$3A       ; ':
 0000C155 CF0000D2C1                JSR FAR LETTER
 0000C15A CF0000D0AF                JSR FAR XBLANK
 0000C15F CF0000C167                JSR FAR PRNAM
 0000C164 9EBA                      LDX XSAVE
 0000C166 39                        RTS
                      ;
                      ;    Print name by it's code field address in NP
                      ;
 0000C167 109FBC          PRNAM     STY YSAVE
 0000C16A 8D2A                              BSR DECNP
 0000C16C 8D28                      BSR DECNP
 0000C16E 8D26                      BSR DECNP
 0000C170 108E0000                  LDY #0
 0000C174 8D20            PN1       BSR DECNP
 0000C176 15A6A814                  LDA FAR (NP),Y     ; loop till D7 in name set
 0000C17A 2AF8                      BPL PN1
 0000C17C 3121            PN2       INY
 0000C17E 15A6A814                  LDA FAR (NP),Y
 0000C182 CF0000D2C1                JSR FAR LETTER     ; print letters of name field
 0000C187 15A6A814                  LDA FAR (NP),Y
 0000C18B 2AEF                      BPL PN2
 0000C18D CF0000D0AF                JSR FAR XBLANK
 0000C192 109EBC                    LDY YSAVE
 0000C195 38                        RTF
                      ;
                      ;    Decrement name field pointer
                      ;
 0000C196 DC16            DECNP     LDD   NP+2
 0000C198 830001                    SUBD  #1
 0000C19B DD16                              STD   NP+2
 0000C19D DC14                              LDD   NP
 0000C19F C200                              SBCB  #0
 0000C1A1 8200                              SBCA  #0
 0000C1A3 DD14                              STD   NP
 0000C1A5 39                                RTS
 
 0000C1A6 109FBC          SETUP     STY YSAVE
 0000C1A9 108E0000                          LDY #0
 0000C1AD 48                                ASLA
 0000C1AE 48                                ASLA
 0000C1AF 97A5                      STA N-1
 0000C1B1 A6C4            L63       LDA 0,U
 0000C1B3 A7A900A6                  STA N,Y
 0000C1B7 3001                      INX
 0000C1B9 3121                      INY
 0000C1BB 109CA5                    CPY N-1
 0000C1BE 26F1                      BNE L63
 0000C1C0 109EBC                    LDY YSAVE
 0000C1C3 39                        RTS
                      ;
                      ;                                       EXCECUTE
                      ;                                       SCREEN 14 LINE 11
                      ;
 0000C1C4 87455845435554  L75       FCB $87,"EXECUT",$C5
 0000C1CB C5
 0000C1CC 0000C0A2                  FCDW L35      ; link to CLIT
 0000C1D0 0000C1D4        EXEC      FCDW *+4
 0000C1D4 3716                              PULU  D,X
 0000C1D6 DDB2                      STD   W
 0000C1D8 9FB4                      STX   W+2
 0000C1DA 156E9F00B2                JMP   FAR [W]    ; to JMP (W) in z-page
                      ;
                      ;                                       BRANCH
                      ;                                       SCREEN 15 LINE 11
                      ;
 0000C1DF 864252414E43C8  L89       FCB $86,"BRANC",$C8
 0000C1E6 C1C4                      FCW L75      ; link to EXCECUTE
 0000C1E8 0000C1EC        BRAN      FCDW *+4
                      BRAN_4:
 0000C1EC 15ECA900AE                        LDD   FAR (IP),Y
 0000C1F1 3606                              PSHU  D
 0000C1F3 BDC09E                            JSR   INC2_IP
 0000C1F6 15ECA900AE                        LDD   FAR (IP),Y
 0000C1FB BDC09E                            JSR   INC2_IP
 0000C1FE D3B0                              ADDD  IP+2
 0000C200 DDB0                              STD   IP+2
 0000C202 2407                              BCC   BRAN_3
 0000C204 DCAE                              LDD   IP
 0000C206 C30001                            ADDD  #1
 0000C209 DDAE                              STD   IP
                      BRAN_3:
 0000C20B 3706                              PULU  D
 0000C20D D3AE                              ADDD  IP
                                        STDD  IP
*** Error 16: Illegal mnemonic
 0000C20F 7EC06C                    JMP   NEXT
                      ;
                      ;                                       0BRANCH
                      ;                                       SCREEN 15 LINE 6
                      ;
 0000C212 87304252414E43  L107      FCB $87,"0BRANC",$C8
 0000C219 C8
 0000C21A 0000C1DF                  FCDW L89      ; link to BRANCH
 0000C21E 0000C222        ZBRAN     FCDW *+4
 0000C222 3716                              PULU  D,X
 0000C224 10830000                          CMPD  #0
 0000C228 2605                              BNE   BUMP
 0000C22A 8C0000                            CMPX  #0
 0000C22D 27BD                      BEQ   BRAN_4
                      ;
 0000C22F DCB0            BUMP      LDD   IP+2
 0000C231 C30004                            ADDD  #4
 0000C234 DDB0                              STD   IP+2
 0000C236 DCAE                              LDD   IP
 0000C238 C900                              ADCB  #0
 0000C23A 8900                              ADCA  #0
 0000C23C DDAE                              STD   IP
 0000C23E 7EC06C          L122      JMP   NEXT
                      ;
                      ;                                       (LOOP)
                      ;                                       SCREEN 16 LINE 1
                      ;
 0000C241 86284C4F4F50A9  L127      FCB $86,"(LOOP",$A9
 0000C248 0000C212                  FCDW L107     ; link to 0BRANCH
 0000C24C 0000C250        PLOOP     FCDW L130
 0000C250 EC62            L130      LDD   2,S             ; Increment LOOP var
 0000C252 C30001                            ADDD  #1
 0000C255 ED62                              STD   2,S
 0000C257 ECE4                              LDD   ,S
 0000C259 C900                              ADCB  #0
 0000C25B 8900                              ADCA  #0
 0000C25D EDE4                              STD   ,S
                      ;
 0000C25F EC66            PL1       LDD   6,S             ; compare LOOP var to limit
 0000C261 A362                              SUBD  2,S
 0000C263 EC64                              LDD   4,S
 0000C265 E261                              SBCB  1,S
 0000C267 A2E4                              SBCA  0,S
                      ;
 0000C269 780000          PL2       ASL   A
*** Error 3: Undefined label
 0000C26C 247E                      BCC   BRAN+4
*** Error 5: Relative branch out of range
 0000C26E 3268                              LEAS  8,S             ; LOOP finished, pop stacked info
 0000C270 7EC22F                    JMP   BUMP
*** warning 1: Long branch within short branch range could be optimized
 
                      ;
                      ;                                       (DO)
                      ;                                       SCREEN 17 LINE 2
                      ;
 0000C273 8428444FA9      L185      FCB $84,"(DO",$A9
 0000C278 00000000                  FCDW L154     ; link to (+LOOP)
*** Error 3: Undefined label
 0000C27C 0000C280        PDO       FCDW *+4
 0000C280 EC46                              LDD   6,U
 0000C282 3406                              PSHS  D
 0000C284 EC44                              LDD   4,U
 0000C286 3406                              PSHS  D
 0000C288 EC42                              LDD   2,U
 0000C28A 3406                              PSHS  D
 0000C28C ECC4                              LDD   ,U
 0000C28E 3406                              PSHS  D
                      ;
 0000C290 3348            POPTWO    LEAU  8,U
 0000C292 7EC06C                            JMP   NEXT
                      ;
                      ;
                      ;
 0000C295 3344            POP       LEAU  4,U
 0000C297 7EC06C                    JMP NEXT
                      ;
                      ;                                       I
                      ;                                       SCREEN 17 LINE 9
                      ;
 0000C29A 81C9            L207      FCB $81,$C9
 0000C29C 0000C273                  FCDW L185     ; link to (DO)
 0000C2A0 0000C4D7        I         FCDW R+4      ; share the code for R
                      ;
                      ;                                       DIGIT
                      ;                                       SCREEN 18 LINE 1
                      ;
 0000C2A4 8544            L214      FCB $85,'DIGI',$D4
*** Error 2: Illegal addressing mode
 0000C2A6 0000C29A                  FCDW L207     ; link to I
 0000C2AA 0000C2AE        DIGIT     FCDW *+4
 0000C2AE A643                      LDA   3,U
 0000C2B0 8030                      SUBA  #$30
 0000C2B2 2B4C                      BMI   L234
*** Error 3: Undefined label
 0000C2B4 810A                      CMPA  #$A
 0000C2B6 2B06                      BMI   L227
 0000C2B8 8007                      SUBA  #7
 0000C2BA 810A                      CMP   #$A
*** Error 1: Error in expression
 0000C2BC 2B42                      BMI   L234
*** Error 3: Undefined label
 0000C2BE B10000          L227      CMP   0,X
*** Error 1: Error in expression
*** Error 3: Undefined label
 0000C2C1 2A3D                      BPL   L234
*** Error 3: Undefined label
 0000C2C3 A702                      STA   2,X
 0000C2C5 8601                      LDA   #1
                                PHA
*** Error 16: Illegal mnemonic
                                TYA
*** Error 16: Illegal mnemonic
 0000C2C7 7EC066                    JMP   PUT        ; exit true with converted value
                      L234      TYA
*** Error 16: Illegal mnemonic
                                PHA
*** Error 16: Illegal mnemonic
 0000C2CA 3001                      INX
 0000C2CC 3001                      INX
 0000C2CE 7EC066                    JMP   PUT        ; exit false with bad conversion
                      ;
                      ;                                       (FIND)
                      ;                                       SCREEN 19 LINE 1
                      ;
 0000C2D1 8628            L243      FCB $86,'(FIND',$A9
*** Error 2: Illegal addressing mode
 0000C2D3 0000C2A4                  FCDW L214   ; Link to DIGIT
 0000C2D7 0000C2DB        PFIND     FCDW *+4
 0000C2DB 8604                      LDA #4
 0000C2DD BDC1A6                    JSR SETUP
 0000C2E0 109FBC                    STY YSAVE
 0000C2E3 108E0000        L249      LDY #0
 0000C2E7 A6A900A6                  LDA (N),Y
 0000C2EB A8A900AA                  EOR (N+4),Y
*** Error 1: Error in expression
                      ;
                      ;
 0000C2EF 843F                      AND #$3F
*** Error 1: Error in expression
 0000C2F1 263D                      BNE L281
 0000C2F3 3121            L254      INY
 0000C2F5 15A6A900A6                LDA FAR (N),Y
 0000C2FA A8A900AA                  EOR FAR (N+4),Y
*** Error 1: Error in expression
 0000C2FE 780000                    ASL A
*** Error 3: Undefined label
 0000C301 262B                      BNE L280
 0000C303 24EE                      BCC L254
 0000C305 9EBA                      LDX XSAVE
 0000C307 301F                      DEX
 0000C309 301F                      DEX
 0000C30B 301F                      DEX
 0000C30D 301F                      DEX
 0000C30F 1CFE                      CLC
                                TYA
*** Error 16: Illegal mnemonic
 0000C311 8905                      ADC #5
*** Error 1: Error in expression
 0000C313 9900                      ADC N
*** Error 1: Error in expression
 0000C315 A702                      STA 2,X
 0000C317 108E0000                  LDY #0
                                TYA
*** Error 16: Illegal mnemonic
 0000C31B 9901                      ADC N+1
*** Error 1: Error in expression
 0000C31D A703                      STA 3,X
 0000C31F 10AF01                    STY 1,X
 0000C322 15A6A900A6                LDA FAR (N),Y
 0000C327 A784                      STA 0,X
 0000C329 8601                      LDA #1
                                PHA
*** Error 16: Illegal mnemonic
 0000C32B 7EC064                    JMP PUSH
 0000C32E 2509            L280      BCS L284
 0000C330 3121            L281      INY
 0000C332 15A6A900A6                LDA FAR (N),Y
 0000C337 2AF7                      BPL L281
 0000C339 3121            L284      INY
 0000C33B 15AEA900A6                LDX   FAR (N),Y
 0000C340 3122                              LEAY  2,Y
 0000C342 15ECA900A6                LDD   FAR (N),Y
 0000C347 DDA8                      STD   N+2
 0000C349 9FA6                      STX   N
 0000C34B 9AA6                      ORA N
 0000C34D 2694                      BNE L249
 0000C34F 109EBC                    LDY YSAVE
 0000C352 8600                      LDA #0
                                PHA
*** Error 16: Illegal mnemonic
 0000C354 7EC064                    JMP PUSH       ; exit false upon reading null link
                      ;
                      ;                                       ENCLOSE
                      ;                                       SCREEN 20 LINE 1
                      ;
 0000C357 87454E434C4F53  L301      FCB $87,"ENCLOS",$C5
 0000C35E C5
 0000C35F C2D1                      FCW L243     ; link to (FIND)
 0000C361 C363            ENCL      FCW *+2
 0000C363 8602                      LDA #2
 0000C365 BDC1A6                    JSR SETUP
 0000C368 3018                              LEAX  -8,X
 0000C36A 10AF03                    STY 3,X
 0000C36D 10AF01                    STY 1,X
 0000C370 313F                      DEY
 0000C372 3121            L313      INY
 0000C374 A6A900A8                  LDA (N+2),Y
 0000C378 9100                      CMP N
*** Error 1: Error in expression
 0000C37A 27F6                      BEQ L313
 0000C37C 10AF04                    STY 4,X
 0000C37F A6A900A8        L318      LDA (N+2),Y
 0000C383 2610                      BNE L327
 0000C385 10AF02                    STY 2,X
 0000C388 10AF84                    STY 0,X
                                TYA
*** Error 16: Illegal mnemonic
 0000C38B B10000                    CMP 4,X
*** Error 1: Error in expression
*** Error 3: Undefined label
 0000C38E 2602                      BNE L326
 0000C390 6C02                      INC 2,X
 0000C392 7EC06C          L326      JMP NEXT
 0000C395 10AF02          L327      STY 2,X
 0000C398 3121                      INY
 0000C39A 9100                      CMP N
*** Error 1: Error in expression
 0000C39C 26E1                      BNE L318
 0000C39E 10AF84                    STY 0,X
 0000C3A1 7EC06C                    JMP NEXT
                      ;
                      ;                                       EMIT
                      ;                                       SCREEN 21 LINE 5
                      ;
 0000C3A4 8445            L337      FCB $84,'EMI',$D4
*** Error 2: Illegal addressing mode
 0000C3A6 C357                      FCW L301     ; link to ENCLOSE
 0000C3A8 0000            EMIT      FCW XEMIT    ; Vector to code for KEY
*** Error 3: Undefined label
                      ;
                      ;                                       KEY
                      ;                                       SCREEN 21 LINE 7
                      ;
 0000C3AA 834B            L344      FCB $83,'KE',$D9
*** Error 2: Illegal addressing mode
 0000C3AC C3A4                      FCW L337     ; link to EMIT
 0000C3AE 0000            KEY       FCW XKEY     ; Vector to code for KEY
*** Error 3: Undefined label
                      ;
                      ;                                       ?TERMINAL
                      ;                                       SCREEN 21 LINE 9
                      ;
 0000C3B0 893F            L351      FCB $89,'?TERMINA',$CC
*** Error 2: Illegal addressing mode
 0000C3B2 C3AA                      FCW L344     ; link to KEY
 0000C3B4 0000            QTERM     FCW XQTER    ; Vector to code for ?TERMINAL
*** Error 3: Undefined label
                      ;
                      ;
                      ;
                      ;
                      ;
                      ;                                       CR
                      ;                                       SCREEN 21 LINE 11
                      ;
 0000C3B6 8243D2          L358      FCB $82,"C",$D2
 0000C3B9 0000C3B0                  FCDW L351     ; link to ?TERMINAL
 0000C3BD 00000000        CR        FCDW XCR      ; Vector to code for CR
*** Error 3: Undefined label
                      ;
                      ;                                       AND
                      ;                                       SCREEN 25 LINE 2
                      ;
 0000C3C1 83414EC4        L453      FCB $83,"AN",$C4
 0000C3C5 00000000                  FCDW  L418     ; link to U/
*** Error 3: Undefined label
 0000C3C9 0000C3CD        ANDD      FCDW  *+4
 0000C3CD 3716                              PULU  D,X
 0000C3CF A4C4                              ANDA  ,U
 0000C3D1 E441                              ANDB  1,U
 0000C3D3 1E01                              EXG   D,X
 0000C3D5 A442                              ANDA  2,U
 0000C3D7 E443                              ANDB  3,U
 0000C3D9 1E01                              EXG   D,X
 0000C3DB EDC4                              STD   ,U
 0000C3DD AF42                              STX   2,U
 0000C3DF 7EC06C                            JMP   NEXT
                      ;
 0000C3E2 3004            BINARY    LEAX  4,X
 0000C3E4 7EC066                    JMP PUT
                      ;
                      ;                                       OR
                      ;                                       SCREEN 25 LINE 7
                      ;
 0000C3E7 824FD2          L469      FCB $82,"O",$D2
 0000C3EA 0000C3C1                  FCDW  L453     ; link to AND
 0000C3EE 0000C3F2        OR        FCDW  *+4
 0000C3F2 3716                              PULU  D,X
 0000C3F4 AAC4                              ORA   ,U
 0000C3F6 EA41                              ORB   1,U
 0000C3F8 1E01                              EXG   D,X
 0000C3FA AA42                              ORA   2,U
 0000C3FC EA43                              ORB   3,U
 0000C3FE 1E01                              EXG   D,X
 0000C400 EDC4                              STD   ,U
 0000C402 AF42                              STX   2,U
 0000C404 7EC06C                            JMP   NEXT
                      ;
                      ;                                       XOR
                      ;                                       SCREEN 25 LINE 11
                      ;
 0000C407 83584FD2        L484      FCB $83,"XO",$D2
 0000C40B 0000C3E7                  FCDW L469     ; link to OR
 0000C40F 0000C413        XOR       FCDW *+4
 0000C413 3716                              PULU  D,X
 0000C415 A8C4                              EORA  ,U
 0000C417 E841                              EORB  1,U
 0000C419 1E01                              EXG   D,X
 0000C41B A842                              EORA  2,U
 0000C41D E843                              EORB  3,U
 0000C41F 1E01                              EXG   D,X
 0000C421 EDC4                              STD   ,U
 0000C423 AF42                              STX   2,U
 0000C425 7EC06C                            JMP   NEXT
                      ;
                      ;                                       SP@
                      ;                                       SCREEN 26 LINE 1
                      ;
 0000C428 835350C0        L499      FCB $83,"SP",$C0
 0000C42C 0000C407                  FCDW L484     ; link  to XOR
 0000C430 0000C434        SPAT      FCDW *+4
                      ;
 0000C434 4F5F            PUSHOA    CLRD
 0000C436 3606                              PSHU  D
 0000C438 1F10                              TFR   X,D
 0000C43A 7EC064                    JMP   PUSH
                      ;
                      ;                                       SP!
                      ;                                       SCREEN 26 LINE 5
                      ;
                      ;
 0000C43D 835350A1        L511      FCB $83,"SP",$A1
 0000C441 0000C428                  FCDW L499     ; link to SP@
 0000C445 0000C449        SPSTO     FCDW *+4
 0000C449 108E0006                  LDY #6                 ; 6 or 12 ? User area format ????
 0000C44D 15AEA900B6                LDX FAR (UP),Y ; load data stack pointer (X reg) from
 0000C452 7EC06C                    JMP NEXT               ; silent user variable S0.
                      ;
                      ;                                       RP!
                      ;                                       SCREEN 26 LINE 8
                      ;
 0000C455 835250A1        L522      FCB $83,"RP",$A1
 0000C459 0000C43D                  FCDW  L511     ; link to SP!
 0000C45D 0000C461        RPSTO     FCDW  *+4
                                                                              ; load return stack pointer (machine
 0000C461 108E0008                  LDY   #8          ; stack pointer) from silent user
 0000C465 1510EEA900B6              LDS   FAR (UP),Y  ; VARIABLE R0
 0000C46B 7EC06C                    JMP   NEXT
                      ;
                      ;                                       ;S
                      ;                                       SCREEN 26 LINE 12
                      ;
 0000C46E 823BD3          L536      FCB $82,';',$D3
 0000C471 0000C455                  FCDW L522     ; link to RP!
 0000C475 0000C479        SEMIS     FCDW *+4
 0000C479 3516                      PULS  D,X
 0000C47B DDB0                              STD   IP+2
 0000C47D 9FAE                              STX   IP
 0000C47F 7EC06C                    JMP   NEXT
                      ;
                      ;                                       LEAVE
                      ;                                       SCREEN 27 LINE  1
                      ;
 0000C482 854C454156C5    L548      FCB $85,"LEAV",$C5
 0000C488 0000C46E                  FCDW  L536     ; link to ;S
 0000C48C 0000C490        LEAVE     FCDW  *+4
 0000C490 9FBA                      STX   XSAVE
 0000C492 1F41                      TFR   S,X
 0000C494 EC890101                          LDD   $101,X
 0000C498 ED890105                          STD   $105,X
 0000C49C EC890103                          LDD   $103,X
 0000C4A0 ED890107                          STD   $107,X
 0000C4A4 9EBA                      LDX   XSAVE
 0000C4A6 7EC06C                    JMP   NEXT
                      ;
                      ;                                       >R
                      ;                                       SCREEN 27 LINE 5
                      ;
 0000C4A9 823ED2          L563      FCB $82,">",$D2
 0000C4AC 0000C482                  FCDW  L548     ; link to LEAVE
 0000C4B0 0000C4B4        TOR       FCDW  *+4
 0000C4B4 3716                              PULU  D,X                     ; transfer from data stack to return stack
 0000C4B6 3416                              PSHS  D,X
 0000C4B8 7EC06C                    JMP   NEXT
                      ;
                      ;                                       R>
                      ;                                       SCREEN 27 LINE 8
                      ;
 0000C4BB 8252BE          L577      FCB $82,"R",$BE
 0000C4BE 0000C4A9                  FCDW  L563     ; link to >R
 0000C4C2 0000C4C6        RFROM     FCDW  *+4
 0000C4C6 3516                              PULS  D,X
 0000C4C8 3616                              PSHU  D,X
 0000C4CA 7EC06C                    JMP   NEXT
                      ;
                      ;                                       R
                      ;                                       SCREEN 27 LINE 11
                      ;
 0000C4CD 81D2            L591      FCB $81,$D2
 0000C4CF 0000C4BB                  FCDW  L577     ; link to R>
 0000C4D3 0000C4D7        R         FCDW  *+4
 0000C4D7 ECC4                              LDD   ,U
 0000C4D9 AE42                              LDX   2,U
 0000C4DB 3416                              PSHS  D,X
 0000C4DD 7EC06C                            JMP   NEXT
                      ;
                      ;                                       0=
                      ;                                       SCREEN 28 LINE 2
                      ;
 0000C4E0 8230BD          L605      FCB $82,"0",$BD
 0000C4E3 0000C4CD                  FCDW  L591     ; link to R
 0000C4E7 0000C4EB        ZEQU      FCDW  *+4
 0000C4EB ECC4                              LDD   ,U
 0000C4ED 260C                              BNE   ZEQU_1
 0000C4EF EC42                              LDD   2,U
 0000C4F1 2608                              BNE   ZEQU_1
 0000C4F3 EDC4                              STD   ,U
 0000C4F5 4C                                INCA
 0000C4F6 ED42                              STD   2,U
 0000C4F8 7EC06C                            JMP   NEXT
 0000C4FB 4F5F            ZEQU_1    CLRD
 0000C4FD EDC4                              STD   ,U
 0000C4FF ED42                              STD   2,U
 0000C501 7EC06C                            JMP   NEXT
                      ;
                      ;                                       0<
                      ;                                       SCREEN 28 LINE 6
                      ;
 0000C504 8230BC          L619      FCB $82,"0",$BC
 0000C507 0000C4E0                  FCDW  L605     ; link to 0=
 0000C50B 0000C50F        ZLESS     FCDW *+4
 0000C50F 4F5F                              CLRD
 0000C511 68C4                              ASL   ,U
 0000C513 59                                ROLB
 0000C514 2607                              BNE   ZLESS_1
 0000C516 EDC4                              STD   ,U
 0000C518 ED42                              STD   2,U
 0000C51A 7EC06C                            JMP   NEXT
 0000C51D ED42            ZLESS_1   STD   2,U
 0000C51F 5F                                CLRB
 0000C520 EDC4                              STD   ,U
 0000C522 7EC06C                            JMP   NEXT
                      ;
                      ;                                       +
                      ;                                       SCREEN 29 LINE 1
                      ;
 0000C525 81AB            L632      FCB $81,$AB
 0000C527 0000C504                  FCDW  L619     ; link to V-ADJ
 0000C52B 0000C52F        PLUS      FCDW  *+4
 0000C52F ECC4                              LDD   ,U
 0000C531 E344                              ADDD  4,U
 0000C533 ED44                              STD   4,U
 0000C535 EC42                              LDD   2,U
 0000C537 E946                              ADCB  6,U
 0000C539 A947                              ADCA  7,U
 0000C53B ED46                              STD   6,U
 0000C53D 3344                              LEAU  4,U
 0000C53F 7EC06C                    JMP NEXT
 
                      ;
                      ;                                       D+
                      ;                                       SCREEN 29 LINE 4
                      ;
 0000C542 8244AB          L649      FCB $82,"D",$AB
 0000C545 0000C525                  FCDW L632     ;    LINK TO +
 0000C549 0000C54D        DPLUS     FCDW *+4
 0000C54D ECC4                              LDD   ,U
 0000C54F E344                              ADDD  4,U
 0000C551 ED44                              STD   4,U
 0000C553 EC42                              LDD   2,U
 0000C555 E946                              ADCB  6,U
 0000C557 A947                              ADCA  7,U
 0000C559 ED46                              STD   6,U
 0000C55B 3344                              LEAU  4,U
 0000C55D 7EC06C                    JMP NEXT
                      ;
                      ;                                       MINUS
                      ;                                       SCREEN 29 LINE 9
                      ;
 0000C560 854D494E55D3    L670      FCB $85,"MINU",$D3
 0000C566 0000C542                  FCDW L649     ; link to D+
 0000C56A 0000C56E        MINUS     FCDW *+4
 0000C56E EC42                              LDD   2,U
 0000C570 88FF                              EORA  #$FF
 0000C572 C8FF                              EORB  #$FF
 0000C574 ED42                              STD   2,U
 0000C576 ECC4                              LDD   ,U
 0000C578 88FF                              EORA  #$FF
 0000C57A C8FF                              EORB  #$FF
 0000C57C EDC4                              STD   ,U
 0000C57E EC42                              LDD   2,U
 0000C580 C30001                            ADDD  #1
 0000C583 ED42                              STD   2,U
 0000C585 ECC4                              LDD   ,U
 0000C587 C900                              ADCB  #0
 0000C589 8900                              ADCA  #0
 0000C58B EDC4                              STD   ,U
 0000C58D 7EC06C                    JMP NEXT
                      ;
                      ;                                       DMINUS
                      ;                                       SCREEN 29 LINE 12
                      ;
 0000C590 86444D494E55D3  L685      FCB   $86,"DMINU",$D3
 0000C597 0000C560                  FCDW L670     ; link to  MINUS
 0000C59B 0000C59F        DMINU     FCDW *+4
 0000C59F EC42                              LDD   2,U
 0000C5A1 88FF                              EORA  #$FF
 0000C5A3 C8FF                              EORB  #$FF
 0000C5A5 ED42                              STD   2,U
 0000C5A7 ECC4                              LDD   ,U
 0000C5A9 88FF                              EORA  #$FF
 0000C5AB C8FF                              EORB  #$FF
 0000C5AD EDC4                              STD   ,U
 0000C5AF EC42                              LDD   2,U
 0000C5B1 C30001                            ADDD  #1
 0000C5B4 ED42                              STD   2,U
 0000C5B6 ECC4                              LDD   ,U
 0000C5B8 C900                              ADCB  #0
 0000C5BA 8900                              ADCA  #0
 0000C5BC EDC4                              STD   ,U
 0000C5BE 7EC06C                    JMP NEXT
                      ;
                      ;                                       OVER
                      ;                                       SCREEN 30 LINE 1
                      ;
 0000C5C1 844F5645D2      L700      FCB $84,"OVE",$D2
 0000C5C6 0000C590                  FCDW L685     ; link to DMINUS
 0000C5CA 0000C5CE        OVER      FCDW *+4
 0000C5CE ECC4                              LDD   ,U
 0000C5D0 AE42                              LDX   2,U
 0000C5D2 3416                              PSHS  D,X
 0000C5D4 7EC06C                            JMP   NEXT
                      ;
                      ;                                       DROP
                      ;                                       SCREEN 30 LINE 4
                      ;
 0000C5D7 8444524FD0      L711      FCB $84,"DRO",$D0
 0000C5DC 0000C5C1                  FCDW L700     ; link to OVER
 0000C5E0 0000C295        DROP      FCDW POP
                      ;
                      ;                                       SWAP
                      ;                                       SCREEN 30 LINE 8
                      ;
 0000C5E4 84535741D0      L718      FCB $84,"SWA",$D0
 0000C5E9 0000C5D7                  FCDW L711     ; link to DROP
 0000C5ED 0000C5F1        SWAP      FCDW *+4
 0000C5F1 ECC4                              LDD   ,U
 0000C5F3 AE44                              LDX   4,U
 0000C5F5 ED44                              STD   4,U
 0000C5F7 AFC4                              STX   ,U
 0000C5F9 EC42                              LDD   2,U
 0000C5FB AE46                              LDX   6,U
 0000C5FD ED46                              STD   6,U
 0000C5FF AF42                              STX   2,U
 0000C601 7EC06C                    JMP   NEXT
                      ;
                      ;                                       DUP
                      ;                                       SCREEN 30 LINE 21
                      ;
 0000C604 834455D0        L733      FCB $83,"DU",$D0
 0000C608 0000C5E4                  FCDW  L718     ; link to SWAP
 0000C60C 0000C610        DUP       FCDW  *+4
 0000C610 3716                              PULU  D,X
 0000C612 3616                              PSHU  D,X
 0000C614 3616                              PSHU  D,X
 0000C616 7EC06C                            JMP   NEXT
                      ;
                      ;                                       +!
                      ;                                       SCREEN 31 LINE 2
                      ;
 0000C619 822BA1          L744      FCB $82,'+',$A1
 0000C61C 0000C604                  FCDW L733     ; link to DUP
 0000C620 0000C624        PSTOR     FCDW *+4
 0000C624 109FBC                            STY   YSAVE
 0000C627 3716                          PULU      D,X              ; get address of value
 0000C629 FD0000                            STD   TMP              ; store in TMP pointer
*** Error 3: Undefined label
 0000C62C BF0002                            STX   TMP+2
*** Error 3: Undefined label
 0000C62F 108E0002                          LDY   #2
 0000C633 15ECA90000                        LDD   FAR (TMP),Y      ; add second on stack to
*** Error 3: Undefined label
 0000C638 E342                              ADDD  2,U              ; value
 0000C63A ED42                              STD   2,U
 0000C63C 15FC00000000                      LDD   FAR (TMP)
*** Error 3: Undefined label
 0000C642 E941                              ADCB  1,U
 0000C644 A9C4                              ADCA  ,U
 0000C646 EDC4                              STD   ,U
 0000C648 109EBC                            LDY   YSAVE
 0000C64B 7EC06C                            JMP   NEXT
                      ;
                      ;                                       TOGGLE
                      ;                                       SCREEN 31 LINE 7
                      ;
 0000C64E 8154            L762      FCB $81,'TOGGL',$C5
*** Error 2: Illegal addressing mode
 0000C650 0000C619                  FCDW  L744     ; link to +!
 0000C654 0000C658        TOGGL     FCDW  *+4
 0000C658 15A644                    LDA   FAR (4,U)  ; complement bits in memory address
*** Error 1: Error in expression
*** Error 2: Illegal addressing mode
 0000C65B B80000                    EOR   3,U        ; second on stack, by pattern on
*** Error 1: Error in expression
*** Error 3: Undefined label
 0000C65E 15A744                    STA   FAR (4,U)  ; bottom of stack.
*** Error 1: Error in expression
*** Error 2: Illegal addressing mode
 0000C661 3348                              LEAU  8,U
 0000C663 7EC06C                    JMP   NEXT
                      ;
                      ;                                       @
                      ;                                       SCREEN 32 LINE 1
                      ;
 0000C666 81C0            L773      FCB $81,$C0
 0000C668 0000C64E                  FCDW L762     ; link to TOGGLE
 0000C66C 0000C670        AT        FCDW *+4
 0000C670 15ECC4                    LDD   FAR (0,U)
*** Error 1: Error in expression
*** Error 2: Illegal addressing mode
 0000C673 3406                      PSHS  D
 0000C675 EC42                              LDD   2,U
 0000C677 C30002                            ADDD  #2
 0000C67A ED42                              STD   2,U
 0000C67C ECC4                              LDD   ,U
 0000C67E C900                              ADCB  #0
 0000C680 8900                              ADCA  #0
 0000C682 EDC4                              STD   ,U
 0000C684 15ECC4                        LDD       FAR (0,U)
*** Error 1: Error in expression
*** Error 2: Illegal addressing mode
 0000C687 7EC066                    JMP   PUT
                      ;
                      ;                                       C@
                      ;                                       SCREEN 32 LINE 5
                      ;
 0000C68A 8243C0          L787      FCB $82,"C",$C0
 0000C68D 0000C666                  FCDW  L773            ; link to @
 0000C691 0000C695        CAT       FCDW  *+4
 0000C695 15E6C4                    LDB   FAR (0,U)       ; fetch byte addressed by bottom of
*** Error 1: Error in expression
*** Error 2: Illegal addressing mode
 0000C698 4F                                CLRA
 0000C699 ED42                      STD   2,U                     ; stack to stack, zeroing the high
 0000C69B 5F                                CLRB
 0000C69C EDC4                      STD   ,U                      ; byte
 0000C69E 7EC06C                    JMP   NEXT
                      ;
                      ;                                       W@
                      ;                                       SCREEN 32 LINE 1
                      ;
 0000C6A1 8257C0          L790      FCB $82,"W",$C0
 0000C6A4 0000C68A                  FCDW  L787     ; link to C@
 0000C6A8 0000C6AC        WAT       FCDW  *+4
 0000C6AC 15ECC4                    LDD   FAR (0,U)
*** Error 1: Error in expression
*** Error 2: Illegal addressing mode
 0000C6AF ED42                      STD   2,U                     ; stack to stack, zeroing the high
 0000C6B1 4F5F                              CLRD
 0000C6B3 EDC4                      STD   ,U                      ; byte
 0000C6B5 7EC06C                    JMP   NEXT
                      ;
                      ;                                       !
                      ;                                       SCREEN 32 LINE 8
                      ;
 0000C6B8 81A1            L798      FCB $81,$A1
 0000C6BA 0000C6A1                  FCDW  L790     ; link to W@
 0000C6BE 0000C6C2        STORE     FCDW  *+4
 0000C6C2 EC44                      LDD   4,U
 0000C6C4 15EDC4                    STD   FAR (0,U); store second high 16 bits of 32bit value on stack
*** Error 1: Error in expression
*** Error 2: Illegal addressing mode
                                               ; to memory as addressed by bottom
                                              ; of stack.
 0000C6C7 EC42                              LDD   2,U
 0000C6C9 C30002                            ADDD  #2
 0000C6CC ED42                              STD   2,U
 0000C6CE ECC4                              LDD   ,U
 0000C6D0 C900                              ADCB  #0
 0000C6D2 8900                              ADCA  #0
 0000C6D4 EDC4                              STD   ,U
 0000C6D6 EC46                              LDD   6,U
 0000C6D8 15EDC4                    STD   FAR (0,U); store second low 16 bits of 32bit value on stack
*** Error 1: Error in expression
*** Error 2: Illegal addressing mode
                                               ; to memory as addressed by bottom
                                              ; of stack.
 0000C6DB 7EC290                    JMP POPTWO
                      ;
                      ;                                       C!
                      ;                                       SCREEN 32 LINE 12
                      ;
 0000C6DE 8243A1          L813      FCB $82,"C",$A1
 0000C6E1 0000C6B8                  FCDW L798     ; link to !
 0000C6E5 0000C6E9        CSTOR     FCDW *+4
 0000C6E9 A647                      LDA   7,U
 0000C6EB 15A7C4                    STA   FAR (0,U)
*** Error 1: Error in expression
*** Error 2: Illegal addressing mode
 0000C6EE 7EC290                    JMP   POPTWO
                      ;
                      ;                                       W!
                      ;                                       SCREEN 32 LINE 12
                      ;
 0000C6F1 8257A1          L815      FCB $82,"W",$A1
 0000C6F4 0000C6DE                  FCDW L813     ; link to C!
 0000C6F8 0000C6FC        WSTOR     FCDW *+4
 0000C6FC EC46                      LDD   6,U
 0000C6FE 15EDC4                    STD   FAR (0,U)
*** Error 1: Error in expression
*** Error 2: Illegal addressing mode
 0000C701 7EC290                    JMP   POPTWO
                      ;
                      ;                                       :
                      ;                                       SCREEN 33 LINE 2
                      ;
 0000C704 C1BA            L823      FCB $C1,$BA
 0000C706 0000C6F1                  FCDW L815     ; link to W!
 0000C70A 0000C732        COLON     FCDW  DOCOL
 0000C70E 0000CCB3                  FCDW  QEXEC
 0000C712 0000CC3F                  FCDW  SCSP
 0000C716 0000C979                  FCDW  CURR
 0000C71A 0000C66C                  FCDW  AT
 0000C71E 0000C968                  FCDW  CON
*** Error 1: Error in expression
 0000C722 0000C6BE                  FCDW  STORE
 0000C726 00000000                  FCDW  CREAT
*** Error 3: Undefined label
 0000C72A 0000CD90                  FCDW  RBRAC
 0000C72E 0000CE0F                  FCDW  PSCOD
                      ;
 0000C732 DCB0            DOCOL     LDD   IP+2
 0000C734 9EAE                              LDX   IP
 0000C736 3416                              PSHS  D,X
 0000C738 BDC144                    JSR   TCOLON     ; mark the start of a traced : def.
 0000C73B DCB4                              LDD   W+2
 0000C73D C30004                            ADDD  #4
 0000C740 DDB0                              STD   IP+2
 0000C742 DCB2                              LDD   W
 0000C744 C900                              ADCB  #0
 0000C746 8900                              ADCA  #0
 0000C748 DDAE                              STD   IP
 0000C74A 7EC06C                    JMP   NEXT
                      ;
                      ;                                       ;
                      ;                                       SCREEN 33 LINE 9
                      ;
 0000C74D C1BB            L853      FCB $C1,$BB
 0000C74F 0000C704                  FCDW  L823     ; link to :
 0000C753 0000C732                  FCDW  DOCOL
 0000C757 0000CCF5                  FCDW  QCSP
 0000C75B 0000CD4C                  FCDW  COMP
 0000C75F 0000C475                  FCDW  SEMIS
 0000C763 0000CDB0                  FCDW  SMUDG
 0000C767 0000CD76                  FCDW  LBRAC
 0000C76B 0000C475                  FCDW  SEMIS
                      ;
                      ;                                       CONSTANT
                      ;                                       SCREEN 34 LINE 1
                      ;
 0000C76F 88434F4E535441  L867      FCB $88,"CONSTAN",$D4
 0000C776 4ED4
 0000C778 0000C74D                  FCDW L853     ; link to ;
 0000C77C 0000C732        CONST     FCDW DOCOL
 0000C780 00000000                  FCDW CREAT
*** Error 3: Undefined label
 0000C784 0000CDB0                  FCDW SMUDG
 0000C788 0000CA42                  FCDW COMMA
 0000C78C 0000CE0F                  FCDW PSCOD
                      ;
 0000C790 108E0004        DOCON     LDY   #4
 0000C794 15ECA900B2                LDD   FAR (W),Y
 0000C799 3406                      PSHS  D
 0000C79B 3122                      LEAY  2,Y
 0000C79D 15ECA900B2                LDD   FAR (W),Y
 0000C7A2 7EC064                    JMP   PUSH
                      ;
                      ;                                       VARIABLE
                      ;                                       SCREEN 34 LINE 5
                      ;
 0000C7A5 88564152494142  L885      FCB $88,"VARIABL",$C5
 0000C7AC 4CC5
 0000C7AE 0000C76F                  FCDW L867     ; link to CONSTANT
 0000C7B2 0000C732        VAR       FCDW DOCOL
 0000C7B6 0000C77C                  FCDW CONST
 0000C7BA 0000CE0F                  FCDW PSCOD
                      ;
 0000C7BE DCB4            DOVAR     LDD   W+2
 0000C7C0 C30004                    ADDD  #4
 0000C7C3 1E01                              EXG   D,X
 0000C7C5 DCB2                              LDD   W
 0000C7C7 C900                              ADCB  #0
 0000C7C9 8900                              ADCA  #0
 0000C7CB 3406                              PSHS  D
 0000C7CD 1E01                              EXG   D,X
 0000C7CF 7EC064                    JMP   PUSH
                      ;
                      ;                                       USER
                      ;                                       SCREEN 34 LINE 10
                      ;
 0000C7D2 84555345D2      L902      FCB $84,"USE",$D2
 0000C7D7 0000C7A5                  FCDW L885     ; link to VARIABLE
 0000C7DB 0000C732        USER      FCDW DOCOL
 0000C7DF 0000C77C                  FCDW CONST
 0000C7E3 0000CE0F                  FCDW PSCOD
                      ;
 0000C7E7 108E0004        DOUSE     LDY   #4
 0000C7EB 4F                                CLRA
 0000C7EC 15E6A900B2                LDB   FAR (W),Y
 0000C7F1 D3B8                      ADDD  UP+2
 0000C7F3 1E01                              EXG   D,X
 0000C7F5 4F5F                              CLRD
 0000C7F7 D3B6                              ADDD  UP
 0000C7F9 3406                              PSHS  D
 0000C7FB 1E01                              EXG   D,X
 0000C7FD 7EC064                            JMP   PUSH
                      ;
                      ;                                       0
                      ;                                       SCREEN 35 LINE 2
                      ;
 0000C800 81B0            L920      FCB $81,$B0
 0000C802 0000C7D2                  FCDW L902     ; link to USER
 0000C806 0000C790        ZERO      FCDW DOCON
 0000C80A 00000000                  FCDW 0
                      ;
                      ;                                       1
                      ;                                       SCREEN 35 LINE 2
                      ;
 0000C80E 81B1            L928      FCB $81,$B1
 0000C810 0000C800                  FCDW L920     ; link to 0
 0000C814 0000C790        ONE       FCDW DOCON
 0000C818 00000001                  FCDW 1
                      ;
                      ;                                       2
                      ;                                       SCREEN 35 LINE 3
                      ;
 0000C81C 81B2            L936      FCB $81,$B2
 0000C81E 0000C80E                  FCDW L928     ; link to 1
 0000C822 0000C790        TWO       FCDW DOCON
 0000C826 00000002                  FCDW 2
                      ;
                      ;                                       3
                      ;                                       SCREEN 35 LINE 3
                      ;
 0000C82A 81B3            L944      FCB $81,$B3
 0000C82C 0000C81C                  FCDW L936     ; link to 2
 0000C830 0000C790        THREE     FCDW DOCON
 0000C834 00000003                  FCDW 3
                      ;
                      ;                                       BL
                      ;                                       SCREEN 35 LINE 4
                      ;
 0000C838 8242CC          L952      FCB $82,"B",$CC
 0000C83B 0000C82A                  FCDW L944     ; link to 3
 0000C83F 0000C790        BL        FCDW DOCON
 0000C843 00000020                  FCDW $20
                      ;
                      ;                                       C/L
                      ;                                       SCREEN 35 LINE 5
                      ;                                       Characters per line
 0000C847 83432FCC        L960      FCB $83,"C/",$CC
 0000C84B 0000C838                  FCDW L952     ; link to BL
 0000C84F 0000C790        CSLL      FCDW DOCON
 0000C853 00000054                  FCDW 84                                               ; was 64
                      ;
                      ;                                       FIRST
                      ;                                       SCREEN 35 LINE 7
                      ;
 0000C857 8546495253D4    L968      FCB $85,"FIRS",$D4
 0000C85D 0000C847                  FCDW L960     ; link to C/L
 0000C861 0000C790        FIRST     FCDW DOCON
 0000C865 0000BF00                  FCDW DAREA    ; bottom of disk buffer area
                      ;
                      ;                                       LIMIT
                      ;                                       SCREEN 35 LINE 8
                      ;
 0000C869 854C494D49D4    L976      FCB $85,"LIMI",$D4
 0000C86F 0000C857                  FCDW L968     ; link to FIRST
 0000C873 0000C790        LIMIT     FCDW DOCON
 0000C877 0000BF00                  FCDW UAREA    ; buffers end at user area
                      ;
                      ;                                       B/BUF
                      ;                                       SCREEN 35 LINE 9
                      ;                                       Bytes per Buffer
                      ;
 0000C87B 85422F4255C6    L984      FCB $85,"B/BU",$C6
 0000C881 0000C869                  FCDW L976     ; link to LIMIT
 0000C885 0000C790        BBUF      FCDW DOCON
 0000C889 00000000                  FCDW SSIZE    ; sector size
                      ;
                      ;                                       B/SCR
                      ;                                       SCREEN 35 LINE 10
                      ;                                       Blocks per screen
                      ;
 0000C88D 85422F5343D2    L992      FCB $85,"B/SC",$D2
 0000C893 0000C87B                  FCDW L984     ; link to B/BUF
 0000C897 0000C790        BSCR      FCDW DOCON
 0000C89B 00000008                  FCDW 8        ; blocks to make one screen
 
 
 
 
 
                      ;
                      ;                                       +ORIGIN
                      ;                                       SCREEN 35 LINE 12
                      ;
 0000C89F 872B4F52494749  L1000     FCB $87,"+ORIGI",$CE
 0000C8A6 CE
 0000C8A7 0000C88D                  FCDW L992     ; link to B/SCR
 0000C8AB 0000C732        PORIG     FCDW DOCOL
 0000C8AF 0000C0520000C0            FCDW LIT,ORIG
 0000C8B6 00
 0000C8B7 0000C52B                  FCDW PLUS
 0000C8BB 0000C475                  FCDW SEMIS
                      ;
                      ;                                       TIB
                      ;                                       SCREEN 36 LINE 4
                      ;
 0000C8BF 835449C2        L1010     FCB $83,"TI",$C2
 0000C8C3 0000C89F                  FCDW L1000    ; link to +ORIGIN
 0000C8C7 0000C7E7        TIB       FCDW DOUSE
 0000C8CB 0A                        FCB $A
                      ;
                      ;                                       WIDTH
                      ;                                       SCREEN 36 LINE 5
                      ;
 0000C8CC 8557494454C8    L1018     FCB $85,"WIDT",$C8
 0000C8D2 0000C8BF                  FCDW L1010    ; link to TIB
 0000C8D6 0000C7E7        WIDTH     FCDW DOUSE
 0000C8DA 0C                        FCB $C
                      ;
                      ;                                       WARNING
                      ;                                       SCREEN 36 LINE 6
                      ;
 0000C8DB 875741524E494E  L1026     FCB $87,"WARNIN",$C7
 0000C8E2 C7
 0000C8E3 0000C8CC                  FCDW L1018    ; link to WIDTH
 0000C8E7 0000C7E7        WARN      FCDW DOUSE
 0000C8EB 0E                        FCB $E
                      ;
                      ;                                       FENCE
                      ;                                       SCREEN 36 LINE 7
                      ;
 0000C8EC 8546454E43C5    L1034     FCB $85,"FENC",$C5
 0000C8F2 0000C8DB                  FCDW L1026    ; link to WARNING
 0000C8F6 0000C7E7        FENCE     FCDW DOUSE
 0000C8FA 10                        FCB $10
                      ;
                      ;
                      ;                                       DP
                      ;                                       SCREEN 36 LINE 8
                      ;
 0000C8FB 8244D0          L1042     FCB $82,"D",$D0
 0000C8FE 0000C8EC                  FCDW L1034    ; link to FENCE
 0000C902 0000C7E7        DP        FCDW DOUSE
 0000C906 12                        FCB $12
                      ;
                      ;                                       VOC-LINK
                      ;                                       SCREEN 36 LINE 9
                      ;
 0000C907 88564F432D4C49  L1050     FCB $88,"VOC-LIN",$CB
 0000C90E 4ECB
 0000C910 0000C8FB                  FCDW L1042    ; link to DP
 0000C914 0000C7E7        VOCL      FCDW DOUSE
 0000C918 14                        FCB $14
                      ;
                      ;                                       BLK
                      ;                                       SCREEN 36 LINE 10
                      ;
 0000C919 83424CCB        L1058     FCB $83,"BL",$CB
 0000C91D 0000C907                  FCDW L1050    ; link to VOC-LINK
 0000C921 0000C7E7        BLK       FCDW DOUSE
 0000C925 16                        FCB $16
                      ;
                      ;                                       IN
                      ;                                       SCREEN 36 LINE 11
                      ;
 0000C926 8249CE          L1066     FCB $82,"I",$CE
 0000C929 0000C919                  FCDW L1058    ; link to BLK
 0000C92D 0000C7E7        IN        FCDW DOUSE
 0000C931 18                        FCB $18
                      ;
                      ;                                       OUT
                      ;                                       SCREEN 36 LINE 12
                      ;
 0000C932 834F55D4        L1074     FCB $83,"OU",$D4
 0000C936 0000C926                  FCDW L1066    ; link to IN
 0000C93A 0000C7E7        OUT       FCDW DOUSE
 0000C93E 1A                        FCB $1A
                      ;
                      ;                                       SCR
                      ;                                       SCREEN 36 LINE 13
                      ;
 0000C93F 835343D2        L1082     FCB $83,"SC",$D2
 0000C943 0000C932                  FCDW L1074    ; link to OUT
 0000C947 0000C7E7        SCR       FCDW DOUSE
 0000C94B 1C                        FCB $1C
                      ;
                      ;                                       OFFSET
                      ;                                       SCREEN 37 LINE 1
                      ;
 0000C94C 864F46465345D4  L1090     FCB $86,"OFFSE",$D4
 0000C953 0000C93F                  FCDW L1082    ; link to SCR
 0000C957 0000C7E7        OFSET     FCDW DOUSE
 0000C95B 1E                        FCB $1E
                      ;
                      ;                                       CONTEXT
                      ;                                       SCREEN 37 LINE 2
                      ;
 0000C95C 87434F4E544558  L1098     FCB $87,"CONTEX",$D4
 0000C963 D4
 0000C964 0000C94C                  FCDW L1090    ; link to OFFSET
 0000C968 0000C7E7        CON       FCDW DOUSE
*** Error 4: Multiple definitions of label
 0000C96C 20                        FCB $20
                      ;
                      ;                                       CURRENT
                      ;                                       SCREEN 37 LINE 3
                      ;
 0000C96D 8743555252454E  L1106     FCB $87,"CURREN",$D4
 0000C974 D4
 0000C975 0000C95C                  FCDW L1098    ; link to CONTEXT
 0000C979 0000C7E7        CURR      FCDW DOUSE
 0000C97D 22                        FCB $22
                      ;
                      ;                                       STATE
                      ;                                       SCREEN 37 LINE 4
                      ;
 0000C97E 8553544154C5    L1114     FCB $85,"STAT",$C5
 0000C984 0000C96D                  FCDW L1106    ; link to CURRENT
 0000C988 0000C7E7        STATE     FCDW DOUSE
 0000C98C 24                        FCB $24
                      ;
                      ;                                       BASE
                      ;                                       SCREEN 37 LINE 5
                      ;
 0000C98D 84424153C5      L1122     FCB $84,"BAS",$C5
 0000C992 0000C97E                  FCDW L1114    ; link to STATE
 0000C996 0000C7E7        BASE      FCDW DOUSE
 0000C99A 26                        FCB $26
                      ;
                      ;                                       DPL
                      ;                                       SCREEN 37 LINE 6
                      ;
 0000C99B 834450CC        L1130     FCB $83,"DP",$CC
 0000C99F 0000C98D                  FCDW L1122    ; link to BASE
 0000C9A3 0000C7E7        DPL       FCDW DOUSE
 0000C9A7 28                        FCB $28
                      ;
                      ;                                       FLD
                      ;                                       SCREEN 37 LINE 7
                      ;
 0000C9A8 83464CC4        L1138     FCB $83,"FL",$C4
 0000C9AC 0000C99B                  FCDW L1130    ; link to DPL
 0000C9B0 0000C7E7        FLD       FCDW DOUSE
 0000C9B4 2A                        FCB $2A
                      ;
                      ;
                      ;
                      ;                                       CSP
                      ;                                       SCREEN 37 LINE 8
                      ;
 0000C9B5 834353D0        L1146     FCB $83,"CS",$D0
 0000C9B9 0000C9A8                  FCDW L1138    ; link to FLD
 0000C9BD 0000C7E7        CSP       FCDW DOUSE
 0000C9C1 2C                        FCB $2C
                      ;
                      ;                                       R#
                      ;                                       SCREEN 37  LINE 9
                      ;
 0000C9C2 8252A3          L1154     FCB $82,"R",$A3
 0000C9C5 0000C9B5                  FCDW L1146    ; link to CSP
 0000C9C9 0000C7E7        RNUM      FCDW DOUSE
 0000C9CD 2E                        FCB $2E
                      ;
                      ;                                       HLD
                      ;                                       SCREEN 37 LINE 10
                      ;
 0000C9CE 83484CC4        L1162     FCB $83,"HL",$C4
 0000C9D2 0000C9C2                  FCDW L1154    ; link to R#
 0000C9D6 0000C7E7        HLD       FCDW DOUSE
 0000C9DA 30                        FCB $30
                      ;
                      ;                                       1+
                      ;                                       SCREEN 38 LINE  1
                      ;
 0000C9DB 8231AB          L1170     FCB $82,"1",$AB
 0000C9DE 0000C9CE                  FCDW L1162    ; link to HLD
 0000C9E2 0000C732        ONEP      FCDW DOCOL
 0000C9E6 0000C814                  FCDW ONE
 0000C9EA 0000C52B                  FCDW PLUS
 0000C9EE 0000C475                  FCDW SEMIS
                      ;
                      ;                                       2+
                      ;                                       SCREEN 38 LINE 2
                      ;
 0000C9F2 8232AB          L1180     FCB $82,"2",$AB
 0000C9F5 0000C9DB                  FCDW L1170    ; link to 1+
 0000C9F9 0000C732        TWOP      FCDW DOCOL
 0000C9FD 0000C822                  FCDW TWO
 0000CA01 0000C52B                  FCDW PLUS
 0000CA05 0000C475                  FCDW SEMIS
                      ;
                      ;                                       HERE
                      ;                                       SCREEN 38 LINE 3
                      ;
 0000CA09 84484552C5      L1190     FCB $84,"HER",$C5
 0000CA0E 0000C9F2                  FCDW L1180    ; link to 2+
 0000CA12 0000C732        HERE      FCDW DOCOL
 0000CA16 0000C902                  FCDW DP
 0000CA1A 0000C66C                  FCDW AT
 0000CA1E 0000C475                  FCDW SEMIS
                      ;
                      ;                                       ALLOT
                      ;                                       SCREEN 38 LINE 4
                      ;
 0000CA22 85414C4C4FD4    L1200     FCB $85,"ALLO",$D4
 0000CA28 0000CA09                  FCDW L1190    ; link to HERE
 0000CA2C 0000C732        ALLOT     FCDW DOCOL
 0000CA30 0000C902                  FCDW DP
 0000CA34 0000C620                  FCDW PSTOR
 0000CA38 0000C475                  FCDW SEMIS
                      ;
                      ;                                       ,
                      ;                                       SCREEN 38 LINE 5
                      ;
 0000CA3C 81AC            L1210     FCB $81,$AC
 0000CA3E 0000CA22                  FCDW L1200    ; link to ALLOT
 0000CA42 0000C732        COMMA     FCDW DOCOL
 0000CA46 0000CA12                  FCDW HERE
 0000CA4A 0000C6BE                  FCDW STORE
 0000CA4E 0000C822                  FCDW TWO
 0000CA52 0000CA2C                  FCDW ALLOT
 0000CA56 0000C475                  FCDW SEMIS
                      ;
                      ;                                       C,
                      ;                                       SCREEN 38 LINE 6
                      ;
 0000CA5A 8243AC          L1222     FCB $82,"C",$AC
 0000CA5D 0000CA3C                  FCDW L1210    ; link to ,
 0000CA61 0000C732        CCOMM     FCDW DOCOL
 0000CA65 0000CA12                  FCDW HERE
 0000CA69 0000C6E5                  FCDW CSTOR
 0000CA6D 0000C814                  FCDW ONE
 0000CA71 0000CA2C                  FCDW ALLOT
 0000CA75 0000C475                  FCDW SEMIS
                      ;
                      ;                                       -
                      ;                                       SCREEN 38 LINE 7
                      ;
 0000CA79 81AD            L1234     FCB $81,$AD
 0000CA7B 0000CA5A                  FCDW L1222    ; link to C,
 0000CA7F 0000C732        SUB       FCDW DOCOL
 0000CA83 0000C56A                  FCDW MINUS
 0000CA87 0000C52B                  FCDW PLUS
 0000CA8B 0000C475                  FCDW SEMIS
                      ;
                      ;                                       =
                      ;                                       SCREEN 38 LINE 8
                      ;
 0000CA8F 81BD            L1244     FCB $81,$BD
 0000CA91 0000CA79                  FCDW L1234    ; link to -
 0000CA95 0000C732        EQUAL     FCDW DOCOL
 0000CA99 0000CA7F                  FCDW SUB
 0000CA9D 0000C4E7                  FCDW ZEQU
 0000CAA1 0000C475                  FCDW SEMIS
                      ;
                      ;                                       U<
                      ;                                       Unsigned less than
                      ;
 0000CAA5 8255BC          L1246     FCB $82,'U',$BC
 0000CAA8 0000CA8F                  FCDW L1244    ; link to =
 0000CAAC 0000C732        ULESS     FCDW DOCOL
 0000CAB0 0000CA7F                  FCDW SUB      ; subtract two values
 0000CAB4 0000C50B                  FCDW ZLESS    ; test sign
 0000CAB8 0000C475                  FCDW SEMIS
                      ;                                       <
                      ;                                       Altered from model
                      ;                                       SCREEN 38 LINE 9
                      ;
 0000CABC 81BC            L1254     FCB $81,$BC
 0000CABE 0000CAA5                  FCDW  L1246    ; link to U<
 0000CAC2 0000CAC6        LESS      FCDW  *+4
 0000CAC6 EC46                              LDD   6,U
 0000CAC8 A342                              SUBD  2,U
 0000CACA EC44                              LDD   4,U
 0000CACC E241                              SBCB  1,U
 0000CACE A2C4                              SBCA  0,U
 0000CAD0 2802                              BVC   L1258
 0000CAD2 8880                              EORA  #$80
 0000CAD4 2A0E            L1258     BPL   L1260
 0000CAD6 CC0001                            LDD   #1
 0000CAD9 ED46                              STD   6,U
 0000CADB 6F44                              CLR   4,U
 0000CADD 6F45                              CLR   5,U
 0000CADF 3344                              LEAU  4,U
 0000CAE1 7EC06C                            JMP   NEXT
 0000CAE4 4F5F            L1260     CLRD
 0000CAE6 ED44                              STD   4,U
 0000CAE8 ED46                              STD   6,U
 0000CAEA 3344                              LEAU  4,U
 0000CAEC 7EC06C                            JMP   NEXT
                      ;
                      ;                                       >
                      ;                                       SCREEN 38 LINE 10
 0000CAEF 81BE            L1264     FCB $81,$BE
 0000CAF1 0000CABC                  FCDW L1254    ; link to <
 0000CAF5 0000C732        GREAT     FCDW DOCOL
 0000CAF9 0000C5ED                  FCDW SWAP
 0000CAFD 0000CAC2                  FCDW LESS
 0000CB01 0000C475                  FCDW SEMIS
                      ;
                      ;                                       ROT
                      ;                                       SCREEN 38 LINE 11
                      ;
 0000CB05 8352            L1274     FCB $83,'RO',$D4
*** Error 2: Illegal addressing mode
 0000CB07 0000CAEF                  FCDW L1264    ; link to >
 0000CB0B 0000C732        ROT       FCDW DOCOL
 0000CB0F 0000C4B0                  FCDW TOR
 0000CB13 0000C5ED                  FCDW SWAP
 0000CB17 0000C4C2                  FCDW RFROM
 0000CB1B 0000C5ED                  FCDW SWAP
 0000CB1F 0000C475                  FCDW SEMIS
                      ;
                      ;                                       SPACE
                      ;                                       SCREEN 38 LINE 12
                      ;
 0000CB23 8553504143C5    L1286     FCB $85,"SPAC",$C5
 0000CB29 0000CB05                  FCDW L1274    ; link to ROT
 0000CB2D 0000C732        SPACE     FCDW DOCOL
 0000CB31 0000C83F                  FCDW BL
 0000CB35 0000C3A8                  FCDW EMIT
 0000CB39 0000C475                  FCDW SEMIS
                      ;
                      ;                                       -DUP
                      ;                                       SCREEN 38 LINE 13
                      ;
 0000CB3D 842D4455D0      L1296     FCB $84,"-DU",$D0
 0000CB42 0000CB23                  FCDW L1286    ; link to SPACE
 0000CB46 0000C732        DDUP      FCDW DOCOL
 0000CB4A 0000C60C                  FCDW DUP
 0000CB4E 0000C21E                  FCDW ZBRAN
 0000CB52 00000008        L1301     FCDW $8       ; L1303-L1301
 0000CB56 0000C60C                  FCDW DUP
 0000CB5A 0000C475        L1303     FCDW SEMIS
                      ;
                      ;                                       TRAVERSE
                      ;                                       SCREEN 39 LINE 14
                      ;
 0000CB5E 88545241564552  L1308     FCB $88,"TRAVERS",$C5
 0000CB65 53C5
 0000CB67 0000CB3D                  FCDW L1296    ; link to -DUP
 0000CB6B 0000C732        TRAV      FCDW DOCOL
 0000CB6F 0000C5ED                  FCDW SWAP
 0000CB73 0000C5CA        L1312     FCDW OVER
 0000CB77 0000C52B                  FCDW PLUS
 0000CB7B 0000C0A8                  FCDW CLIT
 0000CB7F 7F                        FCB $7F
 0000CB80 0000C5CA                  FCDW OVER
 0000CB84 0000C691                  FCDW CAT
 0000CB88 0000CAC2                  FCDW LESS
 0000CB8C 0000C21E                  FCDW ZBRAN
 0000CB90 FFFFFFE2        L1320     FCDW $FFFFFFE2    ; L1312-L1320
 0000CB94 0000C5ED                  FCDW SWAP
 0000CB98 0000C5E0                  FCDW DROP
 0000CB9C 0000C475                  FCDW SEMIS
                      ;
                      ;                                       LATEST
                      ;                                       SCREEN 39 LINE 6
                      ;
 0000CBA0 864C41544553D4  L1328     FCB $86,"LATES",$D4
 0000CBA7 0000CB5E                  FCDW L1308    ; link to TRAVERSE
 0000CBAB 0000C732        LATES     FCDW DOCOL
 0000CBAF 0000C979                  FCDW CURR
 0000CBB3 0000C66C                  FCDW AT
 0000CBB7 0000C66C                  FCDW AT
 0000CBBB 0000C475                  FCDW SEMIS
                      ;
                      ;
                      ;                                       LFA
                      ;                                       SCREEN 39 LINE 11
                      ;
 0000CBBF 834C46C1        L1339     FCB $83,"LF",$C1
 0000CBC3 0000CBA0                  FCDW L1328    ; link to LATEST
 0000CBC7 0000C732        LFA       FCDW DOCOL
 0000CBCB 0000C0A8                  FCDW CLIT
 0000CBCF 04                        FCB 4
 0000CBD0 0000CA7F                  FCDW SUB
 0000CBD4 0000C475                  FCDW SEMIS
                      ;
                      ;                                       CFA
                      ;                                       SCREEN 39 LINE 12
                      ;
 0000CBD8 834346C1        L1350     FCB $83,"CF",$C1
 0000CBDC 0000CBBF                  FCDW L1339    ; link to LFA
 0000CBE0 0000C732        CFA       FCDW DOCOL
 0000CBE4 0000C822                  FCDW TWO
 0000CBE8 0000CA7F                  FCDW SUB
 0000CBEC 0000C475                  FCDW SEMIS
                      ;
                      ;                                       NFA
                      ;                                       SCREEN 39 LIINE 13
                      ;
 0000CBF0 834E46C1        L1360     FCB $83,"NF",$C1
 0000CBF4 0000CBD8                  FCDW L1350    ; link to CFA
 0000CBF8 0000C732        NFA       FCDW DOCOL
 0000CBFC 0000C0A8                  FCDW CLIT
 0000CC00 05                        FCB $5
 0000CC01 0000CA7F                  FCDW SUB
 0000CC05 0000C052FFFFFF            FCDW LIT,$FFFFFFFF
 0000CC0C FF
 0000CC0D 0000CB6B                  FCDW TRAV
 0000CC11 0000C475                  FCDW SEMIS
                      ;
                      ;                                       PFA
                      ;                                       SCREEN 39 LINE 14
                      ;
 0000CC15 835046C1        L1373     FCB $83,"PF",$C1
 0000CC19 0000CBF0                  FCDW L1360    ; link to NFA
 0000CC1D 0000C732        PFA       FCDW DOCOL
 0000CC21 0000C814                  FCDW ONE
 0000CC25 0000CB6B                  FCDW TRAV
 0000CC29 0000C0A8                  FCDW CLIT
 0000CC2D 05                        FCB 5
 0000CC2E 0000C52B                  FCDW PLUS
 0000CC32 0000C475                  FCDW SEMIS
                      ;
                      ;                                       !CSP
                      ;                                       SCREEN 40 LINE 1
                      ;
 0000CC36 84214353D0      L1386     FCB $84,"!CS",$D0
 0000CC3B 0000CC15                  FCDW L1373    ; link to PFA
 0000CC3F 0000C732        SCSP      FCDW DOCOL
 0000CC43 0000C430                  FCDW SPAT
 0000CC47 0000C9BD                  FCDW CSP
 0000CC4B 0000C6BE                  FCDW STORE
 0000CC4F 0000C475                  FCDW SEMIS
                      ;
                      ;                                       ?ERROR
                      ;                                       SCREEN 40 LINE 3
                      ;
 0000CC53 863F4552524FD2  L1397     FCB $86,"?ERRO",$D2
 0000CC5A 0000CC36                  FCDW L1386    ; link to !CSP
 0000CC5E 0000C732        QERR      FCDW DOCOL
 0000CC62 0000C5ED                  FCDW SWAP
 0000CC66 0000C21E                  FCDW ZBRAN
 0000CC6A 00000010        L1402     FCDW 16        ; L1406-L1402
 0000CC6E 00000000                  FCDW ERROR
*** Error 3: Undefined label
 0000CC72 0000C1E8                  FCDW BRAN
 0000CC76 00000008        L1405     FCDW 8        ; L1407-L1405
 0000CC7A 0000C5E0        L1406     FCDW DROP
 0000CC7E 0000C475        L1407     FCDW SEMIS
                      ;
                      ;                                       ?COMP
                      ;                                       SCREEN 40 LINE 6
                      ;
 0000CC82 853F434F4DD0    L1412     FCB $85,"?COM",$D0
 0000CC88 0000CC53                  FCDW L1397    ; link to ?ERROR
 0000CC8C 0000C732        QCOMP     FCDW DOCOL
 0000CC90 0000C988                  FCDW STATE
 0000CC94 0000C66C                  FCDW AT
 0000CC98 0000C4E7                  FCDW ZEQU
 0000CC9C 0000C0A8                  FCDW CLIT
 0000CCA0 11                        FCB $11
 0000CCA1 0000CC5E                  FCDW QERR
 0000CCA5 0000C475                  FCDW SEMIS
                      ;
                      ;                                       ?EXEC
                      ;                                       SCREEN 40 LINE 8
                      ;
 0000CCA9 853F455845C3    L1426    FCB $85,"?EXE",$C3
 0000CCAF 0000CC82                  FCDW L1412    ; link to ?COMP
 0000CCB3 0000C732        QEXEC     FCDW DOCOL
 0000CCB7 0000C988                  FCDW STATE
 0000CCBB 0000C66C                  FCDW AT
 0000CCBF 0000C0A8                  FCDW CLIT
 0000CCC3 12                        FCB $12
 0000CCC4 0000CC5E                  FCDW QERR
 0000CCC8 0000C475                  FCDW SEMIS
                      ;
                      ;                                       ?PAIRS
                      ;                                       SCREEN 40 LINE 10
                      ;
 0000CCCC 863F50414952D3  L1439     FCB $86,"?PAIR",$D3
 0000CCD3 0000CCA9                  FCDW L1426    ; link to ?EXEC
 0000CCD7 0000C732        QPAIR     FCDW DOCOL
 0000CCDB 0000CA7F                  FCDW SUB
 0000CCDF 0000C0A8                  FCDW CLIT
 0000CCE3 13                        FCB $13
 0000CCE4 0000CC5E                  FCDW QERR
 0000CCE8 0000C475                  FCDW SEMIS
                      ;
                      ;                                       ?CSP
                      ;                                       SCREEN 40 LINE 12
                      ;
 0000CCEC 843F4353D0      L1451     FCB $84,"?CS",$D0
 0000CCF1 0000CCCC                  FCDW L1439    ; link to ?PAIRS
 0000CCF5 0000C732        QCSP      FCDW DOCOL
 0000CCF9 0000C430                  FCDW SPAT
 0000CCFD 0000C9BD                  FCDW CSP
 0000CD01 0000C66C                  FCDW AT
 0000CD05 0000CA7F                  FCDW SUB
 0000CD09 0000C0A8                  FCDW CLIT
 0000CD0D 14                        FCB $14
 0000CD0E 0000CC5E                  FCDW QERR
 0000CD12 0000C475                  FCDW SEMIS
                      ;
                      ;                                       ?LOADING
                      ;                                       SCREEN 40 LINE 14
                      ;
 0000CD16 883F4C4F414449  L1466     FCB $88,"?LOADIN",$C7
 0000CD1D 4EC7
 0000CD1F 0000CCEC                  FCDW L1451    ; link to ?CSP
 0000CD23 0000C732        QLOAD     FCDW DOCOL
 0000CD27 0000C921                  FCDW BLK
 0000CD2B 0000C66C                  FCDW AT
 0000CD2F 0000C4E7                  FCDW ZEQU
 0000CD33 0000C0A8                  FCDW CLIT
 0000CD37 16                        FCB $16
 0000CD38 0000CC5E                  FCDW QERR
 0000CD3C 0000C475                  FCDW SEMIS
                      ;
                      ;                                       COMPILE
                      ;                                       SCREEN 41 LINE 2
                      ;
 0000CD40 87434F4D50494C  L1480     FCB $87,"COMPIL",$C5
 0000CD47 C5
 0000CD48 0000CD16                  FCDW L1466    ; link to ?LOADING
 0000CD4C 0000C732        COMP      FCDW DOCOL
 0000CD50 0000CC8C                  FCDW QCOMP
 0000CD54 0000C4C2                  FCDW RFROM
 0000CD58 0000C60C                  FCDW DUP
 0000CD5C 0000C9F9                  FCDW TWOP
 0000CD60 0000C4B0                  FCDW TOR
 0000CD64 0000C66C                  FCDW AT
 0000CD68 0000CA42                  FCDW COMMA
 0000CD6C 0000C475                  FCDW SEMIS
                      ;
                      ;                                       [
                      ;                                       SCREEN 41 LINE 5
                      ;
 0000CD70 C1DB            L1495     FCB $C1,$DB
 0000CD72 0000CD40                  FCDW L1480    ; link to COMPILE
 0000CD76 0000C732        LBRAC     FCDW DOCOL
 0000CD7A 0000C806                  FCDW ZERO
 0000CD7E 0000C988                  FCDW STATE
 0000CD82 0000C6BE                  FCDW STORE
 0000CD86 0000C475                  FCDW SEMIS
                      ;
                      ;                                       ]
                      ;                                       SCREEN 41 LINE 7
                      ;
 0000CD8A 81DD            L1507     FCB $81,$DD
 0000CD8C 0000CD70                  FCDW L1495    ; link to [
 0000CD90 0000C732        RBRAC     FCDW DOCOL
 0000CD94 0000C0A8                  FCDW CLIT
 0000CD98 C0                        FCB $C0
 0000CD99 0000C988                  FCDW STATE
 0000CD9D 0000C6BE                  FCDW STORE
 0000CDA1 0000C475                  FCDW SEMIS
                      ;
                      ;                                       SMUDGE
                      ;                                       SCREEN 41 LINE 9
                      ;
 0000CDA5 86534D554447C5  L1519     FCB $86,"SMUDG",$C5
 0000CDAC 0000CD8A                  FCDW L1507    ; link to ]
 0000CDB0 0000C732        SMUDG     FCDW DOCOL
 0000CDB4 0000CBAB                  FCDW LATES
 0000CDB8 0000C0A8                  FCDW CLIT
 0000CDBC 20                        FCB $20
 0000CDBD 0000C654                  FCDW TOGGL
 0000CDC1 0000C475                  FCDW SEMIS
                      ;
                      ;                                       HEX
                      ;                                       SCREEN 41 LINE 11
                      ;
 0000CDC5 834845D8        L1531     FCB $83,"HE",$D8
 0000CDC9 0000CDA5                  FCDW L1519    ; link to SMUDGE
 0000CDCD 0000C732        HEX       FCDW DOCOL
 0000CDD1 0000C0A8                  FCDW CLIT
 0000CDD5 10                        FCB 16
 0000CDD6 0000C996                  FCDW BASE
 0000CDDA 0000C6BE                  FCDW STORE
 0000CDDE 0000C475                  FCDW SEMIS
                      ;
                      ;                                       DECIMAL
                      ;                                       SCREEN 41 LINE 13
                      ;
 0000CDE2 87444543494D41  L1543     FCB $87,"DECIMA",$CC
 0000CDE9 CC
 0000CDEA 0000CDC5                  FCDW L1531    ; link to HEX
 0000CDEE 0000C732        DECIM     FCDW DOCOL
 0000CDF2 0000C0A8                  FCDW CLIT
 0000CDF6 0A                        FCB 10
 0000CDF7 0000C996                  FCDW BASE
 0000CDFB 0000C6BE                  FCDW STORE
 0000CDFF 0000C475                  FCDW SEMIS
                      ;
                      ;                                       (;CODE)
                      ;                                       SCREEN 42 LINE 2
                      ;
 0000CE03 87283B434F4445  L1555     FCB $87,"(;CODE",$A9
 0000CE0A A9
 0000CE0B 0000CDE2                  FCDW L1543    ; link to DECIMAL
 0000CE0F 0000C732        PSCOD     FCDW DOCOL
 0000CE13 0000C4C2                  FCDW RFROM
 0000CE17 0000CBAB                  FCDW LATES
 0000CE1B 0000CC1D                  FCDW PFA
 0000CE1F 0000CBE0                  FCDW CFA
 0000CE23 0000C6BE                  FCDW STORE
 0000CE27 0000C475                  FCDW SEMIS
                      ;
                      ;                                       ;CODE
                      ;                                       SCREEN 42 LINE 6
                      ;
 0000CE2B C53B434F44C5    L1568     FCB $C5,";COD",$C5
 0000CE31 0000CE03                  FCDW L1555    ; link to (;CODE)
 0000CE35 0000C732                  FCDW DOCOL
 0000CE39 0000CCF5                  FCDW QCSP
 0000CE3D 0000CD4C                  FCDW COMP
 0000CE41 0000CE0F                  FCDW PSCOD
 0000CE45 0000CD76                  FCDW LBRAC
 0000CE49 0000CDB0                  FCDW SMUDG
 0000CE4D 0000C475                  FCDW SEMIS
                      ;
                      ;                                       <BUILDS
                      ;                                       SCREEN 43 LINE 2
                      ;
 0000CE51 873C4255494C44  L1582     FCB $87,"<BUILD",$D3
 0000CE58 D3
 0000CE59 0000CE2B                  FCDW L1568    ; link to ;CODE
 0000CE5D 0000C732        BUILD     FCDW DOCOL
 0000CE61 0000C806                  FCDW ZERO
 0000CE65 0000C77C                  FCDW CONST
 0000CE69 0000C475                  FCDW SEMIS
                      ;
                      ;                                       DOES>
                      ;                                       SCREEN 43 LINE 4
                      ;
 0000CE6D 85444F4553BE    L1592     FCB $85,"DOES",$BE
 0000CE73 0000CE51                  FCDW L1582    ; link to <BUILDS
 0000CE77 0000C732        DOES      FCDW DOCOL
 0000CE7B 0000C4C2                  FCDW RFROM
 0000CE7F 0000CBAB                  FCDW LATES
 0000CE83 0000CC1D                  FCDW PFA
 0000CE87 0000C6BE                  FCDW STORE
 0000CE8B 0000CE0F                  FCDW PSCOD
                      ;
 0000CE8F DCB0            DODOE     LDD   IP+2    ; X and D in right order ???
 0000CE91 9EAE                              LDX   IP
 0000CE93 3416                              PSHS  D,X
 0000CE95 108E0004                          LDY   #4
 0000CE99 15ECA900B2                        LDD   FAR (W),Y
 0000CE9E DDAE                              STD   IP
 0000CEA0 3122                              LEAY  2,Y
 0000CEA2 15ECA900B2                        LDD   FAR (W),Y
 0000CEA7 DDB0                              STD   IP+2
 0000CEA9 DCB4                              LDD   W+2
 0000CEAB C30004                            ADDD  #4
 0000CEAE 1F01                              TFR   D,X
 0000CEB0 DCB2                              LDD   W
 0000CEB2 C900                              ADCB  #0
 0000CEB4 8900                              ADCA  #0
 0000CEB6 3406                              PSHS  D
 0000CEB8 1F10                              TFR   X,D
 0000CEBA 7EC064                            JMP   PUSH
                      ;
                      ;                                       COUNT
                      ;                                       SCREEN 44 LINE 1
                      ;
 0000CEBD 85434F554ED4    L1622     FCB $85,"COUN",$D4
 0000CEC3 0000CE6D                  FCDW L1592    ; link to DOES>
 0000CEC7 0000C732        COUNT     FCDW DOCOL
 0000CECB 0000C60C                  FCDW DUP
 0000CECF 0000C9E2                  FCDW ONEP
 0000CED3 0000C5ED                  FCDW SWAP
 0000CED7 0000C691                  FCDW CAT
 0000CEDB 0000C475                  FCDW SEMIS
                      ;
                      ;                                       TYPE
                      ;                                       SCREEN 44 LINE 2
                      ;
 0000CEDF 84545950C5      L1634     FCB $84,"TYP",$C5
 0000CEE4 0000CEBD                  FCDW L1622    ; link to COUNT
 0000CEE8 0000C732        TYPE      FCDW DOCOL
 0000CEEC 0000CB46                  FCDW DDUP
 0000CEF0 0000C21E                  FCDW ZBRAN
 0000CEF4 00000030        L1639     FCDW $30      ; L1651-L1639
 0000CEF8 0000C5CA                  FCDW OVER
 0000CEFC 0000C52B                  FCDW PLUS
 0000CF00 0000C5ED                  FCDW SWAP
 0000CF04 0000C27C                  FCDW PDO
 0000CF08 0000C2A0        L1644     FCDW I
 0000CF0C 0000C691                  FCDW CAT
 0000CF10 0000C3A8                  FCDW EMIT
 0000CF14 0000C24C                  FCDW PLOOP
 0000CF18 FFFFFFF0        L1648     FCDW $FFFFFFF0    ; L1644-L1648
 0000CF1C 0000C1E8                  FCDW BRAN
 0000CF20 00000008        L1650     FCDW $8       ; L1652-L1650
 0000CF24 0000C5E0        L1651     FCDW DROP
 0000CF28 0000C475        L1652     FCDW SEMIS
                      ;
                      ;                                       -TRAILING
                      ;                                       SCREEN 44 LINE 5
                      ;
 0000CF2C 892D545241494C  L1657     FCB $89,"-TRAILIN",$C7
 0000CF33 494EC7
 0000CF36 0000CEDF                  FCDW L1634    ; link to TYPE
 0000CF3A 0000C732        DTRAI     FCDW DOCOL
 0000CF3E 0000C60C                  FCDW DUP
 0000CF42 0000C806                  FCDW ZERO
 0000CF46 0000C27C                  FCDW PDO
 0000CF4A 0000C5CA        L1663     FCDW OVER
 0000CF4E 0000C5CA                  FCDW OVER
 0000CF52 0000C52B                  FCDW PLUS
 0000CF56 0000C814                  FCDW ONE
 0000CF5A 0000CA7F                  FCDW SUB
 0000CF5E 0000C691                  FCDW CAT
 0000CF62 0000C83F                  FCDW BL
 0000CF66 0000CA7F                  FCDW SUB
 0000CF6A 0000C21E                  FCDW ZBRAN
 0000CF6E 00000010        L1672     FCDW 16        ; L1676-L1672
 0000CF72 0000C48C                  FCDW LEAVE
 0000CF76 0000C1E8                  FCDW BRAN
 0000CF7A 0000000C        L1675     FCDW 12        ; L1678-L1675
 0000CF7E 0000C814        L1676     FCDW ONE
 0000CF82 0000CA7F                  FCDW SUB
 0000CF86 0000C24C        L1678     FCDW PLOOP
 0000CF8A FFFFFFC0        L1679     FCDW $FFFFFFC0    ; L1663-L1679
 0000CF8E 0000C475                  FCDW SEMIS
                      ;
                      ;                                       (.")
                      ;                                       SCREEN 44 LINE 8
 0000CF92 84282E5C        L1685     FCB $84,"(.\"",$A9
*** Error 2: Illegal addressing mode
 0000CF96 0000CF2C                  FCDW L1657    ; link to -TRAILING
 0000CF9A 0000C732        PDOTQ     FCDW DOCOL
 0000CF9E 0000C4D3                  FCDW R
 0000CFA2 0000CEC7                  FCDW COUNT
 0000CFA6 0000C60C                  FCDW DUP
 0000CFAA 0000C9E2                  FCDW ONEP
 0000CFAE 0000C4C2                  FCDW RFROM
 0000CFB2 0000C52B                  FCDW PLUS
 0000CFB6 0000C4B0                  FCDW TOR
 0000CFBA 0000CEE8                  FCDW TYPE
 0000CFBE 0000C475                  FCDW SEMIS
                      ;
                      ;                                       ."
                      ;                                       SCREEN 44 LINE12
                      ;
 0000CFC2 C22EA2          L1701     FCB $C2,".",$A2
 0000CFC5 0000CF92                  FCDW L1685    ; link to PDOTQ
 0000CFC9 0000C732                  FCDW DOCOL
 0000CFCD 0000C0A8                  FCDW CLIT
 0000CFD1 22                        FCB $22
 0000CFD2 0000C988                  FCDW STATE
 0000CFD6 0000C66C                  FCDW AT
 0000CFDA 0000C21E                  FCDW ZBRAN
 0000CFDE 00000028        L1709     FCDW $28      ;L1719-L1709
 0000CFE2 0000CD4C                  FCDW COMP
 0000CFE6 0000CF9A                  FCDW PDOTQ
 0000CFEA 00000000                  FCDW WORD
*** Error 3: Undefined label
 0000CFEE 0000CA12                  FCDW HERE
 0000CFF2 0000C691                  FCDW CAT
 0000CFF6 0000C9E2                  FCDW ONEP
 0000CFFA 0000CA2C                  FCDW ALLOT
 0000CFFE 0000C1E8                  FCDW BRAN
 0000D002 00000014        L1718     FCDW $14       ;L1723-L1718
 0000D006 00000000        L1719     FCDW WORD
*** Error 3: Undefined label
 0000D00A 0000CA12                  FCDW HERE
 0000D00E 0000CEC7                  FCDW COUNT
 0000D012 0000CEE8                  FCDW TYPE
 0000D016 0000C475        L1723     FCDW SEMIS
                      ;
                      ;                                       EXPECT
                      ;                                       SCREEN 45 LINE 2
                      ;
 0000D01A 864558504543D4  L1729     FCB $86,"EXPEC",$D4
 0000D021 0000CFC2                  FCDW L1701    ; link to ."
 0000D025 0000C732        EXPEC     FCDW DOCOL
 0000D029 0000C5CA                  FCDW OVER
 0000D02D 0000C52B                  FCDW PLUS
 0000D031 0000C5CA                  FCDW OVER
 0000D035 0000C27C                  FCDW PDO
 0000D039 0000C3AE        L1736     FCDW KEY
 0000D03D 0000C60C                  FCDW DUP
 0000D041 0000C0A8                  FCDW CLIT
 0000D045 0E                        FCB $E
 0000D046 0000C8AB                  FCDW PORIG
 0000D04A 0000C66C                  FCDW AT
 0000D04E 0000CA95                  FCDW EQUAL
 0000D052 0000C21E                  FCDW ZBRAN
 0000D056 0000003E        L1744     FCDW $3E       ; L1760-L1744
 0000D05A 0000C5E0                  FCDW DROP
 0000D05E 0000C0A8                  FCDW CLIT
 0000D062 08                        FCB 08
 0000D063 0000C5CA                  FCDW OVER
 0000D067 0000C2A0                  FCDW I
 0000D06B 0000CA95                  FCDW EQUAL
 0000D06F 0000C60C                  FCDW DUP
 0000D073 0000C4C2                  FCDW RFROM
 0000D077 0000C822                  FCDW TWO
 0000D07B 0000CA7F                  FCDW SUB
 0000D07F 0000C52B                  FCDW PLUS
 0000D083 0000C4B0                  FCDW TOR
 0000D087 0000CA7F                  FCDW SUB
 0000D08B 0000C1E8                  FCDW BRAN
 0000D08F 0000004E        L1759     FCDW $4E       ; L1779-L1759
 0000D093 0000C60C        L1760     FCDW DUP
 0000D097 0000C0A8                  FCDW CLIT
 0000D09B 0D                        FCB $0D
 0000D09C 0000CA95                  FCDW EQUAL
 0000D0A0 0000C21E                  FCDW ZBRAN
 0000D0A4 0000001C        L1765     FCDW $1C       ; L1772-L1765
 0000D0A8 0000C48C                  FCDW LEAVE
 0000D0AC 0000C5E0                  FCDW DROP
 0000D0B0 0000C83F                  FCDW BL
 0000D0B4 0000C806                  FCDW ZERO
 0000D0B8 0000C1E8                  FCDW BRAN
 0000D0BC 00000008        L1771     FCDW 8        ; L1773-L1771
 0000D0C0 0000C60C        L1772     FCDW DUP
 0000D0C4 0000C2A0        L1773     FCDW I
 0000D0C8 0000C6E5                  FCDW CSTOR
 0000D0CC 0000C806                  FCDW ZERO
 0000D0D0 0000C2A0                  FCDW I
 0000D0D4 0000C9E2                  FCDW ONEP
 0000D0D8 0000C6BE                  FCDW STORE
 0000D0DC 0000C3A8        L1779     FCDW EMIT
 0000D0E0 0000C24C                  FCDW PLOOP
 0000D0E4 FFFFFF52        L1781     FCDW $FFFFFF52
 0000D0E8 0000C5E0                  FCDW DROP      ; L1736-L1781
 0000D0EC 0000C475                  FCDW SEMIS
                      ;
                      ;                                       QUERY
                      ;                                       SCREEN 45 LINE 9
                      ;
 0000D0F0 8551554552D9    L1788     FCB $85,"QUER",$D9
 0000D0F6 0000D01A                  FCDW L1729    ; link to EXPECT
 0000D0FA 0000C732        QUERY     FCDW DOCOL
 0000D0FE 0000C8C7                  FCDW TIB
 0000D102 0000C66C                  FCDW AT
 0000D106 0000C0A8                  FCDW CLIT
 0000D10A 50                        FCB 80       ; 80 characters from terminal
 0000D10B 0000D025                  FCDW EXPEC
 0000D10F 0000C806                  FCDW ZERO
 0000D113 0000C92D                  FCDW IN
 0000D117 0000C6BE                  FCDW STORE
 0000D11B 0000C475                  FCDW SEMIS
                      ;
                      ;                                       X
                      ;                                       SCREEN 45 LINE 11
                      ;                                       Actually Ascii Null
                      ;
 0000D11F C180            L1804     FCB $C1,$80
 0000D121 0000D0F0                  FCDW L1788    ; link to QUERY
 0000D125 0000C732                  FCDW DOCOL
 0000D129 0000C921                  FCDW BLK
 0000D12D 0000C66C                  FCDW AT
 0000D131 0000C21E                  FCDW ZBRAN
 0000D135 00000054        L1810     FCDW $54      ; L1830-l1810
 0000D139 0000C814                  FCDW ONE
 0000D13D 0000C921                  FCDW BLK
 0000D141 0000C620                  FCDW PSTOR
 0000D145 0000C806                  FCDW ZERO
 0000D149 0000C92D                  FCDW IN
 0000D14D 0000C6BE                  FCDW STORE
 0000D151 0000C921                  FCDW BLK
 0000D155 0000C66C                  FCDW AT
 0000D159 0000C8060000C8            FCDW ZERO,BSCR
 0000D160 97
 0000D161 00000000                  FCDW USLAS
*** Error 3: Undefined label
 0000D165 0000C5E0                  FCDW DROP     ; fixed from model
 0000D169 0000C4E7                  FCDW ZEQU
 0000D16D 0000C21E                  FCDW ZBRAN
 0000D171 00000010        L1824     FCDW 16        ; L1828-L1824
 0000D175 0000CCB3                  FCDW QEXEC
 0000D179 0000C4C2                  FCDW RFROM
 0000D17D 0000C5E0                  FCDW DROP
 0000D181 0000C1E8        L1828     FCDW BRAN
 0000D185 0000000C        L1829     FCDW 12        ; L1832-L1829
 0000D189 0000C4C2        L1830     FCDW RFROM
 0000D18D 0000C5E0                  FCDW DROP
 0000D191 0000C475        L1832     FCDW SEMIS
                      ;
                      ;                                       FILL
                      ;                                       SCREEN 46 LINE 1
                      ;
                      ;
 0000D195 8446494CCC      L1838     FCB $84,"FIL",$CC
 0000D19A 0000D11F                  FCDW L1804    ; link to X
 0000D19E 0000C732        FILL      FCDW DOCOL
 0000D1A2 0000C5ED                  FCDW SWAP
 0000D1A6 0000C4B0                  FCDW TOR
 0000D1AA 0000C5CA                  FCDW OVER
 0000D1AE 0000C6E5                  FCDW CSTOR
 0000D1B2 0000C60C                  FCDW DUP
 0000D1B6 0000C9E2                  FCDW ONEP
 0000D1BA 0000C4C2                  FCDW RFROM
 0000D1BE 0000C814                  FCDW ONE
 0000D1C2 0000CA7F                  FCDW SUB
 0000D1C6 00000000                  FCDW CMOVE
*** Error 3: Undefined label
 0000D1CA 0000C475                  FCDW SEMIS
                      ;
                      ;                                       FORTH
                      ;                                       SCREEN 53 LINE 9
                      ;
 0000D1CE C5464F5254C8    L2346     FCB $C5,"FORT",$C8
 0000D1D4 00000000                  FCDW L2321    ; link to VOCABULARY
*** Error 3: Undefined label
 0000D1D8 0000CE8F        FORTH     FCDW DODOE
 0000D1DC 00000000                  FCDW DOVOC
*** Error 3: Undefined label
 0000D1E0 0000A081                  FCDW $A081
 0000D1E4 0000D7A9        XFOR      FCDW NTOP     ; points to top name in FORTH
 0000D1E8 00000000        VL0       FCDW 0        ; last vocab link ends at zero
                      ;
                      ;                                       COLD
                      ;                                       SCREEN 55 LINE 1
                      ;
 0000D1EC 84434F4CC4      L2423     FCB $84,"COL",$C4
 0000D1F1 00000000                  FCDW L2406    ; link to ABORT
*** Error 3: Undefined label
 0000D1F5 0000D1F9        COLD      FCDW *+4
 0000D1F9 FCC010                    LDD ORIG+$10   ; from cold start area
 0000D1FC FDD1E4                    STD FORTH+12
 0000D1FF FCC012                    LDD ORIG+$12
 0000D202 FDD1E6                    STD FORTH+14
 
 0000D205 108E002A                  LDY #$2A
 0000D209 2604                      BNE L2433
 0000D20B 108E001E        WARM      LDY #$1E
 0000D20F FCC018          L2433     LDD ORIG+$18
 0000D212 DDB6                      STD UP
 0000D214 FCC01A                    LDD ORIG+$1A
 0000D217 DDB8                      STD UP+2
 
 0000D219 ECAA0000C010    L2437     LDD ORIG+$10,Y
 0000D21F 15EDA900B6                STD FAR (UP),Y
 0000D224 313F                      DEY
 0000D226 313F                              DEY
 0000D228 2AEF                      BPL L2437
 0000D22A CC0000                    LDD #((ABORT+4)>>16) ; actually #>(ABORT+2)
*** Error 3: Undefined label
 0000D22D DDAE                      STD IP
 0000D22F CC0004                    LDD #ABORT+4
*** Error 3: Undefined label
 0000D232 DDB0                      STD IP+2
                                CLD
*** Error 16: Illegal mnemonic
                      ;          LDA #$6C
                      ;          STA W-1
 0000D234 7EC461                    JMP RPSTO+4    ; And off we go !
                      ;
                      ;                                       R/W
                      ;                              Read or write one sector
                      ;
 0000D237 83522FD7        L3060     FCB $83,"R/",$D7
 0000D23B 00000000                  FCDW L3050    ; link to -BCD
*** Error 3: Undefined label
 0000D23F 0000C732        RSLW      FCDW DOCOL
 0000D243 0000C4E70000C0            FCDW ZEQU,LIT,$C4DA,CSTOR
 0000D24A 520000C4DA0000
 0000D251 C6E5
 0000D253 0000C5ED0000C8            FCDW SWAP,ZERO,STORE
 0000D25A 060000C6BE
 0000D25F 0000C8060000C5            FCDW ZERO,OVER,GREAT,OVER
 0000D266 CA0000CAF50000
 0000D26D C5CA
 0000D26F 0000C052FFFFFF            FCDW LIT,SECTL-1,GREAT,OR,CLIT
 0000D276 FF0000CAF50000
 0000D27D C3EE0000C0A8
 0000D283 06                        FCB 6
 0000D284 0000CC5E                  FCDW QERR
 0000D288 0000C8060000C0            FCDW ZERO,LIT,SECTR,USLAS,ONEP
 0000D28F 52000000000000
 0000D296 00000000C9E2
*** Error 3: Undefined label
 0000D29C 0000C5ED0000C8            FCDW SWAP,ZERO,CLIT
 0000D2A3 060000C0A8
 0000D2A8 12                        FCB $12
 0000D2A9 00000000000000            FCDW USLAS,DBCD,SWAP,ONEP
 0000D2B0 000000C5ED0000
 0000D2B7 C9E2
*** Error 3: Undefined label
 0000D2B9 00000000000000            FCDW DBCD,DDISC,CLIT
 0000D2C0 000000C0A8
*** Error 3: Undefined label
 0000D2C5 08                        FCB 8
 0000D2C6 0000CC5E                  FCDW QERR
 0000D2CA 0000C475                  FCDW SEMIS
                      ;
                      ;
                      ;
 0000D2CE 0000C475                  FCDW SEMIS
                      ;
                      ;                                       '
                      ;                                       SCREEN 72 LINE 2
                      ;
 0000D2D2 C1A7            L3202     FCB $C1,$A7
 0000D2D4 0000D237                  FCDW L3060    ; link to R/W
 0000D2D8 0000C732        TICK      FCDW DOCOL
 0000D2DC 00000000                  FCDW DFIND
*** Error 3: Undefined label
 0000D2E0 0000C4E7                  FCDW ZEQU
 0000D2E4 0000C806                  FCDW ZERO
 0000D2E8 0000CC5E                  FCDW QERR
 0000D2EC 0000C5E0                  FCDW DROP
 0000D2F0 00000000                  FCDW LITER
*** Error 3: Undefined label
 0000D2F4 0000C475                  FCDW SEMIS
                      ;
                      ;                                       FORGET
                      ;                                       Altered from model
                      ;                                       SCREEN 72 LINE 6
                      ;
 0000D2F8 86464F524745D4  L3217     FCB $86,"FORGE",$D4
 0000D2FF 0000D2D2                  FCDW L3202    ; link to ' TICK
 0000D303 0000C732        FORG      FCDW DOCOL
 0000D307 0000D2D80000CB            FCDW TICK,NFA,DUP
 0000D30E F80000C60C
 0000D313 0000C8F60000C6            FCDW FENCE,AT,ULESS,CLIT
 0000D31A 6C0000CAAC0000
 0000D321 C0A8
 0000D323 15                        FCB $15
 0000D324 0000CC5E0000C4            FCDW QERR,TOR,VOCL,AT
 0000D32B B00000C9140000
 0000D332 C66C
 0000D334 0000C4D30000C5  L3220     FCDW R,OVER,ULESS
 0000D33B CA0000CAAC
 0000D340 0000C21E000000            FCDW ZBRAN,L3225-*
 0000D347 28
 0000D348 0000D1D8000000            FCDW FORTH,DEFIN,AT,DUP
 0000D34F 000000C66C0000
 0000D356 C60C
*** Error 3: Undefined label
 0000D358 0000C9140000C6            FCDW VOCL,STORE
 0000D35F BE
 0000D360 0000C1E8FFFFFF            FCDW BRAN,$FFFFFFFF-48+1 ; L3220-*
 0000D367 D0
 0000D368 0000C60C0000C0  L3225     FCDW DUP,CLIT
 0000D36F A8
 0000D370 04                        FCB 4
 0000D371 0000CA7F                  FCDW SUB
 0000D375 0000CC1D0000CB  L3228     FCDW PFA,LFA,AT
 0000D37C C70000C66C
 0000D381 0000C60C0000C4            FCDW DUP,R,ULESS
 0000D388 D30000CAAC
 0000D38D 0000C21EFFFFFF            FCDW ZBRAN,$FFFFFFFF-28+1 ; L3228-*
 0000D394 E4
 0000D395 0000C5CA0000C8            FCDW OVER,TWO,SUB,STORE
 0000D39C 220000CA7F0000
 0000D3A3 C6BE
 0000D3A5 0000C66C0000CB            FCDW AT,DDUP,ZEQU
 0000D3AC 460000C4E7
 0000D3B1 0000C21EFFFFFF            FCDW ZBRAN,$FFFFFFFF-78+1 ; L3225-*
 0000D3B8 B2
 0000D3B9 0000C4C20000C9            FCDW RFROM,DP,STORE
 0000D3C0 020000C6BE
 0000D3C5 0000C475                  FCDW SEMIS
                      ;
                      ;                                       BACK
                      ;                                       SCREEN 73 LINE 1
                      ;
                      L3250     .BYTE $84,'BAC',$CB
 0000D3C9 D2F8                      FCW L3217    ; link to FORGET
 0000D3CB C732            BACK      FCW DOCOL
 0000D3CD CA12                      FCW HERE
 0000D3CF CA7F                      FCW SUB
 0000D3D1 CA42                      FCW COMMA
 0000D3D3 C475                      FCW SEMIS
                      ;
                      ;                                       BEGIN
                      ;                                       SCREEN 73 LINE 3
                      ;
                      L3261     .BYTE $C5,'BEGI',$CE
 0000D3D5 D3C9                      FCW L3250    ; link to BACK
 0000D3D7 C732                      FCW DOCOL
 0000D3D9 CC8C                      FCW QCOMP
 0000D3DB CA12                      FCW HERE
 0000D3DD C814                      FCW ONE
 0000D3DF C475                      FCW SEMIS
                      ;
                      ;                                       ENDIF
                      ;                                       SCREEN 73 LINE 5
                      ;
                      L3273     .BYTE $C5,'ENDI',$C6
 0000D3E1 D3D5                      FCW L3261    ; link to BEGIN
 0000D3E3 C732            ENDIF     FCW DOCOL
 0000D3E5 CC8C                      FCW QCOMP
 0000D3E7 C822                      FCW TWO
 0000D3E9 CCD7                      FCW QPAIR
 0000D3EB CA12                      FCW HERE
 0000D3ED C5CA                      FCW OVER
 0000D3EF CA7F                      FCW SUB
 0000D3F1 C5ED                      FCW SWAP
 0000D3F3 C6BE                      FCW STORE
 0000D3F5 C475                      FCW SEMIS
                      ;
                      ;                                       THEN
                      ;                                       SCREEN 73 LINE 7
                      ;
                      L3290     .BYTE $C4,'THE',$CE
 0000D3F7 D3E1                      FCW L3273    ; link to ENDIF
 0000D3F9 C732                      FCW DOCOL
 0000D3FB D3E3                      FCW ENDIF
 0000D3FD C475                      FCW SEMIS
                      ;
                      ;                                       DO
                      ;                                       SCREEN 73 LINE 9
                      ;
                      L3300     .BYTE $C2,'D',$CF
 0000D3FF D3F7                      FCW L3290    ; link to THEN
 0000D401 C732                      FCW DOCOL
 0000D403 CD4C                      FCW COMP
 0000D405 C27C                      FCW PDO
 0000D407 CA12                      FCW HERE
 0000D409 C830                      FCW THREE
 0000D40B C475                      FCW SEMIS
                      ;
                      ;                                       LOOP
                      ;                                       SCREEN 73 LINE 11
                      ;
                      ;
                      L3313     .BYTE $C4,'LOO',$D0
 0000D40D D3FF                      FCW L3300    ; link to DO
 0000D40F C732                      FCW DOCOL
 0000D411 C830                      FCW THREE
 0000D413 CCD7                      FCW QPAIR
 0000D415 CD4C                      FCW COMP
 0000D417 C24C                      FCW PLOOP
 0000D419 D3CB                      FCW BACK
 0000D41B C475                      FCW SEMIS
                      ;
                      ;                                       +LOOP
                      ;                                       SCREEN 73 LINE 13
                      ;
                      L3327     .BYTE $C5,'+LOO',$D0
 0000D41D D40D                      FCW L3313    ; link to LOOP
 0000D41F C732                      FCW DOCOL
 0000D421 C830                      FCW THREE
 0000D423 CCD7                      FCW QPAIR
 0000D425 CD4C                      FCW COMP
 0000D427 0000                      FCW PPLOO
*** Error 3: Undefined label
 0000D429 D3CB                      FCW BACK
 0000D42B C475                      FCW SEMIS
                      ;
                      ;                                       UNTIL
                      ;                                       SCREEN 73 LINE 15
                      ;
                      L3341     .BYTE $C5,'UNTI',$CC
 0000D42D D41D                      FCW L3327    ; link to +LOOP
 0000D42F C732            UNTIL     FCW DOCOL
 0000D431 C814                      FCW ONE
 0000D433 CCD7                      FCW QPAIR
 0000D435 CD4C                      FCW COMP
 0000D437 C21E                      FCW ZBRAN
 0000D439 D3CB                      FCW BACK
 0000D43B C475                      FCW SEMIS
                      ;
                      ;                                       END
                      ;                                       SCREEN 74 LINE 1
                      ;
                      L3355     .BYTE $C3,'EN',$C4
 0000D43D D42D                      FCW L3341    ; link to UNTIL
 0000D43F C732                      FCW DOCOL
 0000D441 D42F                      FCW UNTIL
 0000D443 C475                      FCW SEMIS
                      ;
                      ;                                       AGAIN
                      ;                                       SCREEN 74 LINE 3
                      ;
                      L3365     .BYTE $C5,'AGAI',$CE
 0000D445 D43D                      FCW L3355    ; link to END
 0000D447 C732            AGAIN     FCW DOCOL
 0000D449 C814                      FCW ONE
 0000D44B CCD7                      FCW QPAIR
 0000D44D CD4C                      FCW COMP
 0000D44F C1E8                      FCW BRAN
 0000D451 D3CB                      FCW BACK
 0000D453 C475                      FCW SEMIS
                      ;
                      ;                                       REPEAT
                      ;                                       SCREEN 74 LINE 5
                      ;
                      L3379     .BYTE $C6,'REPEA',$D4
 0000D455 D445                      FCW L3365    ; link to AGAIN
 0000D457 C732                      FCW DOCOL
 0000D459 C4B0                      FCW TOR
 0000D45B C4B0                      FCW TOR
 0000D45D D447                      FCW AGAIN
 0000D45F C4C2                      FCW RFROM
 0000D461 C4C2                      FCW RFROM
 0000D463 C822                      FCW TWO
 0000D465 CA7F                      FCW SUB
 0000D467 D3E3                      FCW ENDIF
 0000D469 C475                      FCW SEMIS
                      ;
                      ;                                       IF
                      ;                                       SCREEN 74 LINE 8
                      ;
                      L3396     .BYTE $C2,'I',$C6
 0000D46B D455                      FCW L3379    ; link to REPEAT
 0000D46D C732            IF        FCW DOCOL
 0000D46F CD4C                      FCW COMP
 0000D471 C21E                      FCW ZBRAN
 0000D473 CA12                      FCW HERE
 0000D475 C806                      FCW ZERO
 0000D477 CA42                      FCW COMMA
 0000D479 C822                      FCW TWO
 0000D47B C475                      FCW SEMIS
                      ;
                      ;                                       ELSE
                      ;                                       SCREEN 74 LINE 10
                      ;
                      L3411     .BYTE $C4,'ELS',$C5
 0000D47D D46B                      FCW L3396    ; link to IF
 0000D47F C732                      FCW DOCOL
 0000D481 C822                      FCW TWO
 0000D483 CCD7                      FCW QPAIR
 0000D485 CD4C                      FCW COMP
 0000D487 C1E8                      FCW BRAN
 0000D489 CA12                      FCW HERE
 0000D48B C806                      FCW ZERO
 0000D48D CA42                      FCW COMMA
 0000D48F C5ED                      FCW SWAP
 0000D491 C822                      FCW TWO
 0000D493 D3E3                      FCW ENDIF
 0000D495 C822                      FCW TWO
 0000D497 C475                      FCW SEMIS
                      ;
                      ;                                       WHILE
                      ;                                       SCREEN 74 LINE 13
                      ;
                      L3431     .BYTE $C5,'WHIL',$C5
 0000D499 D47D                      FCW L3411    ; link to ELSE
 0000D49B C732                      FCW DOCOL
 0000D49D D46D                      FCW IF
 0000D49F C9F9                      FCW TWOP
 0000D4A1 C475                      FCW SEMIS
                      ;
                      ;                                       SPACES
                      ;                                       SCREEN 75 LINE 1
                      ;
                      L3442     .BYTE $86,'SPACE',$D3
 0000D4A3 D499                      FCW L3431    ; link to WHILE
 0000D4A5 C732            SPACS     FCW DOCOL
 0000D4A7 C806                      FCW ZERO
 0000D4A9 0000                      FCW MAX
*** Error 3: Undefined label
 0000D4AB CB46                      FCW DDUP
 0000D4AD C21E                      FCW ZBRAN
 0000D4AF 000C            L3449     FCW $0C      ; L3455-L3449
 0000D4B1 C806                      FCW ZERO
 0000D4B3 C27C                      FCW PDO
 0000D4B5 CB2D            L3452     FCW SPACE
 0000D4B7 C24C                      FCW PLOOP
 0000D4B9 FFFC            L3454     FCW $FFFC    ; L3452-L3454
 0000D4BB C475            L3455     FCW SEMIS
                      ;
                      ;                                       <#
                      ;                                       SCREEN 75 LINE 3
                      ;
                      L3460     .BYTE $82,'<',$A3
 0000D4BD D4A3                      FCW L3442    ; link to SPACES
 0000D4BF C732            BDIGS     FCW DOCOL
 0000D4C1 0000                      FCW PAD
*** Error 3: Undefined label
 0000D4C3 C9D6                      FCW HLD
 0000D4C5 C6BE                      FCW STORE
 0000D4C7 C475                      FCW SEMIS
                      ;
                      ;                                       #>
                      ;                                       SCREEN 75 LINE 5
                      ;
                      L3471     .BYTE $82,'#',$BE
 0000D4C9 D4BD                      FCW L3460    ; link to <#
 0000D4CB C732            EDIGS     FCW DOCOL
 0000D4CD C5E0                      FCW DROP
 0000D4CF C5E0                      FCW DROP
 0000D4D1 C9D6                      FCW HLD
 0000D4D3 C66C                      FCW AT
 0000D4D5 0000                      FCW PAD
*** Error 3: Undefined label
 0000D4D7 C5CA                      FCW OVER
 0000D4D9 CA7F                      FCW SUB
 0000D4DB C475                      FCW SEMIS
                      ;
                      ;                                       SIGN
                      ;                                       SCREEN 75 LINE 7
                      ;
                      L3486     .BYTE $84,'SIG',$CE
 0000D4DD D4C9                      FCW L3471    ; link to #>
 0000D4DF C732            SIGN      FCW DOCOL
 0000D4E1 CB0B                      FCW ROT
 0000D4E3 C50B                      FCW ZLESS
 0000D4E5 C21E                      FCW ZBRAN
 0000D4E7 0007            L3492     FCW $7       ; L3496-L3492
 0000D4E9 C0A8                      FCW CLIT
                                .BYTE $2D
 0000D4EB 0000                      FCW HOLD
*** Error 3: Undefined label
 0000D4ED C475            L3496     FCW SEMIS
                      ;
                      ;                                       #
                      ;                                       SCREEN 75 LINE 9
                      ;
                      L3501     .BYTE $81,$A3
 0000D4EF D4DD                      FCW L3486    ; link to SIGN
 0000D4F1 C732            DIG       FCW DOCOL
 0000D4F3 C996                      FCW BASE
 0000D4F5 C66C                      FCW AT
 0000D4F7 0000                      FCW MSMOD
*** Error 3: Undefined label
 0000D4F9 CB0B                      FCW ROT
 0000D4FB C0A8                      FCW CLIT
                                .BYTE 9
 0000D4FD C5CA                      FCW OVER
 0000D4FF CAC2                      FCW LESS
 0000D501 C21E                      FCW ZBRAN
 0000D503 0007            L3513     FCW 7        ; L3517-L3513
 0000D505 C0A8                      FCW CLIT
                                .BYTE 7
 0000D507 C52B                      FCW PLUS
 0000D509 C0A8            L3517     FCW CLIT
                                .BYTE $30
 0000D50B C52B                      FCW PLUS
 0000D50D 0000                      FCW HOLD
*** Error 3: Undefined label
 0000D50F C475                      FCW SEMIS
                      ;
                      ;                                       #S
                      ;                                       SCREEN 75 LINE 12
                      ;
 0000D511 8223D3          L3526     FCB $82,"#",$D3
 0000D514 0000D4EF                  FCDW L3501    ; link to #
 0000D518 0000C732        DIGS      FCDW DOCOL
 0000D51C 0000D4F1        L3529     FCDW DIG
 0000D520 0000C5CA                  FCDW OVER
 0000D524 0000C5CA                  FCDW OVER
 0000D528 0000C3EE                  FCDW OR
 0000D52C 0000C4E7                  FCDW ZEQU
 0000D530 0000C21E                  FCDW ZBRAN
 0000D534 FFFFFFE8        L3535     FCDW $FFFFFFE8    ; L3529-L3535
 0000D538 0000C475                  FCDW SEMIS
                      ;
                      ;                                       D.R
                      ;                                       SCREEN 76 LINE 1
                      ;
 0000D53C 83442ED2        L3541     FCB $83,"D.",$D2
 0000D540 0000D511                  FCDW L3526    ; link to #S
 0000D544 0000C732        DDOTR     FCDW DOCOL
 0000D548 0000C4B0                  FCDW TOR
 0000D54C 0000C5ED                  FCDW SWAP
 0000D550 0000C5CA                  FCDW OVER
 0000D554 00000000                  FCDW DABS
*** Error 3: Undefined label
 0000D558 0000D4BF                  FCDW BDIGS
 0000D55C 0000D518                  FCDW DIGS
 0000D560 0000D4DF                  FCDW SIGN
 0000D564 0000D4CB                  FCDW EDIGS
 0000D568 0000C4C2                  FCDW RFROM
 0000D56C 0000C5CA                  FCDW OVER
 0000D570 0000CA7F                  FCDW SUB
 0000D574 0000D4A5                  FCDW SPACS
 0000D578 0000CEE8                  FCDW TYPE
 0000D57C 0000C475                  FCDW SEMIS
                      ;
                      ;                                       D.
                      ;                                       SCREEN 76 LINE 5
                      ;
 0000D580 8244AE          L3562     FCB $82,"D",$AE
 0000D583 0000D53C                  FCDW L3541    ; link to D.R
 0000D587 0000C732        DDOT      FCDW DOCOL
 0000D58B 0000C806                  FCDW ZERO
 0000D58F 0000D544                  FCDW DDOTR
 0000D593 0000CB2D                  FCDW SPACE
 0000D597 0000C475                  FCDW SEMIS
                      ;
                      ;                                       .R
                      ;                                       SCREEN 76 LINE 7
                      ;
 0000D59B 822ED2          L3573     FCB $82,".",$D2
 0000D59E 0000D580                  FCDW L3562     ; link to D.
 0000D5A2 0000C732        DOTR      FCDW DOCOL
 0000D5A6 0000C4B0                  FCDW TOR
 0000D5AA 00000000                  FCDW STOD
*** Error 3: Undefined label
 0000D5AE 0000C4C2                  FCDW RFROM
 0000D5B2 0000D544                  FCDW DDOTR
 0000D5B6 0000C475                  FCDW SEMIS
                      ;
                      ;                                       .
                      ;                                       SCREEN 76  LINE  9
                      ;
 0000D5BA 81AE            L3585     FCB $81,$AE
 0000D5BC 0000D59B                  FCDW L3573    ; link to .R
 0000D5C0 0000C732        DOT       FCDW DOCOL
 0000D5C4 00000000                  FCDW STOD
*** Error 3: Undefined label
 0000D5C8 0000D587                  FCDW DDOT
 0000D5CC 0000C475                  FCDW SEMIS
                      ;
                      ;                                       ?
                      ;                                       SCREEN 76 LINE 11
                      ;
 0000D5D0 81BF            L3595     FCB $81,$BF
 0000D5D2 0000D5BA                  FCDW L3585    ; link to .
 0000D5D6 0000C732        QUES      FCDW DOCOL
 0000D5DA 0000C66C                  FCDW AT
 0000D5DE 0000D5C0                  FCDW DOT
 0000D5E2 0000C475                  FCDW SEMIS
                      ;
                      ;                                       LIST
                      ;                                       SCREEN 77 LINE 2
                      ;
 0000D5E6 844C4953D4      L3605     FCB $84,"LIS",$D4
 0000D5EB 0000D5D0                  FCDW L3595    ; link to ?
 0000D5EF 0000C732        LIST      FCDW DOCOL
 0000D5F3 0000CDEE                  FCDW DECIM
 0000D5F7 0000C3BD                  FCDW CR
 0000D5FB 0000C60C                  FCDW DUP
 0000D5FF 0000C947                  FCDW SCR
 0000D603 0000C6BE                  FCDW STORE
 0000D607 0000CF9A                  FCDW PDOTQ
 0000D60B 06534352202320            FCB 6,"SCR # "
 0000D612 0000D5C0                  FCDW DOT
 0000D616 0000C0A8                  FCDW CLIT
 0000D61A 10                        FCB 16
 0000D61B 0000C806                  FCDW ZERO
 0000D61F 0000C27C                  FCDW PDO
 0000D623 0000C3BD        L3620     FCDW CR
 0000D627 0000C2A0                  FCDW I
 0000D62B 0000C830                  FCDW THREE
 0000D62F 0000D5A2                  FCDW DOTR
 0000D633 0000CB2D                  FCDW SPACE
 0000D637 0000C2A0                  FCDW I
 0000D63B 0000C947                  FCDW SCR
 0000D63F 0000C66C                  FCDW AT
 0000D643 00000000                  FCDW DLINE
*** Error 3: Undefined label
 0000D647 0000C24C                  FCDW PLOOP
 0000D64B FFFFFFD8        L3630     FCDW $FFFFFFD8
 0000D64F 0000C3BD                  FCDW CR
 0000D653 0000C475                  FCDW SEMIS
                      ;
                      ;                                       INDEX
                      ;                                       SCREEN 77 LINE 7
                      ;
 0000D657 85494E4445D8    L3637     FCB $85,"INDE",$D8
 0000D65D 0000D5E6                  FCDW L3605    ; link to LIST
 0000D661 0000C732                  FCDW DOCOL
 0000D665 0000C3BD                  FCDW CR
 0000D669 0000C9E2                  FCDW ONEP
 0000D66D 0000C5ED                  FCDW SWAP
 0000D671 0000C27C                  FCDW PDO
 0000D675 0000C3BD        L3647     FCDW CR
 0000D679 0000C2A0                  FCDW I
 0000D67D 0000C830                  FCDW THREE
 0000D681 0000D5A2                  FCDW DOTR
 0000D685 0000CB2D                  FCDW SPACE
 0000D689 0000C806                  FCDW ZERO
 0000D68D 0000C2A0                  FCDW I
 0000D691 00000000                  FCDW DLINE
*** Error 3: Undefined label
 0000D695 0000C3B4                  FCDW QTERM
 0000D699 0000C21E                  FCDW ZBRAN
 0000D69D 00000008        L3657     FCDW 8        ; L3659-L3657
 0000D6A1 0000C48C                  FCDW LEAVE
 0000D6A5 0000C24C        L3659     FCDW PLOOP
 0000D6A9 FFFFFFCC        L3660     FCDW $FFFFFFCC    ; L3647-L3660
 0000D6AD 0000C0A8                  FCDW CLIT
 0000D6B1 0C                        FCB $0C      ; form feed for printer
 0000D6B2 0000C3A8                  FCDW EMIT
 0000D6B6 0000C475                  FCDW SEMIS
                      ;
                      ;                                       TRIAD
                      ;                                       SCREEN 77 LINE 12
                      ;
 0000D6BA 8554524941C4    L3666     FCB $85,"TRIA",$C4
 0000D6C0 0000D657                  FCDW L3637    ; link to INDEX
 0000D6C4 0000C732                  FCDW DOCOL
 0000D6C8 0000C830                  FCDW THREE
 0000D6CC 00000000                  FCDW SLASH
*** Error 3: Undefined label
 0000D6D0 0000C830                  FCDW THREE
 0000D6D4 00000000                  FCDW STAR
*** Error 3: Undefined label
 0000D6D8 0000C830                  FCDW THREE
 0000D6DC 0000C5CA                  FCDW OVER
 0000D6E0 0000C52B                  FCDW PLUS
 0000D6E4 0000C5ED                  FCDW SWAP
 0000D6E8 0000C27C                  FCDW PDO
 0000D6EC 0000C3BD        L3681     FCDW CR
 0000D6F0 0000C2A0                  FCDW I
 0000D6F4 0000D5EF                  FCDW LIST
 0000D6F8 0000C24C                  FCDW PLOOP
 0000D6FC FFFFFFF0        L3685     FCDW $FFFFFFF0    ; L3681-L3685
 0000D700 0000C3BD                  FCDW CR
 0000D704 0000C0A8                  FCDW CLIT
 0000D708 0F                        FCB $F
 0000D709 00000000                  FCDW MESS
*** Error 3: Undefined label
 0000D70D 0000C3BD                  FCDW CR
 0000D711 0000C0A8                  FCDW CLIT
 0000D715 0C                        FCB $0C      ;  form feed for printer
 0000D716 0000C3A8                  FCDW EMIT
 0000D71A 0000C475                  FCDW SEMIS
                      ;
                      ;                                       VLIST
                      ;                                       SCREEN 78 LINE 2
                      ;
                      ;
 0000D71E 85564C4953D4    L3696     FCB $85,"VLIS",$D4
 0000D724 0000D6BA                  FCDW L3666    ; link to TRIAD
 0000D728 0000C732        VLIST     FCDW DOCOL
 0000D72C 0000C0A8                  FCDW CLIT
 0000D730 80                        FCB $80
 0000D731 0000C93A                  FCDW OUT
 0000D735 0000C6BE                  FCDW STORE
 0000D739 0000C968                  FCDW CON
*** Error 1: Error in expression
 0000D73D 0000C66C                  FCDW AT
 0000D741 0000C66C                  FCDW AT
 0000D745 0000C93A        L3706     FCDW OUT
 0000D749 0000C66C                  FCDW AT
 0000D74D 0000C84F                  FCDW CSLL
 0000D751 0000CAF5                  FCDW GREAT
 0000D755 0000C21E                  FCDW ZBRAN
 0000D759 0000000A        L3711     FCDW $A       ; L3716-L3711
 0000D75D 0000C3BD                  FCDW CR
 0000D761 0000C806                  FCDW ZERO
 0000D765 0000C93A                  FCDW OUT
 0000D769 0000C6BE                  FCDW STORE
 0000D76D 0000C60C        L3716     FCDW DUP
 0000D771 00000000                  FCDW IDDOT
*** Error 3: Undefined label
 0000D775 0000CB2D                  FCDW SPACE
 0000D779 0000CB2D                  FCDW SPACE
 0000D77D 0000CC1D                  FCDW PFA
 0000D781 0000CBC7                  FCDW LFA
 0000D785 0000C66C                  FCDW AT
 0000D789 0000C60C                  FCDW DUP
 0000D78D 0000C4E7                  FCDW ZEQU
 0000D791 0000C3B4                  FCDW QTERM
 0000D795 0000C3EE                  FCDW OR
 0000D799 0000C21E                  FCDW ZBRAN
 0000D79D FFFFFFA8        L3728     FCDW $FFFFFFA8    ; L3706-L3728
 0000D7A1 0000C5E0                  FCDW DROP
 0000D7A5 0000C475                  FCDW SEMIS
                      ;
                      ;                                       MON
                      ;                                       SCREEN 79 LINE 3
                      ;
 0000D7A9 834D4FCE        NTOP      FCB $83,"MO",$CE
 0000D7AD 0000D71E                  FCDW L3696    ; link to VLIST
 0000D7B1 0000D7B5        MON       FCDW *+4
 0000D7B5 DFBE                      STU USAVE
                                BRK       ; break to monitor which is assumed
*** Error 16: Illegal mnemonic
 0000D7B7 DEBE                      LDU USAVE ; to save this as reentry point
 0000D7B9 7EC06C                    JMP NEXT
                      ;
                      TOP       .END           ; end of listing

111 error(s) in pass 2.
1 warning(s) in pass 2.

SYMBOL TABLE
         A 06 00000000     ABORT 06 00000000     AGAIN 02 0000D447     ALLOT 02 0000CA2C
      ANDD 02 0000C3C9        AT 02 0000C66C      BACK 02 0000D3CB      BASE 02 0000C996
      BBUF 02 0000C885     BDIGS 02 0000D4BF    BINARY 02 0000C3E2        BL 02 0000C83F
       BLK 02 0000C921      BMAG 02 00000000       BOS 00 00000020      BRAN 02 0000C1E8
    BRAN_3 02 0000C20B    BRAN_4 02 0000C1EC      BSCR 02 0000C897     BUILD 02 0000CE5D
      BUMP 02 0000C22F       CAT 02 0000C691     CCOMM 02 0000CA61       CFA 02 0000CBE0
      CLIT 02 0000C0A8     CMOVE 06 00000000      COLD 02 0000D1F5     COLON 02 0000C70A
     COMMA 02 0000CA42      COMP 02 0000CD4C       CON 15 0000C968     CONST 02 0000C77C
     COUNT 02 0000CEC7        CR 02 0000C3BD     CREAT 06 00000000      CRLF 00 0000D0D2
      CSLL 02 0000C84F       CSP 02 0000C9BD     CSTOR 02 0000C6E5      CURR 02 0000C979
      DABS 06 00000000     DAREA 00 0000BF00      DBCD 06 00000000     DDISC 06 00000000
      DDOT 02 0000D587     DDOTR 02 0000D544      DDUP 02 0000CB46     DECIM 02 0000CDEE
     DECNP 02 0000C196     DEFIN 06 00000000     DFIND 06 00000000       DIG 02 0000D4F1
     DIGIT 02 0000C2AA      DIGS 02 0000D518     DLINE 06 00000000     DMINU 02 0000C59B
     DOCOL 02 0000C732     DOCON 02 0000C790     DODOE 02 0000CE8F      DOES 02 0000CE77
       DOT 02 0000D5C0      DOTR 02 0000D5A2     DOUSE 02 0000C7E7     DOVAR 02 0000C7BE
     DOVOC 06 00000000        DP 02 0000C902       DPL 02 0000C9A3     DPLUS 02 0000C549
      DROP 02 0000C5E0     DTRAI 02 0000CF3A       DUP 02 0000C60C     EDIGS 02 0000D4CB
      EMIT 02 0000C3A8      ENCL 02 0000C361     ENDIF 02 0000D3E3     ENTER 02 0000C000
     EQUAL 02 0000CA95     ERROR 06 00000000      EXEC 02 0000C1D0     EXPEC 02 0000D025
     FENCE 02 0000C8F6      FILL 02 0000D19E     FIRST 02 0000C861       FLD 02 0000C9B0
      FORG 02 0000D303     FORTH 02 0000D1D8     GREAT 02 0000CAF5      HERE 02 0000CA12
       HEX 02 0000CDCD      HEX2 00 0000D2CE       HLD 02 0000C9D6      HOLD 06 00000000
         I 02 0000C2A0     IDDOT 06 00000000        IF 02 0000D46D        IN 02 0000C92D
   INC2_IP 02 0000C09E      INCH 00 0000D1DC    INC_IP 02 0000C08F  INC_IP_1 02 0000C09D
        IP 00 000000AE       KEY 02 0000C3AE     L1000 02 0000C89F     L1010 02 0000C8BF
     L1018 02 0000C8CC     L1026 02 0000C8DB     L1034 02 0000C8EC     L1042 02 0000C8FB
     L1050 02 0000C907     L1058 02 0000C919     L1066 02 0000C926      L107 02 0000C212
     L1074 02 0000C932     L1082 02 0000C93F     L1090 02 0000C94C     L1098 02 0000C95C
     L1106 02 0000C96D     L1114 02 0000C97E     L1122 02 0000C98D     L1130 02 0000C99B
     L1138 02 0000C9A8     L1146 02 0000C9B5     L1154 02 0000C9C2     L1162 02 0000C9CE
     L1170 02 0000C9DB     L1180 02 0000C9F2     L1190 02 0000CA09     L1200 02 0000CA22
     L1210 02 0000CA3C      L122 02 0000C23E     L1222 02 0000CA5A     L1234 02 0000CA79
     L1244 02 0000CA8F     L1246 02 0000CAA5     L1254 02 0000CABC     L1258 02 0000CAD4
     L1260 02 0000CAE4     L1264 02 0000CAEF      L127 02 0000C241     L1274 02 0000CB05
     L1286 02 0000CB23     L1296 02 0000CB3D      L130 02 0000C250     L1301 02 0000CB52
     L1303 02 0000CB5A     L1308 02 0000CB5E     L1312 02 0000CB73     L1320 02 0000CB90
     L1328 02 0000CBA0     L1339 02 0000CBBF     L1350 02 0000CBD8     L1360 02 0000CBF0
     L1373 02 0000CC15     L1386 02 0000CC36     L1397 02 0000CC53     L1402 02 0000CC6A
     L1405 02 0000CC76     L1406 02 0000CC7A     L1407 02 0000CC7E     L1412 02 0000CC82
     L1426 02 0000CCA9     L1439 02 0000CCCC     L1451 02 0000CCEC     L1466 02 0000CD16
     L1480 02 0000CD40     L1495 02 0000CD70     L1507 02 0000CD8A     L1519 02 0000CDA5
     L1531 02 0000CDC5      L154 06 00000000     L1543 02 0000CDE2     L1555 02 0000CE03
     L1568 02 0000CE2B     L1582 02 0000CE51     L1592 02 0000CE6D     L1622 02 0000CEBD
     L1634 02 0000CEDF     L1639 02 0000CEF4     L1644 02 0000CF08     L1648 02 0000CF18
     L1650 02 0000CF20     L1651 02 0000CF24     L1652 02 0000CF28     L1657 02 0000CF2C
     L1663 02 0000CF4A     L1672 02 0000CF6E     L1675 02 0000CF7A     L1676 02 0000CF7E
     L1678 02 0000CF86     L1679 02 0000CF8A     L1685 02 0000CF92     L1701 02 0000CFC2
     L1709 02 0000CFDE     L1718 02 0000D002     L1719 02 0000D006     L1723 02 0000D016
     L1729 02 0000D01A     L1736 02 0000D039     L1744 02 0000D056     L1759 02 0000D08F
     L1760 02 0000D093     L1765 02 0000D0A4     L1771 02 0000D0BC     L1772 02 0000D0C0
     L1773 02 0000D0C4     L1779 02 0000D0DC     L1781 02 0000D0E4     L1788 02 0000D0F0
     L1804 02 0000D11F     L1810 02 0000D135     L1824 02 0000D171     L1828 02 0000D181
     L1829 02 0000D185     L1830 02 0000D189     L1832 02 0000D191     L1838 02 0000D195
      L185 02 0000C273      L207 02 0000C29A      L214 02 0000C2A4       L22 02 0000C04C
      L227 02 0000C2BE     L2321 06 00000000      L234 06 00000000     L2346 02 0000D1CE
     L2406 06 00000000     L2423 02 0000D1EC      L243 02 0000C2D1     L2433 02 0000D20F
     L2437 02 0000D219      L249 02 0000C2E3      L254 02 0000C2F3      L280 02 0000C32E
      L281 02 0000C330      L284 02 0000C339       L30 02 0000C05E      L301 02 0000C357
     L3050 06 00000000     L3060 02 0000D237       L31 02 0000C062      L313 02 0000C372
      L318 02 0000C37F     L3202 02 0000D2D2     L3217 02 0000D2F8     L3220 02 0000D334
     L3225 02 0000D368     L3228 02 0000D375     L3250 02 0000D3C9      L326 02 0000C392
     L3261 02 0000D3D5      L327 02 0000C395     L3273 02 0000D3E1     L3290 02 0000D3F7
     L3300 02 0000D3FF     L3313 02 0000D40D     L3327 02 0000D41D     L3341 02 0000D42D
     L3355 02 0000D43D     L3365 02 0000D445      L337 02 0000C3A4     L3379 02 0000D455
     L3396 02 0000D46B     L3411 02 0000D47D     L3431 02 0000D499      L344 02 0000C3AA
     L3442 02 0000D4A3     L3449 02 0000D4AF     L3452 02 0000D4B5     L3454 02 0000D4B9
     L3455 02 0000D4BB     L3460 02 0000D4BD     L3471 02 0000D4C9     L3486 02 0000D4DD
     L3492 02 0000D4E7     L3496 02 0000D4ED       L35 02 0000C0A2     L3501 02 0000D4EF
      L351 02 0000C3B0     L3513 02 0000D503     L3517 02 0000D509     L3526 02 0000D511
     L3529 02 0000D51C     L3535 02 0000D534     L3541 02 0000D53C     L3562 02 0000D580
     L3573 02 0000D59B      L358 02 0000C3B6     L3585 02 0000D5BA     L3595 02 0000D5D0
     L3605 02 0000D5E6     L3620 02 0000D623     L3630 02 0000D64B     L3637 02 0000D657
     L3647 02 0000D675     L3657 02 0000D69D     L3659 02 0000D6A5     L3660 02 0000D6A9
     L3666 02 0000D6BA     L3681 02 0000D6EC     L3685 02 0000D6FC     L3696 02 0000D71E
     L3706 02 0000D745     L3711 02 0000D759     L3716 02 0000D76D     L3728 02 0000D79D
      L418 06 00000000      L453 02 0000C3C1      L469 02 0000C3E7      L484 02 0000C407
      L499 02 0000C428      L511 02 0000C43D      L522 02 0000C455      L536 02 0000C46E
      L548 02 0000C482      L563 02 0000C4A9      L577 02 0000C4BB      L591 02 0000C4CD
      L605 02 0000C4E0      L619 02 0000C504       L63 02 0000C1B1      L632 02 0000C525
      L649 02 0000C542      L670 02 0000C560      L685 02 0000C590      L700 02 0000C5C1
      L711 02 0000C5D7      L718 02 0000C5E4      L733 02 0000C604      L744 02 0000C619
       L75 02 0000C1C4      L762 02 0000C64E      L773 02 0000C666      L787 02 0000C68A
      L790 02 0000C6A1      L798 02 0000C6B8      L813 02 0000C6DE      L815 02 0000C6F1
      L823 02 0000C704      L853 02 0000C74D      L867 02 0000C76F      L885 02 0000C7A5
       L89 02 0000C1DF      L902 02 0000C7D2      L920 02 0000C800      L928 02 0000C80E
      L936 02 0000C81C      L944 02 0000C82A      L952 02 0000C838      L960 02 0000C847
      L968 02 0000C857      L976 02 0000C869      L984 02 0000C87B      L992 02 0000C88D
     LATES 02 0000CBAB     LBRAC 02 0000CD76     LEAVE 02 0000C48C      LESS 02 0000CAC2
    LETTER 00 0000D2C1       LFA 02 0000CBC7     LIMIT 02 0000C873      LIST 02 0000D5EF
       LIT 02 0000C052     LITER 06 00000000       MAX 06 00000000       MEM 00 0000C000
      MESS 06 00000000     MINUS 02 0000C56A       MON 02 0000D7B1     MSMOD 06 00000000
         N 00 000000A6      NBUF 02 00000000      NEXT 02 0000C06C       NFA 02 0000CBF8
        NP 00 00000014      NTOP 02 0000D7A9     OFSET 02 0000C957       ONE 02 0000C814
    ONEKEY 00 0000D1DC      ONEP 02 0000C9E2        OR 02 0000C3EE      ORIG 00 0000C000
       OUT 02 0000C93A     OUTCH 00 0000D2C1      OVER 02 0000C5CA       PAD 06 00000000
       PDO 02 0000C27C     PDOTQ 02 0000CF9A       PFA 02 0000CC1D     PFIND 02 0000C2D7
       PL1 02 0000C25F       PL2 02 0000C269     PLOOP 02 0000C24C      PLUS 02 0000C52B
       PN1 02 0000C174       PN2 02 0000C17C       POP 02 0000C295    POPTWO 02 0000C290
     PORIG 02 0000C8AB     PPLOO 06 00000000     PRNAM 02 0000C167     PSCOD 02 0000CE0F
     PSTOR 02 0000C620      PUSH 02 0000C064    PUSHOA 02 0000C434       PUT 02 0000C066
     QCOMP 02 0000CC8C      QCSP 02 0000CCF5      QERR 02 0000CC5E     QEXEC 02 0000CCB3
     QLOAD 02 0000CD23     QPAIR 02 0000CCD7     QTERM 02 0000C3B4     QUERY 02 0000D0FA
      QUES 02 0000D5D6         R 02 0000C4D3     RBRAC 02 0000CD90    REENTR 02 0000C004
     RFROM 02 0000C4C2      RNUM 02 0000C9C9       ROT 02 0000CB0B     RPSTO 02 0000C45D
      RSLW 02 0000D23F       SCR 02 0000C947      SCSP 02 0000CC3F     SECTL 02 00000000
     SECTR 02 00000000     SEMIS 02 0000C475     SETUP 02 0000C1A6      SIGN 02 0000D4DF
     SLASH 06 00000000     SMUDG 02 0000CDB0     SPACE 02 0000CB2D     SPACS 02 0000D4A5
      SPAT 02 0000C430     SPSTO 02 0000C445     SSIZE 02 00000000      STAR 06 00000000
     STATE 02 0000C988      STOD 06 00000000     STORE 02 0000C6BE       SUB 02 0000CA7F
      SWAP 02 0000C5ED    TCOLON 02 0000C144       TCR 00 0000D0F1     THREE 02 0000C830
       TIB 02 0000C8C7      TIBX 00 00000100      TICK 02 0000D2D8       TMP 06 00000000
     TOGGL 02 0000C654       TOP 02 0000D7BC       TOR 02 0000C4B0       TOS 00 0000009E
     TRACE 02 0000C0B4   TRACE_1 02 0000C0E6      TRAV 02 0000CB6B       TWO 02 0000C822
      TWOP 02 0000C9F9      TYPE 02 0000CEE8         U 06 00000000     UAREA 00 0000BF00
     ULESS 02 0000CAAC     UNTIL 02 0000D42F        UP 00 000000B6     USAVE 00 000000BE
      USER 02 0000C7DB     USLAS 06 00000000       VAR 02 0000C7B2       VL0 02 0000D1E8
     VLIST 02 0000D728      VOCL 02 0000C914         W 00 000000B2      WARM 02 0000D20B
      WARN 02 0000C8E7       WAT 02 0000C6A8     WIDTH 02 0000C8D6      WORD 06 00000000
     WSTOR 02 0000C6F8         X 06 00000000    XBLANK 00 0000D0AF       XCR 06 00000000
     XEMIT 06 00000000      XFOR 02 0000D1E4      XKEY 06 00000000       XOR 02 0000C40F
     XQTER 06 00000000     XSAVE 00 000000BA        XW 00 00000012     YSAVE 00 000000BC
     ZBRAN 02 0000C21E      ZEQU 02 0000C4E7    ZEQU_1 02 0000C4FB      ZERO 02 0000C806
     ZLESS 02 0000C50B   ZLESS_1 02 0000C51D
494 SYMBOLS

665 error(s), 8 warning(s)
