                        	
                        	; ============================================================================
                        	;        __
                        	;   \\__/ o\    (C) 2015-2016  Robert Finch, Stratford
                        	;    \  __ /    All rights reserved.
                        	;     \/_//     robfinch<remove>@finitron.ca
                        	;       ||
                        	;  
                        	;
                        	; This source file is free software: you can redistribute it and/or modify 
                        	; it under the terms of the GNU Lesser General Public License as published 
                        	; by the Free Software Foundation, either version 3 of the License, or     
                        	; (at your option) any later version.                                      
                        	;                                                                          
                        	; This source file is distributed in the hope that it will be useful,      
                        	; but WITHOUT ANY WARRANTY; without even the implied warranty of           
                        	; MERCHANTABILITY or FITNESS FOR A PARTICULAR PURPOSE.  See the            
                        	; GNU General Public License for more details.                             
                        	;                                                                          
                        	; You should have received a copy of the GNU General Public License        
                        	; along with this program.  If not, see <http://www.gnu.org/licenses/>.    
                        	;                                                                          
                        	; ============================================================================
                        	;
                        	LEDS		EQU		0xFFDC0600
                        	SEVENSEG	EQU		0xFFDC0080
                        	BUTTONS		EQU		0xFFDC0090
                        	PIC_IS		EQU		0xFFDC0FC0
                        	PIC_IE		EQU		0xFFDC0FC4
                        	PIC_ES		EQU		0xFFDC0FD0
                        	PIC_ESR		EQU		0xFFDC0FD4		; edge sense reset
                        	TEXTSCR		EQU		0xFFD00000
                        	TEXTCTRL	EQU		0xFFDA0000
                        	TEXTCOLS	EQU		0xFFDA0000
                        	TEXTROWS	EQU		0xFFDA0002
                        	
                        		code 17 bits
                        		org		$FFFC0000
FFFC0000 C073003F40 		jmp		ul_irq_routine[pc]
FFFC0005 000000FFCF 
FFFC000A 0000000000 		org		$FFFC0040
FFFC0010 0000000000 
FFFC0015 0000000000 
FFFC001A 0000000000 
FFFC0020 0000000000 
FFFC0025 0000000000 
FFFC002A 0000000000 
FFFC0030 0000000000 
FFFC0035 0000000000 
FFFC003A 0000000000 
FFFC0040 C073003F40 		jmp		sl_irq_routine[pc]
FFFC0045 000000FFCF 
FFFC004A 0000000000 		org		$FFFC0080
FFFC0050 0000000000 
FFFC0055 0000000000 
FFFC005A 0000000000 
FFFC0060 0000000000 
FFFC0065 0000000000 
FFFC006A 0000000000 
FFFC0070 0000000000 
FFFC0075 0000000000 
FFFC007A 0000000000 
FFFC0080 C073003F40 		jmp		hl_irq_routine[pc]
FFFC0085 000000FFCF 
FFFC008A 0000000000 		org		$FFFC00C0
FFFC0090 0000000000 
FFFC0095 0000000000 
FFFC009A 0000000000 
FFFC00A0 0000000000 
FFFC00A5 0000000000 
FFFC00AA 0000000000 
FFFC00B0 0000000000 
FFFC00B5 0000000000 
FFFC00BA 0000000000 
FFFC00C0 C073003F40 		jmp		ml_irq_routine[pc]
FFFC00C5 000000FFCF 
FFFC00CA 0000000000 		org		$FFFC0100
FFFC00D0 0000000000 
FFFC00D5 0000000000 
FFFC00DA 0000000000 
FFFC00E0 0000000000 
FFFC00E5 0000000000 
FFFC00EA 0000000000 
FFFC00F0 0000000000 
FFFC00F5 0000000000 
FFFC00FA 0000000000 
FFFC0100 0000F03F40 		jmp		nmi_rout[pc]
FFFC0105 00000000C0 
FFFC010A 0000000000 		org		$FFFC0140
FFFC0110 0000000000 
FFFC0115 0000000000 
FFFC011A 0000000000 
FFFC0120 0000000000 
FFFC0125 0000000000 
FFFC012A 0000000000 
FFFC0130 0000000000 
FFFC0135 0000000000 
FFFC013A 0000000000 
                        	cold_start:
                        	{+      ; use expanded instruction set
FFFC0140 0000104009 			ldi		r1,#$0001
FFFC0145 C060004091 			stw		r1,LEDS
FFFC014A 000000FFCD 
FFFC0150 03FFEFC009 			ldi		sp,#$00003FFE	; initialize kernel IRQ SP
FFFC0155 03FFEEC009 		   ldi		bp,#$00003FFE	; initialize BP
                        		   ; setup stack lower bounds regs
FFFC015A 0000004009 		   ldi		r1,#0
FFFC0160 300380010F 		   csrrw	r0,#$000E,r1
FFFC0165 340380010F 		   csrrw	r0,#$100E,r1
FFFC016A 380380010F 		   csrrw	r0,#$200E,r1
FFFC0170 3C0380010F 		   csrrw	r0,#$300E,r1
                        		   ; setup stack upper bounds regs
FFFC0175 FFFFE04009 		   ldi		r1,#-2
FFFC017A 3003C0010F 		   csrrw	r0,#$000F,r1
FFFC0180 3403C0010F 		   csrrw	r0,#$100F,r1
FFFC0185 3803C0010F 		   csrrw	r0,#$200F,r1
FFFC018A 3C03C0010F 		   csrrw	r0,#$300F,r1
FFFC0190 0000204009 			ldi		r1,#$0002
FFFC0195 C060004091 			stw		r1,LEDS
FFFC019A 000000FFCD 
                        	
                        			; - - - - - - - - - - - - - - - - - - - - - - - - - - - -
                        			; Setup MMU.
                        			; Can't use the stack until after the MMU is setup.
                        			; For the OS 4MiB pages are used and physical addresses
                        			; are set to match virtual addresses.
                        			; - - - - - - - - - - - - - - - - - - - - - - - - - - - - 
FFFC01A0 0000104009 			ldi		r1,#1
FFFC01A5 300200010F 			csrrw	r0,#8,r1		; select 4MiB pages
FFFC01AA 3000C0000F 			csrrw	r0,#3,r0		; set access key to map 0
FFFC01B0 C400004009 			ldi		r1,#$FFDC4000	; mapping table address
FFFC01B5 000000FFCD 
FFFC01BA 0000008030 			mov		r2,r0
                        	.cs1:
FFFC01C0 700000C209 			or		r3,r2,#$70000	; set read/write/execute
FFFC01C5 00083081B4 			stt		r3,[r1+r2*4]
FFFC01CA 0000108204 			add		r2,r2,#1
FFFC01D0 FFF000025C 			bltu	r2,#1024,.cs1
FFFC01D5 00000000C4 
FFFC01DA 4000C0000F 			csrrs	r0,#3,#$80000000	; turn on paging
FFFC01E0 00080000C0 
FFFC01E5 0000304009 			ldi		r1,#$0003
FFFC01EA C060004091 			stw		r1,LEDS
FFFC01F0 000000FFCD 
                        	
                        			; - - - - - - - - - - - - - - - - - - - - - - - - - - - - 
                        			; - - - - - - - - - - - - - - - - - - - - - - - - - - - - 
                        	;	   ldi	 sp,#$01FFFFFE	; initialize kernel IRQ SP
                        	;	   ldi	 bp,#$01FFFFFE	; initialize kernel IRQ BP
                        	
FFFC01F5 E000010009 	       ldi   r4,#$FFFE0000  ; base address of cpu ciTable
FFFC01FA 000000FFCF 
FFFC0200 300440040F 		   csrrw r0,#$11,r4		; update table address in CISC CSR
FFFC0205 CDB2004009 	       ldi   r1,#citable    ; point to compression table
FFFC020A 000000FFCF 
FFFC0210 0000008183 	       ldwu  r2,[r1]        ; r2 = count of entries
FFFC0215 0035000246 		   beq	 r2,r0,.cs4		; if no table entries
FFFC021A 0000204104 	       add   r1,r1,#2
                        	.cs3:	
FFFC0220 000000C184 	       ldp   r3,[r1]        ; r3 = entry
FFFC0225 000000C492 	       stp   r3,[r4]        ; store in cpu table
FFFC022A 0000504104 	       add   r1,r1,#5		; update address
FFFC0230 0000110404 	       add   r4,r4,#1       ; advance to next word
FFFC0235 FFFFF08204 	       add   r2,r2,#-1      ; decrement count
FFFC023A FFE6000259 		   bge   r2,#0,.cs3		; branch if non-zero
FFFC0240 C024A03F40 	       jmp   .cs4[pc]       ; flush pipeline
FFFC0245 000000FFCF 
                        	+}
                        	.cs4:
FFFC024A 0088200091 		   stw		r0,_out_fh	; set direct output to debug screen
FFFC0250 00000000CC 
FFFC0255 0000304009 			ldi		r1,#$0003
FFFC025A C060004091 			stw		r1,LEDS
FFFC0260 000000FFCD 
FFFC0265 0000404009 			ldi		r1,#4			; down button
FFFC026A 0070B03F50 			call	WaitForButton[pc]
FFFC0270 0D80003F50 			call	init_lifegame[pc]
FFFC0275 0000404009 			ldi		r1,#$0004
FFFC027A C060004091 			stw		r1,LEDS
FFFC0280 000000FFCD 
FFFC0285 0022503F50 		   call		init_irqtable[pc]
FFFC028A 0000404009 			ldi		r1,#$0004
FFFC0290 C060004091 			stw		r1,LEDS
FFFC0295 000000FFCD 
FFFC029A 0000404009 			ldi		r1,#4			; down button
FFFC02A0 006D503F50 			call	WaitForButton[pc]
FFFC02A5 06F0503F50 		   call		_InitPIC[pc]
FFFC02AA 0000504009 			ldi		r1,#$0005
FFFC02B0 C060004091 			stw		r1,LEDS
FFFC02B5 000000FFCD 
FFFC02BA 0000404009 			ldi		r1,#4			; down button
FFFC02C0 006B503F50 			call	WaitForButton[pc]
                        	;        call	SetupMMU[pc]
FFFC02C5 0000604009 			ldi		r1,#$0006
FFFC02CA C060004091 			stw		r1,LEDS
FFFC02D0 000000FFCD 
FFFC02D5 007B503F50 			call	Tc1Init[pc]
FFFC02DA 0000704009 			ldi		r1,#$0007
FFFC02E0 C060004091 			stw		r1,LEDS
FFFC02E5 000000FFCD 
FFFC02EA 0000404009 			ldi		r1,#4			; down button
FFFC02F0 0068503F50 			call	WaitForButton[pc]
FFFC02F5 006E503F50 			call	clearTxtScreen[pc]
FFFC02FA 0000804009 			ldi		r1,#$0008
FFFC0300 C060004091 			stw		r1,LEDS
FFFC0305 000000FFCD 
FFFC030A 7FC0004009 			ldi		r1,#%000010000_111111111_0000000000
FFFC0310 00000000C8 
FFFC0315 0141C04094 			stt		r1,_DBGAttr
FFFC031A C5A2A00050 			call	_DBGHomeCursor
FFFC0320 000000FFCF 
FFFC0325 CDA5548009 			ldi		r18,#msgHello
FFFC032A 000000FFCF 
FFFC0330 00000000F8 			mark1
FFFC0335 06CC003F50 			call	_DBGDisplayString[pc]
                        			; setup random number generator with non-zero values
                        			; also LSB16 can't be zero
FFFC033A 8888804009 			ldi		r1,#$8888888888
FFFC0340 00008888C8 
FFFC0345 0140004093 			std		r1,m_w
FFFC034A 6789004009 			ldi		r1,#$1234567890
FFFC0350 00001234C5 
FFFC0355 0140A04093 			std		r1,m_z
FFFC035A 0140004086 			ldd		r1,m_w
FFFC0360 C008004094 			stt		r1,SEVENSEG
FFFC0365 000000FFCD 
FFFC036A 0000404009 			ldi		r1,#4			; down button
FFFC0370 0060503F50 			call	WaitForButton[pc]
FFFC0375 006B003F50 			call	RandomizeTextScreen[pc]
FFFC037A 0000904009 			ldi		r1,#$0009
FFFC0380 C060004091 			stw		r1,LEDS
FFFC0385 000000FFCD 
FFFC038A 0000404009 			ldi		r1,#4			; down button
FFFC0390 005E503F50 			call	WaitForButton[pc]
FFFC0395 7FC0004009 			ldi		r1,#%000010000_111111111_0000000000
FFFC039A 00000000C8 
FFFC03A0 0023C04094 			stt		r1,DBGAttr
FFFC03A5 00000000CC 
FFFC03AA CD8D000050 			call	DBGHomeCursor
FFFC03B0 000000FFCF 
FFFC03B5 CDA5548009 			ldi		r18,#msgHello
FFFC03BA 000000FFCF 
FFFC03C0 0D65503F50 			call	DBGPrtstr[pc]
FFFC03C5 0000A04009 			ldi		r1,#$000A
FFFC03CA C060004091 			stw		r1,LEDS
FFFC03D0 000000FFCD 
FFFC03D5 0000104009 			ldi		r1,#1			; right button
FFFC03DA 0059B03F50 			call	WaitForButton[pc]
FFFC03E0 0007003F50 			call	copy_preinit_data[pc]
FFFC03E5 0000B04009 			ldi		r1,#$000B
FFFC03EA C060004091 			stw		r1,LEDS
FFFC03F0 000000FFCD 
FFFC03F5 0000C04009 			ldi		r1,#$000C
FFFC03FA C060004091 			stw		r1,LEDS
FFFC0400 000000FFCD 
                        			//call	_FMTKInitialize[pc]
FFFC0405 7FC0004009 			ldi		r1,#%000010000_111111111_0000000000
FFFC040A 00000000C8 
FFFC0410 0141C04094 			stt		r1,_DBGAttr
FFFC0415 00000000E8 			cli
FFFC041A 0087603F50 			call	_BIOSMain[pc]
FFFC0420 0000D04009 			ldi		r1,#13
FFFC0425 C060004091 			stw		r1,LEDS
FFFC042A 000000FFCD 
                        	.cs5:
FFFC0430 0000C00046 			bra		.cs5		; hang the machine
                        	
FFFC0435     000000     			align	
                        	
                        	pi_val:
FFFC0438 4442D18469 	dd	0x4000921FB54442D18469
FFFC043D 4000921FB5 
                        	;dw	0x8BDA3F4E,0x84698972,0xB54442D1,0x4000921F
                        	
                        	;----------------------------------------------------------------------------
                        	; copy pre-initialized data to data area
                        	;----------------------------------------------------------------------------
FFFC0442 0000000000 			align	1
FFFC0447 0000000000 
FFFC044C   00000000   
                        	
                        	copy_preinit_data:
FFFC0450 0000000053 				tgt
FFFC0455 CE2B008009 			    ldi		r2,#begin_init_data
FFFC045A 000000FFCF 
FFFC0460 000000C009 			    ldi		r3,#$1000000
FFFC0465 00000001C0 
                        	.j1:
FFFC046A C00800C094 				stt		r3,SEVENSEG
FFFC0470 000000FFCD 
FFFC0475 0000004286 			    ldd		r1,[r2]
FFFC047A 0000004393 			    std		r1,[r3]
FFFC0480 0000A08204 				add		r2,r2,#10
FFFC0485 0000A0C304 			    add		r3,r3,#10
FFFC048A FFE02E025C 				bltu	r2,#end_init_data,.j1
FFFC0490 000FFFCEC2 
FFFC0495 0FFFD04009 			    ldi		r1,#$FFFD
FFFC049A C060004094 			    stt		r1,LEDS
FFFC04A0 000000FFCD 
FFFC04A5 0000000AEF 				ret

                        	;----------------------------------------------------------------------------
                        	;----------------------------------------------------------------------------
                        	
                        	init_irqtable:
FFFC04AA 0000000053 			tgt
FFFC04B0 C073004009 			ldi		r1,#irq_routine	; set the address for IRQ's
FFFC04B5 000000FFCF 
FFFC04BA 300100010F 			csrrw	r0,#4,r1
FFFC04C0 0000A04009 			ldi		r1,#10
FFFC04C5 C058008009 			ldi		r2,#uninit_interrupt
FFFC04CA 000000FFCF 
                        	.j1:
FFFC04D0 C060004091 			stw		r1,LEDS
FFFC04D5 000000FFCD 
FFFC04DA 0000008193 			std		r2,[r1]
FFFC04E0 0000A04104 			add		r1,r1,#10
FFFC04E5 FFEB3D815C 			bltu	r1,#5110,.j1
FFFC04EA 00000001C3 
FFFC04F0 0000000093 			std		r0,[r0]
FFFC04F5 0000A48009 			ldi		r18,#10
FFFC04FA CD3F04C009 			ldi		r19,#VideoBIOSCall
FFFC0500 000000FFCF 
FFFC0505 C714000050 			call	_set_vector
FFFC050A 000000FFCF 
FFFC0510 001B348009 			ldi		r18,#432+3
FFFC0515 C07504C009 			ldi		r19,#irq30Hz
FFFC051A 000000FFCF 
FFFC0520 C714000050 			call	_set_vector
FFFC0525 000000FFCF 
FFFC052A 001CE48009 			ldi		r18,#432+30
FFFC0530 C0DD04C009 			ldi		r19,#_BTNCIRQHandler
FFFC0535 000000FFCF 
FFFC053A C714000050 			call	_set_vector
FFFC0540 000000FFCF 
FFFC0545 001FC48009 			ldi		r18,#508
FFFC054A C114A4C009 			ldi		r19,#_DBERout
FFFC0550 000000FFCF 
FFFC0555 C714000050 			call	_set_vector
FFFC055A 000000FFCF 
FFFC0560 001FD48009 			ldi		r18,#509
FFFC0565 C15454C009 			ldi		r19,_IBERout
FFFC056A 000000FFCF 
FFFC0570 C714000050 			call	_set_vector
FFFC0575 000000FFCF 
FFFC057A 0000000AEF 			ret

                        	;----------------------------------------------------------------------------
                        	;----------------------------------------------------------------------------
                        			align	16                        	
                        	uninit_interrupt:
FFFC0580 0000000170 			push	r1
FFFC0585 0000000270 			push	r2
FFFC058A 0000000370 			push	r3
FFFC0590 0000000470 			push	r4
FFFC0595 0000000570 			push	r5
FFFC059A 0000000670 			push	r6
FFFC05A0 0000000770 			push	r7
FFFC05A5 0000000870 			push	r8
FFFC05AA 0000000970 			push	r9
FFFC05B0 0000000A70 			push	r10
FFFC05B5 0000000B70 			push	r11
FFFC05BA 0000000C70 			push	r12
FFFC05C0 0000000D70 			push	r13
FFFC05C5 0000000E70 			push	r14
FFFC05CA 0000000F70 			push	r15
FFFC05D0 0000001070 			push	r16
FFFC05D5 0000001170 			push	r17
FFFC05DA 0000001270 			push	r18
FFFC05E0 0000001370 			push	r19
FFFC05E5 0000001470 			push	r20
FFFC05EA 0000001570 			push	r21
FFFC05F0 0000001670 			push	r22
FFFC05F5 0000001770 			push	r23
FFFC05FA 0000001870 			push	r24
FFFC0600 0000001970 			push	r25
FFFC0605 0000001A70 			push	r26
FFFC060A 0000001B70 			push	r27
FFFC0610 0000001C70 			push	r28
FFFC0615 0000001D70 			push	r29
FFFC061A 0000001E70 			push	r30
FFFC0620 0000003A70 			push	r58
FFFC0625 0000003B70 			push	r59
FFFC062A C06F048009 			ldi		r18,#msgUninitIRQ
FFFC0630 000000FFCF 
FFFC0635 C6FF500050 			call	_DBGDisplayString
FFFC063A 000000FFCF 
FFFC0640 0000003B71 			pop		r59
FFFC0645 0000003A71 			pop		r58
FFFC064A 0000001E71 			pop		r30
FFFC0650 0000001D71 			pop		r29
FFFC0655 0000001C71 			pop		r28
FFFC065A 0000001B71 			pop		r27
FFFC0660 0000001A71 			pop		r26
FFFC0665 0000001971 			pop		r25
FFFC066A 0000001871 			pop		r24
FFFC0670 0000001771 			pop		r23
FFFC0675 0000001671 			pop		r22
FFFC067A 0000001571 			pop		r21
FFFC0680 0000001471 			pop		r20
FFFC0685 0000001371 			pop		r19
FFFC068A 0000001271 			pop		r18
FFFC0690 0000001171 			pop		r17
FFFC0695 0000001071 			pop		r16
FFFC069A 0000000F71 			pop		r15
FFFC06A0 0000000E71 			pop		r14
FFFC06A5 0000000D71 			pop		r13
FFFC06AA 0000000C71 			pop		r12
FFFC06B0 0000000B71 			pop		r11
FFFC06B5 0000000A71 			pop		r10
FFFC06BA 0000000971 			pop		r9
FFFC06C0 0000000871 			pop		r8
FFFC06C5 0000000771 			pop		r7
FFFC06CA 0000000671 			pop		r6
FFFC06D0 0000000571 			pop		r5
FFFC06D5 0000000471 			pop		r4
FFFC06DA 0000000371 			pop		r3
FFFC06E0 0000000271 			pop		r2
FFFC06E5 0000000171 			pop		r1
FFFC06EA 00000000E4 			iret
                        	
                        			align	2                        	
                        	msgUninitIRQ:
FFFC06F0 69006E0055 		dw	"Uninitialized exception.\r\n", 0
FFFC06F5 0069006E00 
FFFC06FA 6100690074 
FFFC0700 7A0069006C 
FFFC0705 0064006500 
FFFC070A 7800650020 
FFFC0710 7000650063 
FFFC0715 0069007400 
FFFC071A 2E006E006F 
FFFC0720 00000A000D 
FFFC0725         
                        	
                        	;----------------------------------------------------------------------------
                        	;----------------------------------------------------------------------------
FFFC0726 0000000000 			align	1
FFFC072B 0000000000 
                        	
                        	ul_irq_routine:
                        	sl_irq_routine:
                        	hl_irq_routine:
                        	ml_irq_routine:
                        	irq_routine:
FFFC0730 30018F000F 			csrrw	r60,#6,r0	; get the cause code
FFFC0735 0015003C46 			beq		r60,r0,.j1	; no cause
FFFC073A 0000AF3C11 			mulu	r60,r60,#10
FFFC0740 00000F3C86 			ldd		r60,_interrupt_table[r60]	; load vector from table
FFFC0745 0000003C40 			jmp		[r60]		; and jump to it
                        	.j1:
FFFC074A 00000000E4 			iret
                        	
                        	;----------------------------------------------------------------------------
                        	; 30 Hz interrupt
                        	; - invoke system scheduler
                        	;----------------------------------------------------------------------------
                        	
                        	irq30Hz:
                        			; reset the edge sense circuit to re-enable interrupts
FFFC0750 0000304009 			ldi		r1,#3
FFFC0755 C0FD404094 			stt		r1,PIC_ESR
FFFC075A 000000FFCD 
                        			; update on-screen IRQ live indicator
FFFC0760 000A404024 			inc		TEXTSCR+164,#1
FFFC0765 000000FFCD 
                        	//		ldd		r1,_interrupt_table+40	; get scheduler vector
                        	//		beq		r1,r0,.j1
                        	//		jmp		[r1]
                        	.j1:
FFFC076A 00000000E4 			iret
                        	
                        	;----------------------------------------------------------------------------
                        	;----------------------------------------------------------------------------
                        	BTNCIRQRout:
FFFC0770 0001EF0009 			ldi		r60,#30		; reset edge sense circuit
FFFC0775 C0FD4F0094 			stt		r60,PIC_ESR
FFFC077A 000000FFCD 
FFFC0780 0000000170 			push	r1
FFFC0785 0000000270 			push	r2
FFFC078A 0000000370 			push	r3
FFFC0790 0000000470 			push	r4
FFFC0795 0000000570 			push	r5
FFFC079A 0000000670 			push	r6
FFFC07A0 0000000770 			push	r7
FFFC07A5 0000000870 			push	r8
FFFC07AA 0000000970 			push	r9
FFFC07B0 0000000A70 			push	r10
FFFC07B5 0000000B70 			push	r11
FFFC07BA 0000000C70 			push	r12
FFFC07C0 0000000D70 			push	r13
FFFC07C5 0000000E70 			push	r14
FFFC07CA 0000000F70 			push	r15
FFFC07D0 0000001070 			push	r16
FFFC07D5 0000001170 			push	r17
FFFC07DA 0000001270 			push	r18
FFFC07E0 0000001370 			push	r19
FFFC07E5 0000001470 			push	r20
FFFC07EA 0000001570 			push	r21
FFFC07F0 0000001670 			push	r22
FFFC07F5 0000001770 			push	r23
FFFC07FA 0000001870 			push	r24
FFFC0800 0000001970 			push	r25
FFFC0805 0000001A70 			push	r26
FFFC080A 0000001B70 			push	r27
FFFC0810 0000001C70 			push	r28
FFFC0815 0000001D70 			push	r29
FFFC081A 0000001E70 			push	r30
FFFC0820 0000003A70 			push	r58
FFFC0825 0000003B70 			push	r59
FFFC082A C0DD000050 			call	_BTNCIRQHandler
FFFC0830 000000FFCF 
FFFC0835 0000003B71 			pop		r59
FFFC083A 0000003A71 			pop		r58
FFFC0840 0000001E71 			pop		r30
FFFC0845 0000001D71 			pop		r29
FFFC084A 0000001C71 			pop		r28
FFFC0850 0000001B71 			pop		r27
FFFC0855 0000001A71 			pop		r26
FFFC085A 0000001971 			pop		r25
FFFC0860 0000001871 			pop		r24
FFFC0865 0000001771 			pop		r23
FFFC086A 0000001671 			pop		r22
FFFC0870 0000001571 			pop		r21
FFFC0875 0000001471 			pop		r20
FFFC087A 0000001371 			pop		r19
FFFC0880 0000001271 			pop		r18
FFFC0885 0000001171 			pop		r17
FFFC088A 0000001071 			pop		r16
FFFC0890 0000000F71 			pop		r15
FFFC0895 0000000E71 			pop		r14
FFFC089A 0000000D71 			pop		r13
FFFC08A0 0000000C71 			pop		r12
FFFC08A5 0000000B71 			pop		r11
FFFC08AA 0000000A71 			pop		r10
FFFC08B0 0000000971 			pop		r9
FFFC08B5 0000000871 			pop		r8
FFFC08BA 0000000771 			pop		r7
FFFC08C0 0000000671 			pop		r6
FFFC08C5 0000000571 			pop		r5
FFFC08CA 0000000471 			pop		r4
FFFC08D0 0000000371 			pop		r3
FFFC08D5 0000000271 			pop		r2
FFFC08DA 0000000171 			pop		r1
FFFC08E0 00000000E4 			iret
                        	
                        	;----------------------------------------------------------------------------
                        	;----------------------------------------------------------------------------
                        	TestFP:
FFFC08E5 0000000053 		   tgt
FFFC08EA 0000004009 		   ldi		r1,#$0
FFFC08F0 0000004094 		   stt		r1,0
FFFC08F5 0000204094 		   stt		r1,2
FFFC08FA 0000404094 		   stt		r1,4
FFFC0900 2400004009 		   ldi		r1,#%01000000_00000010_01000000_00000000
FFFC0905 00000040C0 
FFFC090A 0000604094 		   stt		r1,6
FFFC0910 0018000026 		   lf.q		fp0,0
FFFC0915 0018040026 		   lf.q		fp1,0
FFFC091A 00084040F9 		   fadd.q	fp2,fp0,fp1	// 10.0+10.0
FFFC0920 000C8040F9 		   fmul.q	fp3,fp0,fp1	// 10.0*10.0
FFFC0925 00105040F9 		   fsub.q	fp4,fp0,fp1	// 10.0-10.0
FFFC092A 001440C3F9 		   fadd.q	fp5,fp3,fp3	// 100.0+100.0
FFFC0930 00189043F9 		   fdiv.q	fp6,fp3,fp1	// 100.0/10.0
FFFC0935 001C9040F9 		   fdiv.q	fp7,fp0,fp1	// 10.0/10.0
FFFC093A 00209045F9 		   fdiv.q	fp8,fp5,fp1	// 200.0/10.0
FFFC0940 00249141F9 		   fdiv.q	fp9,fp1,fp5	// 10.0/200.0
FFFC0945 00086040F9 		   fcmp.q	r2,fp0,fp1
FFFC094A 0000000070 		   push.q	fp1
FFFC0950 00000000F0 		   push.q	fp2
FFFC0955 00000002F1 		   pop.q	fp11
FFFC095A 0000000371 		   pop.q	fp12
FFFC0960 0005000255 		   bbs		r2,#0,.cs5	// Get the equals bit
                        	.cs5:
                        			lf.q	fp0,zero
                        			lf.q	fp1,negzero
FFFC0965 000C6040F9 			fcmp.q	r3,fp0,fp1	// Test 0.0 = -0.0
                        			lf.q	fp1,ten
FFFC096A 00294001F9 			fneg.q	fp10,fp1	// check negation (sign bit inverts)
FFFC0970 0000000AEF 			ret

                        	//----------------------------------------------------------------------------
                        	//	r1 = button to wait for
                        	//		1 = right button
                        	//		2 = left button
                        	//		4 = down button
                        	//		8 = up button
                        	//		16 = centre button.
                        	//----------------------------------------------------------------------------
                        	
                        	WaitForButton:
FFFC0975 0000000053 			tgt
FFFC097A 0000000270 			push	r2
                        			; wait for button pressed
                        	.j1:
FFFC0980 C009008083 			ldwu	r2,BUTTONS
FFFC0985 000000FFCD 
FFFC098A C008008091 			stw		r2,SEVENSEG
FFFC0990 000000FFCD 
FFFC0995 6020208213 			bfextu	r2,r2,#2,#2
FFFC099A FFE6000246 			beq		r2,r0,.j1
                        	
                        	.j2:	; wait for button release
FFFC09A0 C009008083 			ldwu	r2,BUTTONS
FFFC09A5 000000FFCD 
FFFC09AA C008008091 			stw		r2,SEVENSEG
FFFC09B0 000000FFCD 
FFFC09B5 6020208213 			bfextu	r2,r2,#2,#2
FFFC09BA FFE6000247 			bne		r2,r0,.j2
FFFC09C0 1E24008009 			ldi		r2,#123456
FFFC09C5 C008008094 			stt		r2,SEVENSEG
FFFC09CA 000000FFCD 
FFFC09D0 0000000271 			pop		r2
FFFC09D5 0000000AEF 			ret

                        	;----------------------------------------------------------------------------
                        	;----------------------------------------------------------------------------
                        	clearTxtScreen:
FFFC09DA 0000000053 			tgt
FFFC09E0 0002410009 			ldi		r4,#$0024
FFFC09E5 C060010091 			stw		r4,LEDS
FFFC09EA 000000FFCD 
FFFC09F0 0000004009 			ldi		r1,#$FFD00000	; text screen address
FFFC09F5 000000FFCD 
FFFC09FA 00A2C08009 			ldi		r2,#2604		; number of chars 2604 (84x31)
FFFC0A00 7FC200C009 			ldi		r3,#%000010000_111111111_0000100000
FFFC0A05 00000000C8 
                        	.cts1:
FFFC0A0A 000000C194 			stt		r3,[r1]
FFFC0A10 0000404104 			add		r1,r1,#4
FFFC0A15 FFFFF08204 			sub		r2,r2,#1
FFFC0A1A FFF0000257 			bne		r2,#0,.cts1
FFFC0A20 0000000AEF 			ret

                        	// ----------------------------------------------------------------------------
                        	// Fill the text screen with random characters and colors.
                        	// ----------------------------------------------------------------------------
                        	
                        	RandomizeTextScreen:
FFFC0A25 0000000053 			tgt
FFFC0A2A 0000010009 			ldi		r4,#TEXTSCR
FFFC0A30 000000FFCD 
FFFC0A35 000180C009 			ldi		r3,#24
FFFC0A3A C06000C091 			stw		r3,LEDS
FFFC0A40 000000FFCD 
                        	.j1:
FFFC0A45 0011003F50 			call	gen_rand[pc]
FFFC0A4A 0000008130 			mov		r2,r1
FFFC0A50 0010503F50 			call	gen_rand[pc]
FFFC0A55 00A2C0411C 			modu	r1,r1,#2604
FFFC0A5A 0000010009 			ldi		r4,#TEXTSCR
FFFC0A60 000000FFCD 
FFFC0A65 00082044B4 			stt		r2,[r4+r1*4]
FFFC0A6A C008004094 			stt		r1,SEVENSEG
FFFC0A70 000000FFCD 
FFFC0A75 C009004083 			ldwu	r1,BUTTONS
FFFC0A7A 000000FFCD 
FFFC0A80 FFC5008154 			bbc		r1,#2,.j1
FFFC0A85 0000000AEF 			ret

                        	// ----------------------------------------------------------------------------
                        	// Initialize text controller #1
                        	// ----------------------------------------------------------------------------
                        	
                        	Tc1Init:
FFFC0A8A 0000000053 			tgt
FFFC0A90 A000004009 			ldi		r1,#$FFDA0000
FFFC0A95 000000FFCD 
FFFC0A9A C0ACA08009 			ldi		r2,#Tc1InitTab
FFFC0AA0 000000FFCF 
                        	.j1:
FFFC0AA5 000000C283 			ldwu	r3,[r2]
FFFC0AAA 000000C194 			stt		r3,[r1]
FFFC0AB0 0000404104 			add		r1,r1,#4
FFFC0AB5 0000208204 			add		r2,r2,#2
FFFC0ABA FFEB0C015C 			bltu	r1,#$FFDA0030,.j1
FFFC0AC0 000FFDA0C0 
FFFC0AC5 0000000AEF 			ret

                        			align	2                        	
                        	
                        	// The text controller registers are aligned on word addresses but they are
                        	// really only 16 bit wide.
                        	// For some reason the display memory is offset by two characters. Hence the
                        	// special constant $FFFE as the start of displayed area rather than $0000.
                        	
                        	Tc1InitTab:
FFFC0ACA       3054       			dw		$3054	//  3=char out delay, 84 columns
FFFC0ACC       001F       			dw		31	// rows
FFFC0ACE       0042       			dw		66	// left
FFFC0AD0       0010       			dw		16	// top
FFFC0AD2       0007       			dw		 7	// max scan line
FFFC0AD4       0021       			dw		$21	// pixel height, width
FFFC0AD6       0000       			dw		0		// reserved - not used
FFFC0AD8       0186       			dw		%110000110	// transparent color
FFFC0ADA       00E0       			dw		$0E0	// cursor controls
FFFC0ADC       001F       			dw		31		// cursor end
FFFC0ADE       FFFE       			dw		$FFFE	// display start address
FFFC0AE0       0000       			dw		$0000	// cursor position
FFFC0AE2       0000       			dw		0		// light pen (read only)
FFFC0AE4       0000       			dw		0		// scratchpad 1
FFFC0AE6       0000       			dw		0		// scratchpad 2
FFFC0AE8       0000       			dw		0		// scratchpad 3
                        	
                        	// ----------------------------------------------------------------------------
                        	// Setup MMU
                        	//
                        	// Sets up map #0 so that virtual and physical addresses match then turns
                        	// on paging.
                        	// The MMU only handles wyde data.
                        	// ----------------------------------------------------------------------------
FFFC0AEA 0000000000 			align	1
                        	
                        	SetupMMU:
FFFC0AF0 0000000053 			tgt
FFFC0AF5 0001404009 			ldi		r1,#$0014
FFFC0AFA C060004091 			stw		r1,LEDS
FFFC0B00 000000FFCD 
FFFC0B05 3000C0000F 			csrrw	r0,#3,r0		; access map #0, disable paging
FFFC0B0A C400004009 			ldi		r1,#$FFDC4000	; mapping table address
FFFC0B10 000000FFCD 
FFFC0B15 0040008009 			ldi		r2,#1024		; number of map entries
FFFC0B1A 000000C009 			ldi		r3,#0
                        	.smmu1:							
FFFC0B20 7000010309 			or		r4,r3,#$70000		; readable/writable/executable
FFFC0B25 000840C1B4 			stt		r4,[r1+r3*4]
FFFC0B2A 000010C304 			add		r3,r3,#1
FFFC0B30 FFF000834C 			bltu	r3,r2,.smmu1
FFFC0B35 4000C0000F 			csrrs	r0,#3,#$80000000	; turn on paging
FFFC0B3A 00080000C0 
FFFC0B40 0001504009 			ldi		r1,#$0015
FFFC0B45 C060004091 			stw		r1,LEDS
FFFC0B4A 000000FFCD 
FFFC0B50 0000000AEF 			ret

                        	// ----------------------------------------------------------------------------
                        	// Uses George Marsaglia's multiply method
                        	//
                        	// m_w = <choose-initializer>;    /* must not be zero */
                        	// m_z = <choose-initializer>;    /* must not be zero */
                        	//
                        	// uint get_random()
                        	// {
                        	//     m_z = 36969 * (m_z & 65535) + (m_z >> 16);
                        	//     m_w = 18000 * (m_w & 65535) + (m_w >> 16);
                        	//     return (m_z << 16) + m_w;  /* 32-bit result */
                        	// }
                        	// ----------------------------------------------------------------------------
                        	//
                        	gen_rand:
FFFC0B55 0000000053 			tgt
FFFC0B5A 0000000270 			push	r2
FFFC0B60 0140A04086 			ldd		r1,m_z
FFFC0B65 FFFFF04108 			and		r1,r1,#$FFFFFFFFFF
FFFC0B6A 0000FFFFCF 
FFFC0B70 0CEC908111 			mulu	r2,r1,#36969696969
FFFC0B75 0000089BC9 
FFFC0B7A 0140A04086 			ldd		r1,m_z
FFFC0B80 41001A0102 			shru	r1,r1,#40
FFFC0B85 0400204202 			add		r2,r2,r1
		std		r2,m_z
FFFC0B8A 0140A08093 
                        	
FFFC0B90 0140004086 			ldd		r1,m_w
FFFC0B95 FFFFF04108 			and		r1,r1,#$FFFFFFFFFF
FFFC0B9A 0000FFFFCF 
FFFC0BA0 2340008111 			mulu	r2,r1,#18000000000
FFFC0BA5 00000430CE 
FFFC0BAA 0140004086 			ldd		r1,m_w
FFFC0BB0 41001A0102 			shru	r1,r1,#40
FFFC0BB5 0400204202 			add		r2,r2,r1
		std		r2,m_w
FFFC0BBA 0140008093 
FFFC0BC0 0000000271 			pop		r2
                        	rand:
FFFC0BC5 0000000053 			tgt
FFFC0BCA 0000000270 			push	r2
FFFC0BD0 0140008086 			ldd		r2,m_w
FFFC0BD5 0140A04086 			ldd		r1,m_z
FFFC0BDA 40001A0102 			shl		r1,r1,#40
FFFC0BE0 0400108102 			add		r1,r1,r2
		pop		r2
FFFC0BE5 0000000271 
FFFC0BEA 0000000AEF 			ret

FFFC0BF0 0000000000 	zero:		dd	0
FFFC0BF5 0000000000 
FFFC0BFA 0000000000 	negzero:	dd	0x80000000000000000000
FFFC0C00   80000000   
FFFC0C04 0000000000 	ten:		dt	0,0,0,%01000000_00000010_01000000_00000000
FFFC0C09 0000000000 
FFFC0C0E 0240000000 
FFFC0C13         
FFFC0C14 0000000000 	pi:			dt	0,0,$54442D18,$400921FB		// PI to 19 digits accuracy
FFFC0C19 2D18000000 
FFFC0C1E 0921FB5444 
FFFC0C23         
                        	
                        	;----------------------------------------------------------------------------
                        	; 'C' calling conventions in use.
                        	;
                        	; Parameters:
                        	;	r18 = pointer to string
                        	; Returns:
                        	;	r1 = length of string
                        	;----------------------------------------------------------------------------
FFFC0C24 0000000000 			align	1
FFFC0C29 0000000000 
FFFC0C2E       0000       
                        	
                        	_strlen2:
FFFC0C30 0000000370 			push	r3
FFFC0C35 0000004030 			mov		r1,r0		; length = 0
                        	.j1:
FFFC0C3A 00003481A3 			ldwu	r3,[r1+r18]
FFFC0C40 0000204104 			addi	r1,r1,#2
FFFC0C45 FFF5000347 			bne		r3,r0,.j1
                        	.xit:
FFFC0C4A FFFFE04104 			subi	r1,r1,#2
FFFC0C50 0000000371 			pop		r3
FFFC0C55 0000000AEF 			ret

                        	;----------------------------------------------------------------------------
                        	; 'C' calling conventions in use.
                        	;
                        	; Parameters:
                        	;	r18 = pointer to destination string
                        	;	r19 = pointer to source string
                        	;
                        	; Returns:
                        	;	r1 = pointer to destination string
                        	;----------------------------------------------------------------------------
                        	
                        	_strcpy2:
FFFC0C5A 0000000370 			push	r3
FFFC0C60 0000004030 			mov		r1,r0
                        	.j1:
FFFC0C65 00003053A3 			ldwu	r3,[r19+r1]
FFFC0C6A 00003052B1 			stw		r3,[r18+r1]
FFFC0C70 0000204104 			addi	r1,r1,#2
FFFC0C75 FFF0000347 			bne		r3,r0,.j1
FFFC0C7A 0000000371 			pop		r3
FFFC0C80 0000005230 			mov		r1,r18
FFFC0C85 0000000AEF 			ret

                        		code
FFFC0C8A 0000000000 		align	1
                        	
                        	_GetButtonSTKSIZE_ EQU 0
                        		code
                        		align	16                        	
FFFC0C90 0000000053 	public code _BIOSMain:
	      	tgt  
FFFC0C95 0000003A70 		      	push 	xlr
FFFC0C9A 0000003B70 		      	push 	bp
FFFC0CA0 C0DC0E8009 		      	ld   	xlr,#BIOSMain_4
FFFC0CA5 000000FFCF 
FFFC0CAA 00000EFF30 		      	mov  	bp,sp
FFFC0CB0 FFFCEFFF04 		      	sub  	sp,sp,#_BIOSMainSTKSIZE_
FFFC0CB5 CDB300C082 		      	ldw  	r3,BIOSMain_1
FFFC0CBA 000000FFCF 
FFFC0CC0 FFFCE03B93 		      	std  	r0,-50[bp]
FFFC0CC5 7FC000C009 		      	ld   	r3,#8911872
FFFC0CCA 00000000C8 
FFFC0CD0 0141C0C094 		      	stt  	r3,_DBGAttr
FFFC0CD5 C5C8500050 		      	call 	_DBGClearScreen
FFFC0CDA 000000FFCF 
FFFC0CE0 C5A2A00050 		      	call 	_DBGHomeCursor
FFFC0CE5 000000FFCF 
FFFC0CEA 0000001270 		      	push 	r18
FFFC0CF0 CDC2E48009 		      	ld   	r18,#BIOSMain_2
FFFC0CF5 000000FFCF 
FFFC0CFA C6FF500050 		      	call 	_DBGDisplayString
FFFC0D00 000000FFCF 
FFFC0D05 0000001271 		      	pop  	r18
FFFC0D0A 0000001270 		      	push 	r18
FFFC0D10 CDBD248009 		      	ld   	r18,#BIOSMain_3
FFFC0D15 000000FFCF 
FFFC0D1A C6FF500050 		      	call 	_DBGDisplayString
FFFC0D20 000000FFCF 
FFFC0D25 0000001271 		      	pop  	r18
                        	BIOSMain_7:
FFFC0D2A 0000000053 		      	tgt  
                        		      	     	
FFFC0D30 C009004082 				ldw		r1,BUTTONS
FFFC0D35 000000FFCD 
                        	BIOSMain_12:
                        	BIOSMain_9:
                        	BIOSMain_11:
FFFC0D3A FFFD807B93 		      	std  	r1,-40[bp]
FFFC0D40 FFFD80FB86 		      	ldd  	r3,-40[bp]
FFFC0D45 0010020356 		      	beq  	r3,#8,BIOSMain_14
FFFC0D4A 0036008356 		      	beq  	r3,#2,BIOSMain_15
FFFC0D50 0055C00046 		      	bra  	BIOSMain_13
                        	BIOSMain_14:
                        	BIOSMain_16:
FFFC0D55 0000000053 		      	tgt  
                        		      	     	
FFFC0D5A C009004082 				ldw		r1,BUTTONS
FFFC0D60 000000FFCD 
                        	BIOSMain_21:
                        	BIOSMain_18:
                        	BIOSMain_20:
FFFC0D65 000B000146 		      	beq  	r1,r0,BIOSMain_17
FFFC0D6A FFEBC00046 		      	bra  	BIOSMain_16
                        	BIOSMain_17:
FFFC0D70 C2ACA00050 		      	call 	_ramtest
FFFC0D75 000000FFCF 
FFFC0D7A 002BC00046 		      	bra  	BIOSMain_13
                        	BIOSMain_15:
                        	BIOSMain_22:
FFFC0D80 0000000053 		      	tgt  
                        		      	     	
FFFC0D85 C009004082 				ldw		r1,BUTTONS
FFFC0D8A 000000FFCD 
                        	BIOSMain_27:
                        	BIOSMain_24:
                        	BIOSMain_26:
FFFC0D90 000A000146 		      	beq  	r1,r0,BIOSMain_23
FFFC0D95 FFEBC00046 		      	bra  	BIOSMain_22
                        	BIOSMain_23:
FFFC0D9A C1F7000050 		      	call 	_FloatTest
FFFC0DA0 000000FFCF 
                        	BIOSMain_13:
FFFC0DA5 FF85C00046 		      	bra  	BIOSMain_7
                        	BIOSMain_8:
                        	BIOSMain_28:
FFFC0DAA 00000FFB30 		      	mov  	sp,bp
FFFC0DB0 0000003B71 		      	pop  	bp
FFFC0DB5 0000003A71 		      	pop  	xlr
FFFC0DBA 0000000AEF 		      	ret  	#10
                        	BIOSMain_4:
FFFC0DC0 0000ADFB86 		      	ldd  	lr,10[bp]
FFFC0DC5 00014DFB93 		      	std  	lr,20[bp]
FFFC0DCA FFE0C00046 		      	bra  	BIOSMain_28
                        	endpublic
                        	
                        	_BIOSMainSTKSIZE_ EQU 50
                        	_GetEPCSTKSIZE_ EQU 0
                        	_GetBadAddrSTKSIZE_ EQU 0
                        	_SetPCHNDXSTKSIZE_ EQU 0
                        	_ReadPCHISTSTKSIZE_ EQU 0
FFFC0DD0 0000000053 	public code _BTNCIRQHandler:
	      	tgt  
FFFC0DD5 0000003B70 		      	push 	r59
FFFC0DDA 0000003A70 		      	push 	r58
FFFC0DE0 0000003970 		      	push 	r57
FFFC0DE5 0000003870 		      	push 	r56
FFFC0DEA 0000003770 		      	push 	r55
FFFC0DF0 0000003670 		      	push 	r54
FFFC0DF5 0000003570 		      	push 	r53
FFFC0DFA 0000003470 		      	push 	r52
FFFC0E00 0000003370 		      	push 	r51
FFFC0E05 0000003270 		      	push 	r50
FFFC0E0A 0000003170 		      	push 	r49
FFFC0E10 0000003070 		      	push 	r48
FFFC0E15 0000002F70 		      	push 	r47
FFFC0E1A 0000002E70 		      	push 	r46
FFFC0E20 0000002D70 		      	push 	r45
FFFC0E25 0000002C70 		      	push 	r44
FFFC0E2A 0000002B70 		      	push 	r43
FFFC0E30 0000002A70 		      	push 	r42
FFFC0E35 0000002970 		      	push 	r41
FFFC0E3A 0000002870 		      	push 	r40
FFFC0E40 0000002770 		      	push 	r39
FFFC0E45 0000002670 		      	push 	r38
FFFC0E4A 0000002570 		      	push 	r37
FFFC0E50 0000002470 		      	push 	r36
FFFC0E55 0000002370 		      	push 	r35
FFFC0E5A 0000002270 		      	push 	r34
FFFC0E60 0000002170 		      	push 	r33
FFFC0E65 0000002070 		      	push 	r32
FFFC0E6A 0000003F70 		      	push 	sp
FFFC0E70 0000003B70 		      	push 	bp
FFFC0E75 0000003770 		      	push 	lr
FFFC0E7A 0000003A70 		      	push 	xlr
FFFC0E80 0000003970 		      	push 	gp
FFFC0E85 0000001A70 		      	push 	r26
FFFC0E8A 0000001970 		      	push 	r25
FFFC0E90 0000001870 		      	push 	r24
FFFC0E95 0000001770 		      	push 	r23
FFFC0E9A 0000001670 		      	push 	r22
FFFC0EA0 0000001570 		      	push 	r21
FFFC0EA5 0000001470 		      	push 	r20
FFFC0EAA 0000001370 		      	push 	r19
FFFC0EB0 0000001270 		      	push 	r18
FFFC0EB5 0000001170 		      	push 	r17
FFFC0EBA 0000001070 		      	push 	r16
FFFC0EC0 0000000F70 		      	push 	r15
FFFC0EC5 0000000E70 		      	push 	r14
FFFC0ECA 0000000D70 		      	push 	r13
FFFC0ED0 0000000C70 		      	push 	r12
FFFC0ED5 0000000B70 		      	push 	r11
FFFC0EDA 0000000A70 		      	push 	r10
FFFC0EE0 0000000970 		      	push 	r9
FFFC0EE5 0000000870 		      	push 	r8
FFFC0EEA 0000000770 		      	push 	r7
FFFC0EF0 0000000670 		      	push 	r6
FFFC0EF5 0000000570 		      	push 	r5
FFFC0EFA 0000000470 		      	push 	r4
FFFC0F00 0000000370 		      	push 	r3
FFFC0F05 0000000270 		      	push 	r2
FFFC0F0A 0000000170 		      	push 	r1
FFFC0F10 0000003A70 		      	push 	xlr
FFFC0F15 0000003B70 		      	push 	bp
FFFC0F1A C113AE8009 		      	ld   	xlr,#BIOSMain_34
FFFC0F20 000000FFCF 
FFFC0F25 00000EFF30 		      	mov  	bp,sp
FFFC0F2A FFFF6FFF04 		      	sub  	sp,sp,#_BTNCIRQHandlerSTKSIZE_
                        		      	     	
FFFC0F30 0001E04009 				ldi		r1,#30
FFFC0F35 C0FD404094 				stt		r1,PIC_ESR
FFFC0F3A 000000FFCD 
FFFC0F40 0000001270 		      	push 	r18
FFFC0F45 CDBB248009 		      	ld   	r18,#BIOSMain_33
FFFC0F4A 000000FFCF 
FFFC0F50 C6FF500050 		      	call 	_DBGDisplayString
FFFC0F55 000000FFCF 
FFFC0F5A 0000001271 		      	pop  	r18
FFFC0F60 0003F0C009 		      	ld   	r3,#63
FFFC0F65 FFFF60FB93 		      	std  	r3,-10[bp]
                        	BIOSMain_37:
FFFC0F6A FFFF60FB86 		      	ldd  	r3,-10[bp]
FFFC0F70 007A000358 		      	blt  	r3,#0,BIOSMain_38
FFFC0F75 0000001270 		      	push 	r18
FFFC0F7A FFFF60FB86 		      	ldd  	r3,-10[bp]
FFFC0F80 0000048330 		      	mov  	r18,r3
FFFC0F85 0000000053 		      	tgt  
                        		      	     	
FFFC0F8A 304040120F 				csrrw	r0,#$101,r18
                        	BIOSMain_43:
                        	BIOSMain_40:
                        	BIOSMain_42:
FFFC0F90 0000001271 		      	pop  	r18
FFFC0F95 0000001270 		      	push 	r18
FFFC0F9A 0000000053 		      	tgt  
                        		      	     	
FFFC0FA0 304000400F 				csrrw	r1,#$100,r0
                        	BIOSMain_47:
                        	BIOSMain_44:
                        	BIOSMain_46:
                        		      	hint 	#1
FFFC0FA5 0000048130 		      	mov  	r18,r1
FFFC0FAA C273000050 		      	call 	_puthex
FFFC0FB0 000000FFCF 
FFFC0FB5 0000001271 		      	pop  	r18
FFFC0FBA 0000001270 		      	push 	r18
FFFC0FC0 0002048009 		      	ld   	r18,#32
FFFC0FC5 C2C4000050 		      	call 	_putch
FFFC0FCA 000000FFCF 
FFFC0FD0 0000001271 		      	pop  	r18
                        	BIOSMain_39:
FFFC0FD5 FFFF60FB86 		      	ldd  	r3,-10[bp]
FFFC0FDA FFFFF0C304 		      	sub  	r3,r3,#1
FFFC0FE0 FFFF60FB93 		      	std  	r3,-10[bp]
FFFC0FE5 FF85C00046 		      	bra  	BIOSMain_37
                        	BIOSMain_38:
                        	BIOSMain_48:
FFFC0FEA 00000FFB30 		      	mov  	sp,bp
FFFC0FF0 0000003B71 		      	pop  	bp
FFFC0FF5 0000003A71 		      	pop  	xlr
FFFC0FFA 0000000171 		      	pop  	r1
FFFC1000 0000000271 		      	pop  	r2
FFFC1005 0000000371 		      	pop  	r3
FFFC100A 0000000471 		      	pop  	r4
FFFC1010 0000000571 		      	pop  	r5
FFFC1015 0000000671 		      	pop  	r6
FFFC101A 0000000771 		      	pop  	r7
FFFC1020 0000000871 		      	pop  	r8
FFFC1025 0000000971 		      	pop  	r9
FFFC102A 0000000A71 		      	pop  	r10
FFFC1030 0000000B71 		      	pop  	r11
FFFC1035 0000000C71 		      	pop  	r12
FFFC103A 0000000D71 		      	pop  	r13
FFFC1040 0000000E71 		      	pop  	r14
FFFC1045 0000000F71 		      	pop  	r15
FFFC104A 0000001071 		      	pop  	r16
FFFC1050 0000001171 		      	pop  	r17
FFFC1055 0000001271 		      	pop  	r18
FFFC105A 0000001371 		      	pop  	r19
FFFC1060 0000001471 		      	pop  	r20
FFFC1065 0000001571 		      	pop  	r21
FFFC106A 0000001671 		      	pop  	r22
FFFC1070 0000001771 		      	pop  	r23
FFFC1075 0000001871 		      	pop  	r24
FFFC107A 0000001971 		      	pop  	r25
FFFC1080 0000001A71 		      	pop  	r26
FFFC1085 0000003971 		      	pop  	gp
FFFC108A 0000003A71 		      	pop  	xlr
FFFC1090 0000003771 		      	pop  	lr
FFFC1095 0000003B71 		      	pop  	bp
FFFC109A 0000003F71 		      	pop  	sp
FFFC10A0 0000002071 		      	pop  	r32
FFFC10A5 0000002171 		      	pop  	r33
FFFC10AA 0000002271 		      	pop  	r34
FFFC10B0 0000002371 		      	pop  	r35
FFFC10B5 0000002471 		      	pop  	r36
FFFC10BA 0000002571 		      	pop  	r37
FFFC10C0 0000002671 		      	pop  	r38
FFFC10C5 0000002771 		      	pop  	r39
FFFC10CA 0000002871 		      	pop  	r40
FFFC10D0 0000002971 		      	pop  	r41
FFFC10D5 0000002A71 		      	pop  	r42
FFFC10DA 0000002B71 		      	pop  	r43
FFFC10E0 0000002C71 		      	pop  	r44
FFFC10E5 0000002D71 		      	pop  	r45
FFFC10EA 0000002E71 		      	pop  	r46
FFFC10F0 0000002F71 		      	pop  	r47
FFFC10F5 0000003071 		      	pop  	r48
FFFC10FA 0000003171 		      	pop  	r49
FFFC1100 0000003271 		      	pop  	r50
FFFC1105 0000003371 		      	pop  	r51
FFFC110A 0000003471 		      	pop  	r52
FFFC1110 0000003571 		      	pop  	r53
FFFC1115 0000003671 		      	pop  	r54
FFFC111A 0000003771 		      	pop  	r55
FFFC1120 0000003871 		      	pop  	r56
FFFC1125 0000003971 		      	pop  	r57
FFFC112A 0000003A71 		      	pop  	r58
FFFC1130 0000003B71 		      	pop  	r59
FFFC1135 00000000E4 		      	iret 
                        	BIOSMain_34:
FFFC113A 0000ADFB86 		      	ldd  	lr,10[bp]
FFFC1140 00014DFB93 		      	std  	lr,20[bp]
FFFC1145 FEA5C00046 		      	bra  	BIOSMain_48
                        	endpublic
                        	
                        	_BTNCIRQHandlerSTKSIZE_ EQU 10
FFFC114A 0000000053 	public code _DBERout:
	      	tgt  
FFFC1150 0000003B70 		      	push 	r59
FFFC1155 0000003A70 		      	push 	r58
FFFC115A 0000003970 		      	push 	r57
FFFC1160 0000003870 		      	push 	r56
FFFC1165 0000003770 		      	push 	r55
FFFC116A 0000003670 		      	push 	r54
FFFC1170 0000003570 		      	push 	r53
FFFC1175 0000003470 		      	push 	r52
FFFC117A 0000003370 		      	push 	r51
FFFC1180 0000003270 		      	push 	r50
FFFC1185 0000003170 		      	push 	r49
FFFC118A 0000003070 		      	push 	r48
FFFC1190 0000002F70 		      	push 	r47
FFFC1195 0000002E70 		      	push 	r46
FFFC119A 0000002D70 		      	push 	r45
FFFC11A0 0000002C70 		      	push 	r44
FFFC11A5 0000002B70 		      	push 	r43
FFFC11AA 0000002A70 		      	push 	r42
FFFC11B0 0000002970 		      	push 	r41
FFFC11B5 0000002870 		      	push 	r40
FFFC11BA 0000002770 		      	push 	r39
FFFC11C0 0000002670 		      	push 	r38
FFFC11C5 0000002570 		      	push 	r37
FFFC11CA 0000002470 		      	push 	r36
FFFC11D0 0000002370 		      	push 	r35
FFFC11D5 0000002270 		      	push 	r34
FFFC11DA 0000002170 		      	push 	r33
FFFC11E0 0000002070 		      	push 	r32
FFFC11E5 0000003F70 		      	push 	sp
FFFC11EA 0000003B70 		      	push 	bp
FFFC11F0 0000003770 		      	push 	lr
FFFC11F5 0000003A70 		      	push 	xlr
FFFC11FA 0000003970 		      	push 	gp
FFFC1200 0000001A70 		      	push 	r26
FFFC1205 0000001970 		      	push 	r25
FFFC120A 0000001870 		      	push 	r24
FFFC1210 0000001770 		      	push 	r23
FFFC1215 0000001670 		      	push 	r22
FFFC121A 0000001570 		      	push 	r21
FFFC1220 0000001470 		      	push 	r20
FFFC1225 0000001370 		      	push 	r19
FFFC122A 0000001270 		      	push 	r18
FFFC1230 0000001170 		      	push 	r17
FFFC1235 0000001070 		      	push 	r16
FFFC123A 0000000F70 		      	push 	r15
FFFC1240 0000000E70 		      	push 	r14
FFFC1245 0000000D70 		      	push 	r13
FFFC124A 0000000C70 		      	push 	r12
FFFC1250 0000000B70 		      	push 	r11
FFFC1255 0000000A70 		      	push 	r10
FFFC125A 0000000970 		      	push 	r9
FFFC1260 0000000870 		      	push 	r8
FFFC1265 0000000770 		      	push 	r7
FFFC126A 0000000670 		      	push 	r6
FFFC1270 0000000570 		      	push 	r5
FFFC1275 0000000470 		      	push 	r4
FFFC127A 0000000370 		      	push 	r3
FFFC1280 0000000270 		      	push 	r2
FFFC1285 0000000170 		      	push 	r1
FFFC128A 0000003A70 		      	push 	xlr
FFFC1290 0000003B70 		      	push 	bp
FFFC1295 C1535E8009 		      	ld   	xlr,#BIOSMain_50
FFFC129A 000000FFCF 
FFFC12A0 00000EFF30 		      	mov  	bp,sp
FFFC12A5 FFFF6FFF04 		      	sub  	sp,sp,#_DBERoutSTKSIZE_
FFFC12AA 0000001270 		      	push 	r18
FFFC12B0 CDB8E48009 		      	ld   	r18,#BIOSMain_49
FFFC12B5 000000FFCF 
FFFC12BA C6FF500050 		      	call 	_DBGDisplayString
FFFC12C0 000000FFCF 
FFFC12C5 0000001271 		      	pop  	r18
FFFC12CA 0000001270 		      	push 	r18
FFFC12D0 0000000053 		      	tgt  
                        		      	     	
FFFC12D5 301000400F 				csrrw	r1,#$40,r0
                        	BIOSMain_56:
                        	BIOSMain_53:
                        	BIOSMain_55:
                        		      	hint 	#1
FFFC12DA 0000048130 		      	mov  	r18,r1
FFFC12E0 C273000050 		      	call 	_puthex
FFFC12E5 000000FFCF 
FFFC12EA 0000001271 		      	pop  	r18
FFFC12F0 0000001270 		      	push 	r18
FFFC12F5 0002048009 		      	ld   	r18,#32
FFFC12FA C2C4000050 		      	call 	_putch
FFFC1300 000000FFCF 
FFFC1305 0000001271 		      	pop  	r18
FFFC130A 0000001270 		      	push 	r18
FFFC1310 0000000053 		      	tgt  
                        		      	     	
FFFC1315 3001C0400F 				csrrw	r1,#7,r0
FFFC131A C008004094 				stt		r1,$FFDC0080
FFFC1320 000000FFCD 
                        	BIOSMain_60:
                        	BIOSMain_57:
                        	BIOSMain_59:
                        		      	hint 	#1
FFFC1325 0000048130 		      	mov  	r18,r1
FFFC132A C273000050 		      	call 	_puthex
FFFC1330 000000FFCF 
FFFC1335 0000001271 		      	pop  	r18
FFFC133A 0000001270 		      	push 	r18
FFFC1340 0002048009 		      	ld   	r18,#32
FFFC1345 C2C4000050 		      	call 	_putch
FFFC134A 000000FFCF 
FFFC1350 0000001271 		      	pop  	r18
FFFC1355 0003F0C009 		      	ld   	r3,#63
FFFC135A FFFF60FB93 		      	std  	r3,-10[bp]
                        	BIOSMain_61:
FFFC1360 FFFF60FB86 		      	ldd  	r3,-10[bp]
FFFC1365 007B000358 		      	blt  	r3,#0,BIOSMain_62
FFFC136A 0000001270 		      	push 	r18
FFFC1370 FFFF60FB86 		      	ldd  	r3,-10[bp]
FFFC1375 0000048330 		      	mov  	r18,r3
FFFC137A 0000000053 		      	tgt  
                        		      	     	
FFFC1380 304040120F 				csrrw	r0,#$101,r18
                        	BIOSMain_67:
                        	BIOSMain_64:
                        	BIOSMain_66:
FFFC1385 0000001271 		      	pop  	r18
FFFC138A 0000001270 		      	push 	r18
FFFC1390 0000000053 		      	tgt  
                        		      	     	
FFFC1395 304000400F 				csrrw	r1,#$100,r0
                        	BIOSMain_71:
                        	BIOSMain_68:
                        	BIOSMain_70:
                        		      	hint 	#1
FFFC139A 0000048130 		      	mov  	r18,r1
FFFC13A0 C273000050 		      	call 	_puthex
FFFC13A5 000000FFCF 
FFFC13AA 0000001271 		      	pop  	r18
FFFC13B0 0000001270 		      	push 	r18
FFFC13B5 0002048009 		      	ld   	r18,#32
FFFC13BA C2C4000050 		      	call 	_putch
FFFC13C0 000000FFCF 
FFFC13C5 0000001271 		      	pop  	r18
                        	BIOSMain_63:
FFFC13CA FFFF60FB86 		      	ldd  	r3,-10[bp]
FFFC13D0 FFFFF0C304 		      	sub  	r3,r3,#1
FFFC13D5 FFFF60FB93 		      	std  	r3,-10[bp]
FFFC13DA FF86C00046 		      	bra  	BIOSMain_61
                        	BIOSMain_62:
                        	BIOSMain_72:
FFFC13E0 0000C00046 		      	bra  	BIOSMain_72
                        	BIOSMain_73:
                        	BIOSMain_74:
FFFC13E5 00000FFB30 		      	mov  	sp,bp
FFFC13EA 0000003B71 		      	pop  	bp
FFFC13F0 0000003A71 		      	pop  	xlr
FFFC13F5 0000000171 		      	pop  	r1
FFFC13FA 0000000271 		      	pop  	r2
FFFC1400 0000000371 		      	pop  	r3
FFFC1405 0000000471 		      	pop  	r4
FFFC140A 0000000571 		      	pop  	r5
FFFC1410 0000000671 		      	pop  	r6
FFFC1415 0000000771 		      	pop  	r7
FFFC141A 0000000871 		      	pop  	r8
FFFC1420 0000000971 		      	pop  	r9
FFFC1425 0000000A71 		      	pop  	r10
FFFC142A 0000000B71 		      	pop  	r11
FFFC1430 0000000C71 		      	pop  	r12
FFFC1435 0000000D71 		      	pop  	r13
FFFC143A 0000000E71 		      	pop  	r14
FFFC1440 0000000F71 		      	pop  	r15
FFFC1445 0000001071 		      	pop  	r16
FFFC144A 0000001171 		      	pop  	r17
FFFC1450 0000001271 		      	pop  	r18
FFFC1455 0000001371 		      	pop  	r19
FFFC145A 0000001471 		      	pop  	r20
FFFC1460 0000001571 		      	pop  	r21
FFFC1465 0000001671 		      	pop  	r22
FFFC146A 0000001771 		      	pop  	r23
FFFC1470 0000001871 		      	pop  	r24
FFFC1475 0000001971 		      	pop  	r25
FFFC147A 0000001A71 		      	pop  	r26
FFFC1480 0000003971 		      	pop  	gp
FFFC1485 0000003A71 		      	pop  	xlr
FFFC148A 0000003771 		      	pop  	lr
FFFC1490 0000003B71 		      	pop  	bp
FFFC1495 0000003F71 		      	pop  	sp
FFFC149A 0000002071 		      	pop  	r32
FFFC14A0 0000002171 		      	pop  	r33
FFFC14A5 0000002271 		      	pop  	r34
FFFC14AA 0000002371 		      	pop  	r35
FFFC14B0 0000002471 		      	pop  	r36
FFFC14B5 0000002571 		      	pop  	r37
FFFC14BA 0000002671 		      	pop  	r38
FFFC14C0 0000002771 		      	pop  	r39
FFFC14C5 0000002871 		      	pop  	r40
FFFC14CA 0000002971 		      	pop  	r41
FFFC14D0 0000002A71 		      	pop  	r42
FFFC14D5 0000002B71 		      	pop  	r43
FFFC14DA 0000002C71 		      	pop  	r44
FFFC14E0 0000002D71 		      	pop  	r45
FFFC14E5 0000002E71 		      	pop  	r46
FFFC14EA 0000002F71 		      	pop  	r47
FFFC14F0 0000003071 		      	pop  	r48
FFFC14F5 0000003171 		      	pop  	r49
FFFC14FA 0000003271 		      	pop  	r50
FFFC1500 0000003371 		      	pop  	r51
FFFC1505 0000003471 		      	pop  	r52
FFFC150A 0000003571 		      	pop  	r53
FFFC1510 0000003671 		      	pop  	r54
FFFC1515 0000003771 		      	pop  	r55
FFFC151A 0000003871 		      	pop  	r56
FFFC1520 0000003971 		      	pop  	r57
FFFC1525 0000003A71 		      	pop  	r58
FFFC152A 0000003B71 		      	pop  	r59
FFFC1530 00000000E4 		      	iret 
                        	BIOSMain_50:
FFFC1535 0000ADFB86 		      	ldd  	lr,10[bp]
FFFC153A 00014DFB93 		      	std  	lr,20[bp]
FFFC1540 FEA5C00046 		      	bra  	BIOSMain_74
                        	endpublic
                        	
                        	_DBERoutSTKSIZE_ EQU 10
FFFC1545 0000000053 	public code _IBERout:
	      	tgt  
FFFC154A 0000003B70 		      	push 	r59
FFFC1550 0000003A70 		      	push 	r58
FFFC1555 0000003970 		      	push 	r57
FFFC155A 0000003870 		      	push 	r56
FFFC1560 0000003770 		      	push 	r55
FFFC1565 0000003670 		      	push 	r54
FFFC156A 0000003570 		      	push 	r53
FFFC1570 0000003470 		      	push 	r52
FFFC1575 0000003370 		      	push 	r51
FFFC157A 0000003270 		      	push 	r50
FFFC1580 0000003170 		      	push 	r49
FFFC1585 0000003070 		      	push 	r48
FFFC158A 0000002F70 		      	push 	r47
FFFC1590 0000002E70 		      	push 	r46
FFFC1595 0000002D70 		      	push 	r45
FFFC159A 0000002C70 		      	push 	r44
FFFC15A0 0000002B70 		      	push 	r43
FFFC15A5 0000002A70 		      	push 	r42
FFFC15AA 0000002970 		      	push 	r41
FFFC15B0 0000002870 		      	push 	r40
FFFC15B5 0000002770 		      	push 	r39
FFFC15BA 0000002670 		      	push 	r38
FFFC15C0 0000002570 		      	push 	r37
FFFC15C5 0000002470 		      	push 	r36
FFFC15CA 0000002370 		      	push 	r35
FFFC15D0 0000002270 		      	push 	r34
FFFC15D5 0000002170 		      	push 	r33
FFFC15DA 0000002070 		      	push 	r32
FFFC15E0 0000003F70 		      	push 	sp
FFFC15E5 0000003B70 		      	push 	bp
FFFC15EA 0000003770 		      	push 	lr
FFFC15F0 0000003A70 		      	push 	xlr
FFFC15F5 0000003970 		      	push 	gp
FFFC15FA 0000001A70 		      	push 	r26
FFFC1600 0000001970 		      	push 	r25
FFFC1605 0000001870 		      	push 	r24
FFFC160A 0000001770 		      	push 	r23
FFFC1610 0000001670 		      	push 	r22
FFFC1615 0000001570 		      	push 	r21
FFFC161A 0000001470 		      	push 	r20
FFFC1620 0000001370 		      	push 	r19
FFFC1625 0000001270 		      	push 	r18
FFFC162A 0000001170 		      	push 	r17
FFFC1630 0000001070 		      	push 	r16
FFFC1635 0000000F70 		      	push 	r15
FFFC163A 0000000E70 		      	push 	r14
FFFC1640 0000000D70 		      	push 	r13
FFFC1645 0000000C70 		      	push 	r12
FFFC164A 0000000B70 		      	push 	r11
FFFC1650 0000000A70 		      	push 	r10
FFFC1655 0000000970 		      	push 	r9
FFFC165A 0000000870 		      	push 	r8
FFFC1660 0000000770 		      	push 	r7
FFFC1665 0000000670 		      	push 	r6
FFFC166A 0000000570 		      	push 	r5
FFFC1670 0000000470 		      	push 	r4
FFFC1675 0000000370 		      	push 	r3
FFFC167A 0000000270 		      	push 	r2
FFFC1680 0000000170 		      	push 	r1
FFFC1685 0000003A70 		      	push 	xlr
FFFC168A 0000003B70 		      	push 	bp
FFFC1690 C18C5E8009 		      	ld   	xlr,#BIOSMain_77
FFFC1695 000000FFCF 
FFFC169A 00000EFF30 		      	mov  	bp,sp
FFFC16A0 FFFF6FFF04 		      	sub  	sp,sp,#_IBERoutSTKSIZE_
FFFC16A5 0000001270 		      	push 	r18
FFFC16AA CDB5848009 		      	ld   	r18,#BIOSMain_75
FFFC16B0 000000FFCF 
FFFC16B5 C6FF500050 		      	call 	_DBGDisplayString
FFFC16BA 000000FFCF 
FFFC16C0 0000001271 		      	pop  	r18
FFFC16C5 0000001270 		      	push 	r18
FFFC16CA CDB3C48009 		      	ld   	r18,#BIOSMain_76
FFFC16D0 000000FFCF 
FFFC16D5 C6FF500050 		      	call 	_DBGDisplayString
FFFC16DA 000000FFCF 
FFFC16E0 0000001271 		      	pop  	r18
FFFC16E5 0003F0C009 		      	ld   	r3,#63
FFFC16EA FFFF60FB93 		      	std  	r3,-10[bp]
                        	BIOSMain_80:
FFFC16F0 FFFF60FB86 		      	ldd  	r3,-10[bp]
FFFC16F5 007B000358 		      	blt  	r3,#0,BIOSMain_81
FFFC16FA 0000001270 		      	push 	r18
FFFC1700 FFFF60FB86 		      	ldd  	r3,-10[bp]
FFFC1705 0000048330 		      	mov  	r18,r3
FFFC170A 0000000053 		      	tgt  
                        		      	     	
FFFC1710 304040120F 				csrrw	r0,#$101,r18
                        	BIOSMain_86:
                        	BIOSMain_83:
                        	BIOSMain_85:
FFFC1715 0000001271 		      	pop  	r18
FFFC171A 0000001270 		      	push 	r18
FFFC1720 0000000053 		      	tgt  
                        		      	     	
FFFC1725 304000400F 				csrrw	r1,#$100,r0
                        	BIOSMain_90:
                        	BIOSMain_87:
                        	BIOSMain_89:
                        		      	hint 	#1
FFFC172A 0000048130 		      	mov  	r18,r1
FFFC1730 C273000050 		      	call 	_puthex
FFFC1735 000000FFCF 
FFFC173A 0000001271 		      	pop  	r18
FFFC1740 0000001270 		      	push 	r18
FFFC1745 0002048009 		      	ld   	r18,#32
FFFC174A C2C4000050 		      	call 	_putch
FFFC1750 000000FFCF 
FFFC1755 0000001271 		      	pop  	r18
                        	BIOSMain_82:
FFFC175A FFFF60FB86 		      	ldd  	r3,-10[bp]
FFFC1760 FFFFF0C304 		      	sub  	r3,r3,#1
FFFC1765 FFFF60FB93 		      	std  	r3,-10[bp]
FFFC176A FF86C00046 		      	bra  	BIOSMain_80
                        	BIOSMain_81:
                        	BIOSMain_91:
FFFC1770 0000C00046 		      	bra  	BIOSMain_91
                        	BIOSMain_92:
                        	BIOSMain_93:
FFFC1775 00000FFB30 		      	mov  	sp,bp
FFFC177A 0000003B71 		      	pop  	bp
FFFC1780 0000003A71 		      	pop  	xlr
FFFC1785 0000000171 		      	pop  	r1
FFFC178A 0000000271 		      	pop  	r2
FFFC1790 0000000371 		      	pop  	r3
FFFC1795 0000000471 		      	pop  	r4
FFFC179A 0000000571 		      	pop  	r5
FFFC17A0 0000000671 		      	pop  	r6
FFFC17A5 0000000771 		      	pop  	r7
FFFC17AA 0000000871 		      	pop  	r8
FFFC17B0 0000000971 		      	pop  	r9
FFFC17B5 0000000A71 		      	pop  	r10
FFFC17BA 0000000B71 		      	pop  	r11
FFFC17C0 0000000C71 		      	pop  	r12
FFFC17C5 0000000D71 		      	pop  	r13
FFFC17CA 0000000E71 		      	pop  	r14
FFFC17D0 0000000F71 		      	pop  	r15
FFFC17D5 0000001071 		      	pop  	r16
FFFC17DA 0000001171 		      	pop  	r17
FFFC17E0 0000001271 		      	pop  	r18
FFFC17E5 0000001371 		      	pop  	r19
FFFC17EA 0000001471 		      	pop  	r20
FFFC17F0 0000001571 		      	pop  	r21
FFFC17F5 0000001671 		      	pop  	r22
FFFC17FA 0000001771 		      	pop  	r23
FFFC1800 0000001871 		      	pop  	r24
FFFC1805 0000001971 		      	pop  	r25
FFFC180A 0000001A71 		      	pop  	r26
FFFC1810 0000003971 		      	pop  	gp
FFFC1815 0000003A71 		      	pop  	xlr
FFFC181A 0000003771 		      	pop  	lr
FFFC1820 0000003B71 		      	pop  	bp
FFFC1825 0000003F71 		      	pop  	sp
FFFC182A 0000002071 		      	pop  	r32
FFFC1830 0000002171 		      	pop  	r33
FFFC1835 0000002271 		      	pop  	r34
FFFC183A 0000002371 		      	pop  	r35
FFFC1840 0000002471 		      	pop  	r36
FFFC1845 0000002571 		      	pop  	r37
FFFC184A 0000002671 		      	pop  	r38
FFFC1850 0000002771 		      	pop  	r39
FFFC1855 0000002871 		      	pop  	r40
FFFC185A 0000002971 		      	pop  	r41
FFFC1860 0000002A71 		      	pop  	r42
FFFC1865 0000002B71 		      	pop  	r43
FFFC186A 0000002C71 		      	pop  	r44
FFFC1870 0000002D71 		      	pop  	r45
FFFC1875 0000002E71 		      	pop  	r46
FFFC187A 0000002F71 		      	pop  	r47
FFFC1880 0000003071 		      	pop  	r48
FFFC1885 0000003171 		      	pop  	r49
FFFC188A 0000003271 		      	pop  	r50
FFFC1890 0000003371 		      	pop  	r51
FFFC1895 0000003471 		      	pop  	r52
FFFC189A 0000003571 		      	pop  	r53
FFFC18A0 0000003671 		      	pop  	r54
FFFC18A5 0000003771 		      	pop  	r55
FFFC18AA 0000003871 		      	pop  	r56
FFFC18B0 0000003971 		      	pop  	r57
FFFC18B5 0000003A71 		      	pop  	r58
FFFC18BA 0000003B71 		      	pop  	r59
FFFC18C0 00000000E4 		      	iret 
                        	BIOSMain_77:
FFFC18C5 0000ADFB86 		      	ldd  	lr,10[bp]
FFFC18CA 00014DFB93 		      	std  	lr,20[bp]
FFFC18D0 FEA5C00046 		      	bra  	BIOSMain_93
                        	endpublic
                        	
                        	_IBERoutSTKSIZE_ EQU 10
                        		code
FFFC18D5 0000000000 		align	1
FFFC18DA 0000000000 
                        	
                        	_GetButtonSTKSIZE_ EQU 0
                        		code
                        		align	16                        	
                        	_TestAddsub:
FFFC18E0 0000000053 		      	tgt  
FFFC18E5 0000003A70 		      	push 	xlr
FFFC18EA 0000003B70 		      	push 	bp
FFFC18F0 C1BBAE8009 		      	ld   	xlr,#FloatTest_8
FFFC18F5 000000FFCF 
FFFC18FA 00000EFF30 		      	mov  	bp,sp
FFFC1900 FFFF2FFF04 		      	sub  	sp,sp,#_TestAddsubSTKSIZE_
                        		      	;    		float sum, dif;
                        		      	;    		sum = a + b;
FFFC1905 000C44D2F9 		      	fadd.d	fp3,fp18,fp19
FFFC190A 00080CEEE7 		      	sf.d 	fp3,-4[bp]
                        		      	;    		dif = a - b;
FFFC1910 000C54D2F9 		      	fsub.d	fp3,fp18,fp19
FFFC1915 00080C9EE7 		      	sf.d 	fp3,-14[bp]
                        		      	;    		prtflt(a,20,16,'E');
FFFC191A 0000001270 		      	push 	r18
FFFC1920 0000001370 		      	push 	r19
FFFC1925 0000001470 		      	push 	r20
FFFC192A 0000001570 		      	push 	r21
FFFC1930 0004554009 		      	ld   	r21,#69
FFFC1935 0001050009 		      	ld   	r20,#16
FFFC193A 000144C009 		      	ld   	r19,#20
FFFC1940 0000049230 		      	mov  	r18,fp18
FFFC1945 C513500050 		      	call 	_prtflt
FFFC194A 000000FFCF 
FFFC1950 0000001571 		      	pop  	r21
FFFC1955 0000001471 		      	pop  	r20
FFFC195A 0000001371 		      	pop  	r19
FFFC1960 0000001271 		      	pop  	r18
                        		      	;    		DBGDisplayString(" + ");
FFFC1965 0000001270 		      	push 	r18
FFFC196A CE03848009 		      	ld   	r18,#FloatTest_2
FFFC1970 000000FFCF 
FFFC1975 C6FF500050 		      	call 	_DBGDisplayString
FFFC197A 000000FFCF 
FFFC1980 0000001271 		      	pop  	r18
                        		      	;    		prtflt(b,20,16,'E');
FFFC1985 0000001270 		      	push 	r18
FFFC198A 0000001370 		      	push 	r19
FFFC1990 0000001470 		      	push 	r20
FFFC1995 0000001570 		      	push 	r21
FFFC199A 0004554009 		      	ld   	r21,#69
FFFC19A0 0001050009 		      	ld   	r20,#16
FFFC19A5 000144C009 		      	ld   	r19,#20
FFFC19AA 0000049330 		      	mov  	r18,fp19
FFFC19B0 C513500050 		      	call 	_prtflt
FFFC19B5 000000FFCF 
FFFC19BA 0000001571 		      	pop  	r21
FFFC19C0 0000001471 		      	pop  	r20
FFFC19C5 0000001371 		      	pop  	r19
FFFC19CA 0000001271 		      	pop  	r18
                        		      	;    		DBGDisplayString(" = ");
FFFC19D0 0000001270 		      	push 	r18
FFFC19D5 CE03048009 		      	ld   	r18,#FloatTest_3
FFFC19DA 000000FFCF 
FFFC19E0 C6FF500050 		      	call 	_DBGDisplayString
FFFC19E5 000000FFCF 
FFFC19EA 0000001271 		      	pop  	r18
                        		      	;    		prtflt(sum,20,16,'E');
FFFC19F0 0000001270 		      	push 	r18
FFFC19F5 0000001370 		      	push 	r19
FFFC19FA 0000001470 		      	push 	r20
FFFC1A00 0000001570 		      	push 	r21
FFFC1A05 0004554009 		      	ld   	r21,#69
FFFC1A0A 0001050009 		      	ld   	r20,#16
FFFC1A10 000144C009 		      	ld   	r19,#20
FFFC1A15 00080CEEE6 		      	lf.d 	fp3,-4[bp]
FFFC1A1A 0000048330 		      	mov  	r18,fp3
FFFC1A20 C513500050 		      	call 	_prtflt
FFFC1A25 000000FFCF 
FFFC1A2A 0000001571 		      	pop  	r21
FFFC1A30 0000001471 		      	pop  	r20
FFFC1A35 0000001371 		      	pop  	r19
FFFC1A3A 0000001271 		      	pop  	r18
                        		      	;    		DBGDisplayString("\r\n");
FFFC1A40 0000001270 		      	push 	r18
FFFC1A45 CE02A48009 		      	ld   	r18,#FloatTest_4
FFFC1A4A 000000FFCF 
FFFC1A50 C6FF500050 		      	call 	_DBGDisplayString
FFFC1A55 000000FFCF 
FFFC1A5A 0000001271 		      	pop  	r18
                        		      	;    		prtflt(a,20,16,'E');
FFFC1A60 0000001270 		      	push 	r18
FFFC1A65 0000001370 		      	push 	r19
FFFC1A6A 0000001470 		      	push 	r20
FFFC1A70 0000001570 		      	push 	r21
FFFC1A75 0004554009 		      	ld   	r21,#69
FFFC1A7A 0001050009 		      	ld   	r20,#16
FFFC1A80 000144C009 		      	ld   	r19,#20
FFFC1A85 0000049230 		      	mov  	r18,fp18
FFFC1A8A C513500050 		      	call 	_prtflt
FFFC1A90 000000FFCF 
FFFC1A95 0000001571 		      	pop  	r21
FFFC1A9A 0000001471 		      	pop  	r20
FFFC1AA0 0000001371 		      	pop  	r19
FFFC1AA5 0000001271 		      	pop  	r18
                        		      	;    		DBGDisplayString(" - ");
FFFC1AAA 0000001270 		      	push 	r18
FFFC1AB0 CE02248009 		      	ld   	r18,#FloatTest_5
FFFC1AB5 000000FFCF 
FFFC1ABA C6FF500050 		      	call 	_DBGDisplayString
FFFC1AC0 000000FFCF 
FFFC1AC5 0000001271 		      	pop  	r18
                        		      	;    		prtflt(b,20,16,'E');
FFFC1ACA 0000001270 		      	push 	r18
FFFC1AD0 0000001370 		      	push 	r19
FFFC1AD5 0000001470 		      	push 	r20
FFFC1ADA 0000001570 		      	push 	r21
FFFC1AE0 0004554009 		      	ld   	r21,#69
FFFC1AE5 0001050009 		      	ld   	r20,#16
FFFC1AEA 000144C009 		      	ld   	r19,#20
FFFC1AF0 0000049330 		      	mov  	r18,fp19
FFFC1AF5 C513500050 		      	call 	_prtflt
FFFC1AFA 000000FFCF 
FFFC1B00 0000001571 		      	pop  	r21
FFFC1B05 0000001471 		      	pop  	r20
FFFC1B0A 0000001371 		      	pop  	r19
FFFC1B10 0000001271 		      	pop  	r18
                        		      	;    		DBGDisplayString(" = ");
FFFC1B15 0000001270 		      	push 	r18
FFFC1B1A CE01A48009 		      	ld   	r18,#FloatTest_6
FFFC1B20 000000FFCF 
FFFC1B25 C6FF500050 		      	call 	_DBGDisplayString
FFFC1B2A 000000FFCF 
FFFC1B30 0000001271 		      	pop  	r18
                        		      	;    		prtflt(dif,20,16,'E');
FFFC1B35 0000001270 		      	push 	r18
FFFC1B3A 0000001370 		      	push 	r19
FFFC1B40 0000001470 		      	push 	r20
FFFC1B45 0000001570 		      	push 	r21
FFFC1B4A 0004554009 		      	ld   	r21,#69
FFFC1B50 0001050009 		      	ld   	r20,#16
FFFC1B55 000144C009 		      	ld   	r19,#20
FFFC1B5A 00080C9EE6 		      	lf.d 	fp3,-14[bp]
FFFC1B60 0000048330 		      	mov  	r18,fp3
FFFC1B65 C513500050 		      	call 	_prtflt
FFFC1B6A 000000FFCF 
FFFC1B70 0000001571 		      	pop  	r21
FFFC1B75 0000001471 		      	pop  	r20
FFFC1B7A 0000001371 		      	pop  	r19
FFFC1B80 0000001271 		      	pop  	r18
                        		      	;    		DBGDisplayString("\r\n");
FFFC1B85 0000001270 		      	push 	r18
FFFC1B8A CE01448009 		      	ld   	r18,#FloatTest_7
FFFC1B90 000000FFCF 
FFFC1B95 C6FF500050 		      	call 	_DBGDisplayString
FFFC1B9A 000000FFCF 
FFFC1BA0 0000001271 		      	pop  	r18
                        	FloatTest_11:
FFFC1BA5 00000FFB30 		      	mov  	sp,bp
FFFC1BAA 0000003B71 		      	pop  	bp
FFFC1BB0 0000003A71 		      	pop  	xlr
FFFC1BB5 0000000AEF 		      	ret  	#10
                        	FloatTest_8:
FFFC1BBA 0000ADFB86 		      	ldd  	lr,10[bp]
FFFC1BC0 00014DFB93 		      	std  	lr,20[bp]
FFFC1BC5 FFE0C00046 		      	bra  	FloatTest_11
                        	_TestAddsubSTKSIZE_ EQU 14
                        	_TestMul:
FFFC1BCA 0000000053 		      	tgt  
FFFC1BD0 0000003A70 		      	push 	xlr
FFFC1BD5 0000003B70 		      	push 	bp
FFFC1BDA C1D55E8009 		      	ld   	xlr,#FloatTest_16
FFFC1BE0 000000FFCF 
FFFC1BE5 00000EFF30 		      	mov  	bp,sp
FFFC1BEA FFFFCFFF04 		      	sub  	sp,sp,#_TestMulSTKSIZE_
                        		      	;    		float prod;
                        		      	;    		prod = a * b;
FFFC1BF0 000C84D2F9 		      	fmul.d	fp3,fp18,fp19
FFFC1BF5 00080CEEE7 		      	sf.d 	fp3,-4[bp]
                        		      	;    		prtflt(a,20,16,'E');
FFFC1BFA 0000001270 		      	push 	r18
FFFC1C00 0000001370 		      	push 	r19
FFFC1C05 0000001470 		      	push 	r20
FFFC1C0A 0000001570 		      	push 	r21
FFFC1C10 0004554009 		      	ld   	r21,#69
FFFC1C15 0001050009 		      	ld   	r20,#16
FFFC1C1A 000144C009 		      	ld   	r19,#20
FFFC1C20 0000049230 		      	mov  	r18,fp18
FFFC1C25 C513500050 		      	call 	_prtflt
FFFC1C2A 000000FFCF 
FFFC1C30 0000001571 		      	pop  	r21
FFFC1C35 0000001471 		      	pop  	r20
FFFC1C3A 0000001371 		      	pop  	r19
FFFC1C40 0000001271 		      	pop  	r18
                        		      	;    		DBGDisplayString(" * ");
FFFC1C45 0000001270 		      	push 	r18
FFFC1C4A CE00C48009 		      	ld   	r18,#FloatTest_13
FFFC1C50 000000FFCF 
FFFC1C55 C6FF500050 		      	call 	_DBGDisplayString
FFFC1C5A 000000FFCF 
FFFC1C60 0000001271 		      	pop  	r18
                        		      	;    		prtflt(b,20,16,'E');
FFFC1C65 0000001270 		      	push 	r18
FFFC1C6A 0000001370 		      	push 	r19
FFFC1C70 0000001470 		      	push 	r20
FFFC1C75 0000001570 		      	push 	r21
FFFC1C7A 0004554009 		      	ld   	r21,#69
FFFC1C80 0001050009 		      	ld   	r20,#16
FFFC1C85 000144C009 		      	ld   	r19,#20
FFFC1C8A 0000049330 		      	mov  	r18,fp19
FFFC1C90 C513500050 		      	call 	_prtflt
FFFC1C95 000000FFCF 
FFFC1C9A 0000001571 		      	pop  	r21
FFFC1CA0 0000001471 		      	pop  	r20
FFFC1CA5 0000001371 		      	pop  	r19
FFFC1CAA 0000001271 		      	pop  	r18
                        		      	;    		DBGDisplayString(" = ");
FFFC1CB0 0000001270 		      	push 	r18
FFFC1CB5 CE00448009 		      	ld   	r18,#FloatTest_14
FFFC1CBA 000000FFCF 
FFFC1CC0 C6FF500050 		      	call 	_DBGDisplayString
FFFC1CC5 000000FFCF 
FFFC1CCA 0000001271 		      	pop  	r18
                        		      	;    		prtflt(prod,20,16,'E');
FFFC1CD0 0000001270 		      	push 	r18
FFFC1CD5 0000001370 		      	push 	r19
FFFC1CDA 0000001470 		      	push 	r20
FFFC1CE0 0000001570 		      	push 	r21
FFFC1CE5 0004554009 		      	ld   	r21,#69
FFFC1CEA 0001050009 		      	ld   	r20,#16
FFFC1CF0 000144C009 		      	ld   	r19,#20
FFFC1CF5 00080CEEE6 		      	lf.d 	fp3,-4[bp]
FFFC1CFA 0000048330 		      	mov  	r18,fp3
FFFC1D00 C513500050 		      	call 	_prtflt
FFFC1D05 000000FFCF 
FFFC1D0A 0000001571 		      	pop  	r21
FFFC1D10 0000001471 		      	pop  	r20
FFFC1D15 0000001371 		      	pop  	r19
FFFC1D1A 0000001271 		      	pop  	r18
                        		      	;    		DBGDisplayString("\r\n");
FFFC1D20 0000001270 		      	push 	r18
FFFC1D25 CDFFE48009 		      	ld   	r18,#FloatTest_15
FFFC1D2A 000000FFCF 
FFFC1D30 C6FF500050 		      	call 	_DBGDisplayString
FFFC1D35 000000FFCF 
FFFC1D3A 0000001271 		      	pop  	r18
                        	FloatTest_19:
FFFC1D40 00000FFB30 		      	mov  	sp,bp
FFFC1D45 0000003B71 		      	pop  	bp
FFFC1D4A 0000003A71 		      	pop  	xlr
FFFC1D50 0000000AEF 		      	ret  	#10
                        	FloatTest_16:
FFFC1D55 0000ADFB86 		      	ldd  	lr,10[bp]
FFFC1D5A 00014DFB93 		      	std  	lr,20[bp]
FFFC1D60 FFE0C00046 		      	bra  	FloatTest_19
                        	_TestMulSTKSIZE_ EQU 4
                        		code
FFFC1D65 0000000000 		align	1
FFFC1D6A 0000000000 
                        	
                        	_TestEval:
FFFC1D70 0000000053 		      	tgt  
FFFC1D75 0000003A70 		      	push 	xlr
FFFC1D7A 0000003B70 		      	push 	bp
FFFC1D80 C1F60E8009 		      	ld   	xlr,#FloatTest_29
FFFC1D85 000000FFCF 
FFFC1D8A 00000EFF30 		      	mov  	bp,sp
FFFC1D90 FFFE8FFF04 		      	sub  	sp,sp,#_TestEvalSTKSIZE_
                        		      	;    		float x, y, z;
                        		      	;    		x = 90071992254740994.0;	// 2^53 + 2
                        		      	;    		DBGDisplayString("x= ");
FFFC1D95 0000001270 		      	push 	r18
FFFC1D9A CDFF648009 		      	ld   	r18,#FloatTest_22
FFFC1DA0 000000FFCF 
FFFC1DA5 C6FF500050 		      	call 	_DBGDisplayString
FFFC1DAA 000000FFCF 
FFFC1DB0 0000001271 		      	pop  	r18
                        		      	;    		prtflt(x,39,30,'E');
FFFC1DB5 0000001270 		      	push 	r18
FFFC1DBA 0000001370 		      	push 	r19
FFFC1DC0 0000001470 		      	push 	r20
FFFC1DC5 0000001570 		      	push 	r21
FFFC1DCA 0004554009 		      	ld   	r21,#69
FFFC1DD0 0001E50009 		      	ld   	r20,#30
FFFC1DD5 000274C009 		      	ld   	r19,#39
FFFC1DDA 00080CEEE6 		      	lf.d 	fp3,-4[bp]
FFFC1DE0 0000048330 		      	mov  	r18,fp3
FFFC1DE5 C513500050 		      	call 	_prtflt
FFFC1DEA 000000FFCF 
FFFC1DF0 0000001571 		      	pop  	r21
FFFC1DF5 0000001471 		      	pop  	r20
FFFC1DFA 0000001371 		      	pop  	r19
FFFC1E00 0000001271 		      	pop  	r18
                        		      	;    		y = 1.0 - 1.0/65536.0;
                        		      	lf.d 	fp4,FloatTest_23
                        		      	lf.d 	fp6,FloatTest_23
                        		      	lf.d 	fp7,FloatTest_24
FFFC1E05 001491C6F1 		      	fdiv.t	fp5,fp6,fp7
FFFC1E0A 000C5144F1 		      	fsub.t	fp3,fp4,fp5
FFFC1E10 00080C9EE7 		      	sf.d 	fp3,-14[bp]
                        		      	;    		DBGDisplayString("\r\ny= ");
FFFC1E15 0000001270 		      	push 	r18
FFFC1E1A CDFEA48009 		      	ld   	r18,#FloatTest_25
FFFC1E20 000000FFCF 
FFFC1E25 C6FF500050 		      	call 	_DBGDisplayString
FFFC1E2A 000000FFCF 
FFFC1E30 0000001271 		      	pop  	r18
                        		      	;    		prtflt(y,39,30,'E');
FFFC1E35 0000001270 		      	push 	r18
FFFC1E3A 0000001370 		      	push 	r19
FFFC1E40 0000001470 		      	push 	r20
FFFC1E45 0000001570 		      	push 	r21
FFFC1E4A 0004554009 		      	ld   	r21,#69
FFFC1E50 0001E50009 		      	ld   	r20,#30
FFFC1E55 000274C009 		      	ld   	r19,#39
FFFC1E5A 00080C9EE6 		      	lf.d 	fp3,-14[bp]
FFFC1E60 0000048330 		      	mov  	r18,fp3
FFFC1E65 C513500050 		      	call 	_prtflt
FFFC1E6A 000000FFCF 
FFFC1E70 0000001571 		      	pop  	r21
FFFC1E75 0000001471 		      	pop  	r20
FFFC1E7A 0000001371 		      	pop  	r19
FFFC1E80 0000001271 		      	pop  	r18
                        		      	;    		z = x + y;
FFFC1E85 000810EEE6 		      	lf.d 	fp4,-4[bp]
FFFC1E8A 0008149EE6 		      	lf.d 	fp5,-14[bp]
FFFC1E90 000C4144F9 		      	fadd.d	fp3,fp4,fp5
FFFC1E95 00080C4EE7 		      	sf.d 	fp3,-24[bp]
                        		      	;    		DBGDisplayString("\r\nx+y= ");
FFFC1E9A 0000001270 		      	push 	r18
FFFC1EA0 CDFDA48009 		      	ld   	r18,#FloatTest_26
FFFC1EA5 000000FFCF 
FFFC1EAA C6FF500050 		      	call 	_DBGDisplayString
FFFC1EB0 000000FFCF 
FFFC1EB5 0000001271 		      	pop  	r18
                        		      	;    		prtflt(z,39,30,'E');
FFFC1EBA 0000001270 		      	push 	r18
FFFC1EC0 0000001370 		      	push 	r19
FFFC1EC5 0000001470 		      	push 	r20
FFFC1ECA 0000001570 		      	push 	r21
FFFC1ED0 0004554009 		      	ld   	r21,#69
FFFC1ED5 0001E50009 		      	ld   	r20,#30
FFFC1EDA 000274C009 		      	ld   	r19,#39
FFFC1EE0 00080C4EE6 		      	lf.d 	fp3,-24[bp]
FFFC1EE5 0000048330 		      	mov  	r18,fp3
FFFC1EEA C513500050 		      	call 	_prtflt
FFFC1EF0 000000FFCF 
FFFC1EF5 0000001571 		      	pop  	r21
FFFC1EFA 0000001471 		      	pop  	r20
FFFC1F00 0000001371 		      	pop  	r19
FFFC1F05 0000001271 		      	pop  	r18
                        		      	;    		DBGDisplayString("\r\nIEEE-754 result: 90071992254740994.0 dbl\r\n");
FFFC1F0A 0000001270 		      	push 	r18
FFFC1F10 CDF8048009 		      	ld   	r18,#FloatTest_27
FFFC1F15 000000FFCF 
FFFC1F1A C6FF500050 		      	call 	_DBGDisplayString
FFFC1F20 000000FFCF 
FFFC1F25 0000001271 		      	pop  	r18
                        		      	;    		DBGDisplayString("\r\nIEEE-754 result: 90071992254740996.0 xdbl\r\n");
FFFC1F2A 0000001270 		      	push 	r18
FFFC1F30 CDF2448009 		      	ld   	r18,#FloatTest_28
FFFC1F35 000000FFCF 
FFFC1F3A C6FF500050 		      	call 	_DBGDisplayString
FFFC1F40 000000FFCF 
FFFC1F45 0000001271 		      	pop  	r18
                        	FloatTest_32:
FFFC1F4A 00000FFB30 		      	mov  	sp,bp
FFFC1F50 0000003B71 		      	pop  	bp
FFFC1F55 0000003A71 		      	pop  	xlr
FFFC1F5A 0000000AEF 		      	ret  	#10
                        	FloatTest_29:
FFFC1F60 0000ADFB86 		      	ldd  	lr,10[bp]
FFFC1F65 00014DFB93 		      	std  	lr,20[bp]
FFFC1F6A FFE0C00046 		      	bra  	FloatTest_32
                        	_TestEvalSTKSIZE_ EQU 24
                        		code
                        		align	16                        	
FFFC1F70 0000000053 	public code _FloatTest:
	      	tgt  
FFFC1F75 0000003A70 		      	push 	xlr
FFFC1F7A 0000003B70 		      	push 	bp
FFFC1F80 C269AE8009 		      	ld   	xlr,#FloatTest_66
FFFC1F85 000000FFCF 
FFFC1F8A 00000EFF30 		      	mov  	bp,sp
FFFC1F90 FFFC4FFF04 		      	sub  	sp,sp,#_FloatTestSTKSIZE_
                        		      	;    		int bad;
FFFC1F95 CDCFC0C082 		      	ldw  	r3,FloatTest_33
FFFC1F9A 000000FFCF 
                        		      	;    		while(GetButton());
                        	FloatTest_69:
FFFC1FA0 0000000053 		      	tgt  
                        		      	;    		asm {
                        		      	     	
FFFC1FA5 C009004022 				lw		r1,BUTTONS
FFFC1FAA 000000FFCD 
                        		      	;    		}
                        	FloatTest_74:
                        	FloatTest_71:
                        	FloatTest_73:
FFFC1FB0 000A000146 		      	beq  	r1,r0,FloatTest_70
                        		      	;    		while(GetButton());
FFFC1FB5 FFEBC00046 		      	bra  	FloatTest_69
                        	FloatTest_70:
                        		      	;    		DBGDisplayString("  Float Test\r\n");
FFFC1FBA 0000001270 		      	push 	r18
FFFC1FC0 CDF0648009 		      	ld   	r18,#FloatTest_34
FFFC1FC5 000000FFCF 
FFFC1FCA C6FF500050 		      	call 	_DBGDisplayString
FFFC1FD0 000000FFCF 
FFFC1FD5 0000001271 		      	pop  	r18
                        		      	;    		DBGDisplayString("  PI is ");
FFFC1FDA 0000001270 		      	push 	r18
FFFC1FE0 CDEF448009 		      	ld   	r18,#FloatTest_35
FFFC1FE5 000000FFCF 
FFFC1FEA C6FF500050 		      	call 	_DBGDisplayString
FFFC1FF0 000000FFCF 
FFFC1FF5 0000001271 		      	pop  	r18
                        		      	;    		prtflt(pi,20,16,'E');
FFFC1FFA 000450009C 		      	push 	#69
FFFC2000 000100009C 		      	push 	#16
FFFC2005 000140009C 		      	push 	#20
FFFC200A 00080C9EE6 		      	lf.d 	fp3,-14[bp]
FFFC2010 00000000F0 		      	push.d	fp3
FFFC2015 C513500050 		      	call 	_prtflt
FFFC201A 000000FFCF 
FFFC2020 0006EFFF04 		      	add  	sp,sp,#110
                        		      	;    		DBGDisplayString("Testing prtflt");
FFFC2025 0000001270 		      	push 	r18
FFFC202A CDED648009 		      	ld   	r18,#FloatTest_36
FFFC2030 000000FFCF 
FFFC2035 C6FF500050 		      	call 	_DBGDisplayString
FFFC203A 000000FFCF 
FFFC2040 0000001271 		      	pop  	r18
                        		      	;    		DBGDisplayString("\r\n0.0=");
FFFC2045 0000001270 		      	push 	r18
FFFC204A CDEC848009 		      	ld   	r18,#FloatTest_37
FFFC2050 000000FFCF 
FFFC2055 C6FF500050 		      	call 	_DBGDisplayString
FFFC205A 000000FFCF 
FFFC2060 0000001271 		      	pop  	r18
                        		      	;    		prtflt(0.0,0,16,'E');
FFFC2065 000450009C 		      	push 	#69
FFFC206A 000100009C 		      	push 	#16
FFFC2070 000000009C 		      	push 	#0
                        		      	lf.d 	fp3,FloatTest_38
FFFC2075 00000000F0 		      	push 	fp3
FFFC207A C513500050 		      	call 	_prtflt
FFFC2080 000000FFCF 
FFFC2085 00082FFF04 		      	add  	sp,sp,#130
                        		      	;    		DBGDisplayString("\r\n42.0=");
FFFC208A 0000001270 		      	push 	r18
FFFC2090 CDEB848009 		      	ld   	r18,#FloatTest_39
FFFC2095 000000FFCF 
FFFC209A C6FF500050 		      	call 	_DBGDisplayString
FFFC20A0 000000FFCF 
FFFC20A5 0000001271 		      	pop  	r18
                        		      	;    		prtflt(42.0,0,16,'E');
FFFC20AA 000450009C 		      	push 	#69
FFFC20B0 000100009C 		      	push 	#16
FFFC20B5 000000009C 		      	push 	#0
                        		      	lf.d 	fp3,FloatTest_40
FFFC20BA 00000000F0 		      	push 	fp3
FFFC20C0 C513500050 		      	call 	_prtflt
FFFC20C5 000000FFCF 
FFFC20CA 00082FFF04 		      	add  	sp,sp,#130
                        		      	;    		DBGDisplayString("\r\n12345 => float ");
FFFC20D0 0000001270 		      	push 	r18
FFFC20D5 CDE9448009 		      	ld   	r18,#FloatTest_41
FFFC20DA 000000FFCF 
FFFC20E0 C6FF500050 		      	call 	_DBGDisplayString
FFFC20E5 000000FFCF 
FFFC20EA 0000001271 		      	pop  	r18
                        		      	;    		t1 = 12345;
FFFC20F0 030390C009 		      	ld   	r3,#12345
FFFC20F5 FFFC40FB93 		      	std  	r3,-60[bp]
                        		      	;    		a = (float)t1;
                        		      	;    		prtflt(a,0,16,'E');
FFFC20FA 000450009C 		      	push 	#69
FFFC2100 000100009C 		      	push 	#16
FFFC2105 000000009C 		      	push 	#0
FFFC210A 00080CFEE6 		      	lf.d 	fp3,-34[bp]
FFFC2110 00000000F0 		      	push.d	fp3
FFFC2115 C513500050 		      	call 	_prtflt
FFFC211A 000000FFCF 
FFFC2120 0006EFFF04 		      	add  	sp,sp,#110
                        		      	;    		DBGDisplayString("\r\n12345. => int ");
FFFC2125 0000001270 		      	push 	r18
FFFC212A CDE7248009 		      	ld   	r18,#FloatTest_42
FFFC2130 000000FFCF 
FFFC2135 C6FF500050 		      	call 	_DBGDisplayString
FFFC213A 000000FFCF 
FFFC2140 0000001271 		      	pop  	r18
                        		      	;    		t1 = (int)a;
FFFC2145 FFFDE0FB86 		      	ldd  	r3,-34[bp]
FFFC214A FFFC40FB93 		      	std  	r3,-60[bp]
                        		      	;    		prtflt((float)t1,0,16,'E');
FFFC2150 000450009C 		      	push 	#69
FFFC2155 000100009C 		      	push 	#16
FFFC215A 000000009C 		      	push 	#0
FFFC2160 00080C2EE6 		      	lf.d 	fp3,-60[bp]
FFFC2165 00000000F0 		      	push 	fp3
FFFC216A C513500050 		      	call 	_prtflt
FFFC2170 000000FFCF 
FFFC2175 00028FFF04 		      	add  	sp,sp,#40
                        		      	;    		DBGDisplayString("\r\n1234567.8901234=");
FFFC217A 0000001270 		      	push 	r18
FFFC2180 CDE4C48009 		      	ld   	r18,#FloatTest_43
FFFC2185 000000FFCF 
FFFC218A C6FF500050 		      	call 	_DBGDisplayString
FFFC2190 000000FFCF 
FFFC2195 0000001271 		      	pop  	r18
                        		      	;    		prtflt(1234567.8901234,0,16,'E');
FFFC219A 000450009C 		      	push 	#69
FFFC21A0 000100009C 		      	push 	#16
FFFC21A5 000000009C 		      	push 	#0
                        		      	lf.d 	fp3,FloatTest_44
FFFC21AA 00000000F0 		      	push 	fp3
FFFC21B0 C513500050 		      	call 	_prtflt
FFFC21B5 000000FFCF 
FFFC21BA 00082FFF04 		      	add  	sp,sp,#130
                        		      	;    		DBGDisplayString("  ");
FFFC21C0 0000001270 		      	push 	r18
FFFC21C5 CDE4648009 		      	ld   	r18,#FloatTest_45
FFFC21CA 000000FFCF 
FFFC21D0 C6FF500050 		      	call 	_DBGDisplayString
FFFC21D5 000000FFCF 
FFFC21DA 0000001271 		      	pop  	r18
                        		      	;    		prtflt(log10q(1234567.8901234),0,16,'E');
FFFC21E0 000450009C 		      	push 	#69
FFFC21E5 000100009C 		      	push 	#16
FFFC21EA 000000009C 		      	push 	#0
                        		      	lf.d 	fp3,FloatTest_44
FFFC21F0 00000000F0 		      	push 	fp3
FFFC21F5 0000000050 		      	call 	_log10q
FFFC21FA 00064FFF04 		      	add  	sp,sp,#100
FFFC2200 0000000170 		      	push 	r1
FFFC2205 C513500050 		      	call 	_prtflt
FFFC220A 000000FFCF 
FFFC2210 00028FFF04 		      	add  	sp,sp,#40
                        		      	;    		DBGDisplayString("\r\n1.8e14=");
FFFC2215 0000001270 		      	push 	r18
FFFC221A CDE3248009 		      	ld   	r18,#FloatTest_46
FFFC2220 000000FFCF 
FFFC2225 C6FF500050 		      	call 	_DBGDisplayString
FFFC222A 000000FFCF 
FFFC2230 0000001271 		      	pop  	r18
                        		      	;    		prtflt(1.8e14,0,16,'E');
FFFC2235 000450009C 		      	push 	#69
FFFC223A 000100009C 		      	push 	#16
FFFC2240 000000009C 		      	push 	#0
                        		      	lf.d 	fp3,FloatTest_47
FFFC2245 00000000F0 		      	push 	fp3
FFFC224A C513500050 		      	call 	_prtflt
FFFC2250 000000FFCF 
FFFC2255 00082FFF04 		      	add  	sp,sp,#130
                        		      	;    		DBGDisplayString("\r\n555555.5555555=");
FFFC225A 0000001270 		      	push 	r18
FFFC2260 CDE0E48009 		      	ld   	r18,#FloatTest_48
FFFC2265 000000FFCF 
FFFC226A C6FF500050 		      	call 	_DBGDisplayString
FFFC2270 000000FFCF 
FFFC2275 0000001271 		      	pop  	r18
                        		      	;    		prtflt(555555.5555555,0,16,'E');
FFFC227A 000450009C 		      	push 	#69
FFFC2280 000100009C 		      	push 	#16
FFFC2285 000000009C 		      	push 	#0
                        		      	lf.d 	fp3,FloatTest_49
FFFC228A 00000000F0 		      	push 	fp3
FFFC2290 C513500050 		      	call 	_prtflt
FFFC2295 000000FFCF 
FFFC229A 00082FFF04 		      	add  	sp,sp,#130
                        		      	;    		DBGDisplayString("\r\n-8.8888888888889e14=");
FFFC22A0 0000001270 		      	push 	r18
FFFC22A5 CDDE048009 		      	ld   	r18,#FloatTest_50
FFFC22AA 000000FFCF 
FFFC22B0 C6FF500050 		      	call 	_DBGDisplayString
FFFC22B5 000000FFCF 
FFFC22BA 0000001271 		      	pop  	r18
                        		      	;    		prtflt(-8.8888888888889e+14,0,16,'E');
FFFC22C0 000450009C 		      	push 	#69
FFFC22C5 000100009C 		      	push 	#16
FFFC22CA 000000009C 		      	push 	#0
                        		      	lf.d 	fp3,FloatTest_52
FFFC22D0 00000000F0 		      	push 	fp3
FFFC22D5 C513500050 		      	call 	_prtflt
FFFC22DA 000000FFCF 
FFFC22E0 00082FFF04 		      	add  	sp,sp,#130
                        		      	;    		DBGDisplayString("\r\n1.11111111111111e+23=");
FFFC22E5 0000001270 		      	push 	r18
FFFC22EA CDDB048009 		      	ld   	r18,#FloatTest_53
FFFC22F0 000000FFCF 
FFFC22F5 C6FF500050 		      	call 	_DBGDisplayString
FFFC22FA 000000FFCF 
FFFC2300 0000001271 		      	pop  	r18
                        		      	;    		prtflt(1.11111111111111e+23,0,16,'E');
FFFC2305 000450009C 		      	push 	#69
FFFC230A 000100009C 		      	push 	#16
FFFC2310 000000009C 		      	push 	#0
                        		      	lf.d 	fp3,FloatTest_54
FFFC2315 00000000F0 		      	push 	fp3
FFFC231A C513500050 		      	call 	_prtflt
FFFC2320 000000FFCF 
FFFC2325 00082FFF04 		      	add  	sp,sp,#130
                        		      	;    		DBGDisplayString("  ");
FFFC232A 0000001270 		      	push 	r18
FFFC2330 CDDAA48009 		      	ld   	r18,#FloatTest_55
FFFC2335 000000FFCF 
FFFC233A C6FF500050 		      	call 	_DBGDisplayString
FFFC2340 000000FFCF 
FFFC2345 0000001271 		      	pop  	r18
                        		      	;    		prtflt(log10q(1.11111111111111e+23),0,16,'E');
FFFC234A 000450009C 		      	push 	#69
FFFC2350 000100009C 		      	push 	#16
FFFC2355 000000009C 		      	push 	#0
                        		      	lf.d 	fp3,FloatTest_54
FFFC235A 00000000F0 		      	push 	fp3
FFFC2360 0000000050 		      	call 	_log10q
FFFC2365 00064FFF04 		      	add  	sp,sp,#100
FFFC236A 0000000170 		      	push 	r1
FFFC2370 C513500050 		      	call 	_prtflt
FFFC2375 000000FFCF 
FFFC237A 00028FFF04 		      	add  	sp,sp,#40
                        		      	;    		while (!GetButton());
                        	FloatTest_75:
FFFC2380 0000000053 		      	tgt  
                        		      	;    		asm {
                        		      	     	
FFFC2385 C009004022 				lw		r1,BUTTONS
FFFC238A 000000FFCD 
                        		      	;    		}
                        	FloatTest_80:
                        	FloatTest_77:
                        	FloatTest_79:
FFFC2390 000A000147 		      	bne  	r1,r0,FloatTest_76
                        		      	;    		while (!GetButton());
FFFC2395 FFEBC00046 		      	bra  	FloatTest_75
                        	FloatTest_76:
                        		      	;    		while(GetButton());
                        	FloatTest_81:
FFFC239A 0000000053 		      	tgt  
                        		      	;    		asm {
                        		      	     	
FFFC23A0 C009004022 				lw		r1,BUTTONS
FFFC23A5 000000FFCD 
                        		      	;    		}
                        	FloatTest_86:
                        	FloatTest_83:
                        	FloatTest_85:
FFFC23AA 000B000146 		      	beq  	r1,r0,FloatTest_82
                        		      	;    		while(GetButton());
FFFC23B0 FFEAC00046 		      	bra  	FloatTest_81
                        	FloatTest_82:
                        		      	;    		DBGClearScreen();
FFFC23B5 C5C8500050 		      	call 	_DBGClearScreen
FFFC23BA 000000FFCF 
                        		      	;    		DBGHomeCursor();
FFFC23C0 C5A2A00050 		      	call 	_DBGHomeCursor
FFFC23C5 000000FFCF 
                        		      	;    		DBGDisplayString("\r\n10.0+10.0=");
FFFC23CA 0000001270 		      	push 	r18
FFFC23D0 CDD9048009 		      	ld   	r18,#FloatTest_56
FFFC23D5 000000FFCF 
FFFC23DA C6FF500050 		      	call 	_DBGDisplayString
FFFC23E0 000000FFCF 
FFFC23E5 0000001271 		      	pop  	r18
                        		      	;    		a = 10.0;
                        		      	;    		b = 10.0;
                        		      	;    		prtflt(a+b,20,16,'E');
FFFC23EA 000450009C 		      	push 	#69
FFFC23F0 000100009C 		      	push 	#16
FFFC23F5 000140009C 		      	push 	#20
FFFC23FA 000810FEE6 		      	lf.d 	fp4,-34[bp]
FFFC2400 000814AEE6 		      	lf.d 	fp5,-44[bp]
FFFC2405 000C4144F9 		      	fadd.d	fp3,fp4,fp5
FFFC240A 00000000F0 		      	push 	fp3
FFFC2410 C513500050 		      	call 	_prtflt
FFFC2415 000000FFCF 
FFFC241A 0006EFFF04 		      	add  	sp,sp,#110
                        		      	;    		DBGDisplayString("\r\n10.0*10.0=");
FFFC2420 0000001270 		      	push 	r18
FFFC2425 CDD7648009 		      	ld   	r18,#FloatTest_58
FFFC242A 000000FFCF 
FFFC2430 C6FF500050 		      	call 	_DBGDisplayString
FFFC2435 000000FFCF 
FFFC243A 0000001271 		      	pop  	r18
                        		      	;    		prtflt(a*b,20,16,'E');
FFFC2440 000450009C 		      	push 	#69
FFFC2445 000100009C 		      	push 	#16
FFFC244A 000140009C 		      	push 	#20
FFFC2450 000810FEE6 		      	lf.d 	fp4,-34[bp]
FFFC2455 000814AEE6 		      	lf.d 	fp5,-44[bp]
FFFC245A 000C8144F9 		      	fmul.d	fp3,fp4,fp5
FFFC2460 00000000F0 		      	push 	fp3
FFFC2465 C513500050 		      	call 	_prtflt
FFFC246A 000000FFCF 
FFFC2470 0006EFFF04 		      	add  	sp,sp,#110
                        		      	;    		DBGDisplayString("\r\n300.0/25.0=");
FFFC2475 0000001270 		      	push 	r18
FFFC247A CDD5A48009 		      	ld   	r18,#FloatTest_59
FFFC2480 000000FFCF 
FFFC2485 C6FF500050 		      	call 	_DBGDisplayString
FFFC248A 000000FFCF 
FFFC2490 0000001271 		      	pop  	r18
                        		      	;    		a = 300.0;
                        		      	;    		b = 25.0;
                        		      	;    		prtflt(a/b,20,16,'E');
FFFC2495 000450009C 		      	push 	#69
FFFC249A 000100009C 		      	push 	#16
FFFC24A0 000140009C 		      	push 	#20
FFFC24A5 000810FEE6 		      	lf.d 	fp4,-34[bp]
FFFC24AA 000814AEE6 		      	lf.d 	fp5,-44[bp]
FFFC24B0 000C9144F9 		      	fdiv.d	fp3,fp4,fp5
FFFC24B5 00000000F0 		      	push 	fp3
FFFC24BA C513500050 		      	call 	_prtflt
FFFC24C0 000000FFCF 
FFFC24C5 00082FFF04 		      	add  	sp,sp,#130
                        		      	;    		DBGDisplayString("\r\n");
FFFC24CA 0000001270 		      	push 	r18
FFFC24D0 CDD5448009 		      	ld   	r18,#FloatTest_62
FFFC24D5 000000FFCF 
FFFC24DA C6FF500050 		      	call 	_DBGDisplayString
FFFC24E0 000000FFCF 
FFFC24E5 0000001271 		      	pop  	r18
                        		      	;    		a = 0.0; b = -0.0;
                        		      	;    		bad = 0;
FFFC24EA FFFF603B93 		      	std  	r0,-10[bp]
                        		      	;    		if (a != b)
FFFC24F0 00080CFEE6 		      	lf.d 	fp3,-34[bp]
FFFC24F5 000810AEE6 		      	lf.d 	fp4,-44[bp]
FFFC24FA 0004210301 		      	fbeq.t	fp3,fp4,FloatTest_87
                        		      	;    			bad = 1;
FFFC2500 000010C009 		      	ld   	r3,#1
FFFC2505 FFFF60FB93 		      	std  	r3,-10[bp]
                        	FloatTest_87:
                        		      	;    		nx = -a;
FFFC250A 000810FEE6 		      	lf.d 	fp4,-34[bp]
FFFC2510 000D4004F9 		      	fneg.d	fp3,fp4
FFFC2515 00080C4EE7 		      	sf.d 	fp3,-24[bp]
                        		      	;    		if (nx != a)
FFFC251A 00080C4EE6 		      	lf.d 	fp3,-24[bp]
FFFC2520 000810FEE6 		      	lf.d 	fp4,-34[bp]
FFFC2525 0004210301 		      	fbeq.t	fp3,fp4,FloatTest_89
                        		      	;    			bad = 1;
FFFC252A 000010C009 		      	ld   	r3,#1
FFFC2530 FFFF60FB93 		      	std  	r3,-10[bp]
                        	FloatTest_89:
                        		      	;    		TestAddsub(+0.0, +0.0);
                        		      	lf.d 	fp3,FloatTest_38
FFFC2535 00000000F0 		      	push 	fp3
                        		      	lf.d 	fp4,FloatTest_38
FFFC253A 0000000170 		      	push 	fp4
FFFC2540 C18E000050 		      	call 	_TestAddsub
FFFC2545 000000FFCF 
FFFC254A 000C8FFF04 		      	add  	sp,sp,#200
                        		      	;    		TestAddsub(+0.0, -0.0);
                        		      	lf.d 	fp3,FloatTest_63
FFFC2550 00000000F0 		      	push 	fp3
                        		      	lf.d 	fp4,FloatTest_38
FFFC2555 0000000170 		      	push 	fp4
FFFC255A C18E000050 		      	call 	_TestAddsub
FFFC2560 000000FFCF 
FFFC2565 000C8FFF04 		      	add  	sp,sp,#200
                        		      	;    		TestAddsub(-0.0, +0.0);
                        		      	lf.d 	fp3,FloatTest_38
FFFC256A 00000000F0 		      	push 	fp3
                        		      	lf.d 	fp4,FloatTest_63
FFFC2570 0000000170 		      	push 	fp4
FFFC2575 C18E000050 		      	call 	_TestAddsub
FFFC257A 000000FFCF 
FFFC2580 000C8FFF04 		      	add  	sp,sp,#200
                        		      	;    		TestAddsub(-0.0, -0.0);
                        		      	lf.d 	fp3,FloatTest_63
FFFC2585 00000000F0 		      	push 	fp3
                        		      	lf.d 	fp4,FloatTest_63
FFFC258A 0000000170 		      	push 	fp4
FFFC2590 C18E000050 		      	call 	_TestAddsub
FFFC2595 000000FFCF 
FFFC259A 000C8FFF04 		      	add  	sp,sp,#200
                        		      	;    		TestAddsub(+1.0, +1.0);
                        		      	lf.d 	fp3,FloatTest_23
FFFC25A0 00000000F0 		      	push 	fp3
                        		      	lf.d 	fp4,FloatTest_23
FFFC25A5 0000000170 		      	push 	fp4
FFFC25AA C18E000050 		      	call 	_TestAddsub
FFFC25B0 000000FFCF 
FFFC25B5 000C8FFF04 		      	add  	sp,sp,#200
                        		      	;    		TestAddsub(+1.0, -1.0);
                        		      	lf.d 	fp3,FloatTest_64
FFFC25BA 00000000F0 		      	push 	fp3
                        		      	lf.d 	fp4,FloatTest_23
FFFC25C0 0000000170 		      	push 	fp4
FFFC25C5 C18E000050 		      	call 	_TestAddsub
FFFC25CA 000000FFCF 
FFFC25D0 000C8FFF04 		      	add  	sp,sp,#200
                        		      	;    		TestMul(+0.0, +0.0);
                        		      	lf.d 	fp3,FloatTest_38
FFFC25D5 00000000F0 		      	push 	fp3
                        		      	lf.d 	fp4,FloatTest_38
FFFC25DA 0000000170 		      	push 	fp4
FFFC25E0 C1BCA00050 		      	call 	_TestMul
FFFC25E5 000000FFCF 
FFFC25EA 000C8FFF04 		      	add  	sp,sp,#200
                        		      	;    		TestMul(+0.0, -0.0);
                        		      	lf.d 	fp3,FloatTest_63
FFFC25F0 00000000F0 		      	push 	fp3
                        		      	lf.d 	fp4,FloatTest_38
FFFC25F5 0000000170 		      	push 	fp4
FFFC25FA C1BCA00050 		      	call 	_TestMul
FFFC2600 000000FFCF 
FFFC2605 000C8FFF04 		      	add  	sp,sp,#200
                        		      	;    		TestMul(-0.0, +0.0);
                        		      	lf.d 	fp3,FloatTest_38
FFFC260A 00000000F0 		      	push 	fp3
                        		      	lf.d 	fp4,FloatTest_63
FFFC2610 0000000170 		      	push 	fp4
FFFC2615 C1BCA00050 		      	call 	_TestMul
FFFC261A 000000FFCF 
FFFC2620 000C8FFF04 		      	add  	sp,sp,#200
                        		      	;    		TestMul(-0.0, -0.0);
                        		      	lf.d 	fp3,FloatTest_63
FFFC2625 00000000F0 		      	push 	fp3
                        		      	lf.d 	fp4,FloatTest_63
FFFC262A 0000000170 		      	push 	fp4
FFFC2630 C1BCA00050 		      	call 	_TestMul
FFFC2635 000000FFCF 
FFFC263A 000C8FFF04 		      	add  	sp,sp,#200
                        		      	;    		if (bad)
FFFC2640 FFFF60FB86 		      	ldd  	r3,-10[bp]
FFFC2645 0025000346 		      	beq  	r3,r0,FloatTest_91
                        		      	;    			DBGDisplayString("\r\nSigned zero fail.");
FFFC264A 0000001270 		      	push 	r18
FFFC2650 CDD2C48009 		      	ld   	r18,#FloatTest_65
FFFC2655 000000FFCF 
FFFC265A C6FF500050 		      	call 	_DBGDisplayString
FFFC2660 000000FFCF 
FFFC2665 0000001271 		      	pop  	r18
                        	FloatTest_91:
                        		      	;    		TestEval();
FFFC266A C1D7000050 		      	call 	_TestEval
FFFC2670 000000FFCF 
                        		      	;    		GetButton();
FFFC2675 0000000053 		      	tgt  
                        		      	;    		asm {
                        		      	     	
FFFC267A C009004022 				lw		r1,BUTTONS
FFFC2680 000000FFCD 
                        		      	;    		}
                        	FloatTest_96:
                        	FloatTest_93:
                        	FloatTest_95:
                        	FloatTest_97:
FFFC2685 00000FFB30 		      	mov  	sp,bp
FFFC268A 0000003B71 		      	pop  	bp
FFFC2690 0000003A71 		      	pop  	xlr
FFFC2695 0000000AEF 		      	ret  	#10
                        	FloatTest_66:
FFFC269A 0000ADFB86 		      	ldd  	lr,10[bp]
FFFC26A0 00014DFB93 		      	std  	lr,20[bp]
FFFC26A5 FFE0C00046 		      	bra  	FloatTest_97
                        	endpublic
                        	
                        	_FloatTestSTKSIZE_ EQU 60
                        		code
FFFC26AA 0000000000 		align	1
                        	
                        	_RTGetButtonSTKSIZE_ EQU 0
                        	_TwoSpaces:
FFFC26B0 0000000053 		      	tgt  
FFFC26B5 0000003A70 		      	push 	xlr
FFFC26BA 0000003B70 		      	push 	bp
FFFC26C0 C2720E8009 		      	ld   	xlr,#ramtest_2
FFFC26C5 000000FFCF 
FFFC26CA 00000EFF30 		      	mov  	bp,sp
FFFC26D0 00000FFF04 		      	sub  	sp,sp,#_TwoSpacesSTKSIZE_
FFFC26D5 0000001270 		      	push 	r18
FFFC26DA 0002048009 		      	ld   	r18,#32
FFFC26E0 C2C4000050 		      	call 	_putch
FFFC26E5 000000FFCF 
FFFC26EA 0000001271 		      	pop  	r18
FFFC26F0 0000001270 		      	push 	r18
FFFC26F5 0002048009 		      	ld   	r18,#32
FFFC26FA C2C4000050 		      	call 	_putch
FFFC2700 000000FFCF 
FFFC2705 0000001271 		      	pop  	r18
                        	ramtest_5:
FFFC270A 00000FFB30 		      	mov  	sp,bp
FFFC2710 0000003B71 		      	pop  	bp
FFFC2715 0000003A71 		      	pop  	xlr
FFFC271A 0000000AEF 		      	ret  	#10
                        	ramtest_2:
FFFC2720 0000ADFB86 		      	ldd  	lr,10[bp]
FFFC2725 00014DFB93 		      	std  	lr,20[bp]
FFFC272A FFE0C00046 		      	bra  	ramtest_5
                        	_TwoSpacesSTKSIZE_ EQU 0
                        	_puthex:
FFFC2730 0000000053 		      	tgt  
FFFC2735 0000003A70 		      	push 	xlr
FFFC273A 0000003B70 		      	push 	bp
FFFC2740 00000EFF30 		      	mov  	bp,sp
FFFC2745 00000FFF04 		      	sub  	sp,sp,#_puthexSTKSIZE_
                        		      	     	
FFFC274A 0000005230 				mov		r1,r18
FFFC2750 CD57500050 				call	_DisplayTetra
FFFC2755 000000FFCF 
                        	ramtest_9:
FFFC275A 00000FFB30 		      	mov  	sp,bp
FFFC2760 0000003B71 		      	pop  	bp
FFFC2765 0000003A71 		      	pop  	xlr
FFFC276A 0000000AEF 		      	ret  	#10
                        	_puthexSTKSIZE_ EQU 0
                        	_dumpaddr:
FFFC2770 0000000053 		      	tgt  
FFFC2775 0000003A70 		      	push 	xlr
FFFC277A 0000003B70 		      	push 	bp
FFFC2780 C283AE8009 		      	ld   	xlr,#ramtest_10
FFFC2785 000000FFCF 
FFFC278A 00000EFF30 		      	mov  	bp,sp
FFFC2790 00000FFF04 		      	sub  	sp,sp,#_dumpaddrSTKSIZE_
FFFC2795 C26B000050 		      	call 	_TwoSpaces
FFFC279A 000000FFCF 
FFFC27A0 0000001270 		      	push 	r18
FFFC27A5 C273000050 		      	call 	_puthex
FFFC27AA 000000FFCF 
FFFC27B0 0000001271 		      	pop  	r18
FFFC27B5 0000001270 		      	push 	r18
FFFC27BA 0002048009 		      	ld   	r18,#32
FFFC27C0 C2C4000050 		      	call 	_putch
FFFC27C5 000000FFCF 
FFFC27CA 0000001271 		      	pop  	r18
FFFC27D0 0000001270 		      	push 	r18
FFFC27D5 000000D286 		      	ldd  	r3,[r18]
FFFC27DA 0000048330 		      	mov  	r18,r3
FFFC27E0 C273000050 		      	call 	_puthex
FFFC27E5 000000FFCF 
FFFC27EA 0000001271 		      	pop  	r18
FFFC27F0 0000001270 		      	push 	r18
FFFC27F5 0000D48009 		      	ld   	r18,#13
FFFC27FA C2C4000050 		      	call 	_putch
FFFC2800 000000FFCF 
FFFC2805 0000001271 		      	pop  	r18
FFFC280A 0000001270 		      	push 	r18
FFFC2810 0000A48009 		      	ld   	r18,#10
FFFC2815 C2C4000050 		      	call 	_putch
FFFC281A 000000FFCF 
FFFC2820 0000001271 		      	pop  	r18
                        	ramtest_13:
FFFC2825 00000FFB30 		      	mov  	sp,bp
FFFC282A 0000003B71 		      	pop  	bp
FFFC2830 0000003A71 		      	pop  	xlr
FFFC2835 0000000AEF 		      	ret  	#10
                        	ramtest_10:
FFFC283A 0000ADFB86 		      	ldd  	lr,10[bp]
FFFC2840 00014DFB93 		      	std  	lr,20[bp]
FFFC2845 FFE0C00046 		      	bra  	ramtest_13
                        	_dumpaddrSTKSIZE_ EQU 0
                        	_SetMem:
FFFC284A 0000000053 		      	tgt  
FFFC2850 0000003A70 		      	push 	xlr
FFFC2855 0000003B70 		      	push 	bp
FFFC285A C2925E8009 		      	ld   	xlr,#ramtest_15
FFFC2860 000000FFCF 
FFFC2865 00000EFF30 		      	mov  	bp,sp
FFFC286A FFFF6FFF04 		      	sub  	sp,sp,#_SetMemSTKSIZE_
FFFC2870 0000000B70 		      	push 	r11
FFFC2875 100000C009 		      	ld   	r3,#65536
FFFC287A 000002C330 		      	mov  	r11,r3
                        	ramtest_18:
FFFC2880 00A0000B59 		      	bge  	r11,#67108864,ramtest_19
FFFC2885 00004000C0 
FFFC288A 00FFF0CB08 		      	and  	r3,r11,#4095
FFFC2890 007A000357 		      	bne  	r3,#0,ramtest_21
FFFC2895 C26B000050 		      	call 	_TwoSpaces
FFFC289A 000000FFCF 
FFFC28A0 0000001270 		      	push 	r18
FFFC28A5 4300330B02 		      	asr  	r3,r11,#12
FFFC28AA 0000048330 		      	mov  	r18,r3
FFFC28B0 C273000050 		      	call 	_puthex
FFFC28B5 000000FFCF 
FFFC28BA 0000001271 		      	pop  	r18
FFFC28C0 0000001270 		      	push 	r18
FFFC28C5 0000D48009 		      	ld   	r18,#13
FFFC28CA C2C4000050 		      	call 	_putch
FFFC28D0 000000FFCF 
FFFC28D5 0000001271 		      	pop  	r18
FFFC28DA 0000000053 		      	tgt  
                        		      	     	
FFFC28E0 C009004022 				lw		r1,BUTTONS
FFFC28E5 000000FFCD 
                        	ramtest_28:
                        	ramtest_25:
                        	ramtest_27:
FFFC28EA 0020010157 		      	bne  	r1,#4,ramtest_23
                        	ramtest_29:
FFFC28F0 0000000B71 		      	pop  	r11
FFFC28F5 00000FFB30 		      	mov  	sp,bp
FFFC28FA 0000003B71 		      	pop  	bp
FFFC2900 0000003A71 		      	pop  	xlr
FFFC2905 0000000AEF 		      	ret  	#10
                        	ramtest_23:
                        	ramtest_21:
FFFC290A 0000048B93 		      	std  	r18,[r11]
FFFC2910 0000A4CB93 		      	std  	r19,10[r11]
                        	ramtest_20:
FFFC2915 000142CB04 		      	add  	r11,r11,#20
FFFC291A FF66C00046 		      	bra  	ramtest_18
                        	ramtest_19:
FFFC2920 FFD0C00046 		      	bra  	ramtest_29
                        	ramtest_15:
FFFC2925 0000ADFB86 		      	ldd  	lr,10[bp]
FFFC292A 00014DFB93 		      	std  	lr,20[bp]
FFFC2930 FFC0C00046 		      	bra  	ramtest_29
                        	_SetMemSTKSIZE_ EQU 10
                        	_CheckMem:
FFFC2935 0000000053 		      	tgt  
FFFC293A 0000003A70 		      	push 	xlr
FFFC2940 0000003B70 		      	push 	bp
FFFC2945 C2ABAE8009 		      	ld   	xlr,#ramtest_31
FFFC294A 000000FFCF 
FFFC2950 00000EFF30 		      	mov  	bp,sp
FFFC2955 FFFECFFF04 		      	sub  	sp,sp,#_CheckMemSTKSIZE_
FFFC295A 0000000B70 		      	push 	r11
FFFC2960 FFFEC03B93 		      	std  	r0,-20[bp]
FFFC2965 100000C009 		      	ld   	r3,#65536
FFFC296A 000002C330 		      	mov  	r11,r3
                        	ramtest_34:
FFFC2970 0110000B59 		      	bge  	r11,#67108864,ramtest_35
FFFC2975 00004000C0 
FFFC297A 00FFF0CB08 		      	and  	r3,r11,#4095
FFFC2980 007A000357 		      	bne  	r3,#0,ramtest_37
FFFC2985 C26B000050 		      	call 	_TwoSpaces
FFFC298A 000000FFCF 
FFFC2990 0000001270 		      	push 	r18
FFFC2995 4300330B02 		      	asr  	r3,r11,#12
FFFC299A 0000048330 		      	mov  	r18,r3
FFFC29A0 C273000050 		      	call 	_puthex
FFFC29A5 000000FFCF 
FFFC29AA 0000001271 		      	pop  	r18
FFFC29B0 0000001270 		      	push 	r18
FFFC29B5 0000D48009 		      	ld   	r18,#13
FFFC29BA C2C4000050 		      	call 	_putch
FFFC29C0 000000FFCF 
FFFC29C5 0000001271 		      	pop  	r18
FFFC29CA 0000000053 		      	tgt  
                        		      	     	
FFFC29D0 C009004022 				lw		r1,BUTTONS
FFFC29D5 000000FFCD 
                        	ramtest_44:
                        	ramtest_41:
                        	ramtest_43:
FFFC29DA 0020010157 		      	bne  	r1,#4,ramtest_39
                        	ramtest_45:
FFFC29E0 0000000B71 		      	pop  	r11
FFFC29E5 00000FFB30 		      	mov  	sp,bp
FFFC29EA 0000003B71 		      	pop  	bp
FFFC29F0 0000003A71 		      	pop  	xlr
FFFC29F5 0000000AEF 		      	ret  	#10
                        	ramtest_39:
                        	ramtest_37:
FFFC29FA 000000CB86 		      	ldd  	r3,[r11]
FFFC2A00 0030048346 		      	beq  	r3,r18,ramtest_46
FFFC2A05 FFFEC0FB86 		      	ldd  	r3,-20[bp]
FFFC2A0A 000010C304 		      	add  	r3,r3,#1
FFFC2A10 FFFEC0FB93 		      	std  	r3,-20[bp]
FFFC2A15 0000001270 		      	push 	r18
FFFC2A1A 0000048B30 		      	mov  	r18,r11
FFFC2A20 C277000050 		      	call 	_dumpaddr
FFFC2A25 000000FFCF 
FFFC2A2A 0000001271 		      	pop  	r18
                        	ramtest_46:
FFFC2A30 0000A0CB86 		      	ldd  	r3,10[r11]
FFFC2A35 003004C346 		      	beq  	r3,r19,ramtest_48
FFFC2A3A FFFEC0FB86 		      	ldd  	r3,-20[bp]
FFFC2A40 000010C304 		      	add  	r3,r3,#1
FFFC2A45 FFFEC0FB93 		      	std  	r3,-20[bp]
FFFC2A4A 0000001270 		      	push 	r18
FFFC2A50 0000048B30 		      	mov  	r18,r11
FFFC2A55 C277000050 		      	call 	_dumpaddr
FFFC2A5A 000000FFCF 
FFFC2A60 0000001271 		      	pop  	r18
                        	ramtest_48:
FFFC2A65 FFFEC0FB86 		      	ldd  	r3,-20[bp]
FFFC2A6A 000B02835A 		      	ble  	r3,#10,ramtest_50
FFFC2A70 0010C00046 		      	bra  	ramtest_35
                        	ramtest_50:
                        	ramtest_36:
FFFC2A75 000142CB04 		      	add  	r11,r11,#20
FFFC2A7A FEF6C00046 		      	bra  	ramtest_34
                        	ramtest_35:
FFFC2A80 0000001270 		      	push 	r18
FFFC2A85 0000D48009 		      	ld   	r18,#13
FFFC2A8A C2C4000050 		      	call 	_putch
FFFC2A90 000000FFCF 
FFFC2A95 0000001271 		      	pop  	r18
FFFC2A9A 0000001270 		      	push 	r18
FFFC2AA0 0000A48009 		      	ld   	r18,#10
FFFC2AA5 C2C4000050 		      	call 	_putch
FFFC2AAA 000000FFCF 
FFFC2AB0 0000001271 		      	pop  	r18
FFFC2AB5 FF2BC00046 		      	bra  	ramtest_45
                        	ramtest_31:
FFFC2ABA 0000ADFB86 		      	ldd  	lr,10[bp]
FFFC2AC0 00014DFB93 		      	std  	lr,20[bp]
FFFC2AC5 FF1BC00046 		      	bra  	ramtest_45
                        	_CheckMemSTKSIZE_ EQU 20
FFFC2ACA 0000000053 	public code _ramtest:
	      	tgt  
FFFC2AD0 0000003A70 		      	push 	xlr
FFFC2AD5 0000003B70 		      	push 	bp
FFFC2ADA C2C30E8009 		      	ld   	xlr,#ramtest_53
FFFC2AE0 000000FFCF 
FFFC2AE5 00000EFF30 		      	mov  	bp,sp
FFFC2AEA FFFF6FFF04 		      	sub  	sp,sp,#_ramtestSTKSIZE_
FFFC2AF0 0000001270 		      	push 	r18
FFFC2AF5 CE04048009 		      	ld   	r18,#ramtest_52
FFFC2AFA 000000FFCF 
FFFC2B00 C6FF500050 		      	call 	_DBGDisplayString
FFFC2B05 000000FFCF 
FFFC2B0A 0000001271 		      	pop  	r18
FFFC2B10 0000001270 		      	push 	r18
FFFC2B15 0000001370 		      	push 	r19
FFFC2B1A 555554C009 		      	ld   	r19,#1431655765
FFFC2B20 00000055C5 
FFFC2B25 AAAAA48009 		      	ld   	r18,#-1431655766
FFFC2B2A FFFFFFAACA 
FFFC2B30 C284A00050 		      	call 	_SetMem
FFFC2B35 000000FFCF 
FFFC2B3A 0000001371 		      	pop  	r19
FFFC2B40 0000001271 		      	pop  	r18
FFFC2B45 0000001270 		      	push 	r18
FFFC2B4A 0000001370 		      	push 	r19
FFFC2B50 555554C009 		      	ld   	r19,#1431655765
FFFC2B55 00000055C5 
FFFC2B5A AAAAA48009 		      	ld   	r18,#-1431655766
FFFC2B60 FFFFFFAACA 
FFFC2B65 C293500050 		      	call 	_CheckMem
FFFC2B6A 000000FFCF 
FFFC2B70 0000001371 		      	pop  	r19
FFFC2B75 0000001271 		      	pop  	r18
FFFC2B7A 0000001270 		      	push 	r18
FFFC2B80 0000D48009 		      	ld   	r18,#13
FFFC2B85 C2C4000050 		      	call 	_putch
FFFC2B8A 000000FFCF 
FFFC2B90 0000001271 		      	pop  	r18
FFFC2B95 0000001270 		      	push 	r18
FFFC2B9A 0000A48009 		      	ld   	r18,#10
FFFC2BA0 C2C4000050 		      	call 	_putch
FFFC2BA5 000000FFCF 
FFFC2BAA 0000001271 		      	pop  	r18
FFFC2BB0 0000001270 		      	push 	r18
FFFC2BB5 0000001370 		      	push 	r19
FFFC2BBA AAAAA4C009 		      	ld   	r19,#-1431655766
FFFC2BC0 FFFFFFAACA 
FFFC2BC5 5555548009 		      	ld   	r18,#1431655765
FFFC2BCA 00000055C5 
FFFC2BD0 C284A00050 		      	call 	_SetMem
FFFC2BD5 000000FFCF 
FFFC2BDA 0000001371 		      	pop  	r19
FFFC2BE0 0000001271 		      	pop  	r18
FFFC2BE5 0000001270 		      	push 	r18
FFFC2BEA 0000001370 		      	push 	r19
FFFC2BF0 AAAAA4C009 		      	ld   	r19,#-1431655766
FFFC2BF5 FFFFFFAACA 
FFFC2BFA 5555548009 		      	ld   	r18,#1431655765
FFFC2C00 00000055C5 
FFFC2C05 C293500050 		      	call 	_CheckMem
FFFC2C0A 000000FFCF 
FFFC2C10 0000001371 		      	pop  	r19
FFFC2C15 0000001271 		      	pop  	r18
                        	ramtest_56:
FFFC2C1A 00000FFB30 		      	mov  	sp,bp
FFFC2C20 0000003B71 		      	pop  	bp
FFFC2C25 0000003A71 		      	pop  	xlr
FFFC2C2A 0000000AEF 		      	ret  	#10
                        	ramtest_53:
FFFC2C30 0000ADFB86 		      	ldd  	lr,10[bp]
FFFC2C35 00014DFB93 		      	std  	lr,20[bp]
FFFC2C3A FFE0C00046 		      	bra  	ramtest_56
                        	endpublic
                        	
                        	_ramtestSTKSIZE_ EQU 10
                        		code
                        		align	16                        	
                        	_LEDSSTKSIZE_ EQU 0
                        		code
                        		align	16                        	
                        	_putch:
FFFC2C40 0000000053 		      	tgt  
FFFC2C45 0000003A70 		      	push 	xlr
FFFC2C4A 0000003B70 		      	push 	bp
FFFC2C50 00000E8030 		      	mov  	xlr,r0
FFFC2C55 00000EFF30 		      	mov  	bp,sp
FFFC2C5A 00000FFF04 		      	sub  	sp,sp,#_putchSTKSIZE_
FFFC2C60 000010C009 		      	ld   	r3,#1
FFFC2C65 0020000346 		      	beq  	r3,r0,stdio_3
FFFC2C6A 0000001270 		      	push 	r18
FFFC2C70 C6A9500050 		      	call 	_DBGDisplayChar
FFFC2C75 000000FFCF 
FFFC2C7A 0000001271 		      	pop  	r18
FFFC2C80 0060C00046 		      	bra  	stdio_4
                        	stdio_3:
FFFC2C85 0000001270 		      	push 	r18
FFFC2C8A 0002D48009 		      	ld   	r18,#45
FFFC2C90 0000000053 		      	tgt  
                        		      	     	
FFFC2C95 C060048091 				stw    r18,LEDS
FFFC2C9A 000000FFCD 
                        	stdio_8:
                        	stdio_5:
                        	stdio_7:
FFFC2CA0 0000001271 		      	pop  	r18
                        		      	     	
FFFC2CA5 0000000670 				push	r6
FFFC2CAA 0000005230 				mov		r1,r18
FFFC2CB0 0000E18009 				ldi     r6,#14    ; Teletype output function
FFFC2CB5 0000800A1B 				int     #10       ; Video BIOS call
FFFC2CBA 0000000671 				pop		r6
FFFC2CC0 0000001270 		      	push 	r18
FFFC2CC5 0002E48009 		      	ld   	r18,#46
FFFC2CCA 0000000053 		      	tgt  
                        		      	     	
FFFC2CD0 C060048091 				stw    r18,LEDS
FFFC2CD5 000000FFCD 
                        	stdio_12:
                        	stdio_9:
                        	stdio_11:
FFFC2CDA 0000001271 		      	pop  	r18
                        	stdio_4:
                        	stdio_13:
FFFC2CE0 00000FFB30 		      	mov  	sp,bp
FFFC2CE5 0000003B71 		      	pop  	bp
FFFC2CEA 0000003A71 		      	pop  	xlr
FFFC2CF0 0000000AEF 		      	ret  	#10
                        	stdio_0:
FFFC2CF5 0000ADFB86 		      	ldd  	lr,10[bp]
FFFC2CFA 00014DFB93 		      	std  	lr,20[bp]
FFFC2D00 FFE0C00046 		      	bra  	stdio_13
                        	_putchSTKSIZE_ EQU 0
                        		code
FFFC2D05 0000000000 		align	1
FFFC2D0A 0000000000 
                        	
                        	_putnum:
FFFC2D10 0000000053 		      	tgt  
FFFC2D15 0000003A70 		      	push 	xlr
FFFC2D1A 0000003B70 		      	push 	bp
FFFC2D20 C2FDAE8009 		      	ld   	xlr,#stdio_15
FFFC2D25 000000FFCF 
FFFC2D2A 00000EFF30 		      	mov  	bp,sp
FFFC2D30 FFFEAFFF04 		      	sub  	sp,sp,#_putnumSTKSIZE_
FFFC2D35 0000000B70 		      	push 	r11
FFFC2D3A 0000E2C009 		      	ld   	r11,#stdio_14
FFFC2D40 00000001C0 
FFFC2D45 0000001270 		      	push 	r18
FFFC2D4A 0005048009 		      	ld   	r18,#80
FFFC2D50 0000000053 		      	tgt  
                        		      	     	
FFFC2D55 C060048091 				stw    r18,LEDS
FFFC2D5A 000000FFCD 
                        	stdio_21:
                        	stdio_18:
                        	stdio_20:
FFFC2D60 0000001271 		      	pop  	r18
FFFC2D65 0010001358 		      	blt  	r19,#0,stdio_24
FFFC2D6A 001032135A 		      	ble  	r19,#200,stdio_22
FFFC2D70 00000000C0 
                        	stdio_24:
FFFC2D75 000004C030 		      	mov  	r19,r0
                        	stdio_22:
FFFC2D7A FFFEA0FB82 		      	ldw  	r3,-22[bp]
FFFC2D80 50F000C313 		      	bfext	r3,r3,#0,#15
FFFC2D85 FFFEA0FB90 		      	stb  	r3,-22[bp]
FFFC2D8A 0010001259 		      	bge  	r18,#0,stdio_25
FFFC2D90 0002D0C009 		      	ld   	r3,#45
FFFC2D95 0010C00046 		      	bra  	stdio_26
                        	stdio_25:
FFFC2D9A 0002B10009 		      	ld   	r4,#43
FFFC2DA0 000000C430 		      	mov  	r3,r4
                        	stdio_26:
FFFC2DA5 FFFEA0FB91 		      	stw  	r3,-22[bp]
FFFC2DAA 0010001259 		      	bge  	r18,#0,stdio_27
FFFC2DB0 001C348002 		      	neg  	r3,r18
FFFC2DB5 0000048330 		      	mov  	r18,r3
                        	stdio_27:
FFFC2DBA FFFF603B93 		      	std  	r0,-10[bp]
                        	stdio_29:
FFFC2DC0 FFFF613B86 		      	ldd  	r4,-10[bp]
FFFC2DC5 000030C408 		      	and  	r3,r4,#3
FFFC2DCA 004000C357 		      	bne  	r3,#3,stdio_31
FFFC2DD0 1705001402 		      	sxh  	r20,r20
FFFC2DD5 0035001446 		      	beq  	r20,r0,stdio_31
FFFC2DDA FFFF613B86 		      	ldd  	r4,-10[bp]
FFFC2DE0 4000304402 		      	shl  	r3,r4,#1
FFFC2DE5 000040CBA2 		      	ldw  	r4,[r11+r3]
FFFC2DEA 50F0010413 		      	bfext	r4,r4,#0,#15
FFFC2DF0 000040CBB0 		      	stb  	r4,[r11+r3]
FFFC2DF5 000140CBB1 		      	stw  	r20,[r11+r3]
FFFC2DFA FFFF60FB86 		      	ldd  	r3,-10[bp]
FFFC2E00 000010C304 		      	add  	r3,r3,#1
FFFC2E05 FFFF60FB93 		      	std  	r3,-10[bp]
                        	stdio_31:
FFFC2E0A 0000A0D21B 		      	mod  	r3,r18,#10
FFFC2E10 FFFEC0FB93 		      	std  	r3,-20[bp]
FFFC2E15 FFFF613B86 		      	ldd  	r4,-10[bp]
FFFC2E1A 4000304402 		      	shl  	r3,r4,#1
FFFC2E20 000040CBA2 		      	ldw  	r4,[r11+r3]
FFFC2E25 50F0010413 		      	bfext	r4,r4,#0,#15
FFFC2E2A 000040CBB0 		      	stb  	r4,[r11+r3]
FFFC2E30 FFFEC17B86 		      	ldd  	r5,-20[bp]
FFFC2E35 0003018009 		      	ld   	r6,#48
FFFC2E3A 1701800602 		      	sxh  	r6,r6
FFFC2E40 0400418502 		      	add  	r4,r5,r6
	      	stw  	r4,[r11+r3]
FFFC2E45 000040CBB1 
FFFC2E4A 0000A0D218 		      	divs 	r3,r18,#10
FFFC2E50 0000048330 		      	mov  	r18,r3
FFFC2E55 FFFF60FB86 		      	ldd  	r3,-10[bp]
FFFC2E5A 000010C304 		      	add  	r3,r3,#1
FFFC2E60 FFFF60FB93 		      	std  	r3,-10[bp]
FFFC2E65 0010001256 		      	beq  	r18,#0,stdio_33
FFFC2E6A FFFF60FB86 		      	ldd  	r3,-10[bp]
FFFC2E70 FF5004835A 		      	ble  	r3,#18,stdio_29
                        	stdio_33:
                        	stdio_30:
FFFC2E75 FFFEA0FB82 		      	ldw  	r3,-22[bp]
FFFC2E7A 50F000C313 		      	bfext	r3,r3,#0,#15
FFFC2E80 FFFEA0FB90 		      	stb  	r3,-22[bp]
FFFC2E85 FFFEA0FB80 		      	ldb  	r3,-22[bp]
FFFC2E8A 004B0B4357 		      	bne  	r3,#45,stdio_34
FFFC2E90 FFFF613B86 		      	ldd  	r4,-10[bp]
FFFC2E95 4000304402 		      	shl  	r3,r4,#1
FFFC2E9A 000040CBA2 		      	ldw  	r4,[r11+r3]
FFFC2EA0 50F0010413 		      	bfext	r4,r4,#0,#15
FFFC2EA5 000040CBB0 		      	stb  	r4,[r11+r3]
FFFC2EAA FFFEA13B82 		      	ldw  	r4,-22[bp]
FFFC2EB0 50F0010413 		      	bfext	r4,r4,#0,#15
FFFC2EB5 FFFEA13B90 		      	stb  	r4,-22[bp]
FFFC2EBA FFFEA13B82 		      	ldw  	r4,-22[bp]
FFFC2EC0 000040CBB1 		      	stw  	r4,[r11+r3]
FFFC2EC5 FFFF60FB86 		      	ldd  	r3,-10[bp]
FFFC2ECA 000010C304 		      	add  	r3,r3,#1
FFFC2ED0 FFFF60FB93 		      	std  	r3,-10[bp]
                        	stdio_34:
FFFC2ED5 0000001270 		      	push 	r18
FFFC2EDA 0005848009 		      	ld   	r18,#88
FFFC2EE0 0000000053 		      	tgt  
                        		      	     	
FFFC2EE5 C060048091 				stw    r18,LEDS
FFFC2EEA 000000FFCD 
                        	stdio_39:
                        	stdio_36:
                        	stdio_38:
FFFC2EF0 0000001271 		      	pop  	r18
                        	stdio_40:
FFFC2EF5 FFFF60FB86 		      	ldd  	r3,-10[bp]
FFFC2EFA 002B04C349 		      	bge  	r3,r19,stdio_41
FFFC2F00 0000001270 		      	push 	r18
FFFC2F05 0000049530 		      	mov  	r18,r21
FFFC2F0A C2C4000050 		      	call 	_putch
FFFC2F10 000000FFCF 
FFFC2F15 0000001271 		      	pop  	r18
                        	stdio_42:
FFFC2F1A FFFFF4D304 		      	sub  	r19,r19,#1
FFFC2F20 FFD5C00046 		      	bra  	stdio_40
                        	stdio_41:
FFFC2F25 0000001270 		      	push 	r18
FFFC2F2A 0005948009 		      	ld   	r18,#89
FFFC2F30 0000000053 		      	tgt  
                        		      	     	
FFFC2F35 C060048091 				stw    r18,LEDS
FFFC2F3A 000000FFCD 
                        	stdio_46:
                        	stdio_43:
                        	stdio_45:
FFFC2F40 0000001271 		      	pop  	r18
                        	stdio_47:
FFFC2F45 FFFF60FB86 		      	ldd  	r3,-10[bp]
FFFC2F4A 005600035A 		      	ble  	r3,#0,stdio_48
FFFC2F50 FFFF60FB86 		      	ldd  	r3,-10[bp]
FFFC2F55 FFFFF0C304 		      	sub  	r3,r3,#1
FFFC2F5A FFFF60FB93 		      	std  	r3,-10[bp]
FFFC2F60 0000001270 		      	push 	r18
FFFC2F65 FFFF613B86 		      	ldd  	r4,-10[bp]
FFFC2F6A 4000304402 		      	shl  	r3,r4,#1
FFFC2F70 000040CBA2 		      	ldw  	r4,[r11+r3]
FFFC2F75 50F0010413 		      	bfext	r4,r4,#0,#15
FFFC2F7A 000040CBB0 		      	stb  	r4,[r11+r3]
FFFC2F80 000030CBA0 		      	ldb  	r3,[r11+r3]
FFFC2F85 0000048330 		      	mov  	r18,r3
FFFC2F8A C2C4000050 		      	call 	_putch
FFFC2F90 000000FFCF 
FFFC2F95 0000001271 		      	pop  	r18
FFFC2F9A FFABC00046 		      	bra  	stdio_47
                        	stdio_48:
FFFC2FA0 0000001270 		      	push 	r18
FFFC2FA5 0005A48009 		      	ld   	r18,#90
FFFC2FAA 0000000053 		      	tgt  
                        		      	     	
FFFC2FB0 C060048091 				stw    r18,LEDS
FFFC2FB5 000000FFCD 
                        	stdio_52:
                        	stdio_49:
                        	stdio_51:
FFFC2FBA 0000001271 		      	pop  	r18
                        	stdio_53:
FFFC2FC0 0000000B71 		      	pop  	r11
FFFC2FC5 00000FFB30 		      	mov  	sp,bp
FFFC2FCA 0000003B71 		      	pop  	bp
FFFC2FD0 0000003A71 		      	pop  	xlr
FFFC2FD5 0000000AEF 		      	ret  	#10
                        	stdio_15:
FFFC2FDA 0000ADFB86 		      	ldd  	lr,10[bp]
FFFC2FE0 00014DFB93 		      	std  	lr,20[bp]
FFFC2FE5 FFDBC00046 		      	bra  	stdio_53
                        	_putnumSTKSIZE_ EQU 22
                        	_puthexnum:
FFFC2FEA 0000000053 		      	tgt  
FFFC2FF0 0000003A70 		      	push 	xlr
FFFC2FF5 0000003B70 		      	push 	bp
FFFC2FFA C32AAE8009 		      	ld   	xlr,#stdio_54
FFFC3000 000000FFCF 
FFFC3005 00000EFF30 		      	mov  	bp,sp
FFFC300A FFF22FFF04 		      	sub  	sp,sp,#_puthexnumSTKSIZE_
FFFC3010 0000000B70 		      	push 	r11
FFFC3015 FFF220FB25 		      	lea  	r3,-222[bp]
FFFC301A 000002C330 		      	mov  	r11,r3
                        		      	     	
                        				sw	r18,$FFDC0080
FFFC3020 000A001358 		      	blt  	r19,#0,stdio_59
FFFC3025 000B19135A 		      	ble  	r19,#100,stdio_57
                        	stdio_59:
FFFC302A 000004C030 		      	mov  	r19,r0
                        	stdio_57:
FFFC3030 FFFF603B93 		      	std  	r0,-10[bp]
FFFC3035 FFFEA0FB82 		      	ldw  	r3,-22[bp]
FFFC303A 50F000C313 		      	bfext	r3,r3,#0,#15
FFFC3040 FFFEA0FB90 		      	stb  	r3,-22[bp]
FFFC3045 0010001259 		      	bge  	r18,#0,stdio_60
FFFC304A 0002D0C009 		      	ld   	r3,#45
FFFC3050 0010C00046 		      	bra  	stdio_61
                        	stdio_60:
FFFC3055 0002B10009 		      	ld   	r4,#43
FFFC305A 000000C430 		      	mov  	r3,r4
                        	stdio_61:
FFFC3060 FFFEA0FB91 		      	stw  	r3,-22[bp]
FFFC3065 0010001259 		      	bge  	r18,#0,stdio_62
FFFC306A 001C348002 		      	neg  	r3,r18
FFFC3070 0000048330 		      	mov  	r18,r3
                        	stdio_62:
                        	stdio_64:
FFFC3075 0000F0D208 		      	and  	r3,r18,#15
FFFC307A FFFEC0FB93 		      	std  	r3,-20[bp]
FFFC3080 FFFEC0FB86 		      	ldd  	r3,-20[bp]
FFFC3085 0040028359 		      	bge  	r3,#10,stdio_66
FFFC308A FFFF613B86 		      	ldd  	r4,-10[bp]
FFFC3090 4000304402 		      	shl  	r3,r4,#1
FFFC3095 000040CBA2 		      	ldw  	r4,[r11+r3]
FFFC309A 50F0010413 		      	bfext	r4,r4,#0,#15
FFFC30A0 000040CBB0 		      	stb  	r4,[r11+r3]
FFFC30A5 FFFEC17B86 		      	ldd  	r5,-20[bp]
FFFC30AA 0003018009 		      	ld   	r6,#48
FFFC30B0 1701800602 		      	sxh  	r6,r6
FFFC30B5 0400418502 		      	add  	r4,r5,r6
	      	stw  	r4,[r11+r3]
FFFC30BA 000040CBB1 
FFFC30C0 0085C00046 		      	bra  	stdio_67
                        	stdio_66:
FFFC30C5 0045001446 		      	beq  	r20,r0,stdio_68
FFFC30CA FFFF613B86 		      	ldd  	r4,-10[bp]
FFFC30D0 4000304402 		      	shl  	r3,r4,#1
FFFC30D5 000040CBA2 		      	ldw  	r4,[r11+r3]
FFFC30DA 50F0010413 		      	bfext	r4,r4,#0,#15
FFFC30E0 000040CBB0 		      	stb  	r4,[r11+r3]
FFFC30E5 FFFEC1BB86 		      	ldd  	r6,-20[bp]
FFFC30EA 000411C009 		      	ld   	r7,#65
FFFC30F0 1701C00702 		      	sxh  	r7,r7
FFFC30F5 040051C602 		      	add  	r5,r6,r7
	      	sub  	r4,r5,#10
FFFC30FA FFFF610504 
FFFC3100 000040CBB1 		      	stw  	r4,[r11+r3]
FFFC3105 0040C00046 		      	bra  	stdio_69
                        	stdio_68:
FFFC310A FFFF613B86 		      	ldd  	r4,-10[bp]
FFFC3110 4000304402 		      	shl  	r3,r4,#1
FFFC3115 000040CBA2 		      	ldw  	r4,[r11+r3]
FFFC311A 50F0010413 		      	bfext	r4,r4,#0,#15
FFFC3120 000040CBB0 		      	stb  	r4,[r11+r3]
FFFC3125 FFFEC1BB86 		      	ldd  	r6,-20[bp]
FFFC312A 000611C009 		      	ld   	r7,#97
FFFC3130 1701C00702 		      	sxh  	r7,r7
FFFC3135 040051C602 		      	add  	r5,r6,r7
	      	sub  	r4,r5,#10
FFFC313A FFFF610504 
FFFC3140 000040CBB1 		      	stw  	r4,[r11+r3]
                        	stdio_69:
                        	stdio_67:
FFFC3145 4300311202 		      	asr  	r3,r18,#4
FFFC314A 0000048330 		      	mov  	r18,r3
FFFC3150 FFFF60FB86 		      	ldd  	r3,-10[bp]
FFFC3155 000010C304 		      	add  	r3,r3,#1
FFFC315A FFFF60FB93 		      	std  	r3,-10[bp]
FFFC3160 0010001256 		      	beq  	r18,#0,stdio_70
FFFC3165 FFFF60FB86 		      	ldd  	r3,-10[bp]
FFFC316A FF0B048358 		      	blt  	r3,#18,stdio_64
                        	stdio_70:
                        	stdio_65:
FFFC3170 FFFEA0FB82 		      	ldw  	r3,-22[bp]
FFFC3175 50F000C313 		      	bfext	r3,r3,#0,#15
FFFC317A FFFEA0FB90 		      	stb  	r3,-22[bp]
FFFC3180 FFFEA0FB80 		      	ldb  	r3,-22[bp]
FFFC3185 004B0B4357 		      	bne  	r3,#45,stdio_71
FFFC318A FFFF613B86 		      	ldd  	r4,-10[bp]
FFFC3190 4000304402 		      	shl  	r3,r4,#1
FFFC3195 000040CBA2 		      	ldw  	r4,[r11+r3]
FFFC319A 50F0010413 		      	bfext	r4,r4,#0,#15
FFFC31A0 000040CBB0 		      	stb  	r4,[r11+r3]
FFFC31A5 FFFEA13B82 		      	ldw  	r4,-22[bp]
FFFC31AA 50F0010413 		      	bfext	r4,r4,#0,#15
FFFC31B0 FFFEA13B90 		      	stb  	r4,-22[bp]
FFFC31B5 FFFEA13B82 		      	ldw  	r4,-22[bp]
FFFC31BA 000040CBB1 		      	stw  	r4,[r11+r3]
FFFC31C0 FFFF60FB86 		      	ldd  	r3,-10[bp]
FFFC31C5 000010C304 		      	add  	r3,r3,#1
FFFC31CA FFFF60FB93 		      	std  	r3,-10[bp]
                        	stdio_71:
                        	stdio_73:
FFFC31D0 FFFF60FB86 		      	ldd  	r3,-10[bp]
FFFC31D5 005B04C349 		      	bge  	r3,r19,stdio_74
FFFC31DA 0000001270 		      	push 	r18
FFFC31E0 FFFEA0FB82 		      	ldw  	r3,-22[bp]
FFFC31E5 50F000C313 		      	bfext	r3,r3,#0,#15
FFFC31EA FFFEA0FB90 		      	stb  	r3,-22[bp]
FFFC31F0 FFFEA0FB80 		      	ldb  	r3,-22[bp]
FFFC31F5 00100B4357 		      	bne  	r3,#45,stdio_75
FFFC31FA 000200C009 		      	ld   	r3,#32
FFFC3200 0010C00046 		      	bra  	stdio_76
                        	stdio_75:
FFFC3205 0000011530 		      	mov  	r4,r21
FFFC320A 000000C430 		      	mov  	r3,r4
                        	stdio_76:
                        		      	hint 	#1
FFFC3210 0000048330 		      	mov  	r18,r3
FFFC3215 C2C4000050 		      	call 	_putch
FFFC321A 000000FFCF 
FFFC3220 0000001271 		      	pop  	r18
FFFC3225 FFFFF4D304 		      	sub  	r19,r19,#1
FFFC322A FFA6C00046 		      	bra  	stdio_73
                        	stdio_74:
                        	stdio_77:
FFFC3230 FFFF60FB86 		      	ldd  	r3,-10[bp]
FFFC3235 005B00035A 		      	ble  	r3,#0,stdio_78
FFFC323A FFFF60FB86 		      	ldd  	r3,-10[bp]
FFFC3240 FFFFF0C304 		      	sub  	r3,r3,#1
FFFC3245 FFFF60FB93 		      	std  	r3,-10[bp]
                        		      	     	
FFFC324A 000000001A 				nop 
FFFC3250 0000001270 		      	push 	r18
FFFC3255 FFFF613B86 		      	ldd  	r4,-10[bp]
FFFC325A 4000304402 		      	shl  	r3,r4,#1
FFFC3260 000040CBA2 		      	ldw  	r4,[r11+r3]
FFFC3265 50F0010413 		      	bfext	r4,r4,#0,#15
FFFC326A 000040CBB0 		      	stb  	r4,[r11+r3]
FFFC3270 000030CBA0 		      	ldb  	r3,[r11+r3]
FFFC3275 0000048330 		      	mov  	r18,r3
FFFC327A C2C4000050 		      	call 	_putch
FFFC3280 000000FFCF 
FFFC3285 0000001271 		      	pop  	r18
FFFC328A FFA6C00046 		      	bra  	stdio_77
                        	stdio_78:
                        	stdio_79:
FFFC3290 0000000B71 		      	pop  	r11
FFFC3295 00000FFB30 		      	mov  	sp,bp
FFFC329A 0000003B71 		      	pop  	bp
FFFC32A0 0000003A71 		      	pop  	xlr
FFFC32A5 0000000AEF 		      	ret  	#10
                        	stdio_54:
FFFC32AA 0000ADFB86 		      	ldd  	lr,10[bp]
FFFC32B0 00014DFB93 		      	std  	lr,20[bp]
FFFC32B5 FFDBC00046 		      	bra  	stdio_79
                        	_puthexnumSTKSIZE_ EQU 222
                        	_putstr:
FFFC32BA 0000000053 		      	tgt  
FFFC32C0 0000003A70 		      	push 	xlr
FFFC32C5 0000003B70 		      	push 	bp
FFFC32CA C334AE8009 		      	ld   	xlr,#stdio_80
FFFC32D0 000000FFCF 
FFFC32D5 00000EFF30 		      	mov  	bp,sp
FFFC32DA FFFF6FFF04 		      	sub  	sp,sp,#_putstrSTKSIZE_
FFFC32E0 FFFF64BB93 		      	std  	r18,-10[bp]
                        	stdio_83:
FFFC32E5 000000D282 		      	ldw  	r3,[r18]
FFFC32EA 003B000346 		      	beq  	r3,r0,stdio_84
FFFC32F0 003500135A 		      	ble  	r19,#0,stdio_84
FFFC32F5 0000001270 		      	push 	r18
FFFC32FA 000000D282 		      	ldw  	r3,[r18]
FFFC3300 0000048330 		      	mov  	r18,r3
FFFC3305 C2C4000050 		      	call 	_putch
FFFC330A 000000FFCF 
FFFC3310 0000001271 		      	pop  	r18
                        	stdio_85:
FFFC3315 0000249204 		      	add  	r18,r18,#2
FFFC331A FFFFF4D304 		      	sub  	r19,r19,#1
FFFC3320 FFC5C00046 		      	bra  	stdio_83
                        	stdio_84:
FFFC3325 FFFF617B86 		      	ldd  	r5,-10[bp]
FFFC332A 0700415202 		      	sub  	r4,r18,r5
	      	shru 	r1,r4,#1
FFFC3330 4100104402 
                        	stdio_86:
FFFC3335 00000FFB30 		      	mov  	sp,bp
FFFC333A 0000003B71 		      	pop  	bp
FFFC3340 0000003A71 		      	pop  	xlr
FFFC3345 0000000AEF 		      	ret  	#10
                        	stdio_80:
FFFC334A 0000ADFB86 		      	ldd  	lr,10[bp]
FFFC3350 00014DFB93 		      	std  	lr,20[bp]
FFFC3355 FFE0C00046 		      	bra  	stdio_86
                        	_putstrSTKSIZE_ EQU 10
                        	_putstrW:
FFFC335A 0000000053 		      	tgt  
FFFC3360 0000003A70 		      	push 	xlr
FFFC3365 0000003B70 		      	push 	bp
FFFC336A C33EAE8009 		      	ld   	xlr,#stdio_87
FFFC3370 000000FFCF 
FFFC3375 00000EFF30 		      	mov  	bp,sp
FFFC337A FFFF6FFF04 		      	sub  	sp,sp,#_putstrWSTKSIZE_
FFFC3380 FFFF64BB93 		      	std  	r18,-10[bp]
                        	stdio_90:
FFFC3385 000000D286 		      	ldd  	r3,[r18]
FFFC338A 003B000346 		      	beq  	r3,r0,stdio_91
FFFC3390 003500135A 		      	ble  	r19,#0,stdio_91
FFFC3395 0000001270 		      	push 	r18
FFFC339A 000000D286 		      	ldd  	r3,[r18]
FFFC33A0 0000048330 		      	mov  	r18,r3
FFFC33A5 C2C4000050 		      	call 	_putch
FFFC33AA 000000FFCF 
FFFC33B0 0000001271 		      	pop  	r18
                        	stdio_92:
FFFC33B5 0000A49204 		      	add  	r18,r18,#10
FFFC33BA FFFFF4D304 		      	sub  	r19,r19,#1
FFFC33C0 FFC5C00046 		      	bra  	stdio_90
                        	stdio_91:
FFFC33C5 FFFF617B86 		      	ldd  	r5,-10[bp]
FFFC33CA 0700415202 		      	sub  	r4,r18,r5
	      	divu 	r1,r4,#10
FFFC33D0 0000A04419 
                        	stdio_93:
FFFC33D5 00000FFB30 		      	mov  	sp,bp
FFFC33DA 0000003B71 		      	pop  	bp
FFFC33E0 0000003A71 		      	pop  	xlr
FFFC33E5 0000000AEF 		      	ret  	#10
                        	stdio_87:
FFFC33EA 0000ADFB86 		      	ldd  	lr,10[bp]
FFFC33F0 00014DFB93 		      	std  	lr,20[bp]
FFFC33F5 FFE0C00046 		      	bra  	stdio_93
                        	_putstrWSTKSIZE_ EQU 10
                        	_putstr2:
FFFC33FA 0000000053 		      	tgt  
FFFC3400 0000003A70 		      	push 	xlr
FFFC3405 0000003B70 		      	push 	bp
FFFC340A 00000EFF30 		      	mov  	bp,sp
FFFC3410 00000FFF04 		      	sub  	sp,sp,#_putstr2STKSIZE_
                        		      	     	
FFFC3415 0000000670 				push	r6
FFFC341A 0000005230 				mov     r1,r18
FFFC3420 0001B18009 				ldi     r6,#$1B   ; Video BIOS DisplayString16 function
FFFC3425 0000800A1B 				int     #10
FFFC342A 0000000671 				pop		r6
                        	stdio_97:
FFFC3430 00000FFB30 		      	mov  	sp,bp
FFFC3435 0000003B71 		      	pop  	bp
FFFC343A 0000003A71 		      	pop  	xlr
FFFC3440 0000000AEF 		      	ret  	#10
                        	_putstr2STKSIZE_ EQU 0
FFFC3445 0000000053 	public code _getcharNoWait:
	      	tgt  
FFFC344A 0000003A70 		      	push 	xlr
FFFC3450 0000003B70 		      	push 	bp
FFFC3455 C3485E8009 		      	ld   	xlr,#stdio_98
FFFC345A 000000FFCF 
FFFC3460 00000EFF30 		      	mov  	bp,sp
FFFC3465 00000FFF04 		      	sub  	sp,sp,#_getcharNoWaitSTKSIZE_
FFFC346A 0000000050 		      	call 	_KeybdGetBufferedCharNoWait
                        	stdio_101:
FFFC3470 00000FFB30 		      	mov  	sp,bp
FFFC3475 0000003B71 		      	pop  	bp
FFFC347A 0000003A71 		      	pop  	xlr
FFFC3480 0000000AEF 		      	ret  	#10
                        	stdio_98:
FFFC3485 0000ADFB86 		      	ldd  	lr,10[bp]
FFFC348A 00014DFB93 		      	std  	lr,20[bp]
FFFC3490 FFE0C00046 		      	bra  	stdio_101
                        	endpublic
                        	
                        	_getcharNoWaitSTKSIZE_ EQU 0
FFFC3495 0000000053 	public code _getchar:
	      	tgt  
FFFC349A 0000003A70 		      	push 	xlr
FFFC34A0 0000003B70 		      	push 	bp
FFFC34A5 C34F5E8009 		      	ld   	xlr,#stdio_102
FFFC34AA 000000FFCF 
FFFC34B0 00000EFF30 		      	mov  	bp,sp
FFFC34B5 FFFF6FFF04 		      	sub  	sp,sp,#_getcharSTKSIZE_
                        	stdio_105:
FFFC34BA C344500050 		      	call 	_getcharNoWait
FFFC34C0 000000FFCF 
FFFC34C5 FFFF607B93 		      	std  	r1,-10[bp]
FFFC34CA FFFF60FB86 		      	ldd  	r3,-10[bp]
FFFC34D0 FFEA3FC356 		      	beq  	r3,#-1,stdio_105
                        	stdio_106:
FFFC34D5 FFFF613B86 		      	ldd  	r4,-10[bp]
FFFC34DA 000FF04408 		      	and  	r1,r4,#255
                        	stdio_107:
FFFC34E0 00000FFB30 		      	mov  	sp,bp
FFFC34E5 0000003B71 		      	pop  	bp
FFFC34EA 0000003A71 		      	pop  	xlr
FFFC34F0 0000000AEF 		      	ret  	#10
                        	stdio_102:
FFFC34F5 0000ADFB86 		      	ldd  	lr,10[bp]
FFFC34FA 00014DFB93 		      	std  	lr,20[bp]
FFFC3500 FFE0C00046 		      	bra  	stdio_107
                        	endpublic
                        	
                        	_getcharSTKSIZE_ EQU 10
                        		code
FFFC3505 0000000000 		align	1
FFFC350A 0000000000 
                        	
                        	_printf:
FFFC3510 0000000053 		      	tgt  
FFFC3515 0000003A70 		      	push 	xlr
FFFC351A 0000003B70 		      	push 	bp
FFFC3520 C3AB0E8009 		      	ld   	xlr,#stdio_109
FFFC3525 000000FFCF 
FFFC352A 00000EFF30 		      	mov  	bp,sp
FFFC3530 FFFBAFFF04 		      	sub  	sp,sp,#_printfSTKSIZE_
FFFC3535 0000000B70 		      	push 	r11
FFFC353A 0000000C70 		      	push 	r12
FFFC3540 0000000D70 		      	push 	r13
FFFC3545 000060FB25 		      	lea  	r3,6[bp]
FFFC354A 000002C330 		      	mov  	r11,r3
FFFC3550 FFFBC0FB25 		      	lea  	r3,-68[bp]
FFFC3555 0000034330 		      	mov  	r13,r3
FFFC355A 0000030B30 		      	mov  	r12,r11
                        	stdio_112:
FFFC3560 000000CB86 		      	ldd  	r3,[r11]
FFFC3565 000000C382 		      	ldw  	r3,[r3]
FFFC356A 0520000346 		      	beq  	r3,r0,stdio_113
FFFC3570 FFFBA0FB82 		      	ldw  	r3,-70[bp]
FFFC3575 50F000C313 		      	bfext	r3,r3,#0,#15
FFFC357A FFFBA0FB90 		      	stb  	r3,-70[bp]
FFFC3580 000200C009 		      	ld   	r3,#32
FFFC3585 FFFBA0FB91 		      	stw  	r3,-70[bp]
FFFC358A 000000CB86 		      	ldd  	r3,[r11]
FFFC3590 000000C382 		      	ldw  	r3,[r3]
FFFC3595 04BB094357 		      	bne  	r3,#37,stdio_115
FFFC359A FFFEC03B93 		      	std  	r0,-20[bp]
FFFC35A0 0FFFF0C009 		      	ld   	r3,#65535
FFFC35A5 FFFE20FB93 		      	std  	r3,-30[bp]
FFFC35AA 000000CB86 		      	ldd  	r3,[r11]
FFFC35B0 000020C304 		      	add  	r3,r3,#2
FFFC35B5 000000CB93 		      	std  	r3,[r11]
                        	stdio_108:
FFFC35BA 000000CB86 		      	ldd  	r3,[r11]
FFFC35C0 000000C382 		      	ldw  	r3,[r3]
FFFC35C5 006B094356 		      	beq  	r3,#37,stdio_118
FFFC35CA 008618C356 		      	beq  	r3,#99,stdio_119
FFFC35D0 00AA190356 		      	beq  	r3,#100,stdio_120
FFFC35D5 011B194356 		      	beq  	r3,#101,stdio_121
FFFC35DA 0116114356 		      	beq  	r3,#69,stdio_121
FFFC35E0 01BA1E0356 		      	beq  	r3,#120,stdio_122
FFFC35E5 022B160356 		      	beq  	r3,#88,stdio_123
FFFC35EA 029B1CC356 		      	beq  	r3,#115,stdio_124
FFFC35F0 02CA0C0356 		      	beq  	r3,#48,stdio_125
FFFC35F5 02E00E4356 		      	beq  	r3,#57,stdio_126
FFFC35FA 02DB0E0356 		      	beq  	r3,#56,stdio_126
FFFC3600 02D50DC356 		      	beq  	r3,#55,stdio_126
FFFC3605 02D00D8356 		      	beq  	r3,#54,stdio_126
FFFC360A 02CB0D4356 		      	beq  	r3,#53,stdio_126
FFFC3610 02C50D0356 		      	beq  	r3,#52,stdio_126
FFFC3615 02C00CC356 		      	beq  	r3,#51,stdio_126
FFFC361A 02BB0C8356 		      	beq  	r3,#50,stdio_126
FFFC3620 02B50C4356 		      	beq  	r3,#49,stdio_126
FFFC3625 03550B8356 		      	beq  	r3,#46,stdio_127
FFFC362A 0420C00046 		      	bra  	stdio_117
                        	stdio_118:
FFFC3630 0000001270 		      	push 	r18
FFFC3635 0002548009 		      	ld   	r18,#37
FFFC363A C2C4000050 		      	call 	_putch
FFFC3640 000000FFCF 
FFFC3645 0000001271 		      	pop  	r18
FFFC364A 0400C00046 		      	bra  	stdio_117
                        	stdio_119:
FFFC3650 0000A30C04 		      	add  	r12,r12,#10
FFFC3655 0000001270 		      	push 	r18
FFFC365A 000000CC86 		      	ldd  	r3,[r12]
FFFC3660 0000048330 		      	mov  	r18,r3
FFFC3665 C2C4000050 		      	call 	_putch
FFFC366A 000000FFCF 
FFFC3670 0000001271 		      	pop  	r18
FFFC3675 03D5C00046 		      	bra  	stdio_117
                        	stdio_120:
FFFC367A 0000A30C04 		      	add  	r12,r12,#10
FFFC3680 0000001270 		      	push 	r18
FFFC3685 0000001370 		      	push 	r19
FFFC368A 0000001470 		      	push 	r20
FFFC3690 0000001570 		      	push 	r21
FFFC3695 FFFBA0FB82 		      	ldw  	r3,-70[bp]
FFFC369A 50F000C313 		      	bfext	r3,r3,#0,#15
FFFC36A0 FFFBA0FB90 		      	stb  	r3,-70[bp]
FFFC36A5 FFFBA0FB80 		      	ldb  	r3,-70[bp]
FFFC36AA 0000054330 		      	mov  	r21,r3
FFFC36B0 0000050030 		      	mov  	r20,r0
FFFC36B5 FFFEC13B86 		      	ldd  	r4,-20[bp]
FFFC36BA 000004C430 		      	mov  	r19,r4
FFFC36C0 0000014C86 		      	ldd  	r5,[r12]
FFFC36C5 0000048530 		      	mov  	r18,r5
FFFC36CA C2D1000050 		      	call 	_putnum
FFFC36D0 000000FFCF 
FFFC36D5 0000001571 		      	pop  	r21
FFFC36DA 0000001471 		      	pop  	r20
FFFC36E0 0000001371 		      	pop  	r19
FFFC36E5 0000001271 		      	pop  	r18
FFFC36EA 0360C00046 		      	bra  	stdio_117
                        	stdio_121:
FFFC36F0 0000A30C04 		      	add  	r12,r12,#10
FFFC36F5 000000CC87 		      	ldt  	r3,[r12]
FFFC36FA 000000CD94 		      	stt  	r3,[r13]
FFFC3700 0000A30C04 		      	add  	r12,r12,#10
FFFC3705 000000CC87 		      	ldt  	r3,[r12]
FFFC370A 000040CD94 		      	stt  	r3,4[r13]
FFFC3710 0000A30C04 		      	add  	r12,r12,#10
FFFC3715 000000CC87 		      	ldt  	r3,[r12]
FFFC371A 000080CD94 		      	stt  	r3,8[r13]
FFFC3720 0000A30C04 		      	add  	r12,r12,#10
FFFC3725 000000CC87 		      	ldt  	r3,[r12]
FFFC372A 0000C0CD94 		      	stt  	r3,12[r13]
FFFC3730 0000001270 		      	push 	r18
FFFC3735 0000001370 		      	push 	r19
FFFC373A 0000001470 		      	push 	r20
FFFC3740 0000001570 		      	push 	r21
FFFC3745 000000CB86 		      	ldd  	r3,[r11]
FFFC374A 000000C382 		      	ldw  	r3,[r3]
FFFC3750 0000054330 		      	mov  	r21,r3
FFFC3755 FFFE213B86 		      	ldd  	r4,-30[bp]
FFFC375A 0000050430 		      	mov  	r20,r4
FFFC3760 FFFEC17B86 		      	ldd  	r5,-20[bp]
FFFC3765 000004C530 		      	mov  	r19,r5
FFFC376A 0008180366 		      	lf.d 	fp6,[r13]
FFFC3770 0000048630 		      	mov  	r18,fp6
FFFC3775 C513500050 		      	call 	_prtflt
FFFC377A 000000FFCF 
FFFC3780 0000001571 		      	pop  	r21
FFFC3785 0000001471 		      	pop  	r20
FFFC378A 0000001371 		      	pop  	r19
FFFC3790 0000001271 		      	pop  	r18
FFFC3795 02B5C00046 		      	bra  	stdio_117
                        	stdio_122:
FFFC379A 0000A30C04 		      	add  	r12,r12,#10
FFFC37A0 0000001270 		      	push 	r18
FFFC37A5 0000001370 		      	push 	r19
FFFC37AA 0000001470 		      	push 	r20
FFFC37B0 0000001570 		      	push 	r21
FFFC37B5 FFFBA0FB82 		      	ldw  	r3,-70[bp]
FFFC37BA 50F000C313 		      	bfext	r3,r3,#0,#15
FFFC37C0 FFFBA0FB90 		      	stb  	r3,-70[bp]
FFFC37C5 FFFBA0FB80 		      	ldb  	r3,-70[bp]
FFFC37CA 0000054330 		      	mov  	r21,r3
FFFC37D0 0000050030 		      	mov  	r20,r0
FFFC37D5 FFFEC13B86 		      	ldd  	r4,-20[bp]
FFFC37DA 000004C430 		      	mov  	r19,r4
FFFC37E0 0000014C86 		      	ldd  	r5,[r12]
FFFC37E5 0000048530 		      	mov  	r18,r5
FFFC37EA C2FEA00050 		      	call 	_puthexnum
FFFC37F0 000000FFCF 
FFFC37F5 0000001571 		      	pop  	r21
FFFC37FA 0000001471 		      	pop  	r20
FFFC3800 0000001371 		      	pop  	r19
FFFC3805 0000001271 		      	pop  	r18
FFFC380A 0240C00046 		      	bra  	stdio_117
                        	stdio_123:
FFFC3810 0000A30C04 		      	add  	r12,r12,#10
FFFC3815 0000001270 		      	push 	r18
FFFC381A 0000001370 		      	push 	r19
FFFC3820 0000001470 		      	push 	r20
FFFC3825 0000001570 		      	push 	r21
FFFC382A FFFBA0FB82 		      	ldw  	r3,-70[bp]
FFFC3830 50F000C313 		      	bfext	r3,r3,#0,#15
FFFC3835 FFFBA0FB90 		      	stb  	r3,-70[bp]
FFFC383A FFFBA0FB80 		      	ldb  	r3,-70[bp]
FFFC3840 0000054330 		      	mov  	r21,r3
FFFC3845 0000150009 		      	ld   	r20,#1
FFFC384A FFFEC13B86 		      	ldd  	r4,-20[bp]
FFFC3850 000004C430 		      	mov  	r19,r4
FFFC3855 0000014C86 		      	ldd  	r5,[r12]
FFFC385A 0000048530 		      	mov  	r18,r5
FFFC3860 C2FEA00050 		      	call 	_puthexnum
FFFC3865 000000FFCF 
FFFC386A 0000001571 		      	pop  	r21
FFFC3870 0000001471 		      	pop  	r20
FFFC3875 0000001371 		      	pop  	r19
FFFC387A 0000001271 		      	pop  	r18
FFFC3880 01CAC00046 		      	bra  	stdio_117
                        	stdio_124:
FFFC3885 0000A30C04 		      	add  	r12,r12,#10
FFFC388A FFFE20FB86 		      	ldd  	r3,-30[bp]
FFFC3890 0000000370 		      	push 	r3
FFFC3895 0000010C86 		      	ldd  	r4,[r12]
FFFC389A 0000000470 		      	push 	r4
FFFC38A0 C32BA00050 		      	call 	_putstr
FFFC38A5 000000FFCF 
FFFC38AA 00014FFF04 		      	add  	sp,sp,#20
FFFC38B0 FFFD807B93 		      	std  	r1,-40[bp]
FFFC38B5 0195C00046 		      	bra  	stdio_117
                        	stdio_125:
FFFC38BA FFFBA0FB82 		      	ldw  	r3,-70[bp]
FFFC38C0 50F000C313 		      	bfext	r3,r3,#0,#15
FFFC38C5 FFFBA0FB90 		      	stb  	r3,-70[bp]
FFFC38CA 000300C009 		      	ld   	r3,#48
FFFC38D0 FFFBA0FB91 		      	stw  	r3,-70[bp]
                        	stdio_126:
FFFC38D5 0000010B86 		      	ldd  	r4,[r11]
FFFC38DA 0000010482 		      	ldw  	r4,[r4]
FFFC38E0 FFFD00C404 		      	sub  	r3,r4,#48
FFFC38E5 FFFEC0FB93 		      	std  	r3,-20[bp]
FFFC38EA 000000CB86 		      	ldd  	r3,[r11]
FFFC38F0 000020C304 		      	add  	r3,r3,#2
FFFC38F5 000000CB93 		      	std  	r3,[r11]
                        	stdio_128:
FFFC38FA 000000CB86 		      	ldd  	r3,[r11]
FFFC3900 000000C382 		      	ldw  	r3,[r3]
FFFC3905 0000000370 		      	push 	r3
FFFC390A C3B3500050 		      	call 	_isdigit
FFFC3910 000000FFCF 
FFFC3915 0000AFFF04 		      	add  	sp,sp,#10
FFFC391A 004B000146 		      	beq  	r1,r0,stdio_129
FFFC3920 FFFEC0FB86 		      	ldd  	r3,-20[bp]
FFFC3925 0000A0C310 		      	mul  	r3,r3,#10
FFFC392A FFFEC0FB93 		      	std  	r3,-20[bp]
FFFC3930 0000010B86 		      	ldd  	r4,[r11]
FFFC3935 0000010482 		      	ldw  	r4,[r4]
FFFC393A FFFD00C404 		      	sub  	r3,r4,#48
FFFC3940 FFFEC13B86 		      	ldd  	r4,-20[bp]
FFFC3945 040040C402 		      	add  	r4,r4,r3
	      	std  	r4,-20[bp]
FFFC394A FFFEC13B93 
FFFC3950 000000CB86 		      	ldd  	r3,[r11]
FFFC3955 000020C304 		      	add  	r3,r3,#2
FFFC395A 000000CB93 		      	std  	r3,[r11]
FFFC3960 FF9AC00046 		      	bra  	stdio_128
                        	stdio_129:
FFFC3965 000000CB86 		      	ldd  	r3,[r11]
FFFC396A 000000C382 		      	ldw  	r3,[r3]
FFFC3970 000A0B8356 		      	beq  	r3,#46,stdio_130
FFFC3975 FC45C00046 		      	bra  	stdio_108
                        	stdio_130:
                        	stdio_127:
FFFC397A 000000CB86 		      	ldd  	r3,[r11]
FFFC3980 000020C304 		      	add  	r3,r3,#2
FFFC3985 000000CB93 		      	std  	r3,[r11]
FFFC398A 000000CB86 		      	ldd  	r3,[r11]
FFFC3990 000000C382 		      	ldw  	r3,[r3]
FFFC3995 0000000370 		      	push 	r3
FFFC399A C3B3500050 		      	call 	_isdigit
FFFC39A0 000000FFCF 
FFFC39A5 0000AFFF04 		      	add  	sp,sp,#10
FFFC39AA 000B000147 		      	bne  	r1,r0,stdio_132
FFFC39B0 FC0AC00046 		      	bra  	stdio_108
                        	stdio_132:
FFFC39B5 0000010B86 		      	ldd  	r4,[r11]
FFFC39BA 0000010482 		      	ldw  	r4,[r4]
FFFC39C0 FFFD00C404 		      	sub  	r3,r4,#48
FFFC39C5 FFFE20FB93 		      	std  	r3,-30[bp]
FFFC39CA 000000CB86 		      	ldd  	r3,[r11]
FFFC39D0 000020C304 		      	add  	r3,r3,#2
FFFC39D5 000000CB93 		      	std  	r3,[r11]
                        	stdio_134:
FFFC39DA 000000CB86 		      	ldd  	r3,[r11]
FFFC39E0 000000C382 		      	ldw  	r3,[r3]
FFFC39E5 0000000370 		      	push 	r3
FFFC39EA C3B3500050 		      	call 	_isdigit
FFFC39F0 000000FFCF 
FFFC39F5 0000AFFF04 		      	add  	sp,sp,#10
FFFC39FA 004B000146 		      	beq  	r1,r0,stdio_135
FFFC3A00 FFFE20FB86 		      	ldd  	r3,-30[bp]
FFFC3A05 0000A0C310 		      	mul  	r3,r3,#10
FFFC3A0A FFFE20FB93 		      	std  	r3,-30[bp]
FFFC3A10 0000010B86 		      	ldd  	r4,[r11]
FFFC3A15 0000010482 		      	ldw  	r4,[r4]
FFFC3A1A FFFD00C404 		      	sub  	r3,r4,#48
FFFC3A20 FFFE213B86 		      	ldd  	r4,-30[bp]
FFFC3A25 040040C402 		      	add  	r4,r4,r3
	      	std  	r4,-30[bp]
FFFC3A2A FFFE213B93 
FFFC3A30 000000CB86 		      	ldd  	r3,[r11]
FFFC3A35 000020C304 		      	add  	r3,r3,#2
FFFC3A3A 000000CB93 		      	std  	r3,[r11]
FFFC3A40 FF9AC00046 		      	bra  	stdio_134
                        	stdio_135:
FFFC3A45 FB75C00046 		      	bra  	stdio_108
                        	stdio_117:
FFFC3A4A 002BC00046 		      	bra  	stdio_116
                        	stdio_115:
FFFC3A50 0000001270 		      	push 	r18
FFFC3A55 000000CB86 		      	ldd  	r3,[r11]
FFFC3A5A 000000C382 		      	ldw  	r3,[r3]
FFFC3A60 0000048330 		      	mov  	r18,r3
FFFC3A65 C2C4000050 		      	call 	_putch
FFFC3A6A 000000FFCF 
FFFC3A70 0000001271 		      	pop  	r18
                        	stdio_116:
                        	stdio_114:
FFFC3A75 000000CB86 		      	ldd  	r3,[r11]
FFFC3A7A 000020C304 		      	add  	r3,r3,#2
FFFC3A80 000000CB93 		      	std  	r3,[r11]
FFFC3A85 FADBC00046 		      	bra  	stdio_112
                        	stdio_113:
                        	stdio_136:
FFFC3A8A 0000000D71 		      	pop  	r13
FFFC3A90 0000000C71 		      	pop  	r12
FFFC3A95 0000000B71 		      	pop  	r11
FFFC3A9A 00000FFB30 		      	mov  	sp,bp
FFFC3AA0 0000003B71 		      	pop  	bp
FFFC3AA5 0000003A71 		      	pop  	xlr
FFFC3AAA 0000000AEF 		      	ret  	#10
                        	stdio_109:
FFFC3AB0 0000ADFB86 		      	ldd  	lr,10[bp]
FFFC3AB5 00014DFB93 		      	std  	lr,20[bp]
FFFC3ABA FFD0C00046 		      	bra  	stdio_136
                        	_printfSTKSIZE_ EQU 70
                        		code
                        		align	16                        	
                        	_isxdigit:
FFFC3AC0 0000000053 		      	tgt  
FFFC3AC5 0000003A70 		      	push 	xlr
FFFC3ACA 0000003B70 		      	push 	bp
FFFC3AD0 00000EFF30 		      	mov  	bp,sp
FFFC3AD5 00000FFF04 		      	sub  	sp,sp,#_isxdigitSTKSIZE_
FFFC3ADA 0026105258 		      	blt  	r18,#65,ctype_3
FFFC3AE0 002011925B 		      	bgt  	r18,#70,ctype_3
FFFC3AE5 0000104009 		      	ld   	r1,#1
                        	ctype_5:
FFFC3AEA 00000FFB30 		      	mov  	sp,bp
FFFC3AF0 0000003B71 		      	pop  	bp
FFFC3AF5 0000003A71 		      	pop  	xlr
FFFC3AFA 0000000AEF 		      	ret  	#10
                        	ctype_3:
FFFC3B00 0015185258 		      	blt  	r18,#97,ctype_6
FFFC3B05 001019925B 		      	bgt  	r18,#102,ctype_6
FFFC3B0A 0000104009 		      	ld   	r1,#1
FFFC3B10 FFDAC00046 		      	bra  	ctype_5
                        	ctype_6:
FFFC3B15 00150C1258 		      	blt  	r18,#48,ctype_8
FFFC3B1A 00100E525B 		      	bgt  	r18,#57,ctype_8
FFFC3B20 0000104009 		      	ld   	r1,#1
FFFC3B25 FFC5C00046 		      	bra  	ctype_5
                        	ctype_8:
                        		      	hint 	#2
FFFC3B2A 0000004030 		      	mov  	r1,r0
FFFC3B30 FFBAC00046 		      	bra  	ctype_5
                        	_isxdigitSTKSIZE_ EQU 0
                        	_isdigit:
FFFC3B35 0000000053 		      	tgt  
FFFC3B3A 0000003A70 		      	push 	xlr
FFFC3B40 0000003B70 		      	push 	bp
FFFC3B45 00000EFF30 		      	mov  	bp,sp
FFFC3B4A 00000FFF04 		      	sub  	sp,sp,#_isdigitSTKSIZE_
FFFC3B50 00250C1258 		      	blt  	r18,#48,ctype_13
FFFC3B55 00200E525B 		      	bgt  	r18,#57,ctype_13
FFFC3B5A 0000104009 		      	ld   	r1,#1
                        	ctype_15:
FFFC3B60 00000FFB30 		      	mov  	sp,bp
FFFC3B65 0000003B71 		      	pop  	bp
FFFC3B6A 0000003A71 		      	pop  	xlr
FFFC3B70 0000000AEF 		      	ret  	#10
                        	ctype_13:
                        		      	hint 	#2
FFFC3B75 0000004030 		      	mov  	r1,r0
FFFC3B7A FFE6C00046 		      	bra  	ctype_15
                        	_isdigitSTKSIZE_ EQU 0
                        	_isalpha:
FFFC3B80 0000000053 		      	tgt  
FFFC3B85 0000003A70 		      	push 	xlr
FFFC3B8A 0000003B70 		      	push 	bp
FFFC3B90 00000EFF30 		      	mov  	bp,sp
FFFC3B95 00000FFF04 		      	sub  	sp,sp,#_isalphaSTKSIZE_
FFFC3B9A 0026185258 		      	blt  	r18,#97,ctype_19
FFFC3BA0 00201E925B 		      	bgt  	r18,#122,ctype_19
FFFC3BA5 0000104009 		      	ld   	r1,#1
                        	ctype_21:
FFFC3BAA 00000FFB30 		      	mov  	sp,bp
FFFC3BB0 0000003B71 		      	pop  	bp
FFFC3BB5 0000003A71 		      	pop  	xlr
FFFC3BBA 0000000AEF 		      	ret  	#10
                        	ctype_19:
FFFC3BC0 0015105258 		      	blt  	r18,#65,ctype_22
FFFC3BC5 001016925B 		      	bgt  	r18,#90,ctype_22
FFFC3BCA 0000104009 		      	ld   	r1,#1
FFFC3BD0 FFDAC00046 		      	bra  	ctype_21
                        	ctype_22:
                        		      	hint 	#2
FFFC3BD5 0000004030 		      	mov  	r1,r0
FFFC3BDA FFD0C00046 		      	bra  	ctype_21
                        	_isalphaSTKSIZE_ EQU 0
                        	_isalnum:
FFFC3BE0 0000000053 		      	tgt  
FFFC3BE5 0000003A70 		      	push 	xlr
FFFC3BEA 0000003B70 		      	push 	bp
FFFC3BF0 00000EFF30 		      	mov  	bp,sp
FFFC3BF5 00000FFF04 		      	sub  	sp,sp,#_isalnumSTKSIZE_
FFFC3BFA 00260C1258 		      	blt  	r18,#48,ctype_27
FFFC3C00 00200E525B 		      	bgt  	r18,#57,ctype_27
FFFC3C05 0000104009 		      	ld   	r1,#1
                        	ctype_29:
FFFC3C0A 00000FFB30 		      	mov  	sp,bp
FFFC3C10 0000003B71 		      	pop  	bp
FFFC3C15 0000003A71 		      	pop  	xlr
FFFC3C1A 0000000AEF 		      	ret  	#10
                        	ctype_27:
FFFC3C20 0015185258 		      	blt  	r18,#97,ctype_30
FFFC3C25 00101E925B 		      	bgt  	r18,#122,ctype_30
FFFC3C2A 0000104009 		      	ld   	r1,#1
FFFC3C30 FFDAC00046 		      	bra  	ctype_29
                        	ctype_30:
FFFC3C35 0015105258 		      	blt  	r18,#65,ctype_32
FFFC3C3A 001016925B 		      	bgt  	r18,#90,ctype_32
FFFC3C40 0000104009 		      	ld   	r1,#1
FFFC3C45 FFC5C00046 		      	bra  	ctype_29
                        	ctype_32:
                        		      	hint 	#2
FFFC3C4A 0000004030 		      	mov  	r1,r0
FFFC3C50 FFBAC00046 		      	bra  	ctype_29
                        	_isalnumSTKSIZE_ EQU 0
                        	_isspace:
FFFC3C55 0000000053 		      	tgt  
FFFC3C5A 0000003A70 		      	push 	xlr
FFFC3C60 0000003B70 		      	push 	bp
FFFC3C65 00000EFF30 		      	mov  	bp,sp
FFFC3C6A 00000FFF04 		      	sub  	sp,sp,#_isspaceSTKSIZE_
FFFC3C70 0020081257 		      	bne  	r18,#32,ctype_37
FFFC3C75 0000104009 		      	ld   	r1,#1
                        	ctype_39:
FFFC3C7A 00000FFB30 		      	mov  	sp,bp
FFFC3C80 0000003B71 		      	pop  	bp
FFFC3C85 0000003A71 		      	pop  	xlr
FFFC3C8A 0000000AEF 		      	ret  	#10
                        	ctype_37:
FFFC3C90 0010025257 		      	bne  	r18,#9,ctype_40
FFFC3C95 0000104009 		      	ld   	r1,#1
FFFC3C9A FFE0C00046 		      	bra  	ctype_39
                        	ctype_40:
FFFC3CA0 0010029257 		      	bne  	r18,#10,ctype_42
FFFC3CA5 0000104009 		      	ld   	r1,#1
FFFC3CAA FFD0C00046 		      	bra  	ctype_39
                        	ctype_42:
FFFC3CB0 0010035257 		      	bne  	r18,#13,ctype_44
FFFC3CB5 0000104009 		      	ld   	r1,#1
FFFC3CBA FFC0C00046 		      	bra  	ctype_39
                        	ctype_44:
FFFC3CC0 0010031257 		      	bne  	r18,#12,ctype_46
FFFC3CC5 0000104009 		      	ld   	r1,#1
FFFC3CCA FFB0C00046 		      	bra  	ctype_39
                        	ctype_46:
                        		      	hint 	#2
FFFC3CD0 0000004030 		      	mov  	r1,r0
FFFC3CD5 FFA5C00046 		      	bra  	ctype_39
                        	_isspaceSTKSIZE_ EQU 0
                        	_tolower:
FFFC3CDA 0000000053 		      	tgt  
FFFC3CE0 0000003A70 		      	push 	xlr
FFFC3CE5 0000003B70 		      	push 	bp
FFFC3CEA 00000EFF30 		      	mov  	bp,sp
FFFC3CF0 00000FFF04 		      	sub  	sp,sp,#_tolowerSTKSIZE_
FFFC3CF5 0015105258 		      	blt  	r18,#65,ctype_51
FFFC3CFA 001016925B 		      	bgt  	r18,#90,ctype_51
FFFC3D00 000200D204 		      	add  	r3,r18,#32
FFFC3D05 0000048330 		      	mov  	r18,r3
                        	ctype_51:
                        		      	hint 	#2
FFFC3D0A 0000005230 		      	mov  	r1,r18
                        	ctype_53:
FFFC3D10 00000FFB30 		      	mov  	sp,bp
FFFC3D15 0000003B71 		      	pop  	bp
FFFC3D1A 0000003A71 		      	pop  	xlr
FFFC3D20 0000000AEF 		      	ret  	#10
                        	_tolowerSTKSIZE_ EQU 0
                        	_toupper:
FFFC3D25 0000000053 		      	tgt  
FFFC3D2A 0000003A70 		      	push 	xlr
FFFC3D30 0000003B70 		      	push 	bp
FFFC3D35 00000EFF30 		      	mov  	bp,sp
FFFC3D3A 00000FFF04 		      	sub  	sp,sp,#_toupperSTKSIZE_
FFFC3D40 0015185258 		      	blt  	r18,#97,ctype_57
FFFC3D45 001018525B 		      	bgt  	r18,#97,ctype_57
FFFC3D4A FFFE00D204 		      	add  	r3,r18,#-32
FFFC3D50 0000048330 		      	mov  	r18,r3
                        	ctype_57:
                        		      	hint 	#2
FFFC3D55 0000005230 		      	mov  	r1,r18
                        	ctype_59:
FFFC3D5A 00000FFB30 		      	mov  	sp,bp
FFFC3D60 0000003B71 		      	pop  	bp
FFFC3D65 0000003A71 		      	pop  	xlr
FFFC3D6A 0000000AEF 		      	ret  	#10
                        	_toupperSTKSIZE_ EQU 0
                        	_isupper:
FFFC3D70 0000000053 		      	tgt  
FFFC3D75 0000003A70 		      	push 	xlr
FFFC3D7A 0000003B70 		      	push 	bp
FFFC3D80 00000EFF30 		      	mov  	bp,sp
FFFC3D85 00000FFF04 		      	sub  	sp,sp,#_isupperSTKSIZE_
FFFC3D8A 0016105258 		      	blt  	r18,#65,ctype_63
FFFC3D90 001016925B 		      	bgt  	r18,#90,ctype_63
FFFC3D95 000010C009 		      	ld   	r3,#1
FFFC3D9A 000BC00046 		      	bra  	ctype_64
                        	ctype_63:
FFFC3DA0 000000C030 		      	mov  	r3,r0
                        	ctype_64:
                        		      	hint 	#2
FFFC3DA5 0000004330 		      	mov  	r1,r3
                        	ctype_65:
FFFC3DAA 00000FFB30 		      	mov  	sp,bp
FFFC3DB0 0000003B71 		      	pop  	bp
FFFC3DB5 0000003A71 		      	pop  	xlr
FFFC3DBA 0000000AEF 		      	ret  	#10
                        	_isupperSTKSIZE_ EQU 0
                        	_islower:
FFFC3DC0 0000000053 		      	tgt  
FFFC3DC5 0000003A70 		      	push 	xlr
FFFC3DCA 0000003B70 		      	push 	bp
FFFC3DD0 00000EFF30 		      	mov  	bp,sp
FFFC3DD5 00000FFF04 		      	sub  	sp,sp,#_islowerSTKSIZE_
FFFC3DDA 0016185258 		      	blt  	r18,#97,ctype_69
FFFC3DE0 00101E925B 		      	bgt  	r18,#122,ctype_69
FFFC3DE5 000010C009 		      	ld   	r3,#1
FFFC3DEA 000BC00046 		      	bra  	ctype_70
                        	ctype_69:
FFFC3DF0 000000C030 		      	mov  	r3,r0
                        	ctype_70:
                        		      	hint 	#2
FFFC3DF5 0000004330 		      	mov  	r1,r3
                        	ctype_71:
FFFC3DFA 00000FFB30 		      	mov  	sp,bp
FFFC3E00 0000003B71 		      	pop  	bp
FFFC3E05 0000003A71 		      	pop  	xlr
FFFC3E0A 0000000AEF 		      	ret  	#10
                        	_islowerSTKSIZE_ EQU 0
                        	_ispunct:
FFFC3E10 0000000053 		      	tgt  
FFFC3E15 0000003A70 		      	push 	xlr
FFFC3E1A 0000003B70 		      	push 	bp
FFFC3E20 00000EFF30 		      	mov  	bp,sp
FFFC3E25 00000FFF04 		      	sub  	sp,sp,#_ispunctSTKSIZE_
FFFC3E2A 0086179256 		      	beq  	r18,#94,ctype_76
FFFC3E30 00800E9256 		      	beq  	r18,#58,ctype_76
FFFC3E35 007B0BD256 		      	beq  	r18,#47,ctype_76
FFFC3E3A 00760B9256 		      	beq  	r18,#46,ctype_76
FFFC3E40 00700B5256 		      	beq  	r18,#45,ctype_76
FFFC3E45 006B0B1256 		      	beq  	r18,#44,ctype_76
FFFC3E4A 00660AD256 		      	beq  	r18,#43,ctype_76
FFFC3E50 00600A9256 		      	beq  	r18,#42,ctype_76
FFFC3E55 005B175256 		      	beq  	r18,#93,ctype_76
FFFC3E5A 0056171256 		      	beq  	r18,#92,ctype_76
FFFC3E60 005016D256 		      	beq  	r18,#91,ctype_76
FFFC3E65 004B0FD256 		      	beq  	r18,#63,ctype_76
FFFC3E6A 00460F9256 		      	beq  	r18,#62,ctype_76
FFFC3E70 00400F5256 		      	beq  	r18,#61,ctype_76
FFFC3E75 003B0F1256 		      	beq  	r18,#60,ctype_76
FFFC3E7A 00360ED256 		      	beq  	r18,#59,ctype_76
FFFC3E80 00300A5256 		      	beq  	r18,#41,ctype_76
FFFC3E85 002B0A1256 		      	beq  	r18,#40,ctype_76
FFFC3E8A 002609D256 		      	beq  	r18,#39,ctype_76
FFFC3E90 0020099256 		      	beq  	r18,#38,ctype_76
FFFC3E95 001B095256 		      	beq  	r18,#37,ctype_76
FFFC3E9A 001608D256 		      	beq  	r18,#35,ctype_76
FFFC3EA0 0010089256 		      	beq  	r18,#34,ctype_76
FFFC3EA5 000B085256 		      	beq  	r18,#33,ctype_76
FFFC3EAA 0020C00046 		      	bra  	ctype_77
                        	ctype_76:
                        		      	hint 	#2
FFFC3EB0 0000104009 		      	ld   	r1,#1
                        	ctype_78:
FFFC3EB5 00000FFB30 		      	mov  	sp,bp
FFFC3EBA 0000003B71 		      	pop  	bp
FFFC3EC0 0000003A71 		      	pop  	xlr
FFFC3EC5 0000000AEF 		      	ret  	#10
                        	ctype_77:
                        		      	hint 	#2
FFFC3ECA 0000004030 		      	mov  	r1,r0
FFFC3ED0 FFE5C00046 		      	bra  	ctype_78
                        	ctype_75:
FFFC3ED5 FFE0C00046 		      	bra  	ctype_78
                        	_ispunctSTKSIZE_ EQU 0
                        	_isgraph:
FFFC3EDA 0000000053 		      	tgt  
FFFC3EE0 0000003A70 		      	push 	xlr
FFFC3EE5 0000003B70 		      	push 	bp
FFFC3EEA C3F60E8009 		      	ld   	xlr,#ctype_79
FFFC3EF0 000000FFCF 
FFFC3EF5 00000EFF30 		      	mov  	bp,sp
FFFC3EFA 00000FFF04 		      	sub  	sp,sp,#_isgraphSTKSIZE_
FFFC3F00 0000001270 		      	push 	r18
FFFC3F05 C3E1000050 		      	call 	_ispunct
FFFC3F0A 000000FFCF 
FFFC3F10 0000001271 		      	pop  	r18
FFFC3F15 0020000147 		      	bne  	r1,r0,ctype_84
FFFC3F1A 0000001270 		      	push 	r18
FFFC3F20 C3BE000050 		      	call 	_isalnum
FFFC3F25 000000FFCF 
FFFC3F2A 0000001271 		      	pop  	r18
FFFC3F30 0010000146 		      	beq  	r1,r0,ctype_82
                        	ctype_84:
FFFC3F35 000010C009 		      	ld   	r3,#1
FFFC3F3A 000BC00046 		      	bra  	ctype_83
                        	ctype_82:
FFFC3F40 000000C030 		      	mov  	r3,r0
                        	ctype_83:
                        		      	hint 	#2
FFFC3F45 0000004330 		      	mov  	r1,r3
                        	ctype_85:
FFFC3F4A 00000FFB30 		      	mov  	sp,bp
FFFC3F50 0000003B71 		      	pop  	bp
FFFC3F55 0000003A71 		      	pop  	xlr
FFFC3F5A 0000000AEF 		      	ret  	#10
                        	ctype_79:
FFFC3F60 0000ADFB86 		      	ldd  	lr,10[bp]
FFFC3F65 00014DFB93 		      	std  	lr,20[bp]
FFFC3F6A FFE0C00046 		      	bra  	ctype_85
                        	_isgraphSTKSIZE_ EQU 0
                        	_isprint:
FFFC3F70 0000000053 		      	tgt  
FFFC3F75 0000003A70 		      	push 	xlr
FFFC3F7A 0000003B70 		      	push 	bp
FFFC3F80 C3FEAE8009 		      	ld   	xlr,#ctype_86
FFFC3F85 000000FFCF 
FFFC3F8A 00000EFF30 		      	mov  	bp,sp
FFFC3F90 00000FFF04 		      	sub  	sp,sp,#_isprintSTKSIZE_
FFFC3F95 0000001270 		      	push 	r18
FFFC3F9A C3EDA00050 		      	call 	_isgraph
FFFC3FA0 000000FFCF 
FFFC3FA5 0000001271 		      	pop  	r18
FFFC3FAA 0016000147 		      	bne  	r1,r0,ctype_91
FFFC3FB0 000200D276 		      	seq  	r3,r18,#32
FFFC3FB5 1700C00302 		      	sxh  	r3,r3
FFFC3FBA 0010000346 		      	beq  	r3,r0,ctype_89
                        	ctype_91:
FFFC3FC0 000010C009 		      	ld   	r3,#1
FFFC3FC5 000BC00046 		      	bra  	ctype_90
                        	ctype_89:
FFFC3FCA 000000C030 		      	mov  	r3,r0
                        	ctype_90:
                        		      	hint 	#2
FFFC3FD0 0000004330 		      	mov  	r1,r3
                        	ctype_94:
FFFC3FD5 00000FFB30 		      	mov  	sp,bp
FFFC3FDA 0000003B71 		      	pop  	bp
FFFC3FE0 0000003A71 		      	pop  	xlr
FFFC3FE5 0000000AEF 		      	ret  	#10
                        	ctype_86:
FFFC3FEA 0000ADFB86 		      	ldd  	lr,10[bp]
FFFC3FF0 00014DFB93 		      	std  	lr,20[bp]
FFFC3FF5 FFE0C00046 		      	bra  	ctype_94
                        	_isprintSTKSIZE_ EQU 0
                        	_iscntrl:
FFFC3FFA 0000000053 		      	tgt  
FFFC4000 0000003A70 		      	push 	xlr
FFFC4005 0000003B70 		      	push 	bp
FFFC400A 00000EFF30 		      	mov  	bp,sp
FFFC4010 00000FFF04 		      	sub  	sp,sp,#_iscntrlSTKSIZE_
FFFC4015 002501D256 		      	beq  	r18,#7,ctype_99
FFFC401A 0020021256 		      	beq  	r18,#8,ctype_99
FFFC4020 001A029256 		      	beq  	r18,#10,ctype_99
FFFC4025 0015035256 		      	beq  	r18,#13,ctype_99
FFFC402A 0010031256 		      	beq  	r18,#12,ctype_99
FFFC4030 000A025256 		      	beq  	r18,#9,ctype_99
FFFC4035 0020C00046 		      	bra  	ctype_100
                        	ctype_99:
                        		      	hint 	#2
FFFC403A 0000104009 		      	ld   	r1,#1
                        	ctype_101:
FFFC4040 00000FFB30 		      	mov  	sp,bp
FFFC4045 0000003B71 		      	pop  	bp
FFFC404A 0000003A71 		      	pop  	xlr
FFFC4050 0000000AEF 		      	ret  	#10
                        	ctype_100:
                        		      	hint 	#2
FFFC4055 0000004030 		      	mov  	r1,r0
FFFC405A FFE6C00046 		      	bra  	ctype_101
                        	ctype_98:
FFFC4060 FFE0C00046 		      	bra  	ctype_101
                        	_iscntrlSTKSIZE_ EQU 0
                        		code
FFFC4065 0000000000 		align	1
FFFC406A 0000000000 
                        	
                        	_memcpy:
FFFC4070 0000000053 		      	tgt  
                        		      	     	
FFFC4075 002B001446 				beq		r20,r0,.xit
FFFC407A 0000000370 				push	r3
FFFC4080 0000004030 				mov		r1,r0
                        				.again:
FFFC4085 000034C1A1 				ldbu	r3,[r1+r19]
FFFC408A 00003481B0 				stb		r3,[r1+r18]
FFFC4090 0000104104 				add		r1,r1,#1
FFFC4095 FFF0050147 				bne		r1,r20,.again
FFFC409A 0000000371 				pop		r3
                        				.xit:
FFFC40A0 0000005230 				mov		r1,r18
FFFC40A5 0000000AEF 				ret
_memcpySTKSIZE_ EQU 0
                        	_memcpyW:
FFFC40AA 0000000053 		      	tgt  
                        		      	     	
FFFC40B0 003A001446 				beq		r20,r0,.xit
FFFC40B5 0000000370 				push	r3
FFFC40BA 0000001470 				push	r20
FFFC40C0 0000004030 				mov		r1,r0
FFFC40C5 4001405402 				shl		r20,r20,#1
                        				.again:
FFFC40CA 000034C1A3 				ldwu	r3,[r1+r19]
FFFC40D0 00003481B1 				stw		r3,[r1+r18]
FFFC40D5 0000204104 				add		r1,r1,#2
FFFC40DA FFF0050147 				bne		r1,r20,.again
FFFC40E0 0000001471 				pop		r20
FFFC40E5 0000000371 				pop		r3
                        				.xit:
FFFC40EA 0000005230 				mov		r1,r18
FFFC40F0 0000000AEF 				ret
_memcpyWSTKSIZE_ EQU 0
                        	_memset:
FFFC40F5 0000000053 		      	tgt  
                        		      	     	
FFFC40FA 001B001446 				beq		r20,r0,.xit
FFFC4100 0000004030 				mov		r1,r0
                        				.again:
FFFC4105 00013481B0 				stb		r19,[r1+r18]
FFFC410A 0000104104 				add		r1,r1,#1
FFFC4110 FFF5050147 				bne		r1,r20,.again
                        				.xit:
FFFC4115 0000005230 				mov		r1,r18
FFFC411A 0000000AEF 				ret
_memsetSTKSIZE_ EQU 0
                        	_memsetW:
FFFC4120 0000000053 		      	tgt  
                        		      	     	
FFFC4125 001B001446 				beq		r20,r0,.xit
FFFC412A 0000004030 				mov		r1,r0
                        				.again:
FFFC4130 00053052B1 				stw		r19,[r18+r1*2]
FFFC4135 0000104104 				add		r1,r1,#1
FFFC413A FFF605014C 				bltu	r1,r20,.again
                        				.xit:
FFFC4140 0000005230 				mov		r1,r18
FFFC4145 0000000AEF 				ret
_memsetWSTKSIZE_ EQU 0
                        	_memsetT:
FFFC414A 0000000053 		      	tgt  
                        		      	     	
FFFC4150 001A001446 				beq		r20,r0,.xit
FFFC4155 0000004030 				mov		r1,r0
                        				.again:
FFFC415A 00093052B4 				stt		r19,[r18+r1*4]
FFFC4160 0000104104 				add		r1,r1,#1
FFFC4165 FFF505014C 				bltu	r1,r20,.again
                        				.xit:
FFFC416A 0000005230 				mov		r1,r18
FFFC4170 0000000AEF 				ret
_memsetTSTKSIZE_ EQU 0
                        	_memmove:
FFFC4175 0000000053 		      	tgt  
FFFC417A 0000003A70 		      	push 	xlr
FFFC4180 0000003B70 		      	push 	bp
FFFC4185 C4270E8009 		      	ld   	xlr,#string_20
FFFC418A 000000FFCF 
FFFC4190 00000EFF30 		      	mov  	bp,sp
FFFC4195 FFFF6FFF04 		      	sub  	sp,sp,#_memmoveSTKSIZE_
FFFC419A 007004D249 		      	bge  	r18,r19,string_23
FFFC41A0 FFFF603B93 		      	std  	r0,-10[bp]
                        	string_25:
FFFC41A5 FFFF60FB86 		      	ldd  	r3,-10[bp]
FFFC41AA 005B050349 		      	bge  	r3,r20,string_26
FFFC41B0 FFFF613B86 		      	ldd  	r4,-10[bp]
FFFC41B5 4000304402 		      	shl  	r3,r4,#1
FFFC41BA 000040D2A2 		      	ldw  	r4,[r18+r3]
FFFC41C0 50F0010413 		      	bfext	r4,r4,#0,#15
FFFC41C5 000040D2B0 		      	stb  	r4,[r18+r3]
FFFC41CA FFFF617B86 		      	ldd  	r5,-10[bp]
FFFC41D0 4000404502 		      	shl  	r4,r5,#1
FFFC41D5 00005113A2 		      	ldw  	r5,[r19+r4]
FFFC41DA 50F0014513 		      	bfext	r5,r5,#0,#15
FFFC41E0 00005113B0 		      	stb  	r5,[r19+r4]
FFFC41E5 00005113A2 		      	ldw  	r5,[r19+r4]
FFFC41EA 000050D2B1 		      	stw  	r5,[r18+r3]
                        	string_27:
FFFC41F0 FFFF60FB86 		      	ldd  	r3,-10[bp]
FFFC41F5 000010C304 		      	add  	r3,r3,#1
FFFC41FA FFFF60FB93 		      	std  	r3,-10[bp]
FFFC4200 FFA5C00046 		      	bra  	string_25
                        	string_26:
FFFC4205 0050C00046 		      	bra  	string_24
                        	string_23:
FFFC420A FFFFF51404 		      	sub  	r20,r20,#1
                        	string_28:
FFFC4210 0045001458 		      	blt  	r20,#0,string_29
FFFC4215 4000305402 		      	shl  	r3,r20,#1
FFFC421A 000040D2A2 		      	ldw  	r4,[r18+r3]
FFFC4220 50F0010413 		      	bfext	r4,r4,#0,#15
FFFC4225 000040D2B0 		      	stb  	r4,[r18+r3]
FFFC422A 4000405402 		      	shl  	r4,r20,#1
FFFC4230 00005113A2 		      	ldw  	r5,[r19+r4]
FFFC4235 50F0014513 		      	bfext	r5,r5,#0,#15
FFFC423A 00005113B0 		      	stb  	r5,[r19+r4]
FFFC4240 00005113A2 		      	ldw  	r5,[r19+r4]
FFFC4245 000050D2B1 		      	stw  	r5,[r18+r3]
                        	string_30:
FFFC424A FFFFF51404 		      	sub  	r20,r20,#1
FFFC4250 FFC0C00046 		      	bra  	string_28
                        	string_29:
                        	string_24:
                        		      	hint 	#2
FFFC4255 0000005230 		      	mov  	r1,r18
                        	string_31:
FFFC425A 00000FFB30 		      	mov  	sp,bp
FFFC4260 0000003B71 		      	pop  	bp
FFFC4265 0000003A71 		      	pop  	xlr
FFFC426A 0000000AEF 		      	ret  	#10
                        	string_20:
FFFC4270 0000ADFB86 		      	ldd  	lr,10[bp]
FFFC4275 00014DFB93 		      	std  	lr,20[bp]
FFFC427A FFE0C00046 		      	bra  	string_31
                        	_memmoveSTKSIZE_ EQU 10
                        	_memmoveW:
FFFC4280 0000000053 		      	tgt  
FFFC4285 0000003A70 		      	push 	xlr
FFFC428A 0000003B70 		      	push 	bp
FFFC4290 C433AE8009 		      	ld   	xlr,#string_32
FFFC4295 000000FFCF 
FFFC429A 00000EFF30 		      	mov  	bp,sp
FFFC42A0 FFFF6FFF04 		      	sub  	sp,sp,#_memmoveWSTKSIZE_
FFFC42A5 005004D249 		      	bge  	r18,r19,string_35
FFFC42AA FFFF603B93 		      	std  	r0,-10[bp]
                        	string_37:
FFFC42B0 FFFF60FB86 		      	ldd  	r3,-10[bp]
FFFC42B5 003B050349 		      	bge  	r3,r20,string_38
FFFC42BA FFFF613B86 		      	ldd  	r4,-10[bp]
FFFC42C0 0000A0C411 		      	mulu 	r3,r4,#10
FFFC42C5 FFFF617B86 		      	ldd  	r5,-10[bp]
FFFC42CA 0000A10511 		      	mulu 	r4,r5,#10
FFFC42D0 00005113A6 		      	ldd  	r5,[r19+r4]
FFFC42D5 000050D2B3 		      	std  	r5,[r18+r3]
                        	string_39:
FFFC42DA FFFF60FB86 		      	ldd  	r3,-10[bp]
FFFC42E0 000010C304 		      	add  	r3,r3,#1
FFFC42E5 FFFF60FB93 		      	std  	r3,-10[bp]
FFFC42EA FFC6C00046 		      	bra  	string_37
                        	string_38:
FFFC42F0 0030C00046 		      	bra  	string_36
                        	string_35:
FFFC42F5 FFFFF51404 		      	sub  	r20,r20,#1
                        	string_40:
FFFC42FA 0026001458 		      	blt  	r20,#0,string_41
FFFC4300 0000A0D411 		      	mulu 	r3,r20,#10
FFFC4305 0000A11411 		      	mulu 	r4,r20,#10
FFFC430A 00005113A6 		      	ldd  	r5,[r19+r4]
FFFC4310 000050D2B3 		      	std  	r5,[r18+r3]
                        	string_42:
FFFC4315 FFFFF51404 		      	sub  	r20,r20,#1
FFFC431A FFE0C00046 		      	bra  	string_40
                        	string_41:
                        	string_36:
                        		      	hint 	#2
FFFC4320 0000005230 		      	mov  	r1,r18
                        	string_43:
FFFC4325 00000FFB30 		      	mov  	sp,bp
FFFC432A 0000003B71 		      	pop  	bp
FFFC4330 0000003A71 		      	pop  	xlr
FFFC4335 0000000AEF 		      	ret  	#10
                        	string_32:
FFFC433A 0000ADFB86 		      	ldd  	lr,10[bp]
FFFC4340 00014DFB93 		      	std  	lr,20[bp]
FFFC4345 FFE0C00046 		      	bra  	string_43
                        	_memmoveWSTKSIZE_ EQU 10
                        	_memchr:
FFFC434A 0000000053 		      	tgt  
FFFC4350 0000003A70 		      	push 	xlr
FFFC4355 0000003B70 		      	push 	bp
FFFC435A C43C5E8009 		      	ld   	xlr,#string_44
FFFC4360 000000FFCF 
FFFC4365 00000EFF30 		      	mov  	bp,sp
FFFC436A FFFF6FFF04 		      	sub  	sp,sp,#_memchrSTKSIZE_
FFFC4370 0000000B70 		      	push 	r11
FFFC4375 000002D230 		      	mov  	r11,r18
                        	string_47:
FFFC437A 004000145A 		      	ble  	r20,#0,string_48
FFFC4380 000000CB80 		      	ldb  	r3,[r11]
FFFC4385 002504C347 		      	bne  	r3,r19,string_50
FFFC438A 0000004B30 		      	mov  	r1,r11
                        	string_52:
FFFC4390 0000000B71 		      	pop  	r11
FFFC4395 00000FFB30 		      	mov  	sp,bp
FFFC439A 0000003B71 		      	pop  	bp
FFFC43A0 0000003A71 		      	pop  	xlr
FFFC43A5 0000000AEF 		      	ret  	#10
                        	string_50:
                        	string_49:
FFFC43AA 000022CB04 		      	add  	r11,r11,#2
FFFC43B0 FFFFF51404 		      	sub  	r20,r20,#1
FFFC43B5 FFC5C00046 		      	bra  	string_47
                        	string_48:
                        		      	hint 	#2
FFFC43BA 0000004030 		      	mov  	r1,r0
FFFC43C0 FFD0C00046 		      	bra  	string_52
                        	string_44:
FFFC43C5 0000ADFB86 		      	ldd  	lr,10[bp]
FFFC43CA 00014DFB93 		      	std  	lr,20[bp]
FFFC43D0 FFC0C00046 		      	bra  	string_52
                        	_memchrSTKSIZE_ EQU 10
                        	_strlen:
FFFC43D5 0000000053 		      	tgt  
                        		      	     	
FFFC43DA 0000004030 				mov		r1,r0			// length = 0
FFFC43E0 002A001246 				beq		r18,r0,.xit2
FFFC43E5 0000000370 				push	r3
                        				.j1:
FFFC43EA 00003481A3 				ldwu	r3,[r1+r18]
FFFC43F0 0000204104 				add 	r1,r1,#2
FFFC43F5 FFF5000347 				bne		r3,r0,.j1
                        				.xit:
FFFC43FA FFFFE04104 				subi	r1,r1,#2
FFFC4400 4100104102 				shrui	r1,r1,#1
FFFC4405 0000000371 				pop		r3
                        				.xit2:
FFFC440A 0000000AEF 				ret
_strlenSTKSIZE_ EQU 0
                        	_strcpy:
FFFC4410 0000000053 		      	tgt  
FFFC4415 0000003A70 		      	push 	xlr
FFFC441A 0000003B70 		      	push 	bp
FFFC4420 C44F0E8009 		      	ld   	xlr,#string_57
FFFC4425 000000FFCF 
FFFC442A 00000EFF30 		      	mov  	bp,sp
FFFC4430 FFFF6FFF04 		      	sub  	sp,sp,#_strcpySTKSIZE_
FFFC4435 FFFF603B93 		      	std  	r0,-10[bp]
                        	string_60:
FFFC443A FFFF613B86 		      	ldd  	r4,-10[bp]
FFFC4440 4000304402 		      	shl  	r3,r4,#1
FFFC4445 000040D3A2 		      	ldw  	r4,[r19+r3]
FFFC444A 50F0010413 		      	bfext	r4,r4,#0,#15
FFFC4450 000040D3B0 		      	stb  	r4,[r19+r3]
FFFC4455 000030D3A0 		      	ldb  	r3,[r19+r3]
FFFC445A 005B000346 		      	beq  	r3,r0,string_61
FFFC4460 FFFF613B86 		      	ldd  	r4,-10[bp]
FFFC4465 4000304402 		      	shl  	r3,r4,#1
FFFC446A 000040D2A2 		      	ldw  	r4,[r18+r3]
FFFC4470 50F0010413 		      	bfext	r4,r4,#0,#15
FFFC4475 000040D2B0 		      	stb  	r4,[r18+r3]
FFFC447A FFFF617B86 		      	ldd  	r5,-10[bp]
FFFC4480 4000404502 		      	shl  	r4,r5,#1
FFFC4485 00005113A2 		      	ldw  	r5,[r19+r4]
FFFC448A 50F0014513 		      	bfext	r5,r5,#0,#15
FFFC4490 00005113B0 		      	stb  	r5,[r19+r4]
FFFC4495 00005113A2 		      	ldw  	r5,[r19+r4]
FFFC449A 000050D2B1 		      	stw  	r5,[r18+r3]
                        	string_62:
FFFC44A0 FFFF60FB86 		      	ldd  	r3,-10[bp]
FFFC44A5 000010C304 		      	add  	r3,r3,#1
FFFC44AA FFFF60FB93 		      	std  	r3,-10[bp]
FFFC44B0 FF8AC00046 		      	bra  	string_60
                        	string_61:
FFFC44B5 FFFF613B86 		      	ldd  	r4,-10[bp]
FFFC44BA 4000304402 		      	shl  	r3,r4,#1
FFFC44C0 000040D2A2 		      	ldw  	r4,[r18+r3]
FFFC44C5 50F0010413 		      	bfext	r4,r4,#0,#15
FFFC44CA 000040D2B0 		      	stb  	r4,[r18+r3]
FFFC44D0 000000D2B1 		      	stw  	r0,[r18+r3]
FFFC44D5 0000005230 		      	mov  	r1,r18
                        	string_63:
FFFC44DA 00000FFB30 		      	mov  	sp,bp
FFFC44E0 0000003B71 		      	pop  	bp
FFFC44E5 0000003A71 		      	pop  	xlr
FFFC44EA 0000000AEF 		      	ret  	#10
                        	string_57:
FFFC44F0 0000ADFB86 		      	ldd  	lr,10[bp]
FFFC44F5 00014DFB93 		      	std  	lr,20[bp]
FFFC44FA FFE0C00046 		      	bra  	string_63
                        	_strcpySTKSIZE_ EQU 10
                        	_strncpy:
FFFC4500 0000000053 		      	tgt  
FFFC4505 0000003A70 		      	push 	xlr
FFFC450A 0000003B70 		      	push 	bp
FFFC4510 C4610E8009 		      	ld   	xlr,#string_64
FFFC4515 000000FFCF 
FFFC451A 00000EFF30 		      	mov  	bp,sp
FFFC4520 FFFF6FFF04 		      	sub  	sp,sp,#_strncpySTKSIZE_
FFFC4525 FFFF603B93 		      	std  	r0,-10[bp]
                        	string_67:
FFFC452A FFFF60FB86 		      	ldd  	r3,-10[bp]
FFFC4530 0085050349 		      	bge  	r3,r20,string_68
FFFC4535 FFFF613B86 		      	ldd  	r4,-10[bp]
FFFC453A 4000304402 		      	shl  	r3,r4,#1
FFFC4540 000040D2A2 		      	ldw  	r4,[r18+r3]
FFFC4545 50F0010413 		      	bfext	r4,r4,#0,#15
FFFC454A 000040D2B0 		      	stb  	r4,[r18+r3]
FFFC4550 FFFF617B86 		      	ldd  	r5,-10[bp]
FFFC4555 4000404502 		      	shl  	r4,r5,#1
FFFC455A 00005113A2 		      	ldw  	r5,[r19+r4]
FFFC4560 50F0014513 		      	bfext	r5,r5,#0,#15
FFFC4565 00005113B0 		      	stb  	r5,[r19+r4]
FFFC456A 00005113A2 		      	ldw  	r5,[r19+r4]
FFFC4570 000050D2B1 		      	stw  	r5,[r18+r3]
FFFC4575 FFFF613B86 		      	ldd  	r4,-10[bp]
FFFC457A 4000304402 		      	shl  	r3,r4,#1
FFFC4580 000040D3A2 		      	ldw  	r4,[r19+r3]
FFFC4585 50F0010413 		      	bfext	r4,r4,#0,#15
FFFC458A 000040D3B0 		      	stb  	r4,[r19+r3]
FFFC4590 000030D3A0 		      	ldb  	r3,[r19+r3]
FFFC4595 000B000357 		      	bne  	r3,#0,string_70
FFFC459A 001BC00046 		      	bra  	string_68
                        	string_70:
                        	string_69:
FFFC45A0 FFFF60FB86 		      	ldd  	r3,-10[bp]
FFFC45A5 000010C304 		      	add  	r3,r3,#1
FFFC45AA FFFF60FB93 		      	std  	r3,-10[bp]
FFFC45B0 FF7AC00046 		      	bra  	string_67
                        	string_68:
                        	string_72:
FFFC45B5 FFFF60FB86 		      	ldd  	r3,-10[bp]
FFFC45BA 003B050349 		      	bge  	r3,r20,string_73
FFFC45C0 FFFF613B86 		      	ldd  	r4,-10[bp]
FFFC45C5 4000304402 		      	shl  	r3,r4,#1
FFFC45CA 000040D2A2 		      	ldw  	r4,[r18+r3]
FFFC45D0 50F0010413 		      	bfext	r4,r4,#0,#15
FFFC45D5 000040D2B0 		      	stb  	r4,[r18+r3]
FFFC45DA 000000D2B1 		      	stw  	r0,[r18+r3]
                        	string_74:
FFFC45E0 FFFF60FB86 		      	ldd  	r3,-10[bp]
FFFC45E5 000010C304 		      	add  	r3,r3,#1
FFFC45EA FFFF60FB93 		      	std  	r3,-10[bp]
FFFC45F0 FFC5C00046 		      	bra  	string_72
                        	string_73:
                        		      	hint 	#2
FFFC45F5 0000005230 		      	mov  	r1,r18
                        	string_75:
FFFC45FA 00000FFB30 		      	mov  	sp,bp
FFFC4600 0000003B71 		      	pop  	bp
FFFC4605 0000003A71 		      	pop  	xlr
FFFC460A 0000000AEF 		      	ret  	#10
                        	string_64:
FFFC4610 0000ADFB86 		      	ldd  	lr,10[bp]
FFFC4615 00014DFB93 		      	std  	lr,20[bp]
FFFC461A FFE0C00046 		      	bra  	string_75
                        	_strncpySTKSIZE_ EQU 10
                        	_strncmp:
FFFC4620 0000000053 		      	tgt  
FFFC4625 0000003A70 		      	push 	xlr
FFFC462A 0000003B70 		      	push 	bp
FFFC4630 C470AE8009 		      	ld   	xlr,#string_76
FFFC4635 000000FFCF 
FFFC463A 00000EFF30 		      	mov  	bp,sp
FFFC4640 FFFECFFF04 		      	sub  	sp,sp,#_strncmpSTKSIZE_
FFFC4645 0000000B70 		      	push 	r11
FFFC464A 0000000C70 		      	push 	r12
FFFC4650 000002D230 		      	mov  	r11,r18
FFFC4655 0000031330 		      	mov  	r12,r19
FFFC465A 002B030B47 		      	bne  	r11,r12,string_79
FFFC4660 0000004030 		      	mov  	r1,r0
                        	string_81:
FFFC4665 0000000C71 		      	pop  	r12
FFFC466A 0000000B71 		      	pop  	r11
FFFC4670 00000FFB30 		      	mov  	sp,bp
FFFC4675 0000003B71 		      	pop  	bp
FFFC467A 0000003A71 		      	pop  	xlr
FFFC4680 0000000AEF 		      	ret  	#10
                        	string_79:
                        	string_82:
FFFC4685 007B00145A 		      	ble  	r20,#0,string_83
FFFC468A 000000CB82 		      	ldw  	r3,[r11]
FFFC4690 0000010C82 		      	ldw  	r4,[r12]
FFFC4695 0035010346 		      	beq  	r3,r4,string_85
FFFC469A 000000CB82 		      	ldw  	r3,[r11]
FFFC46A0 0000010C82 		      	ldw  	r4,[r12]
FFFC46A5 001001034D 		      	bgeu 	r3,r4,string_87
FFFC46AA FFFFF0C009 		      	ld   	r3,#-1
FFFC46B0 0010C00046 		      	bra  	string_88
                        	string_87:
FFFC46B5 0000110009 		      	ld   	r4,#1
FFFC46BA 000000C430 		      	mov  	r3,r4
                        	string_88:
                        		      	hint 	#2
FFFC46C0 0000004330 		      	mov  	r1,r3
FFFC46C5 FFA0C00046 		      	bra  	string_81
                        	string_85:
FFFC46CA 000000CB86 		      	ldd  	r3,[r11]
FFFC46D0 0000010030 		      	mov  	r4,r0
FFFC46D5 1701000402 		      	sxh  	r4,r4
FFFC46DA 0010010347 		      	bne  	r3,r4,string_89
FFFC46E0 0000004030 		      	mov  	r1,r0
FFFC46E5 FF80C00046 		      	bra  	string_81
                        	string_89:
                        	string_86:
                        	string_84:
FFFC46EA 000022CB04 		      	add  	r11,r11,#2
FFFC46F0 0000230C04 		      	add  	r12,r12,#2
FFFC46F5 FFFFF51404 		      	sub  	r20,r20,#1
FFFC46FA FF8BC00046 		      	bra  	string_82
                        	string_83:
                        		      	hint 	#2
FFFC4700 0000004030 		      	mov  	r1,r0
FFFC4705 FF60C00046 		      	bra  	string_81
                        	string_76:
FFFC470A 0000ADFB86 		      	ldd  	lr,10[bp]
FFFC4710 00014DFB93 		      	std  	lr,20[bp]
FFFC4715 FF50C00046 		      	bra  	string_81
                        	_strncmpSTKSIZE_ EQU 20
                        	_strchr:
FFFC471A 0000000053 		      	tgt  
FFFC4720 0000003A70 		      	push 	xlr
FFFC4725 0000003B70 		      	push 	bp
FFFC472A C4795E8009 		      	ld   	xlr,#string_91
FFFC4730 000000FFCF 
FFFC4735 00000EFF30 		      	mov  	bp,sp
FFFC473A FFFF6FFF04 		      	sub  	sp,sp,#_strchrSTKSIZE_
FFFC4740 0000000B70 		      	push 	r11
FFFC4745 000002D230 		      	mov  	r11,r18
                        	string_94:
FFFC474A 004000145A 		      	ble  	r20,#0,string_95
FFFC4750 000000CB80 		      	ldb  	r3,[r11]
FFFC4755 002504C347 		      	bne  	r3,r19,string_97
FFFC475A 0000004B30 		      	mov  	r1,r11
                        	string_99:
FFFC4760 0000000B71 		      	pop  	r11
FFFC4765 00000FFB30 		      	mov  	sp,bp
FFFC476A 0000003B71 		      	pop  	bp
FFFC4770 0000003A71 		      	pop  	xlr
FFFC4775 0000000AEF 		      	ret  	#10
                        	string_97:
                        	string_96:
FFFC477A 000022CB04 		      	add  	r11,r11,#2
FFFC4780 FFFFF51404 		      	sub  	r20,r20,#1
FFFC4785 FFC5C00046 		      	bra  	string_94
                        	string_95:
                        		      	hint 	#2
FFFC478A 0000004030 		      	mov  	r1,r0
FFFC4790 FFD0C00046 		      	bra  	string_99
                        	string_91:
FFFC4795 0000ADFB86 		      	ldd  	lr,10[bp]
FFFC479A 00014DFB93 		      	std  	lr,20[bp]
FFFC47A0 FFC0C00046 		      	bra  	string_99
                        	_strchrSTKSIZE_ EQU 10
                        		code
FFFC47A5 0000000000 		align	1
FFFC47AA 0000000000 
                        	
                        	_in8STKSIZE_ EQU 0
                        	_in8uSTKSIZE_ EQU 0
                        	_in16STKSIZE_ EQU 0
                        	_in16uSTKSIZE_ EQU 0
                        	_in32STKSIZE_ EQU 0
                        	_in32uSTKSIZE_ EQU 0
                        	_out8STKSIZE_ EQU 0
                        	_out16STKSIZE_ EQU 0
                        	_out32STKSIZE_ EQU 0
                        	_getCPUSTKSIZE_ EQU 0
                        		code
                        		align	16                        	
                        	_IsNan80:
FFFC47B0 0000000053 		      	tgt  
FFFC47B5 0000003A70 		      	push 	xlr
FFFC47BA 0000003B70 		      	push 	bp
FFFC47C0 00000EFF30 		      	mov  	bp,sp
FFFC47C5 FFFD8FFF04 		      	sub  	sp,sp,#_IsNan80STKSIZE_
FFFC47CA 0000000B70 		      	push 	r11
FFFC47D0 FFFD80FB25 		      	lea  	r3,-40[bp]
FFFC47D5 000002C330 		      	mov  	r11,r3
                        		      	;    		uFlt uf;
                        		      	;    		uf.flt = n;
FFFC47DA 00084802E7 		      	sf.d 	fp18,[r11]
                        		      	;    		if (uf.w[0]==0 && uf.w[1]==0 && (uf.w[2] & 0xFFFF)==0)
FFFC47E0 000000CB86 		      	ldd  	r3,[r11]
FFFC47E5 0040000357 		      	bne  	r3,#0,prtflt_4
FFFC47EA 0000A0CB86 		      	ldd  	r3,10[r11]
FFFC47F0 0035000357 		      	bne  	r3,#0,prtflt_4
FFFC47F5 0001410B86 		      	ldd  	r4,20[r11]
FFFC47FA 0FFFF0C408 		      	and  	r3,r4,#65535
FFFC4800 0025000357 		      	bne  	r3,#0,prtflt_4
                        		      	;    			return (0);
FFFC4805 0000004030 		      	mov  	r1,r0
                        	prtflt_6:
FFFC480A 0000000B71 		      	pop  	r11
FFFC4810 00000FFB30 		      	mov  	sp,bp
FFFC4815 0000003B71 		      	pop  	bp
FFFC481A 0000003A71 		      	pop  	xlr
FFFC4820 0000000AEF 		      	ret  	#10
                        	prtflt_4:
                        		      	;    		if ((uf.w[2] & 0x7fff0000)==0x7fff0000)
FFFC4825 0001410B86 		      	ldd  	r4,20[r11]
FFFC482A F00000C408 		      	and  	r3,r4,#2147418112
FFFC4830 0000007FCF 
FFFC4835 0015000357 		      	bne  	r3,#2147418112,prtflt_7
FFFC483A 0007FFF0C0 
                        		      	;    			return (1);
FFFC4840 0000104009 		      	ld   	r1,#1
FFFC4845 FFC5C00046 		      	bra  	prtflt_6
                        	prtflt_7:
                        		      	;    		return (0);
FFFC484A 0000004030 		      	mov  	r1,r0
FFFC4850 FFBAC00046 		      	bra  	prtflt_6
                        	_IsNan80STKSIZE_ EQU 40
                        	_IsInf80:
FFFC4855 0000000053 		      	tgt  
FFFC485A 0000003A70 		      	push 	xlr
FFFC4860 0000003B70 		      	push 	bp
FFFC4865 00000EFF30 		      	mov  	bp,sp
FFFC486A FFFD8FFF04 		      	sub  	sp,sp,#_IsInf80STKSIZE_
FFFC4870 0000000B70 		      	push 	r11
FFFC4875 FFFD80FB25 		      	lea  	r3,-40[bp]
FFFC487A 000002C330 		      	mov  	r11,r3
                        		      	;    		uFlt uf;
                        		      	;    		uf.flt = n;
FFFC4880 00084802E7 		      	sf.d 	fp18,[r11]
                        		      	;    		if (uf.w[0]!=0 || uf.w[1]!=0 || (uf.w[2] & 0xFFFF) != 0)
FFFC4885 000000CB86 		      	ldd  	r3,[r11]
FFFC488A 0020000357 		      	bne  	r3,#0,prtflt_15
FFFC4890 0000A0CB86 		      	ldd  	r3,10[r11]
FFFC4895 0015000357 		      	bne  	r3,#0,prtflt_15
FFFC489A 0001410B86 		      	ldd  	r4,20[r11]
FFFC48A0 0FFFF0C408 		      	and  	r3,r4,#65535
FFFC48A5 0025000356 		      	beq  	r3,#0,prtflt_13
                        	prtflt_15:
                        		      	;    			return (0);
FFFC48AA 0000004030 		      	mov  	r1,r0
                        	prtflt_16:
FFFC48B0 0000000B71 		      	pop  	r11
FFFC48B5 00000FFB30 		      	mov  	sp,bp
FFFC48BA 0000003B71 		      	pop  	bp
FFFC48C0 0000003A71 		      	pop  	xlr
FFFC48C5 0000000AEF 		      	ret  	#10
                        	prtflt_13:
                        		      	;    		if ((uf.w[2] & 0x7fff0000)==0x7fff0000)
FFFC48CA 0001410B86 		      	ldd  	r4,20[r11]
FFFC48D0 F00000C408 		      	and  	r3,r4,#2147418112
FFFC48D5 0000007FCF 
FFFC48DA 0016000357 		      	bne  	r3,#2147418112,prtflt_17
FFFC48E0 0007FFF0C0 
                        		      	;    			return (1);
FFFC48E5 0000104009 		      	ld   	r1,#1
FFFC48EA FFC6C00046 		      	bra  	prtflt_16
                        	prtflt_17:
                        		      	;    		return (0);
FFFC48F0 0000004030 		      	mov  	r1,r0
FFFC48F5 FFBBC00046 		      	bra  	prtflt_16
                        	_IsInf80STKSIZE_ EQU 40
                        		code
FFFC48FA 0000000000 		align	1
                        	
                        	_sprtflt:
FFFC4900 0000000053 		      	tgt  
FFFC4905 0000003A70 		      	push 	xlr
FFFC490A 0000003B70 		      	push 	bp
FFFC4910 C5125E8009 		      	ld   	xlr,#prtflt_25
FFFC4915 000000FFCF 
FFFC491A 00000EFF30 		      	mov  	bp,sp
FFFC4920 FFF8EFFF04 		      	sub  	sp,sp,#_sprtfltSTKSIZE_
                        		      	;    	    int ndx;
                        		      	;    		if (bufsz < 40 || bufsz < width)
FFFC4925 000B0A1358 		      	blt  	r19,#40,prtflt_30
FFFC492A 001B055349 		      	bge  	r19,r21,prtflt_28
                        	prtflt_30:
                        		      	;    			return;
                        	prtflt_31:
FFFC4930 00000FFB30 		      	mov  	sp,bp
FFFC4935 0000003B71 		      	pop  	bp
FFFC493A 0000003A71 		      	pop  	xlr
FFFC4940 0000000AEF 		      	ret  	#10
                        	prtflt_28:
                        		      	;    	    ndx = 0;
FFFC4945 FFFF603B93 		      	std  	r0,-10[bp]
                        		      	;    		if (IsNan80(dbl)) {
FFFC494A 0000001270 		      	push 	r18
FFFC4950 0000049430 		      	mov  	r18,fp20
FFFC4955 C47B000050 		      	call 	_IsNan80
FFFC495A 000000FFCF 
FFFC4960 0000001271 		      	pop  	r18
FFFC4965 0030000146 		      	beq  	r1,r0,prtflt_32
                        		      	;    			buf[0] = 'N';
FFFC496A 0004E0C009 		      	ld   	r3,#78
FFFC4970 000000D293 		      	std  	r3,[r18]
                        		      	;    			buf[1] = 'a';
FFFC4975 000610C009 		      	ld   	r3,#97
FFFC497A 0000A0D293 		      	std  	r3,10[r18]
                        		      	;    			buf[2] = 'N';
FFFC4980 0004E0C009 		      	ld   	r3,#78
FFFC4985 000140D293 		      	std  	r3,20[r18]
                        		      	;    			buf[3] = '\0';
FFFC498A 0001E01293 		      	std  	r0,30[r18]
                        		      	;    			goto prt;
FFFC4990 068AC00046 		      	bra  	prtflt_19
                        	prtflt_32:
                        		      	;    		if (IsInf80(dbl)) {
FFFC4995 0000001270 		      	push 	r18
FFFC499A 0000049430 		      	mov  	r18,fp20
FFFC49A0 C485500050 		      	call 	_IsInf80
FFFC49A5 000000FFCF 
FFFC49AA 0000001271 		      	pop  	r18
FFFC49B0 0050000146 		      	beq  	r1,r0,prtflt_34
                        		      	;    			buf[0] = dbl < 0.0 ? '-' : '+';
                        		      	lf.d 	fp3,prtflt_20
FFFC49B5 000420D401 		      	fbge.t	fp20,fp3,prtflt_36
FFFC49BA 0002D10009 		      	ld   	r4,#45
FFFC49C0 0010C00046 		      	bra  	prtflt_37
                        	prtflt_36:
FFFC49C5 0002B14009 		      	ld   	r5,#43
FFFC49CA 0000010530 		      	mov  	r4,r5
                        	prtflt_37:
FFFC49D0 0000011293 		      	std  	r4,[r18]
                        		      	;    			buf[1] = 'I';
FFFC49D5 000490C009 		      	ld   	r3,#73
FFFC49DA 0000A0D293 		      	std  	r3,10[r18]
                        		      	;    			buf[2] = 'n';
FFFC49E0 0006E0C009 		      	ld   	r3,#110
FFFC49E5 000140D293 		      	std  	r3,20[r18]
                        		      	;    			buf[3] = 'f';
FFFC49EA 000660C009 		      	ld   	r3,#102
FFFC49F0 0001E0D293 		      	std  	r3,30[r18]
                        		      	;    			buf[4] = '\0';
FFFC49F5 0002801293 		      	std  	r0,40[r18]
                        		      	;    			goto prt;
FFFC49FA 0620C00046 		      	bra  	prtflt_19
                        	prtflt_34:
                        		      	;    	    if (dbl < 0.0) {
                        		      	lf.d 	fp3,prtflt_20
FFFC4A00 000960D401 		      	fbge.t	fp20,fp3,prtflt_38
                        		      	;    	        dbl = -dbl;
FFFC4A05 000D4014F9 		      	fneg.d	fp3,fp20
                        		      	lf.d 	fp20,fp3
                        		      	;    	        buf[0] = '-';
FFFC4A0A 0002D0C009 		      	ld   	r3,#45
FFFC4A10 000000D293 		      	std  	r3,[r18]
                        		      	;    	        ndx++;
FFFC4A15 FFFF60FB86 		      	ldd  	r3,-10[bp]
FFFC4A1A 000010C304 		      	add  	r3,r3,#1
FFFC4A20 FFFF60FB93 		      	std  	r3,-10[bp]
                        	prtflt_38:
                        		      	;    	    if (dbl==0.0) {
                        		      	lf.d 	fp3,prtflt_20
FFFC4A25 001020D401 		      	fbne.t	fp20,fp3,prtflt_40
                        		      	;    	        buf[ndx]='0';
FFFC4A2A FFFF613B86 		      	ldd  	r4,-10[bp]
FFFC4A30 0000A0C411 		      	mulu 	r3,r4,#10
FFFC4A35 0003010009 		      	ld   	r4,#48
FFFC4A3A 000040D2B3 		      	std  	r4,[r18+r3]
                        		      	;    	        ndx++;
FFFC4A40 FFFF60FB86 		      	ldd  	r3,-10[bp]
FFFC4A45 000010C304 		      	add  	r3,r3,#1
FFFC4A4A FFFF60FB93 		      	std  	r3,-10[bp]
                        		      	;    	        buf[ndx]='\0';
FFFC4A50 FFFF613B86 		      	ldd  	r4,-10[bp]
FFFC4A55 0000A0C411 		      	mulu 	r3,r4,#10
FFFC4A5A 000000D2B3 		      	std  	r0,[r18+r3]
                        		      	;    	        goto prt;
FFFC4A60 05BAC00046 		      	bra  	prtflt_19
                        	prtflt_40:
                        		      	;    	    exp = 0;
FFFC4A65 FFFEC03B93 		      	std  	r0,-20[bp]
                        		      	;    		if (dbl < 1.0) {
                        		      	lf.d 	fp3,prtflt_21
FFFC4A6A 0009A0D401 		      	fbge.t	fp20,fp3,prtflt_42
                        		      	;    			while (dbl < 1.0) {
                        	prtflt_44:
                        		      	lf.d 	fp3,prtflt_21
FFFC4A70 000820D401 		      	fbge.t	fp20,fp3,prtflt_45
                        		      	;    				dbl *= 1000000.0;
                        		      	lf.d 	fp3,prtflt_22
FFFC4A75 005080D4F9 		      	fmul.d	fp20,fp20,fp3
                        		      	;    				exp -= 6;
FFFC4A7A FFFEC0FB86 		      	ldd  	r3,-20[bp]
FFFC4A80 FFFFA0C304 		      	sub  	r3,r3,#6
FFFC4A85 FFFEC0FB93 		      	std  	r3,-20[bp]
FFFC4A8A FFE6C00046 		      	bra  	prtflt_44
                        	prtflt_45:
                        	prtflt_42:
                        		      	;    		dbl2 = 1.0;
                        		      	;    		dbla = dbl2;
                        		      	;    		if (dbl > dbl2) {	// dbl > 1.0 ?
FFFC4A90 00080C7EE6 		      	lf.d 	fp3,-114[bp]
FFFC4A95 001160D401 		      	fble.t	fp20,fp3,prtflt_46
                        		      	;    			while (dbl2 <= dbl) {
                        	prtflt_48:
FFFC4A9A 00080C7EE6 		      	lf.d 	fp3,-114[bp]
FFFC4AA0 000AA50301 		      	fbgt.t	fp3,fp20,prtflt_49
                        		      	;    				dbla = dbl2;
                        		      	;    				dbl2 *= 10.0;	// increase power of 10
                        		      	lf.d 	fp3,prtflt_23
FFFC4AA5 0008107EE6 		      	lf.d 	fp4,-114[bp]
FFFC4AAA 001080C4F9 		      	fmul.d	fp4,fp4,fp3
FFFC4AB0 0008107EE7 		      	sf.d 	fp4,-114[bp]
                        		      	;    				exp++;
FFFC4AB5 FFFEC0FB86 		      	ldd  	r3,-20[bp]
FFFC4ABA 000010C304 		      	add  	r3,r3,#1
FFFC4AC0 FFFEC0FB93 		      	std  	r3,-20[bp]
FFFC4AC5 FFD5C00046 		      	bra  	prtflt_48
                        	prtflt_49:
                        		      	;    			dbl2 = dbla;
                        		      	;    			exp--;
FFFC4ACA FFFEC0FB86 		      	ldd  	r3,-20[bp]
FFFC4AD0 FFFFF0C304 		      	sub  	r3,r3,#1
FFFC4AD5 FFFEC0FB93 		      	std  	r3,-20[bp]
                        	prtflt_46:
                        		      	;    	    if (exp >= 0 && exp < 6) {
FFFC4ADA FFFEC0FB86 		      	ldd  	r3,-20[bp]
FFFC4AE0 002A000358 		      	blt  	r3,#0,prtflt_50
FFFC4AE5 FFFEC0FB86 		      	ldd  	r3,-20[bp]
FFFC4AEA 0020018359 		      	bge  	r3,#6,prtflt_50
                        		      	;    	        digits_before_decpt = exp+1;
FFFC4AF0 FFFEC13B86 		      	ldd  	r4,-20[bp]
FFFC4AF5 000010C404 		      	add  	r3,r4,#1
FFFC4AFA FFFCE0FB93 		      	std  	r3,-50[bp]
                        		      	;    			exp = 0;
FFFC4B00 FFFEC03B93 		      	std  	r0,-20[bp]
FFFC4B05 002BC00046 		      	bra  	prtflt_51
                        	prtflt_50:
                        		      	;    		else if (exp >= -6)
FFFC4B0A FFFEC0FB86 		      	ldd  	r3,-20[bp]
FFFC4B10 00153E8358 		      	blt  	r3,#-6,prtflt_52
                        		      	;    			digits_before_decpt = 1;
FFFC4B15 000010C009 		      	ld   	r3,#1
FFFC4B1A FFFCE0FB93 		      	std  	r3,-50[bp]
FFFC4B20 0010C00046 		      	bra  	prtflt_53
                        	prtflt_52:
                        		      	;    			digits_before_decpt = -1;
FFFC4B25 FFFFF0C009 		      	ld   	r3,#-1
FFFC4B2A FFFCE0FB93 		      	std  	r3,-50[bp]
                        	prtflt_53:
                        	prtflt_51:
                        		      	;    	j1:;
                        	prtflt_24:
                        		      	;    	    if (exp < -6) {
FFFC4B30 FFFEC0FB86 		      	ldd  	r3,-20[bp]
FFFC4B35 00503E8359 		      	bge  	r3,#-6,prtflt_54
                        		      	;    			buf[ndx] = '0';
FFFC4B3A FFFF613B86 		      	ldd  	r4,-10[bp]
FFFC4B40 0000A0C411 		      	mulu 	r3,r4,#10
FFFC4B45 0003010009 		      	ld   	r4,#48
FFFC4B4A 000040D2B3 		      	std  	r4,[r18+r3]
                        		      	;    			ndx++;
FFFC4B50 FFFF60FB86 		      	ldd  	r3,-10[bp]
FFFC4B55 000010C304 		      	add  	r3,r3,#1
FFFC4B5A FFFF60FB93 		      	std  	r3,-10[bp]
                        		      	;    	        buf[ndx] = '.';
FFFC4B60 FFFF613B86 		      	ldd  	r4,-10[bp]
FFFC4B65 0000A0C411 		      	mulu 	r3,r4,#10
FFFC4B6A 0002E10009 		      	ld   	r4,#46
FFFC4B70 000040D2B3 		      	std  	r4,[r18+r3]
                        		      	;    	        ndx++;
FFFC4B75 FFFF60FB86 		      	ldd  	r3,-10[bp]
FFFC4B7A 000010C304 		      	add  	r3,r3,#1
FFFC4B80 FFFF60FB93 		      	std  	r3,-10[bp]
                        	prtflt_54:
                        		      	;    	    for (nn = 0; nn < 30 && precision > 0; nn++) {
FFFC4B85 FFFD803B93 		      	std  	r0,-40[bp]
                        	prtflt_56:
FFFC4B8A FFFD80FB86 		      	ldd  	r3,-40[bp]
FFFC4B90 0110078359 		      	bge  	r3,#30,prtflt_57
FFFC4B95 010B00165A 		      	ble  	r22,#0,prtflt_57
                        		      	;    	        digit = 0;
FFFC4B9A FFFE203B93 		      	std  	r0,-30[bp]
                        		      	;    			dbla = dbl;
FFFC4BA0 000850CEE7 		      	sf.d 	fp20,-104[bp]
                        		      	;    	        while (dbl >= dbl2) {
                        	prtflt_59:
FFFC4BA5 00080C7EE6 		      	lf.d 	fp3,-114[bp]
FFFC4BAA 0009A0D401 		      	fblt.t	fp20,fp3,prtflt_60
                        		      	;    	            dbl -= dbl2;
FFFC4BB0 00080C7EE6 		      	lf.d 	fp3,-114[bp]
FFFC4BB5 005050D4F9 		      	fsub.d	fp20,fp20,fp3
                        		      	;    	            digit++;
FFFC4BBA FFFE20FB86 		      	ldd  	r3,-30[bp]
FFFC4BC0 000010C304 		      	add  	r3,r3,#1
FFFC4BC5 FFFE20FB93 		      	std  	r3,-30[bp]
FFFC4BCA FFDBC00046 		      	bra  	prtflt_59
                        	prtflt_60:
                        		      	;    	        buf[ndx] = digit + '0';
FFFC4BD0 FFFF613B86 		      	ldd  	r4,-10[bp]
FFFC4BD5 0000A0C411 		      	mulu 	r3,r4,#10
FFFC4BDA FFFE217B86 		      	ldd  	r5,-30[bp]
FFFC4BE0 0003018009 		      	ld   	r6,#48
FFFC4BE5 1701800602 		      	sxh  	r6,r6
FFFC4BEA 0400418502 		      	add  	r4,r5,r6
	      	std  	r4,[r18+r3]
FFFC4BF0 000040D2B3 
                        		      	;    			if (digit > 2)
FFFC4BF5 FFFE20FB86 		      	ldd  	r3,-30[bp]
FFFC4BFA 002600835A 		      	ble  	r3,#2,prtflt_61
                        		      	;    				dbl = dbla - dbl2 * digit;
FFFC4C00 000810CEE6 		      	lf.d 	fp4,-104[bp]
FFFC4C05 0008187EE6 		      	lf.d 	fp6,-114[bp]
FFFC4C0A FFFE223B86 		      	ldd  	r8,-30[bp]
FFFC4C10 FFFFFFFFFF 		      	itof.d	fp7,r8
FFFC4C15 001481C6F9 		      	fmul.d	fp5,fp6,fp7
FFFC4C1A 000C5144F9 		      	fsub.d	fp3,fp4,fp5
                        		      	lf.d 	fp20,fp3
                        	prtflt_61:
                        		      	;    	        ndx++;
FFFC4C20 FFFF60FB86 		      	ldd  	r3,-10[bp]
FFFC4C25 000010C304 		      	add  	r3,r3,#1
FFFC4C2A FFFF60FB93 		      	std  	r3,-10[bp]
                        		      	;    	        digits_before_decpt--;
FFFC4C30 FFFCE0FB86 		      	ldd  	r3,-50[bp]
FFFC4C35 FFFFF0C304 		      	sub  	r3,r3,#1
FFFC4C3A FFFCE0FB93 		      	std  	r3,-50[bp]
                        		      	;    	        if (digits_before_decpt==0) {
FFFC4C40 FFFCE0FB86 		      	ldd  	r3,-50[bp]
FFFC4C45 0030000357 		      	bne  	r3,#0,prtflt_63
                        		      	;    	           buf[ndx] = '.';
FFFC4C4A FFFF613B86 		      	ldd  	r4,-10[bp]
FFFC4C50 0000A0C411 		      	mulu 	r3,r4,#10
FFFC4C55 0002E10009 		      	ld   	r4,#46
FFFC4C5A 000040D2B3 		      	std  	r4,[r18+r3]
                        		      	;    	           ndx++;
FFFC4C60 FFFF60FB86 		      	ldd  	r3,-10[bp]
FFFC4C65 000010C304 		      	add  	r3,r3,#1
FFFC4C6A FFFF60FB93 		      	std  	r3,-10[bp]
FFFC4C70 0015C00046 		      	bra  	prtflt_64
                        	prtflt_63:
                        		      	;    	        else if (digits_before_decpt < 0)
FFFC4C75 FFFCE0FB86 		      	ldd  	r3,-50[bp]
FFFC4C7A 000B000359 		      	bge  	r3,#0,prtflt_65
                        		      	;    	            precision--;
FFFC4C80 FFFFF59604 		      	sub  	r22,r22,#1
                        	prtflt_65:
                        	prtflt_64:
                        		      	;    	        dbl *= 10.0;
                        		      	lf.d 	fp3,prtflt_23
FFFC4C85 005080D4F9 		      	fmul.d	fp20,fp20,fp3
                        	prtflt_58:
FFFC4C8A FFFD80FB86 		      	ldd  	r3,-40[bp]
FFFC4C90 000010C304 		      	add  	r3,r3,#1
FFFC4C95 FFFD80FB93 		      	std  	r3,-40[bp]
FFFC4C9A FEF0C00046 		      	bra  	prtflt_56
                        	prtflt_57:
                        		      	;    	    do {
                        	prtflt_67:
                        		      	;    	        ndx--;
FFFC4CA0 FFFF60FB86 		      	ldd  	r3,-10[bp]
FFFC4CA5 FFFFF0C304 		      	sub  	r3,r3,#1
FFFC4CAA FFFF60FB93 		      	std  	r3,-10[bp]
FFFC4CB0 FFFF613B86 		      	ldd  	r4,-10[bp]
FFFC4CB5 0000A0C411 		      	mulu 	r3,r4,#10
FFFC4CBA 000030D2A6 		      	ldd  	r3,[r18+r3]
FFFC4CC0 0003010009 		      	ld   	r4,#48
FFFC4CC5 1701000402 		      	sxh  	r4,r4
FFFC4CCA FFD6010346 		      	beq  	r3,r4,prtflt_67
                        	prtflt_68:
                        		      	;    	    ndx++;
FFFC4CD0 FFFF60FB86 		      	ldd  	r3,-10[bp]
FFFC4CD5 000010C304 		      	add  	r3,r3,#1
FFFC4CDA FFFF60FB93 		      	std  	r3,-10[bp]
                        		      	;    		if (buf[ndx]=='.') {
FFFC4CE0 FFFF613B86 		      	ldd  	r4,-10[bp]
FFFC4CE5 0000A0C411 		      	mulu 	r3,r4,#10
FFFC4CEA 000030D2A6 		      	ldd  	r3,[r18+r3]
FFFC4CF0 0002E10009 		      	ld   	r4,#46
FFFC4CF5 1701000402 		      	sxh  	r4,r4
FFFC4CFA 004B010347 		      	bne  	r3,r4,prtflt_69
                        		      	;    			ndx++;
FFFC4D00 FFFF60FB86 		      	ldd  	r3,-10[bp]
FFFC4D05 000010C304 		      	add  	r3,r3,#1
FFFC4D0A FFFF60FB93 		      	std  	r3,-10[bp]
                        		      	;    			buf[ndx]='0';
FFFC4D10 FFFF613B86 		      	ldd  	r4,-10[bp]
FFFC4D15 0000A0C411 		      	mulu 	r3,r4,#10
FFFC4D1A 0003010009 		      	ld   	r4,#48
FFFC4D20 000040D2B3 		      	std  	r4,[r18+r3]
                        		      	;    			ndx++;
FFFC4D25 FFFF60FB86 		      	ldd  	r3,-10[bp]
FFFC4D2A 000010C304 		      	add  	r3,r3,#1
FFFC4D30 FFFF60FB93 		      	std  	r3,-10[bp]
                        		      	;    	        buf[ndx]='\0';
FFFC4D35 FFFF613B86 		      	ldd  	r4,-10[bp]
FFFC4D3A 0000A0C411 		      	mulu 	r3,r4,#10
FFFC4D40 000000D2B3 		      	std  	r0,[r18+r3]
                        	prtflt_69:
                        		      	;    	    if (exp==0) {
FFFC4D45 FFFEC0FB86 		      	ldd  	r3,-20[bp]
FFFC4D4A 001B000357 		      	bne  	r3,#0,prtflt_71
                        		      	;    	        buf[ndx]='\0';
FFFC4D50 FFFF613B86 		      	ldd  	r4,-10[bp]
FFFC4D55 0000A0C411 		      	mulu 	r3,r4,#10
FFFC4D5A 000000D2B3 		      	std  	r0,[r18+r3]
                        		      	;    	        goto prt;
FFFC4D60 02BAC00046 		      	bra  	prtflt_19
                        	prtflt_71:
                        		      	;    	    buf[ndx] = E;
FFFC4D65 FFFF613B86 		      	ldd  	r4,-10[bp]
FFFC4D6A 0000A0C411 		      	mulu 	r3,r4,#10
FFFC4D70 000170D2B3 		      	std  	r23,[r18+r3]
                        		      	;    	    ndx++;
FFFC4D75 FFFF60FB86 		      	ldd  	r3,-10[bp]
FFFC4D7A 000010C304 		      	add  	r3,r3,#1
FFFC4D80 FFFF60FB93 		      	std  	r3,-10[bp]
                        		      	;    	    if (exp < 0) {
FFFC4D85 FFFEC0FB86 		      	ldd  	r3,-20[bp]
FFFC4D8A 0040000359 		      	bge  	r3,#0,prtflt_73
                        		      	;    	        buf[ndx]='-';
FFFC4D90 FFFF613B86 		      	ldd  	r4,-10[bp]
FFFC4D95 0000A0C411 		      	mulu 	r3,r4,#10
FFFC4D9A 0002D10009 		      	ld   	r4,#45
FFFC4DA0 000040D2B3 		      	std  	r4,[r18+r3]
                        		      	;    	        ndx++;
FFFC4DA5 FFFF60FB86 		      	ldd  	r3,-10[bp]
FFFC4DAA 000010C304 		      	add  	r3,r3,#1
FFFC4DB0 FFFF60FB93 		      	std  	r3,-10[bp]
                        		      	;    	        exp = -exp;
FFFC4DB5 FFFEC13B86 		      	ldd  	r4,-20[bp]
FFFC4DBA 001C310002 		      	neg  	r3,r4
FFFC4DC0 FFFEC0FB93 		      	std  	r3,-20[bp]
FFFC4DC5 002BC00046 		      	bra  	prtflt_74
                        	prtflt_73:
                        		      	;    	         buf[ndx]='+';
FFFC4DCA FFFF613B86 		      	ldd  	r4,-10[bp]
FFFC4DD0 0000A0C411 		      	mulu 	r3,r4,#10
FFFC4DD5 0002B10009 		      	ld   	r4,#43
FFFC4DDA 000040D2B3 		      	std  	r4,[r18+r3]
                        		      	;    	         ndx++;
FFFC4DE0 FFFF60FB86 		      	ldd  	r3,-10[bp]
FFFC4DE5 000010C304 		      	add  	r3,r3,#1
FFFC4DEA FFFF60FB93 		      	std  	r3,-10[bp]
                        	prtflt_74:
                        		      	;    	    digit = 0;
FFFC4DF0 FFFE203B93 		      	std  	r0,-30[bp]
                        		      	;    	    while (exp >= 1000) {
                        	prtflt_75:
FFFC4DF5 FFFEC0FB86 		      	ldd  	r3,-20[bp]
FFFC4DFA 00303A0358 		      	blt  	r3,#1000,prtflt_76
FFFC4E00 00000000C3 
                        		      	;    	        exp -= 1000;
FFFC4E05 FFFEC0FB86 		      	ldd  	r3,-20[bp]
FFFC4E0A FFC180C304 		      	sub  	r3,r3,#1000
FFFC4E10 FFFEC0FB93 		      	std  	r3,-20[bp]
                        		      	;    	        digit++;
FFFC4E15 FFFE20FB86 		      	ldd  	r3,-30[bp]
FFFC4E1A 000010C304 		      	add  	r3,r3,#1
FFFC4E20 FFFE20FB93 		      	std  	r3,-30[bp]
FFFC4E25 FFD0C00046 		      	bra  	prtflt_75
                        	prtflt_76:
                        		      	;    		d1 = digit;
FFFC4E2A FFFE20FB86 		      	ldd  	r3,-30[bp]
FFFC4E30 FFFC40FB93 		      	std  	r3,-60[bp]
                        		      	;    		if (digit) {
FFFC4E35 FFFE20FB86 		      	ldd  	r3,-30[bp]
FFFC4E3A 003B000346 		      	beq  	r3,r0,prtflt_77
                        		      	;    			buf[ndx] = digit + '0';
FFFC4E40 FFFF613B86 		      	ldd  	r4,-10[bp]
FFFC4E45 0000A0C411 		      	mulu 	r3,r4,#10
FFFC4E4A FFFE217B86 		      	ldd  	r5,-30[bp]
FFFC4E50 0003018009 		      	ld   	r6,#48
FFFC4E55 1701800602 		      	sxh  	r6,r6
FFFC4E5A 0400418502 		      	add  	r4,r5,r6
	      	std  	r4,[r18+r3]
FFFC4E60 000040D2B3 
                        		      	;    			ndx++;
FFFC4E65 FFFF60FB86 		      	ldd  	r3,-10[bp]
FFFC4E6A 000010C304 		      	add  	r3,r3,#1
FFFC4E70 FFFF60FB93 		      	std  	r3,-10[bp]
                        	prtflt_77:
                        		      	;    		digit = 0;
FFFC4E75 FFFE203B93 		      	std  	r0,-30[bp]
                        		      	;    	    while (exp >= 100) {
                        	prtflt_79:
FFFC4E7A FFFEC0FB86 		      	ldd  	r3,-20[bp]
FFFC4E80 002A190358 		      	blt  	r3,#100,prtflt_80
                        		      	;    	        exp -= 100;
FFFC4E85 FFFEC0FB86 		      	ldd  	r3,-20[bp]
FFFC4E8A FFF9C0C304 		      	sub  	r3,r3,#100
FFFC4E90 FFFEC0FB93 		      	std  	r3,-20[bp]
                        		      	;    	        digit++;
FFFC4E95 FFFE20FB86 		      	ldd  	r3,-30[bp]
FFFC4E9A 000010C304 		      	add  	r3,r3,#1
FFFC4EA0 FFFE20FB93 		      	std  	r3,-30[bp]
FFFC4EA5 FFD5C00046 		      	bra  	prtflt_79
                        	prtflt_80:
                        		      	;    		d2 = digit;
FFFC4EAA FFFE20FB86 		      	ldd  	r3,-30[bp]
FFFC4EB0 FFFBA0FB93 		      	std  	r3,-70[bp]
                        		      	;    		if (digit==0 && d1==0)
FFFC4EB5 FFFE20FB86 		      	ldd  	r3,-30[bp]
FFFC4EBA 0016000357 		      	bne  	r3,#0,prtflt_81
FFFC4EC0 FFFC40FB86 		      	ldd  	r3,-60[bp]
FFFC4EC5 000B000357 		      	bne  	r3,#0,prtflt_81
                        		      	;    			;
FFFC4ECA 003BC00046 		      	bra  	prtflt_82
                        	prtflt_81:
                        		      	;    			buf[ndx] = digit + '0';
FFFC4ED0 FFFF613B86 		      	ldd  	r4,-10[bp]
FFFC4ED5 0000A0C411 		      	mulu 	r3,r4,#10
FFFC4EDA FFFE217B86 		      	ldd  	r5,-30[bp]
FFFC4EE0 0003018009 		      	ld   	r6,#48
FFFC4EE5 1701800602 		      	sxh  	r6,r6
FFFC4EEA 0400418502 		      	add  	r4,r5,r6
	      	std  	r4,[r18+r3]
FFFC4EF0 000040D2B3 
                        		      	;    			ndx++;
FFFC4EF5 FFFF60FB86 		      	ldd  	r3,-10[bp]
FFFC4EFA 000010C304 		      	add  	r3,r3,#1
FFFC4F00 FFFF60FB93 		      	std  	r3,-10[bp]
                        	prtflt_82:
                        		      	;    		digit = 0;
FFFC4F05 FFFE203B93 		      	std  	r0,-30[bp]
                        		      	;    	    while (exp >= 10) {
                        	prtflt_83:
FFFC4F0A FFFEC0FB86 		      	ldd  	r3,-20[bp]
FFFC4F10 002A028358 		      	blt  	r3,#10,prtflt_84
                        		      	;    	        exp -= 10;
FFFC4F15 FFFEC0FB86 		      	ldd  	r3,-20[bp]
FFFC4F1A FFFF60C304 		      	sub  	r3,r3,#10
FFFC4F20 FFFEC0FB93 		      	std  	r3,-20[bp]
                        		      	;    	        digit++;
FFFC4F25 FFFE20FB86 		      	ldd  	r3,-30[bp]
FFFC4F2A 000010C304 		      	add  	r3,r3,#1
FFFC4F30 FFFE20FB93 		      	std  	r3,-30[bp]
FFFC4F35 FFD5C00046 		      	bra  	prtflt_83
                        	prtflt_84:
                        		      	;    		d3 = digit;
FFFC4F3A FFFE20FB86 		      	ldd  	r3,-30[bp]
FFFC4F40 FFFB00FB93 		      	std  	r3,-80[bp]
                        		      	;    		if (digit==0 && d1==0 && d2==0)
FFFC4F45 FFFE20FB86 		      	ldd  	r3,-30[bp]
FFFC4F4A 0020000357 		      	bne  	r3,#0,prtflt_85
FFFC4F50 FFFC40FB86 		      	ldd  	r3,-60[bp]
FFFC4F55 0015000357 		      	bne  	r3,#0,prtflt_85
FFFC4F5A FFFBA0FB86 		      	ldd  	r3,-70[bp]
FFFC4F60 000A000357 		      	bne  	r3,#0,prtflt_85
                        		      	;    			;
FFFC4F65 003BC00046 		      	bra  	prtflt_86
                        	prtflt_85:
                        		      	;    			buf[ndx] = digit + '0';
FFFC4F6A FFFF613B86 		      	ldd  	r4,-10[bp]
FFFC4F70 0000A0C411 		      	mulu 	r3,r4,#10
FFFC4F75 FFFE217B86 		      	ldd  	r5,-30[bp]
FFFC4F7A 0003018009 		      	ld   	r6,#48
FFFC4F80 1701800602 		      	sxh  	r6,r6
FFFC4F85 0400418502 		      	add  	r4,r5,r6
	      	std  	r4,[r18+r3]
FFFC4F8A 000040D2B3 
                        		      	;    			ndx++;
FFFC4F90 FFFF60FB86 		      	ldd  	r3,-10[bp]
FFFC4F95 000010C304 		      	add  	r3,r3,#1
FFFC4F9A FFFF60FB93 		      	std  	r3,-10[bp]
                        	prtflt_86:
                        		      	;    		digit = 0;
FFFC4FA0 FFFE203B93 		      	std  	r0,-30[bp]
                        		      	;    	    while (exp >= 1) {
                        	prtflt_87:
FFFC4FA5 FFFEC0FB86 		      	ldd  	r3,-20[bp]
FFFC4FAA 002B004358 		      	blt  	r3,#1,prtflt_88
                        		      	;    	        exp -= 1;
FFFC4FB0 FFFEC0FB86 		      	ldd  	r3,-20[bp]
FFFC4FB5 FFFFF0C304 		      	sub  	r3,r3,#1
FFFC4FBA FFFEC0FB93 		      	std  	r3,-20[bp]
                        		      	;    	        digit++;
FFFC4FC0 FFFE20FB86 		      	ldd  	r3,-30[bp]
FFFC4FC5 000010C304 		      	add  	r3,r3,#1
FFFC4FCA FFFE20FB93 		      	std  	r3,-30[bp]
FFFC4FD0 FFD5C00046 		      	bra  	prtflt_87
                        	prtflt_88:
                        		      	;    	    buf[ndx] = digit + '0';
FFFC4FD5 FFFF613B86 		      	ldd  	r4,-10[bp]
FFFC4FDA 0000A0C411 		      	mulu 	r3,r4,#10
FFFC4FE0 FFFE217B86 		      	ldd  	r5,-30[bp]
FFFC4FE5 0003018009 		      	ld   	r6,#48
FFFC4FEA 1701800602 		      	sxh  	r6,r6
FFFC4FF0 0400418502 		      	add  	r4,r5,r6
	      	std  	r4,[r18+r3]
FFFC4FF5 000040D2B3 
                        		      	;    	    ndx++;
FFFC4FFA FFFF60FB86 		      	ldd  	r3,-10[bp]
FFFC5000 000010C304 		      	add  	r3,r3,#1
FFFC5005 FFFF60FB93 		      	std  	r3,-10[bp]
                        		      	;    	    buf[ndx] = '\0';
FFFC500A FFFF613B86 		      	ldd  	r4,-10[bp]
FFFC5010 0000A0C411 		      	mulu 	r3,r4,#10
FFFC5015 000000D2B3 		      	std  	r0,[r18+r3]
                        		      	;    	prt:;
                        	prtflt_19:
                        		      	;    	    if (width > 0) {
FFFC501A 00AB00155A 		      	ble  	r21,#0,prtflt_89
                        		      	;    	        if (ndx < width) {
FFFC5020 FFFF60FB86 		      	ldd  	r3,-10[bp]
FFFC5025 00A0054349 		      	bge  	r3,r21,prtflt_91
                        		      	;    	            for (nn = 39; nn >= width-ndx; nn--)
FFFC502A 000270C009 		      	ld   	r3,#39
FFFC5030 FFFD80FB93 		      	std  	r3,-40[bp]
                        	prtflt_93:
FFFC5035 FFFD80FB86 		      	ldd  	r3,-40[bp]
FFFC503A FFFF617B86 		      	ldd  	r5,-10[bp]
FFFC5040 0700415502 		      	sub  	r4,r21,r5
	      	blt  	r3,r4,prtflt_94
FFFC5045 004B010348 
                        		      	;    	                buf[nn] = buf[nn-(width-ndx)];
FFFC504A FFFD813B86 		      	ldd  	r4,-40[bp]
FFFC5050 0000A0C411 		      	mulu 	r3,r4,#10
FFFC5055 FFFD81BB86 		      	ldd  	r6,-40[bp]
FFFC505A FFFF623B86 		      	ldd  	r8,-10[bp]
FFFC5060 0700721502 		      	sub  	r7,r21,r8
	      	sub  	r5,r6,r7
	      	mulu 	r4,r5,#10
FFFC5065 070051C602 
FFFC506A 0000A10511 
FFFC5070 00005112A6 		      	ldd  	r5,[r18+r4]
FFFC5075 000050D2B3 		      	std  	r5,[r18+r3]
                        	prtflt_95:
FFFC507A FFFD80FB86 		      	ldd  	r3,-40[bp]
FFFC5080 FFFFF0C304 		      	sub  	r3,r3,#1
FFFC5085 FFFD80FB93 		      	std  	r3,-40[bp]
FFFC508A FFABC00046 		      	bra  	prtflt_93
                        	prtflt_94:
                        		      	;    	            for (; nn >= 0; nn--)
                        	prtflt_96:
FFFC5090 FFFD80FB86 		      	ldd  	r3,-40[bp]
FFFC5095 0030000358 		      	blt  	r3,#0,prtflt_97
                        		      	;    	                buf[nn] = ' ';
FFFC509A FFFD813B86 		      	ldd  	r4,-40[bp]
FFFC50A0 0000A0C411 		      	mulu 	r3,r4,#10
FFFC50A5 0002010009 		      	ld   	r4,#32
FFFC50AA 000040D2B3 		      	std  	r4,[r18+r3]
                        	prtflt_98:
FFFC50B0 FFFD80FB86 		      	ldd  	r3,-40[bp]
FFFC50B5 FFFFF0C304 		      	sub  	r3,r3,#1
FFFC50BA FFFD80FB93 		      	std  	r3,-40[bp]
FFFC50C0 FFD0C00046 		      	bra  	prtflt_96
                        	prtflt_97:
                        	prtflt_91:
                        	prtflt_89:
                        		      	;    	    if (width < 0) {
FFFC50C5 0055001559 		      	bge  	r21,#0,prtflt_99
                        		      	;    	        width = -width;
FFFC50CA 001C354002 		      	neg  	r3,r21
FFFC50D0 0000054330 		      	mov  	r21,r3
                        		      	;    	        while (ndx < width) {
                        	prtflt_101:
FFFC50D5 FFFF60FB86 		      	ldd  	r3,-10[bp]
FFFC50DA 0030054349 		      	bge  	r3,r21,prtflt_102
                        		      	;    	            buf[ndx]=' ';
FFFC50E0 FFFF613B86 		      	ldd  	r4,-10[bp]
FFFC50E5 0000A0C411 		      	mulu 	r3,r4,#10
FFFC50EA 0002010009 		      	ld   	r4,#32
FFFC50F0 000040D2B3 		      	std  	r4,[r18+r3]
                        		      	;    	            ndx++;
FFFC50F5 FFFF60FB86 		      	ldd  	r3,-10[bp]
FFFC50FA 000010C304 		      	add  	r3,r3,#1
FFFC5100 FFFF60FB93 		      	std  	r3,-10[bp]
FFFC5105 FFD0C00046 		      	bra  	prtflt_101
                        	prtflt_102:
                        		      	;    	        buf[ndx]='\0';
FFFC510A FFFF613B86 		      	ldd  	r4,-10[bp]
FFFC5110 0000A0C411 		      	mulu 	r3,r4,#10
FFFC5115 000000D2B3 		      	std  	r0,[r18+r3]
                        	prtflt_99:
                        		      	;    	    return (ndx);
FFFC511A FFFF607B86 		      	ldd  	r1,-10[bp]
FFFC5120 F810C00046 		      	bra  	prtflt_31
                        	prtflt_25:
FFFC5125 0000ADFB86 		      	ldd  	lr,10[bp]
FFFC512A 00014DFB93 		      	std  	lr,20[bp]
FFFC5130 F800C00046 		      	bra  	prtflt_31
                        	_sprtfltSTKSIZE_ EQU 114
                        	_prtflt:
FFFC5135 0000000053 		      	tgt  
FFFC513A 0000003A70 		      	push 	xlr
FFFC5140 0000003B70 		      	push 	bp
FFFC5145 C5230E8009 		      	ld   	xlr,#prtflt_103
FFFC514A 000000FFCF 
FFFC5150 00000EFF30 		      	mov  	bp,sp
FFFC5155 FFE02FFF04 		      	sub  	sp,sp,#_prtfltSTKSIZE_
                        		      	;    	    int buf[50];
                        		      	;    	    if (width > 49)
FFFC515A 000B0C535A 		      	ble  	r19,#49,prtflt_106
                        		      	;    	       width = 49;
FFFC5160 000314C009 		      	ld   	r19,#49
                        	prtflt_106:
                        		      	;    	    if (width < -49)
FFFC5165 000B33D359 		      	bge  	r19,#-49,prtflt_108
                        		      	;    	       width = -49;
FFFC516A FFFCF4C009 		      	ld   	r19,#-49
                        	prtflt_108:
                        		      	;    	    nn = sprtflt(buf, 50, dbl, width, precision, E);
FFFC5170 0000001270 		      	push 	r18
FFFC5175 0000001370 		      	push 	r19
FFFC517A 0000001470 		      	push 	r20
FFFC5180 0000001570 		      	push 	r21
FFFC5185 0000001670 		      	push 	r22
FFFC518A 0000001770 		      	push 	r23
FFFC5190 000005D530 		      	mov  	r23,r21
FFFC5195 0000059430 		      	mov  	r22,r20
FFFC519A 0000055330 		      	mov  	r21,r19
FFFC51A0 0000051230 		      	mov  	r20,fp18
FFFC51A5 000324C009 		      	ld   	r19,#50
FFFC51AA FFE0C0FB25 		      	lea  	r3,-500[bp]
FFFC51B0 0000048330 		      	mov  	r18,r3
FFFC51B5 C490000050 		      	call 	_sprtflt
FFFC51BA 000000FFCF 
FFFC51C0 0000001771 		      	pop  	r23
FFFC51C5 0000001671 		      	pop  	r22
FFFC51CA 0000001571 		      	pop  	r21
FFFC51D0 0000001471 		      	pop  	r20
FFFC51D5 0000001371 		      	pop  	r19
FFFC51DA 0000001271 		      	pop  	r18
FFFC51E0 FFE0207B93 		      	std  	r1,-510[bp]
                        		      	;    	    putstrW(buf,49);
FFFC51E5 0000001270 		      	push 	r18
FFFC51EA 0000001370 		      	push 	r19
FFFC51F0 000314C009 		      	ld   	r19,#49
FFFC51F5 FFE0C0FB25 		      	lea  	r3,-500[bp]
FFFC51FA 0000048330 		      	mov  	r18,r3
FFFC5200 C335A00050 		      	call 	_putstrW
FFFC5205 000000FFCF 
FFFC520A 0000001371 		      	pop  	r19
FFFC5210 0000001271 		      	pop  	r18
                        		      	;    	    return (nn);
FFFC5215 FFE0207B86 		      	ldd  	r1,-510[bp]
                        	prtflt_110:
FFFC521A 00000FFB30 		      	mov  	sp,bp
FFFC5220 0000003B71 		      	pop  	bp
FFFC5225 0000003A71 		      	pop  	xlr
FFFC522A 0000000AEF 		      	ret  	#10
                        	prtflt_103:
FFFC5230 0000ADFB86 		      	ldd  	lr,10[bp]
FFFC5235 00014DFB93 		      	std  	lr,20[bp]
FFFC523A FFE0C00046 		      	bra  	prtflt_110
                        	_prtfltSTKSIZE_ EQU 510
                        		code
                        		align	16                        	
                        	_LockSemaphore:
FFFC5240 0000000053 		      	tgt  
FFFC5245 0000003A70 		      	push 	xlr
FFFC524A 0000003B70 		      	push 	bp
FFFC5250 00000EFF30 		      	mov  	bp,sp
FFFC5255 00000FFF04 		      	sub  	sp,sp,#_LockSemaphoreSTKSIZE_
                        		      	     	
FFFC525A 0008004009 				ldi		r1,#128
                        				.0001:
FFFC5260 005500134A 				ble     r19,r0,.0004
FFFC5265 FFFFF4D304 				sub		r19,r19,#1  
FFFC526A 300401000F 				csrrw	r4,#$10,r0			// get task register
FFFC5270 000000D28E 				ldvdar  r3,[r18]
FFFC5275 0035010346 				beq     r3,r4,.0002			// test if already locked by this task
FFFC527A FFE6000347 				bne     r3,r0,.0001         // branch if not free
                        				//chk     r3,r0,#256         ; check if locked by a valid task
                        				.0003:
FFFC5280 C060004094 				stt		r1,$FFDC0600
FFFC5285 000000FFCD 
FFFC528A 000800410A 				xor		r1,r1,#$80
FFFC5290 0000011295 				stdcr   r4,[r18]            // try and lock it
FFFC5295 000000001A 				nop                         // cr0 needs time to update???
FFFC529A 000000001A 				nop
FFFC52A0 300300C00F 				csrrw   r3,#$00C,r0			// status is bit 0 of csr $00C
FFFC52A5 FFBB000354 				bbc     r3,#0,.0001         // lock failed, go try again
                        				.0002:
FFFC52AA 0000104009 				ld      r1,#1
FFFC52B0 000AC00046 				bra     .0005
                        				.0004:
FFFC52B5 0000004009 				ld		r1,#0
                        				.0005:
                        	LockSemaphore_3:
FFFC52BA 00000FFB30 		      	mov  	sp,bp
FFFC52C0 0000003B71 		      	pop  	bp
FFFC52C5 0000003A71 		      	pop  	xlr
FFFC52CA 0000000AEF 		      	ret  	#10
                        	_LockSemaphoreSTKSIZE_ EQU 0
                        		code
                        		align	16                        	
                        	_UnlockSemaphore:
FFFC52D0 0000000053 		      	tgt  
FFFC52D5 0000003A70 		      	push 	xlr
FFFC52DA 0000003B70 		      	push 	bp
FFFC52E0 00000EFF30 		      	mov  	bp,sp
FFFC52E5 00000FFF04 		      	sub  	sp,sp,#_UnlockSemaphoreSTKSIZE_
                        		      	     	
FFFC52EA 0000001293 				std		r0,[r18]
                        	UnlockSemaphore_3:
FFFC52F0 00000FFB30 		      	mov  	sp,bp
FFFC52F5 0000003B71 		      	pop  	bp
FFFC52FA 0000003A71 		      	pop  	xlr
FFFC5300 0000000AEF 		      	ret  	#10
                        	_UnlockSemaphoreSTKSIZE_ EQU 0
                        		code
FFFC5305 0000000000 		align	1
FFFC530A 0000000000 
                        	
                        	_UnlockSemaphoreSTKSIZE_ EQU 0
                        	_SetVBASTKSIZE_ EQU 0
                        	_LEDSSTKSIZE_ EQU 0
FFFC5310 0000000053 	public code _GetScreenLocation:
	      	tgt  
FFFC5315 0000003A70 		      	push 	xlr
FFFC531A 0000003B70 		      	push 	bp
FFFC5320 00000E8030 		      	mov  	xlr,r0
FFFC5325 00000EFF30 		      	mov  	bp,sp
FFFC532A 00000FFF04 		      	sub  	sp,sp,#_GetScreenLocationSTKSIZE_
FFFC5330 C72F000050 		      	call 	_GetJCBPtr
FFFC5335 000000FFCF 
FFFC533A 0065404186 		      	ldd  	r1,1620[r1]
                        	console_3:
FFFC5340 00000FFB30 		      	mov  	sp,bp
FFFC5345 0000003B71 		      	pop  	bp
FFFC534A 0000003A71 		      	pop  	xlr
FFFC5350 0000000AEF 		      	ret  	#10
                        	console_0:
FFFC5355 0000ADFB86 		      	ldd  	lr,10[bp]
FFFC535A 00014DFB93 		      	std  	lr,20[bp]
FFFC5360 FFE0C00046 		      	bra  	console_3
                        	endpublic
                        	
                        	_GetScreenLocationSTKSIZE_ EQU 0
FFFC5365 0000000053 	public code _GetCurrAttr:
	      	tgt  
FFFC536A 0000003A70 		      	push 	xlr
FFFC5370 0000003B70 		      	push 	bp
FFFC5375 C53B0E8009 		      	ld   	xlr,#console_4
FFFC537A 000000FFCF 
FFFC5380 00000EFF30 		      	mov  	bp,sp
FFFC5385 00000FFF04 		      	sub  	sp,sp,#_GetCurrAttrSTKSIZE_
FFFC538A C72F000050 		      	call 	_GetJCBPtr
FFFC5390 000000FFCF 
FFFC5395 0067204186 		      	ldd  	r1,1650[r1]
                        	console_7:
FFFC539A 00000FFB30 		      	mov  	sp,bp
FFFC53A0 0000003B71 		      	pop  	bp
FFFC53A5 0000003A71 		      	pop  	xlr
FFFC53AA 0000000AEF 		      	ret  	#10
                        	console_4:
FFFC53B0 0000ADFB86 		      	ldd  	lr,10[bp]
FFFC53B5 00014DFB93 		      	std  	lr,20[bp]
FFFC53BA FFE0C00046 		      	bra  	console_7
                        	endpublic
                        	
                        	_GetCurrAttrSTKSIZE_ EQU 0
                        	_SetCurrAttr:
FFFC53C0 0000000053 		      	tgt  
FFFC53C5 0000003A70 		      	push 	xlr
FFFC53CA 0000003B70 		      	push 	bp
FFFC53D0 C5410E8009 		      	ld   	xlr,#console_8
FFFC53D5 000000FFCF 
FFFC53DA 00000EFF30 		      	mov  	bp,sp
FFFC53E0 00000FFF04 		      	sub  	sp,sp,#_SetCurrAttrSTKSIZE_
FFFC53E5 C72F000050 		      	call 	_GetJCBPtr
FFFC53EA 000000FFCF 
FFFC53F0 FFC000D208 		      	and  	r3,r18,#-1024
FFFC53F5 006720C193 		      	std  	r3,1650[r1]
                        	console_11:
FFFC53FA 00000FFB30 		      	mov  	sp,bp
FFFC5400 0000003B71 		      	pop  	bp
FFFC5405 0000003A71 		      	pop  	xlr
FFFC540A 0000000AEF 		      	ret  	#10
                        	console_8:
FFFC5410 0000ADFB86 		      	ldd  	lr,10[bp]
FFFC5415 00014DFB93 		      	std  	lr,20[bp]
FFFC541A FFE0C00046 		      	bra  	console_11
                        	_SetCurrAttrSTKSIZE_ EQU 0
                        	_SetVideoReg:
FFFC5420 0000000053 		      	tgt  
FFFC5425 0000003A70 		      	push 	xlr
FFFC542A 0000003B70 		      	push 	bp
FFFC5430 C549AE8009 		      	ld   	xlr,#console_14
FFFC5435 000000FFCF 
FFFC543A 00000EFF30 		      	mov  	bp,sp
FFFC5440 00000FFF04 		      	sub  	sp,sp,#_SetVideoRegSTKSIZE_
FFFC5445 000B001258 		      	blt  	r18,#0,console_19
FFFC544A 003B02D25A 		      	ble  	r18,#11,console_17
                        	console_19:
FFFC5450 0000001270 		      	push 	r18
FFFC5455 CE0900009C 		      	push 	#console_13
FFFC545A 000000FFCF 
FFFC5460 C351000050 		      	call 	_printf
FFFC5465 000000FFCF 
FFFC546A 00014FFF04 		      	add  	sp,sp,#20
                        	console_20:
FFFC5470 00000FFB30 		      	mov  	sp,bp
FFFC5475 0000003B71 		      	pop  	bp
FFFC547A 0000003A71 		      	pop  	xlr
FFFC5480 0000000AEF 		      	ret  	#10
                        	console_17:
                        		      	     	
FFFC5485 4000109202 				shl  r1,r18,#2
FFFC548A A00004C194 				stt  r19,$FFDA0000[r1]
FFFC5490 000000FFCD 
FFFC5495 FFDBC00046 		      	bra  	console_20
                        	console_14:
FFFC549A 0000ADFB86 		      	ldd  	lr,10[bp]
FFFC54A0 00014DFB93 		      	std  	lr,20[bp]
FFFC54A5 FFCBC00046 		      	bra  	console_20
                        	_SetVideoRegSTKSIZE_ EQU 0
                        	_DBGSetVideoReg:
FFFC54AA 0000000053 		      	tgt  
FFFC54B0 0000003A70 		      	push 	xlr
FFFC54B5 0000003B70 		      	push 	bp
FFFC54BA 00000EFF30 		      	mov  	bp,sp
FFFC54C0 00000FFF04 		      	sub  	sp,sp,#_DBGSetVideoRegSTKSIZE_
                        		      	     	
FFFC54C5 C008048094 				stt	r18,$FFDC0080
FFFC54CA 000000FFCD 
FFFC54D0 4000109202 				shl	r1,r18,#2
FFFC54D5 A00004C194 				stt	r19,$FFDA0000[r1]
FFFC54DA 000000FFCD 
                        	console_25:
FFFC54E0 00000FFB30 		      	mov  	sp,bp
FFFC54E5 0000003B71 		      	pop  	bp
FFFC54EA 0000003A71 		      	pop  	xlr
FFFC54F0 0000000AEF 		      	ret  	#10
                        	_DBGSetVideoRegSTKSIZE_ EQU 0
                        	_SetCursorPos:
FFFC54F5 0000000053 		      	tgt  
FFFC54FA 0000003A70 		      	push 	xlr
FFFC5500 0000003B70 		      	push 	bp
FFFC5505 C556AE8009 		      	ld   	xlr,#console_26
FFFC550A 000000FFCF 
FFFC5510 00000EFF30 		      	mov  	bp,sp
FFFC5515 FFFF6FFF04 		      	sub  	sp,sp,#_SetCursorPosSTKSIZE_
FFFC551A 0000000B70 		      	push 	r11
FFFC5520 C72F000050 		      	call 	_GetJCBPtr
FFFC5525 000000FFCF 
FFFC552A 000002C130 		      	mov  	r11,r1
FFFC5530 0FFFF4D308 		      	and  	r19,r19,#65535
FFFC5535 0066E4CB91 		      	stw  	r19,1646[r11]
FFFC553A 0FFFF49208 		      	and  	r18,r18,#65535
FFFC5540 0066C48B91 		      	stw  	r18,1644[r11]
FFFC5545 C585000050 		      	call 	_UpdateCursorPos
FFFC554A 000000FFCF 
                        	console_29:
FFFC5550 0000000B71 		      	pop  	r11
FFFC5555 00000FFB30 		      	mov  	sp,bp
FFFC555A 0000003B71 		      	pop  	bp
FFFC5560 0000003A71 		      	pop  	xlr
FFFC5565 0000000AEF 		      	ret  	#10
                        	console_26:
FFFC556A 0000ADFB86 		      	ldd  	lr,10[bp]
FFFC5570 00014DFB93 		      	std  	lr,20[bp]
FFFC5575 FFDBC00046 		      	bra  	console_29
                        	_SetCursorPosSTKSIZE_ EQU 10
                        	_SetCursorCol:
FFFC557A 0000000053 		      	tgt  
FFFC5580 0000003A70 		      	push 	xlr
FFFC5585 0000003B70 		      	push 	bp
FFFC558A C55E5E8009 		      	ld   	xlr,#console_30
FFFC5590 000000FFCF 
FFFC5595 00000EFF30 		      	mov  	bp,sp
FFFC559A FFFF6FFF04 		      	sub  	sp,sp,#_SetCursorColSTKSIZE_
FFFC55A0 0000000B70 		      	push 	r11
FFFC55A5 C72F000050 		      	call 	_GetJCBPtr
FFFC55AA 000000FFCF 
FFFC55B0 000002C130 		      	mov  	r11,r1
FFFC55B5 0FFFF49208 		      	and  	r18,r18,#65535
FFFC55BA 0066E48B91 		      	stw  	r18,1646[r11]
FFFC55C0 C585000050 		      	call 	_UpdateCursorPos
FFFC55C5 000000FFCF 
                        	console_33:
FFFC55CA 0000000B71 		      	pop  	r11
FFFC55D0 00000FFB30 		      	mov  	sp,bp
FFFC55D5 0000003B71 		      	pop  	bp
FFFC55DA 0000003A71 		      	pop  	xlr
FFFC55E0 0000000AEF 		      	ret  	#10
                        	console_30:
FFFC55E5 0000ADFB86 		      	ldd  	lr,10[bp]
FFFC55EA 00014DFB93 		      	std  	lr,20[bp]
FFFC55F0 FFDAC00046 		      	bra  	console_33
                        	_SetCursorColSTKSIZE_ EQU 10
FFFC55F5 0000000053 	public code _GetCursorPos:
	      	tgt  
FFFC55FA 0000003A70 		      	push 	xlr
FFFC5600 0000003B70 		      	push 	bp
FFFC5605 C5660E8009 		      	ld   	xlr,#console_34
FFFC560A 000000FFCF 
FFFC5610 00000EFF30 		      	mov  	bp,sp
FFFC5615 FFFF6FFF04 		      	sub  	sp,sp,#_GetCursorPosSTKSIZE_
FFFC561A 0000000B70 		      	push 	r11
FFFC5620 C72F000050 		      	call 	_GetJCBPtr
FFFC5625 000000FFCF 
FFFC562A 000002C130 		      	mov  	r11,r1
FFFC5630 0066E10B82 		      	ldw  	r4,1646[r11]
FFFC5635 0066C18B82 		      	ldw  	r6,1644[r11]
FFFC563A 4000520602 		      	shl  	r5,r6,#8
FFFC5640 0900114402 		      	or   	r1,r4,r5
console_37:
FFFC5645 0000000B71 		      	pop  	r11
FFFC564A 00000FFB30 		      	mov  	sp,bp
FFFC5650 0000003B71 		      	pop  	bp
FFFC5655 0000003A71 		      	pop  	xlr
FFFC565A 0000000AEF 		      	ret  	#10
                        	console_34:
FFFC5660 0000ADFB86 		      	ldd  	lr,10[bp]
FFFC5665 00014DFB93 		      	std  	lr,20[bp]
FFFC566A FFDBC00046 		      	bra  	console_37
                        	endpublic
                        	
                        	_GetCursorPosSTKSIZE_ EQU 10
FFFC5670 0000000053 	public code _GetTextCols:
	      	tgt  
FFFC5675 0000003A70 		      	push 	xlr
FFFC567A 0000003B70 		      	push 	bp
FFFC5680 C56BAE8009 		      	ld   	xlr,#console_38
FFFC5685 000000FFCF 
FFFC568A 00000EFF30 		      	mov  	bp,sp
FFFC5690 00000FFF04 		      	sub  	sp,sp,#_GetTextColsSTKSIZE_
FFFC5695 C72F000050 		      	call 	_GetJCBPtr
FFFC569A 000000FFCF 
FFFC56A0 0066A04182 		      	ldw  	r1,1642[r1]
                        	console_41:
FFFC56A5 00000FFB30 		      	mov  	sp,bp
FFFC56AA 0000003B71 		      	pop  	bp
FFFC56B0 0000003A71 		      	pop  	xlr
FFFC56B5 0000000AEF 		      	ret  	#10
                        	console_38:
FFFC56BA 0000ADFB86 		      	ldd  	lr,10[bp]
FFFC56C0 00014DFB93 		      	std  	lr,20[bp]
FFFC56C5 FFE0C00046 		      	bra  	console_41
                        	endpublic
                        	
                        	_GetTextColsSTKSIZE_ EQU 0
FFFC56CA 0000000053 	public code _GetTextRows:
	      	tgt  
FFFC56D0 0000003A70 		      	push 	xlr
FFFC56D5 0000003B70 		      	push 	bp
FFFC56DA C5715E8009 		      	ld   	xlr,#console_42
FFFC56E0 000000FFCF 
FFFC56E5 00000EFF30 		      	mov  	bp,sp
FFFC56EA 00000FFF04 		      	sub  	sp,sp,#_GetTextRowsSTKSIZE_
FFFC56F0 C72F000050 		      	call 	_GetJCBPtr
FFFC56F5 000000FFCF 
FFFC56FA 0066804182 		      	ldw  	r1,1640[r1]
                        	console_45:
FFFC5700 00000FFB30 		      	mov  	sp,bp
FFFC5705 0000003B71 		      	pop  	bp
FFFC570A 0000003A71 		      	pop  	xlr
FFFC5710 0000000AEF 		      	ret  	#10
                        	console_42:
FFFC5715 0000ADFB86 		      	ldd  	lr,10[bp]
FFFC571A 00014DFB93 		      	std  	lr,20[bp]
FFFC5720 FFE0C00046 		      	bra  	console_45
                        	endpublic
                        	
                        	_GetTextRowsSTKSIZE_ EQU 0
                        	_AsciiToScreen:
FFFC5725 0000000053 		      	tgt  
FFFC572A 0000003A70 		      	push 	xlr
FFFC5730 0000003B70 		      	push 	bp
FFFC5735 C57C0E8009 		      	ld   	xlr,#console_46
FFFC573A 000000FFCF 
FFFC5740 00000EFF30 		      	mov  	bp,sp
FFFC5745 00000FFF04 		      	sub  	sp,sp,#_AsciiToScreenSTKSIZE_
FFFC574A 002016D257 		      	bne  	r18,#91,console_49
FFFC5750 0001B04009 		      	ld   	r1,#27
                        	console_51:
FFFC5755 00000FFB30 		      	mov  	sp,bp
FFFC575A 0000003B71 		      	pop  	bp
FFFC5760 0000003A71 		      	pop  	xlr
FFFC5765 0000000AEF 		      	ret  	#10
                        	console_49:
FFFC576A 0010175257 		      	bne  	r18,#93,console_52
FFFC5770 0001D04009 		      	ld   	r1,#29
FFFC5775 FFE0C00046 		      	bra  	console_51
                        	console_52:
FFFC577A 000FF49208 		      	and  	r18,r18,#255
FFFC5780 0010049209 		      	or   	r18,r18,#256
FFFC5785 000200D208 		      	and  	r3,r18,#32
FFFC578A 0010000347 		      	bne  	r3,r0,console_54
FFFC5790 0000005230 		      	mov  	r1,r18
FFFC5795 FFC0C00046 		      	bra  	console_51
                        	console_54:
FFFC579A 000400D208 		      	and  	r3,r18,#64
FFFC57A0 0010000347 		      	bne  	r3,r0,console_56
FFFC57A5 0000005230 		      	mov  	r1,r18
FFFC57AA FFABC00046 		      	bra  	console_51
                        	console_56:
FFFC57B0 0019F0D208 		      	and  	r3,r18,#415
FFFC57B5 0000004330 		      	mov  	r1,r3
FFFC57BA FF9BC00046 		      	bra  	console_51
                        	console_46:
FFFC57C0 0000ADFB86 		      	ldd  	lr,10[bp]
FFFC57C5 00014DFB93 		      	std  	lr,20[bp]
FFFC57CA FF8BC00046 		      	bra  	console_51
                        	_AsciiToScreenSTKSIZE_ EQU 0
                        	_ScreenToAscii:
FFFC57D0 0000000053 		      	tgt  
FFFC57D5 0000003A70 		      	push 	xlr
FFFC57DA 0000003B70 		      	push 	bp
FFFC57E0 C5840E8009 		      	ld   	xlr,#console_58
FFFC57E5 000000FFCF 
FFFC57EA 00000EFF30 		      	mov  	bp,sp
FFFC57F0 00000FFF04 		      	sub  	sp,sp,#_ScreenToAsciiSTKSIZE_
FFFC57F5 000FF49208 		      	and  	r18,r18,#255
FFFC57FA 002006D257 		      	bne  	r18,#27,console_61
FFFC5800 0005B04009 		      	ld   	r1,#91
                        	console_63:
FFFC5805 00000FFB30 		      	mov  	sp,bp
FFFC580A 0000003B71 		      	pop  	bp
FFFC5810 0000003A71 		      	pop  	xlr
FFFC5815 0000000AEF 		      	ret  	#10
                        	console_61:
FFFC581A 0010075257 		      	bne  	r18,#29,console_64
FFFC5820 0005D04009 		      	ld   	r1,#93
FFFC5825 FFE0C00046 		      	bra  	console_63
                        	console_64:
FFFC582A 000B06D259 		      	bge  	r18,#27,console_66
FFFC5830 0006049204 		      	add  	r18,r18,#96
                        	console_66:
                        		      	hint 	#2
FFFC5835 0000005230 		      	mov  	r1,r18
FFFC583A FFCBC00046 		      	bra  	console_63
                        	console_58:
FFFC5840 0000ADFB86 		      	ldd  	lr,10[bp]
FFFC5845 00014DFB93 		      	std  	lr,20[bp]
FFFC584A FFBBC00046 		      	bra  	console_63
                        	_ScreenToAsciiSTKSIZE_ EQU 0
FFFC5850 0000000053 	public code _UpdateCursorPos:
	      	tgt  
FFFC5855 0000003A70 		      	push 	xlr
FFFC585A 0000003B70 		      	push 	bp
FFFC5860 C58F5E8009 		      	ld   	xlr,#console_68
FFFC5865 000000FFCF 
FFFC586A 00000EFF30 		      	mov  	bp,sp
FFFC5870 FFFECFFF04 		      	sub  	sp,sp,#_UpdateCursorPosSTKSIZE_
FFFC5875 0000000B70 		      	push 	r11
FFFC587A C72F000050 		      	call 	_GetJCBPtr
FFFC5880 000000FFCF 
FFFC5885 000002C130 		      	mov  	r11,r1
FFFC588A 0066C14B82 		      	ldw  	r5,1644[r11]
FFFC5890 0066A18B82 		      	ldw  	r6,1642[r11]
FFFC5895 1100418502 		      	mulu 	r4,r5,r6
	      	ldw  	r5,1646[r11]
FFFC589A 0066E14B82 
FFFC58A0 0400314402 		      	add  	r3,r4,r5
	      	std  	r3,-20[bp]
FFFC58A5 FFFEC0FB93 
FFFC58AA 0000001270 		      	push 	r18
FFFC58B0 0000001370 		      	push 	r19
FFFC58B5 FFFEC0FB86 		      	ldd  	r3,-20[bp]
FFFC58BA 000004C330 		      	mov  	r19,r3
FFFC58C0 0000B48009 		      	ld   	r18,#11
FFFC58C5 C542000050 		      	call 	_SetVideoReg
FFFC58CA 000000FFCF 
FFFC58D0 0000001371 		      	pop  	r19
FFFC58D5 0000001271 		      	pop  	r18
                        	console_71:
FFFC58DA 0000000B71 		      	pop  	r11
FFFC58E0 00000FFB30 		      	mov  	sp,bp
FFFC58E5 0000003B71 		      	pop  	bp
FFFC58EA 0000003A71 		      	pop  	xlr
FFFC58F0 0000000AEF 		      	ret  	#10
                        	console_68:
FFFC58F5 0000ADFB86 		      	ldd  	lr,10[bp]
FFFC58FA 00014DFB93 		      	std  	lr,20[bp]
FFFC5900 FFDAC00046 		      	bra  	console_71
                        	endpublic
                        	
                        	_UpdateCursorPosSTKSIZE_ EQU 20
FFFC5905 0000000053 	public code _DBGUpdateCursorPos:
	      	tgt  
FFFC590A 0000003A70 		      	push 	xlr
FFFC5910 0000003B70 		      	push 	bp
FFFC5915 C598AE8009 		      	ld   	xlr,#console_72
FFFC591A 000000FFCF 
FFFC5920 00000EFF30 		      	mov  	bp,sp
FFFC5925 FFFF6FFF04 		      	sub  	sp,sp,#_DBGUpdateCursorPosSTKSIZE_
FFFC592A 0141414087 		      	ldt  	r5,_DBGCursorRow
FFFC5930 0005410510 		      	mul  	r4,r5,#84
FFFC5935 0141814087 		      	ldt  	r5,_DBGCursorCol
FFFC593A 0400314402 		      	add  	r3,r4,r5
	      	std  	r3,-10[bp]
FFFC5940 FFFF60FB93 
FFFC5945 0000001270 		      	push 	r18
FFFC594A 0000001370 		      	push 	r19
FFFC5950 FFFF60FB86 		      	ldd  	r3,-10[bp]
FFFC5955 000004C330 		      	mov  	r19,r3
FFFC595A 0000B48009 		      	ld   	r18,#11
FFFC5960 C542000050 		      	call 	_SetVideoReg
FFFC5965 000000FFCF 
FFFC596A 0000001371 		      	pop  	r19
FFFC5970 0000001271 		      	pop  	r18
                        	console_75:
FFFC5975 00000FFB30 		      	mov  	sp,bp
FFFC597A 0000003B71 		      	pop  	bp
FFFC5980 0000003A71 		      	pop  	xlr
FFFC5985 0000000AEF 		      	ret  	#10
                        	console_72:
FFFC598A 0000ADFB86 		      	ldd  	lr,10[bp]
FFFC5990 00014DFB93 		      	std  	lr,20[bp]
FFFC5995 FFE0C00046 		      	bra  	console_75
                        	endpublic
                        	
                        	_DBGUpdateCursorPosSTKSIZE_ EQU 10
FFFC599A 0000000053 	public code _HomeCursor:
	      	tgt  
FFFC59A0 0000003A70 		      	push 	xlr
FFFC59A5 0000003B70 		      	push 	bp
FFFC59AA C5A1AE8009 		      	ld   	xlr,#console_76
FFFC59B0 000000FFCF 
FFFC59B5 00000EFF30 		      	mov  	bp,sp
FFFC59BA FFFF6FFF04 		      	sub  	sp,sp,#_HomeCursorSTKSIZE_
FFFC59C0 0000000B70 		      	push 	r11
FFFC59C5 C72F000050 		      	call 	_GetJCBPtr
FFFC59CA 000000FFCF 
FFFC59D0 000002C130 		      	mov  	r11,r1
FFFC59D5 000000C030 		      	mov  	r3,r0
FFFC59DA 0FFFF0C308 		      	and  	r3,r3,#65535
FFFC59E0 0066E0CB91 		      	stw  	r3,1646[r11]
FFFC59E5 000000C030 		      	mov  	r3,r0
FFFC59EA 0FFFF0C308 		      	and  	r3,r3,#65535
FFFC59F0 0066C0CB91 		      	stw  	r3,1644[r11]
FFFC59F5 C585000050 		      	call 	_UpdateCursorPos
FFFC59FA 000000FFCF 
                        	console_79:
FFFC5A00 0000000B71 		      	pop  	r11
FFFC5A05 00000FFB30 		      	mov  	sp,bp
FFFC5A0A 0000003B71 		      	pop  	bp
FFFC5A10 0000003A71 		      	pop  	xlr
FFFC5A15 0000000AEF 		      	ret  	#10
                        	console_76:
FFFC5A1A 0000ADFB86 		      	ldd  	lr,10[bp]
FFFC5A20 00014DFB93 		      	std  	lr,20[bp]
FFFC5A25 FFDBC00046 		      	bra  	console_79
                        	endpublic
                        	
                        	_HomeCursorSTKSIZE_ EQU 10
FFFC5A2A 0000000053 	public code _DBGHomeCursor:
	      	tgt  
FFFC5A30 0000003A70 		      	push 	xlr
FFFC5A35 0000003B70 		      	push 	bp
FFFC5A3A C5A7AE8009 		      	ld   	xlr,#console_80
FFFC5A40 000000FFCF 
FFFC5A45 00000EFF30 		      	mov  	bp,sp
FFFC5A4A 00000FFF04 		      	sub  	sp,sp,#_DBGHomeCursorSTKSIZE_
FFFC5A50 0141800094 		      	stt  	r0,_DBGCursorCol
FFFC5A55 0141400094 		      	stt  	r0,_DBGCursorRow
FFFC5A5A C590500050 		      	call 	_DBGUpdateCursorPos
FFFC5A60 000000FFCF 
                        	console_83:
FFFC5A65 00000FFB30 		      	mov  	sp,bp
FFFC5A6A 0000003B71 		      	pop  	bp
FFFC5A70 0000003A71 		      	pop  	xlr
FFFC5A75 0000000AEF 		      	ret  	#10
                        	console_80:
FFFC5A7A 0000ADFB86 		      	ldd  	lr,10[bp]
FFFC5A80 00014DFB93 		      	std  	lr,20[bp]
FFFC5A85 FFE0C00046 		      	bra  	console_83
                        	endpublic
                        	
                        	_DBGHomeCursorSTKSIZE_ EQU 0
FFFC5A8A 0000000053 	public code _CalcScreenLocation:
	      	tgt  
FFFC5A90 0000003A70 		      	push 	xlr
FFFC5A95 0000003B70 		      	push 	bp
FFFC5A9A C5B55E8009 		      	ld   	xlr,#console_84
FFFC5AA0 000000FFCF 
FFFC5AA5 00000EFF30 		      	mov  	bp,sp
FFFC5AAA FFFECFFF04 		      	sub  	sp,sp,#_CalcScreenLocationSTKSIZE_
FFFC5AB0 0000000B70 		      	push 	r11
FFFC5AB5 C72F000050 		      	call 	_GetJCBPtr
FFFC5ABA 000000FFCF 
FFFC5AC0 000002C130 		      	mov  	r11,r1
FFFC5AC5 0066C14B82 		      	ldw  	r5,1644[r11]
FFFC5ACA 0066A18B82 		      	ldw  	r6,1642[r11]
FFFC5AD0 1100418502 		      	mulu 	r4,r5,r6
	      	ldw  	r5,1646[r11]
FFFC5AD5 0066E14B82 
FFFC5ADA 0400314402 		      	add  	r3,r4,r5
	      	std  	r3,-20[bp]
FFFC5AE0 FFFEC0FB93 
FFFC5AE5 0000001270 		      	push 	r18
FFFC5AEA 0000001370 		      	push 	r19
FFFC5AF0 FFFEC0FB86 		      	ldd  	r3,-20[bp]
FFFC5AF5 000004C330 		      	mov  	r19,r3
FFFC5AFA 0000B48009 		      	ld   	r18,#11
FFFC5B00 C542000050 		      	call 	_SetVideoReg
FFFC5B05 000000FFCF 
FFFC5B0A 0000001371 		      	pop  	r19
FFFC5B10 0000001271 		      	pop  	r18
FFFC5B15 0000000370 		      	push 	r3
FFFC5B1A C531000050 		      	call 	_GetScreenLocation
FFFC5B20 000000FFCF 
FFFC5B25 0000000371 		      	pop  	r3
FFFC5B2A FFFEC17B86 		      	ldd  	r5,-20[bp]
FFFC5B30 0000510511 		      	mulu 	r4,r5,#5
FFFC5B35 0400110102 		      	add  	r1,r1,r4
console_87:
FFFC5B3A 0000000B71 		      	pop  	r11
FFFC5B40 00000FFB30 		      	mov  	sp,bp
FFFC5B45 0000003B71 		      	pop  	bp
FFFC5B4A 0000003A71 		      	pop  	xlr
FFFC5B50 0000000AEF 		      	ret  	#10
                        	console_84:
FFFC5B55 0000ADFB86 		      	ldd  	lr,10[bp]
FFFC5B5A 00014DFB93 		      	std  	lr,20[bp]
FFFC5B60 FFDAC00046 		      	bra  	console_87
                        	endpublic
                        	
                        	_CalcScreenLocationSTKSIZE_ EQU 20
FFFC5B65 0000000053 	public code _ClearScreen:
	      	tgt  
FFFC5B6A 0000003A70 		      	push 	xlr
FFFC5B70 0000003B70 		      	push 	bp
FFFC5B75 C5C75E8009 		      	ld   	xlr,#console_88
FFFC5B7A 000000FFCF 
FFFC5B80 00000EFF30 		      	mov  	bp,sp
FFFC5B85 FFFCEFFF04 		      	sub  	sp,sp,#_ClearScreenSTKSIZE_
FFFC5B8A 0000000B70 		      	push 	r11
FFFC5B90 C72F000050 		      	call 	_GetJCBPtr
FFFC5B95 000000FFCF 
FFFC5B9A 000002C130 		      	mov  	r11,r1
FFFC5BA0 C531000050 		      	call 	_GetScreenLocation
FFFC5BA5 000000FFCF 
FFFC5BAA FFFF607B93 		      	std  	r1,-10[bp]
FFFC5BB0 0066810B82 		      	ldw  	r4,1640[r11]
FFFC5BB5 0066A14B82 		      	ldw  	r5,1642[r11]
FFFC5BBA 1000314402 		      	mul  	r3,r4,r5
	      	std  	r3,-30[bp]
FFFC5BC0 FFFE20FB93 
FFFC5BC5 0000000370 		      	push 	r3
FFFC5BCA C536500050 		      	call 	_GetCurrAttr
FFFC5BD0 000000FFCF 
FFFC5BD5 0000000371 		      	pop  	r3
FFFC5BDA 0000000370 		      	push 	r3
FFFC5BE0 0000001270 		      	push 	r18
FFFC5BE5 0002048009 		      	ld   	r18,#32
FFFC5BEA C572500050 		      	call 	_AsciiToScreen
FFFC5BF0 000000FFCF 
FFFC5BF5 0000001271 		      	pop  	r18
FFFC5BFA 0000000371 		      	pop  	r3
FFFC5C00 1700400102 		      	sxh  	r1,r1
FFFC5C05 0900304102 		      	or   	r3,r1,r1
	      	std  	r3,-50[bp]
FFFC5C0A FFFCE0FB93 
FFFC5C10 0000001270 		      	push 	r18
FFFC5C15 0000001370 		      	push 	r19
FFFC5C1A 0000001470 		      	push 	r20
FFFC5C20 FFFE20FB86 		      	ldd  	r3,-30[bp]
FFFC5C25 0000050330 		      	mov  	r20,r3
FFFC5C2A FFFCE13B86 		      	ldd  	r4,-50[bp]
FFFC5C30 000004C430 		      	mov  	r19,r4
FFFC5C35 FFFF617B86 		      	ldd  	r5,-10[bp]
FFFC5C3A 0000048530 		      	mov  	r18,r5
FFFC5C40 C414A00050 		      	call 	_memsetT
FFFC5C45 000000FFCF 
FFFC5C4A 0000001471 		      	pop  	r20
FFFC5C50 0000001371 		      	pop  	r19
FFFC5C55 0000001271 		      	pop  	r18
                        	console_91:
FFFC5C5A 0000000B71 		      	pop  	r11
FFFC5C60 00000FFB30 		      	mov  	sp,bp
FFFC5C65 0000003B71 		      	pop  	bp
FFFC5C6A 0000003A71 		      	pop  	xlr
FFFC5C70 0000000AEF 		      	ret  	#10
                        	console_88:
FFFC5C75 0000ADFB86 		      	ldd  	lr,10[bp]
FFFC5C7A 00014DFB93 		      	std  	lr,20[bp]
FFFC5C80 FFDAC00046 		      	bra  	console_91
                        	endpublic
                        	
                        	_ClearScreenSTKSIZE_ EQU 50
FFFC5C85 0000000053 	public code _DBGClearScreen:
	      	tgt  
FFFC5C8A 0000003A70 		      	push 	xlr
FFFC5C90 0000003B70 		      	push 	bp
FFFC5C95 C5D55E8009 		      	ld   	xlr,#console_92
FFFC5C9A 000000FFCF 
FFFC5CA0 00000EFF30 		      	mov  	bp,sp
FFFC5CA5 FFFECFFF04 		      	sub  	sp,sp,#_DBGClearScreenSTKSIZE_
FFFC5CAA 000000C009 		      	ld   	r3,#-3145728
FFFC5CB0 FFFFFFFFCD 
FFFC5CB5 FFFF60FB93 		      	std  	r3,-10[bp]
FFFC5CBA 0141C10087 		      	ldt  	r4,_DBGAttr
FFFC5CC0 0000000370 		      	push 	r3
FFFC5CC5 0000000470 		      	push 	r4
FFFC5CCA 0000001270 		      	push 	r18
FFFC5CD0 0002048009 		      	ld   	r18,#32
FFFC5CD5 C572500050 		      	call 	_AsciiToScreen
FFFC5CDA 000000FFCF 
FFFC5CE0 0000001271 		      	pop  	r18
FFFC5CE5 0000000471 		      	pop  	r4
FFFC5CEA 0000000371 		      	pop  	r3
FFFC5CF0 0900304402 		      	or   	r3,r4,r1
	      	std  	r3,-20[bp]
FFFC5CF5 FFFEC0FB93 
FFFC5CFA 0000001270 		      	push 	r18
FFFC5D00 0000001370 		      	push 	r19
FFFC5D05 0000001470 		      	push 	r20
FFFC5D0A 00A2C50009 		      	ld   	r20,#2604
FFFC5D10 FFFEC0FB86 		      	ldd  	r3,-20[bp]
FFFC5D15 000004C330 		      	mov  	r19,r3
FFFC5D1A FFFF613B86 		      	ldd  	r4,-10[bp]
FFFC5D20 0000048430 		      	mov  	r18,r4
FFFC5D25 C414A00050 		      	call 	_memsetT
FFFC5D2A 000000FFCF 
FFFC5D30 0000001471 		      	pop  	r20
FFFC5D35 0000001371 		      	pop  	r19
FFFC5D3A 0000001271 		      	pop  	r18
                        	console_95:
FFFC5D40 00000FFB30 		      	mov  	sp,bp
FFFC5D45 0000003B71 		      	pop  	bp
FFFC5D4A 0000003A71 		      	pop  	xlr
FFFC5D50 0000000AEF 		      	ret  	#10
                        	console_92:
FFFC5D55 0000ADFB86 		      	ldd  	lr,10[bp]
FFFC5D5A 00014DFB93 		      	std  	lr,20[bp]
FFFC5D60 FFE0C00046 		      	bra  	console_95
                        	endpublic
                        	
                        	_DBGClearScreenSTKSIZE_ EQU 20
FFFC5D65 0000000053 	public code _ClearBmpScreen:
	      	tgt  
FFFC5D6A 0000003A70 		      	push 	xlr
FFFC5D70 0000003B70 		      	push 	bp
FFFC5D75 C5DC5E8009 		      	ld   	xlr,#console_96
FFFC5D7A 000000FFCF 
FFFC5D80 00000EFF30 		      	mov  	bp,sp
FFFC5D85 00000FFF04 		      	sub  	sp,sp,#_ClearBmpScreenSTKSIZE_
FFFC5D8A 400000009C 		      	push 	#262144
FFFC5D90 000000009C 		      	push 	#0
FFFC5D95 000000009C 		      	push 	#2097152
FFFC5D9A 00000000C2 
FFFC5DA0 C414A00050 		      	call 	_memsetT
FFFC5DA5 000000FFCF 
FFFC5DAA 0001EFFF04 		      	add  	sp,sp,#30
                        	console_99:
FFFC5DB0 00000FFB30 		      	mov  	sp,bp
FFFC5DB5 0000003B71 		      	pop  	bp
FFFC5DBA 0000003A71 		      	pop  	xlr
FFFC5DC0 0000000AEF 		      	ret  	#10
                        	console_96:
FFFC5DC5 0000ADFB86 		      	ldd  	lr,10[bp]
FFFC5DCA 00014DFB93 		      	std  	lr,20[bp]
FFFC5DD0 FFE0C00046 		      	bra  	console_99
                        	endpublic
                        	
                        	_ClearBmpScreenSTKSIZE_ EQU 0
                        	_BlankLine:
FFFC5DD5 0000000053 		      	tgt  
FFFC5DDA 0000003A70 		      	push 	xlr
FFFC5DE0 0000003B70 		      	push 	bp
FFFC5DE5 C5ED5E8009 		      	ld   	xlr,#console_100
FFFC5DEA 000000FFCF 
FFFC5DF0 00000EFF30 		      	mov  	bp,sp
FFFC5DF5 FFFCEFFF04 		      	sub  	sp,sp,#_BlankLineSTKSIZE_
FFFC5DFA 0000000B70 		      	push 	r11
FFFC5E00 C72F000050 		      	call 	_GetJCBPtr
FFFC5E05 000000FFCF 
FFFC5E0A 000002C130 		      	mov  	r11,r1
FFFC5E10 C531000050 		      	call 	_GetScreenLocation
FFFC5E15 000000FFCF 
FFFC5E1A FFFF607B93 		      	std  	r1,-10[bp]
FFFC5E20 FFFF613B86 		      	ldd  	r4,-10[bp]
FFFC5E25 0066A1CB82 		      	ldw  	r7,1642[r11]
FFFC5E2A 1000648702 		      	mul  	r6,r7,r18
	      	mulu 	r5,r6,#10
FFFC5E30 0000A14611 
FFFC5E35 0400314402 		      	add  	r3,r4,r5
	      	std  	r3,-10[bp]
FFFC5E3A FFFF60FB93 
FFFC5E40 0000000370 		      	push 	r3
FFFC5E45 C536500050 		      	call 	_GetCurrAttr
FFFC5E4A 000000FFCF 
FFFC5E50 0000000371 		      	pop  	r3
FFFC5E55 0000000370 		      	push 	r3
FFFC5E5A 0000001270 		      	push 	r18
FFFC5E60 0002048009 		      	ld   	r18,#32
FFFC5E65 C572500050 		      	call 	_AsciiToScreen
FFFC5E6A 000000FFCF 
FFFC5E70 0000001271 		      	pop  	r18
FFFC5E75 0000000371 		      	pop  	r3
FFFC5E7A 1700400102 		      	sxh  	r1,r1
FFFC5E80 0900304102 		      	or   	r3,r1,r1
	      	std  	r3,-50[bp]
FFFC5E85 FFFCE0FB93 
FFFC5E8A 0066A0CB82 		      	ldw  	r3,1642[r11]
FFFC5E90 0000000370 		      	push 	r3
FFFC5E95 FFFCE13B86 		      	ldd  	r4,-50[bp]
FFFC5E9A 0000000470 		      	push 	r4
FFFC5EA0 FFFF617B86 		      	ldd  	r5,-10[bp]
FFFC5EA5 0000000570 		      	push 	r5
FFFC5EAA C414A00050 		      	call 	_memsetT
FFFC5EB0 000000FFCF 
FFFC5EB5 0001EFFF04 		      	add  	sp,sp,#30
                        	console_103:
FFFC5EBA 0000000B71 		      	pop  	r11
FFFC5EC0 00000FFB30 		      	mov  	sp,bp
FFFC5EC5 0000003B71 		      	pop  	bp
FFFC5ECA 0000003A71 		      	pop  	xlr
FFFC5ED0 0000000AEF 		      	ret  	#10
                        	console_100:
FFFC5ED5 0000ADFB86 		      	ldd  	lr,10[bp]
FFFC5EDA 00014DFB93 		      	std  	lr,20[bp]
FFFC5EE0 FFDAC00046 		      	bra  	console_103
                        	_BlankLineSTKSIZE_ EQU 50
                        	_DBGBlankLine:
FFFC5EE5 0000000053 		      	tgt  
FFFC5EEA 0000003A70 		      	push 	xlr
FFFC5EF0 0000003B70 		      	push 	bp
FFFC5EF5 C5FB5E8009 		      	ld   	xlr,#console_104
FFFC5EFA 000000FFCF 
FFFC5F00 00000EFF30 		      	mov  	bp,sp
FFFC5F05 FFFD8FFF04 		      	sub  	sp,sp,#_DBGBlankLineSTKSIZE_
FFFC5F0A 000000C009 		      	ld   	r3,#-3145728
FFFC5F10 FFFFFFFFCD 
FFFC5F15 FFFF60FB93 		      	std  	r3,-10[bp]
FFFC5F1A FFFF613B86 		      	ldd  	r4,-10[bp]
FFFC5F20 0005419210 		      	mul  	r6,r18,#84
FFFC5F25 4000508602 		      	shl  	r5,r6,#2
FFFC5F2A 0400314402 		      	add  	r3,r4,r5
	      	std  	r3,-10[bp]
FFFC5F30 FFFF60FB93 
FFFC5F35 0141C10087 		      	ldt  	r4,_DBGAttr
FFFC5F3A 0000000370 		      	push 	r3
FFFC5F40 0000000470 		      	push 	r4
FFFC5F45 0000001270 		      	push 	r18
FFFC5F4A 0002048009 		      	ld   	r18,#32
FFFC5F50 C572500050 		      	call 	_AsciiToScreen
FFFC5F55 000000FFCF 
FFFC5F5A 0000001271 		      	pop  	r18
FFFC5F60 0000000471 		      	pop  	r4
FFFC5F65 0000000371 		      	pop  	r3
FFFC5F6A 0900304402 		      	or   	r3,r4,r1
	      	std  	r3,-40[bp]
FFFC5F70 FFFD80FB93 
FFFC5F75 000540009C 		      	push 	#84
FFFC5F7A FFFD80FB86 		      	ldd  	r3,-40[bp]
FFFC5F80 0000000370 		      	push 	r3
FFFC5F85 FFFF613B86 		      	ldd  	r4,-10[bp]
FFFC5F8A 0000000470 		      	push 	r4
FFFC5F90 C414A00050 		      	call 	_memsetT
FFFC5F95 000000FFCF 
FFFC5F9A 0001EFFF04 		      	add  	sp,sp,#30
                        	console_107:
FFFC5FA0 00000FFB30 		      	mov  	sp,bp
FFFC5FA5 0000003B71 		      	pop  	bp
FFFC5FAA 0000003A71 		      	pop  	xlr
FFFC5FB0 0000000AEF 		      	ret  	#10
                        	console_104:
FFFC5FB5 0000ADFB86 		      	ldd  	lr,10[bp]
FFFC5FBA 00014DFB93 		      	std  	lr,20[bp]
FFFC5FC0 FFE0C00046 		      	bra  	console_107
                        	_DBGBlankLineSTKSIZE_ EQU 40
FFFC5FC5 0000000053 	public code _VBScrollUp:
	      	tgt  
FFFC5FCA 0000003A70 		      	push 	xlr
FFFC5FD0 0000003B70 		      	push 	bp
FFFC5FD5 C60DAE8009 		      	ld   	xlr,#console_108
FFFC5FDA 000000FFCF 
FFFC5FE0 00000EFF30 		      	mov  	bp,sp
FFFC5FE5 FFFD8FFF04 		      	sub  	sp,sp,#_VBScrollUpSTKSIZE_
FFFC5FEA 0000000B70 		      	push 	r11
FFFC5FF0 0000000C70 		      	push 	r12
FFFC5FF5 C531000050 		      	call 	_GetScreenLocation
FFFC5FFA 000000FFCF 
FFFC6000 0000030130 		      	mov  	r12,r1
FFFC6005 C72F000050 		      	call 	_GetJCBPtr
FFFC600A 000000FFCF 
FFFC6010 000002C130 		      	mov  	r11,r1
FFFC6015 0066A10B82 		      	ldw  	r4,1642[r11]
FFFC601A 0066818B82 		      	ldw  	r6,1640[r11]
FFFC6020 FFFFF14604 		      	sub  	r5,r6,#1
FFFC6025 1000314402 		      	mul  	r3,r4,r5
	      	std  	r3,-30[bp]
FFFC602A FFFE20FB93 
FFFC6030 FFFEC03B93 		      	std  	r0,-20[bp]
                        	console_111:
FFFC6035 FFFEC0FB86 		      	ldd  	r3,-20[bp]
FFFC603A FFFE213B86 		      	ldd  	r4,-30[bp]
FFFC6040 0045010349 		      	bge  	r3,r4,console_112
FFFC6045 FFFEC13B86 		      	ldd  	r4,-20[bp]
FFFC604A 0000A0C411 		      	mulu 	r3,r4,#10
FFFC6050 FFFEC1BB86 		      	ldd  	r6,-20[bp]
FFFC6055 0066A1CB82 		      	ldw  	r7,1642[r11]
FFFC605A 040051C602 		      	add  	r5,r6,r7
	      	mulu 	r4,r5,#10
FFFC6060 0000A10511 
FFFC6065 0000510CA6 		      	ldd  	r5,[r12+r4]
FFFC606A 000050CCB3 		      	std  	r5,[r12+r3]
                        	console_113:
FFFC6070 FFFEC0FB86 		      	ldd  	r3,-20[bp]
FFFC6075 000010C304 		      	add  	r3,r3,#1
FFFC607A FFFEC0FB93 		      	std  	r3,-20[bp]
FFFC6080 FFB5C00046 		      	bra  	console_111
                        	console_112:
FFFC6085 0000001270 		      	push 	r18
FFFC608A 0000000370 		      	push 	r3
FFFC6090 C56CA00050 		      	call 	_GetTextRows
FFFC6095 000000FFCF 
FFFC609A 0000000371 		      	pop  	r3
FFFC60A0 FFFFF0C104 		      	sub  	r3,r1,#1
FFFC60A5 0000048330 		      	mov  	r18,r3
FFFC60AA C5DD500050 		      	call 	_BlankLine
FFFC60B0 000000FFCF 
FFFC60B5 0000001271 		      	pop  	r18
                        	console_114:
FFFC60BA 0000000C71 		      	pop  	r12
FFFC60C0 0000000B71 		      	pop  	r11
FFFC60C5 00000FFB30 		      	mov  	sp,bp
FFFC60CA 0000003B71 		      	pop  	bp
FFFC60D0 0000003A71 		      	pop  	xlr
FFFC60D5 0000000AEF 		      	ret  	#10
                        	console_108:
FFFC60DA 0000ADFB86 		      	ldd  	lr,10[bp]
FFFC60E0 00014DFB93 		      	std  	lr,20[bp]
FFFC60E5 FFD5C00046 		      	bra  	console_114
                        	endpublic
                        	
                        	_VBScrollUpSTKSIZE_ EQU 40
FFFC60EA 0000000053 	public code _DBGScrollUp:
	      	tgt  
FFFC60F0 0000003A70 		      	push 	xlr
FFFC60F5 0000003B70 		      	push 	bp
FFFC60FA C61B5E8009 		      	ld   	xlr,#console_115
FFFC6100 000000FFCF 
FFFC6105 00000EFF30 		      	mov  	bp,sp
FFFC610A FFFE2FFF04 		      	sub  	sp,sp,#_DBGScrollUpSTKSIZE_
FFFC6110 0000000B70 		      	push 	r11
FFFC6115 000000C009 		      	ld   	r3,#-3145728
FFFC611A FFFFFFFFCD 
FFFC6120 000002C330 		      	mov  	r11,r3
FFFC6125 00A2C0C009 		      	ld   	r3,#2604
FFFC612A FFFE20FB93 		      	std  	r3,-30[bp]
FFFC6130 FFFEC03B93 		      	std  	r0,-20[bp]
                        	console_118:
FFFC6135 FFFEC0FB86 		      	ldd  	r3,-20[bp]
FFFC613A FFFE213B86 		      	ldd  	r4,-30[bp]
FFFC6140 0040010349 		      	bge  	r3,r4,console_119
FFFC6145 FFFEC13B86 		      	ldd  	r4,-20[bp]
FFFC614A 4000308402 		      	shl  	r3,r4,#2
FFFC6150 FFFEC1BB86 		      	ldd  	r6,-20[bp]
FFFC6155 4000508602 		      	shl  	r5,r6,#2
FFFC615A 040042C502 		      	add  	r4,r5,r11
	      	ldt  	r5,336[r4]
FFFC6160 0015014487 
FFFC6165 000050CBB4 		      	stt  	r5,[r11+r3]
                        	console_120:
FFFC616A FFFEC0FB86 		      	ldd  	r3,-20[bp]
FFFC6170 000010C304 		      	add  	r3,r3,#1
FFFC6175 FFFEC0FB93 		      	std  	r3,-20[bp]
FFFC617A FFBBC00046 		      	bra  	console_118
                        	console_119:
FFFC6180 0000001270 		      	push 	r18
FFFC6185 0001F48009 		      	ld   	r18,#31
FFFC618A C5EE500050 		      	call 	_DBGBlankLine
FFFC6190 000000FFCF 
FFFC6195 0000001271 		      	pop  	r18
                        	console_121:
FFFC619A 0000000B71 		      	pop  	r11
FFFC61A0 00000FFB30 		      	mov  	sp,bp
FFFC61A5 0000003B71 		      	pop  	bp
FFFC61AA 0000003A71 		      	pop  	xlr
FFFC61B0 0000000AEF 		      	ret  	#10
                        	console_115:
FFFC61B5 0000ADFB86 		      	ldd  	lr,10[bp]
FFFC61BA 00014DFB93 		      	std  	lr,20[bp]
FFFC61C0 FFDAC00046 		      	bra  	console_121
                        	endpublic
                        	
                        	_DBGScrollUpSTKSIZE_ EQU 30
FFFC61C5 0000000053 	public code _IncrementCursorRow:
	      	tgt  
FFFC61CA 0000003A70 		      	push 	xlr
FFFC61D0 0000003B70 		      	push 	bp
FFFC61D5 C6255E8009 		      	ld   	xlr,#console_122
FFFC61DA 000000FFCF 
FFFC61E0 00000EFF30 		      	mov  	bp,sp
FFFC61E5 FFFF6FFF04 		      	sub  	sp,sp,#_IncrementCursorRowSTKSIZE_
FFFC61EA 0000000B70 		      	push 	r11
FFFC61F0 C72F000050 		      	call 	_GetJCBPtr
FFFC61F5 000000FFCF 
FFFC61FA 000002C130 		      	mov  	r11,r1
FFFC6200 0066C04B24 		      	inc  	1644[r11],#1
FFFC6205 0066C0CB82 		      	ldw  	r3,1644[r11]
FFFC620A 0066810B82 		      	ldw  	r4,1640[r11]
FFFC6210 002A01034D 		      	bgeu 	r3,r4,console_125
FFFC6215 C585000050 		      	call 	_UpdateCursorPos
FFFC621A 000000FFCF 
                        	console_127:
FFFC6220 0000000B71 		      	pop  	r11
FFFC6225 00000FFB30 		      	mov  	sp,bp
FFFC622A 0000003B71 		      	pop  	bp
FFFC6230 0000003A71 		      	pop  	xlr
FFFC6235 0000000AEF 		      	ret  	#10
                        	console_125:
FFFC623A 0066CFCB24 		      	dec  	1644[r11],#1
FFFC6240 C585000050 		      	call 	_UpdateCursorPos
FFFC6245 000000FFCF 
FFFC624A 0000000050 		      	call 	_ScrollUp
FFFC6250 FFD0C00046 		      	bra  	console_127
                        	console_122:
FFFC6255 0000ADFB86 		      	ldd  	lr,10[bp]
FFFC625A 00014DFB93 		      	std  	lr,20[bp]
FFFC6260 FFC0C00046 		      	bra  	console_127
                        	endpublic
                        	
                        	_IncrementCursorRowSTKSIZE_ EQU 10
FFFC6265 0000000053 	public code _DBGIncrementCursorRow:
	      	tgt  
FFFC626A 0000003A70 		      	push 	xlr
FFFC6270 0000003B70 		      	push 	bp
FFFC6275 C6300E8009 		      	ld   	xlr,#console_128
FFFC627A 000000FFCF 
FFFC6280 00000EFF30 		      	mov  	bp,sp
FFFC6285 00000FFF04 		      	sub  	sp,sp,#_DBGIncrementCursorRowSTKSIZE_
FFFC628A 0000000B70 		      	push 	r11
FFFC6290 014142C009 		      	ld   	r11,#_DBGCursorRow
FFFC6295 000000CB87 		      	ldt  	r3,[r11]
FFFC629A 000010C304 		      	add  	r3,r3,#1
FFFC62A0 000000CB94 		      	stt  	r3,[r11]
FFFC62A5 000000CB87 		      	ldt  	r3,[r11]
FFFC62AA 002B07C359 		      	bge  	r3,#31,console_131
FFFC62B0 C590500050 		      	call 	_DBGUpdateCursorPos
FFFC62B5 000000FFCF 
                        	console_133:
FFFC62BA 0000000B71 		      	pop  	r11
FFFC62C0 00000FFB30 		      	mov  	sp,bp
FFFC62C5 0000003B71 		      	pop  	bp
FFFC62CA 0000003A71 		      	pop  	xlr
FFFC62D0 0000000AEF 		      	ret  	#10
                        	console_131:
FFFC62D5 000000CB87 		      	ldt  	r3,[r11]
FFFC62DA FFFFF0C304 		      	sub  	r3,r3,#1
FFFC62E0 000000CB94 		      	stt  	r3,[r11]
FFFC62E5 C590500050 		      	call 	_DBGUpdateCursorPos
FFFC62EA 000000FFCF 
FFFC62F0 C60EA00050 		      	call 	_DBGScrollUp
FFFC62F5 000000FFCF 
FFFC62FA FFC0C00046 		      	bra  	console_133
                        	console_128:
FFFC6300 0000ADFB86 		      	ldd  	lr,10[bp]
FFFC6305 00014DFB93 		      	std  	lr,20[bp]
FFFC630A FFB0C00046 		      	bra  	console_133
                        	endpublic
                        	
                        	_DBGIncrementCursorRowSTKSIZE_ EQU 0
FFFC6310 0000000053 	public code _IncrementCursorPos:
	      	tgt  
FFFC6315 0000003A70 		      	push 	xlr
FFFC631A 0000003B70 		      	push 	bp
FFFC6320 C63A5E8009 		      	ld   	xlr,#console_134
FFFC6325 000000FFCF 
FFFC632A 00000EFF30 		      	mov  	bp,sp
FFFC6330 FFFF6FFF04 		      	sub  	sp,sp,#_IncrementCursorPosSTKSIZE_
FFFC6335 0000000B70 		      	push 	r11
FFFC633A C72F000050 		      	call 	_GetJCBPtr
FFFC6340 000000FFCF 
FFFC6345 000002C130 		      	mov  	r11,r1
FFFC634A 0066E04B24 		      	inc  	1646[r11],#1
FFFC6350 0066E0CB82 		      	ldw  	r3,1646[r11]
FFFC6355 0066A10B82 		      	ldw  	r4,1642[r11]
FFFC635A 002B01034D 		      	bgeu 	r3,r4,console_137
FFFC6360 C585000050 		      	call 	_UpdateCursorPos
FFFC6365 000000FFCF 
                        	console_139:
FFFC636A 0000000B71 		      	pop  	r11
FFFC6370 00000FFB30 		      	mov  	sp,bp
FFFC6375 0000003B71 		      	pop  	bp
FFFC637A 0000003A71 		      	pop  	xlr
FFFC6380 0000000AEF 		      	ret  	#10
                        	console_137:
FFFC6385 000000C030 		      	mov  	r3,r0
FFFC638A 0FFFF0C308 		      	and  	r3,r3,#65535
FFFC6390 0066E0CB91 		      	stw  	r3,1646[r11]
FFFC6395 C61C500050 		      	call 	_IncrementCursorRow
FFFC639A 000000FFCF 
FFFC63A0 FFCAC00046 		      	bra  	console_139
                        	console_134:
FFFC63A5 0000ADFB86 		      	ldd  	lr,10[bp]
FFFC63AA 00014DFB93 		      	std  	lr,20[bp]
FFFC63B0 FFBAC00046 		      	bra  	console_139
                        	endpublic
                        	
                        	_IncrementCursorPosSTKSIZE_ EQU 10
FFFC63B5 0000000053 	public code _DBGIncrementCursorPos:
	      	tgt  
FFFC63BA 0000003A70 		      	push 	xlr
FFFC63C0 0000003B70 		      	push 	bp
FFFC63C5 C643AE8009 		      	ld   	xlr,#console_140
FFFC63CA 000000FFCF 
FFFC63D0 00000EFF30 		      	mov  	bp,sp
FFFC63D5 00000FFF04 		      	sub  	sp,sp,#_DBGIncrementCursorPosSTKSIZE_
FFFC63DA 0000000B70 		      	push 	r11
FFFC63E0 014182C009 		      	ld   	r11,#_DBGCursorCol
FFFC63E5 000000CB87 		      	ldt  	r3,[r11]
FFFC63EA 000010C304 		      	add  	r3,r3,#1
FFFC63F0 000000CB94 		      	stt  	r3,[r11]
FFFC63F5 000000CB87 		      	ldt  	r3,[r11]
FFFC63FA 002B150359 		      	bge  	r3,#84,console_143
FFFC6400 C590500050 		      	call 	_DBGUpdateCursorPos
FFFC6405 000000FFCF 
                        	console_145:
FFFC640A 0000000B71 		      	pop  	r11
FFFC6410 00000FFB30 		      	mov  	sp,bp
FFFC6415 0000003B71 		      	pop  	bp
FFFC641A 0000003A71 		      	pop  	xlr
FFFC6420 0000000AEF 		      	ret  	#10
                        	console_143:
FFFC6425 0000000B94 		      	stt  	r0,[r11]
FFFC642A C626500050 		      	call 	_DBGIncrementCursorRow
FFFC6430 000000FFCF 
FFFC6435 FFD5C00046 		      	bra  	console_145
                        	console_140:
FFFC643A 0000ADFB86 		      	ldd  	lr,10[bp]
FFFC6440 00014DFB93 		      	std  	lr,20[bp]
FFFC6445 FFC5C00046 		      	bra  	console_145
                        	endpublic
                        	
                        	_DBGIncrementCursorPosSTKSIZE_ EQU 0
                        	_DisplayChar:
FFFC644A 0000000053 		      	tgt  
FFFC6450 0000003A70 		      	push 	xlr
FFFC6455 0000003B70 		      	push 	bp
FFFC645A C691AE8009 		      	ld   	xlr,#console_146
FFFC6460 000000FFCF 
FFFC6465 00000EFF30 		      	mov  	bp,sp
FFFC646A FFFE2FFF04 		      	sub  	sp,sp,#_DisplayCharSTKSIZE_
FFFC6470 0000000B70 		      	push 	r11
FFFC6475 0000000C70 		      	push 	r12
FFFC647A C72F000050 		      	call 	_GetJCBPtr
FFFC6480 000000FFCF 
FFFC6485 000002C130 		      	mov  	r11,r1
FFFC648A 0060035256 		      	beq  	r18,#13,console_150
FFFC6490 007A029256 		      	beq  	r18,#10,console_151
FFFC6495 0085245256 		      	beq  	r18,#145,console_152
FFFC649A 00000000C0 
FFFC64A0 00A5241256 		      	beq  	r18,#144,console_153
FFFC64A5 00000000C0 
FFFC64AA 00BB24D256 		      	beq  	r18,#147,console_154
FFFC64B0 00000000C0 
FFFC64B5 00D0249256 		      	beq  	r18,#146,console_155
FFFC64BA 00000000C0 
FFFC64C0 00F0251256 		      	beq  	r18,#148,console_156
FFFC64C5 00000000C0 
FFFC64CA 0120265256 		      	beq  	r18,#153,console_157
FFFC64D0 00000000C0 
FFFC64D5 0220021256 		      	beq  	r18,#8,console_158
FFFC64DA 0336031256 		      	beq  	r18,#12,console_159
FFFC64E0 034A025256 		      	beq  	r18,#9,console_160
FFFC64E5 03B5C00046 		      	bra  	console_161
                        	console_150:
FFFC64EA 000000C030 		      	mov  	r3,r0
FFFC64F0 0FFFF0C308 		      	and  	r3,r3,#65535
FFFC64F5 0066E0CB91 		      	stw  	r3,1646[r11]
FFFC64FA C585000050 		      	call 	_UpdateCursorPos
FFFC6500 000000FFCF 
FFFC6505 03F5C00046 		      	bra  	console_149
                        	console_151:
FFFC650A C61C500050 		      	call 	_IncrementCursorRow
FFFC6510 000000FFCF 
FFFC6515 03E5C00046 		      	bra  	console_149
                        	console_152:
FFFC651A 0066E0CB82 		      	ldw  	r3,1646[r11]
FFFC6520 0066A14B82 		      	ldw  	r5,1642[r11]
FFFC6525 FFFFF10504 		      	sub  	r4,r5,#1
FFFC652A 001601034D 		      	bgeu 	r3,r4,console_162
FFFC6530 0066E04B24 		      	inc  	1646[r11],#1
FFFC6535 C585000050 		      	call 	_UpdateCursorPos
FFFC653A 000000FFCF 
                        	console_162:
FFFC6540 03BAC00046 		      	bra  	console_149
                        	console_153:
FFFC6545 0066C0CB82 		      	ldw  	r3,1644[r11]
FFFC654A 001600035E 		      	bleu 	r3,#0,console_164
FFFC6550 0066CFCB24 		      	dec  	1644[r11],#1
FFFC6555 C585000050 		      	call 	_UpdateCursorPos
FFFC655A 000000FFCF 
                        	console_164:
FFFC6560 039AC00046 		      	bra  	console_149
                        	console_154:
FFFC6565 0066E0CB82 		      	ldw  	r3,1646[r11]
FFFC656A 001600035E 		      	bleu 	r3,#0,console_166
FFFC6570 0066EFCB24 		      	dec  	1646[r11],#1
FFFC6575 C585000050 		      	call 	_UpdateCursorPos
FFFC657A 000000FFCF 
                        	console_166:
FFFC6580 037AC00046 		      	bra  	console_149
                        	console_155:
FFFC6585 0066C0CB82 		      	ldw  	r3,1644[r11]
FFFC658A 0066814B82 		      	ldw  	r5,1640[r11]
FFFC6590 FFFFF10504 		      	sub  	r4,r5,#1
FFFC6595 001501034D 		      	bgeu 	r3,r4,console_168
FFFC659A 0066C04B24 		      	inc  	1644[r11],#1
FFFC65A0 C585000050 		      	call 	_UpdateCursorPos
FFFC65A5 000000FFCF 
                        	console_168:
FFFC65AA 0350C00046 		      	bra  	console_149
                        	console_156:
FFFC65B0 0066E0CB82 		      	ldw  	r3,1646[r11]
FFFC65B5 0015000357 		      	bne  	r3,#0,console_170
FFFC65BA 000000C030 		      	mov  	r3,r0
FFFC65C0 0FFFF0C308 		      	and  	r3,r3,#65535
FFFC65C5 0066C0CB91 		      	stw  	r3,1644[r11]
                        	console_170:
FFFC65CA 000000C030 		      	mov  	r3,r0
FFFC65D0 0FFFF0C308 		      	and  	r3,r3,#65535
FFFC65D5 0066E0CB91 		      	stw  	r3,1646[r11]
FFFC65DA C585000050 		      	call 	_UpdateCursorPos
FFFC65E0 000000FFCF 
FFFC65E5 0315C00046 		      	bra  	console_149
                        	console_157:
FFFC65EA C5A8A00050 		      	call 	_CalcScreenLocation
FFFC65F0 000000FFCF 
FFFC65F5 0000030130 		      	mov  	r12,r1
FFFC65FA 0066E0CB86 		      	ldd  	r3,1646[r11]
FFFC6600 FFFEC0FB93 		      	std  	r3,-20[bp]
                        	console_172:
FFFC6605 FFFEC0FB86 		      	ldd  	r3,-20[bp]
FFFC660A 0066A14B82 		      	ldw  	r5,1642[r11]
FFFC6610 FFFFF10504 		      	sub  	r4,r5,#1
FFFC6615 0060010349 		      	bge  	r3,r4,console_173
FFFC661A FFFEC17B86 		      	ldd  	r5,-20[bp]
FFFC6620 0066E18B82 		      	ldw  	r6,1646[r11]
FFFC6625 1701800602 		      	sxh  	r6,r6
FFFC662A 0700418502 		      	sub  	r4,r5,r6
	      	mulu 	r3,r4,#10
FFFC6630 0000A0C411 
FFFC6635 FFFEC1FB86 		      	ldd  	r7,-20[bp]
FFFC663A 0066E20B82 		      	ldw  	r8,1646[r11]
FFFC6640 1702000802 		      	sxh  	r8,r8
FFFC6645 0700620702 		      	sub  	r6,r7,r8
	      	mulu 	r5,r6,#10
FFFC664A 0000A14611 
FFFC6650 0400430502 		      	add  	r4,r5,r12
	      	ldd  	r5,10[r4]
FFFC6655 0000A14486 
FFFC665A 000050CCB3 		      	std  	r5,[r12+r3]
                        	console_174:
FFFC6660 FFFEC0FB86 		      	ldd  	r3,-20[bp]
FFFC6665 000010C304 		      	add  	r3,r3,#1
FFFC666A FFFEC0FB93 		      	std  	r3,-20[bp]
FFFC6670 FF95C00046 		      	bra  	console_172
                        	console_173:
FFFC6675 FFFEC17B86 		      	ldd  	r5,-20[bp]
FFFC667A 0066E18B82 		      	ldw  	r6,1646[r11]
FFFC6680 1701800602 		      	sxh  	r6,r6
FFFC6685 0700418502 		      	sub  	r4,r5,r6
	      	mulu 	r3,r4,#10
FFFC668A 0000A0C411 
FFFC6690 0000000370 		      	push 	r3
FFFC6695 0000000470 		      	push 	r4
FFFC669A C536500050 		      	call 	_GetCurrAttr
FFFC66A0 000000FFCF 
FFFC66A5 0000000471 		      	pop  	r4
FFFC66AA 0000000371 		      	pop  	r3
FFFC66B0 0000000370 		      	push 	r3
FFFC66B5 0000000470 		      	push 	r4
FFFC66BA 0000001270 		      	push 	r18
FFFC66C0 0002048009 		      	ld   	r18,#32
FFFC66C5 C572500050 		      	call 	_AsciiToScreen
FFFC66CA 000000FFCF 
FFFC66D0 0000001271 		      	pop  	r18
FFFC66D5 0000000471 		      	pop  	r4
FFFC66DA 0000000371 		      	pop  	r3
FFFC66E0 1700400102 		      	sxh  	r1,r1
FFFC66E5 0900404102 		      	or   	r4,r1,r1
	      	std  	r4,[r12+r3]
FFFC66EA 000040CCB3 
FFFC66F0 020AC00046 		      	bra  	console_149
                        	console_158:
FFFC66F5 0066E0CB82 		      	ldw  	r3,1646[r11]
FFFC66FA 011000035E 		      	bleu 	r3,#0,console_175
FFFC6700 0066EFCB24 		      	dec  	1646[r11],#1
FFFC6705 C5A8A00050 		      	call 	_CalcScreenLocation
FFFC670A 000000FFCF 
FFFC6710 0000030130 		      	mov  	r12,r1
FFFC6715 0066E0CB86 		      	ldd  	r3,1646[r11]
FFFC671A FFFEC0FB93 		      	std  	r3,-20[bp]
                        	console_177:
FFFC6720 FFFEC0FB86 		      	ldd  	r3,-20[bp]
FFFC6725 0066A14B82 		      	ldw  	r5,1642[r11]
FFFC672A FFFFF10504 		      	sub  	r4,r5,#1
FFFC6730 0060010349 		      	bge  	r3,r4,console_178
FFFC6735 FFFEC17B86 		      	ldd  	r5,-20[bp]
FFFC673A 0066E18B82 		      	ldw  	r6,1646[r11]
FFFC6740 1701800602 		      	sxh  	r6,r6
FFFC6745 0700418502 		      	sub  	r4,r5,r6
	      	mulu 	r3,r4,#10
FFFC674A 0000A0C411 
FFFC6750 FFFEC1FB86 		      	ldd  	r7,-20[bp]
FFFC6755 0066E20B82 		      	ldw  	r8,1646[r11]
FFFC675A 1702000802 		      	sxh  	r8,r8
FFFC6760 0700620702 		      	sub  	r6,r7,r8
	      	mulu 	r5,r6,#10
FFFC6765 0000A14611 
FFFC676A 0400430502 		      	add  	r4,r5,r12
	      	ldd  	r5,10[r4]
FFFC6770 0000A14486 
FFFC6775 000050CCB3 		      	std  	r5,[r12+r3]
                        	console_179:
FFFC677A FFFEC0FB86 		      	ldd  	r3,-20[bp]
FFFC6780 000010C304 		      	add  	r3,r3,#1
FFFC6785 FFFEC0FB93 		      	std  	r3,-20[bp]
FFFC678A FF96C00046 		      	bra  	console_177
                        	console_178:
FFFC6790 FFFEC17B86 		      	ldd  	r5,-20[bp]
FFFC6795 0066E18B82 		      	ldw  	r6,1646[r11]
FFFC679A 1701800602 		      	sxh  	r6,r6
FFFC67A0 0700418502 		      	sub  	r4,r5,r6
	      	mulu 	r3,r4,#10
FFFC67A5 0000A0C411 
FFFC67AA 0000000370 		      	push 	r3
FFFC67B0 0000000470 		      	push 	r4
FFFC67B5 C536500050 		      	call 	_GetCurrAttr
FFFC67BA 000000FFCF 
FFFC67C0 0000000471 		      	pop  	r4
FFFC67C5 0000000371 		      	pop  	r3
FFFC67CA 0000000370 		      	push 	r3
FFFC67D0 0000000470 		      	push 	r4
FFFC67D5 0000001270 		      	push 	r18
FFFC67DA 0002048009 		      	ld   	r18,#32
FFFC67E0 C572500050 		      	call 	_AsciiToScreen
FFFC67E5 000000FFCF 
FFFC67EA 0000001271 		      	pop  	r18
FFFC67F0 0000000471 		      	pop  	r4
FFFC67F5 0000000371 		      	pop  	r3
FFFC67FA 1700400102 		      	sxh  	r1,r1
FFFC6800 0900404102 		      	or   	r4,r1,r1
	      	std  	r4,[r12+r3]
FFFC6805 000040CCB3 
                        	console_175:
FFFC680A 00F0C00046 		      	bra  	console_149
                        	console_159:
FFFC6810 C5B6500050 		      	call 	_ClearScreen
FFFC6815 000000FFCF 
FFFC681A C599A00050 		      	call 	_HomeCursor
FFFC6820 000000FFCF 
FFFC6825 00D5C00046 		      	bra  	console_149
                        	console_160:
FFFC682A 0000001270 		      	push 	r18
FFFC6830 0002048009 		      	ld   	r18,#32
FFFC6835 C644A00050 		      	call 	_DisplayChar
FFFC683A 000000FFCF 
FFFC6840 0000001271 		      	pop  	r18
FFFC6845 0000001270 		      	push 	r18
FFFC684A 0002048009 		      	ld   	r18,#32
FFFC6850 C644A00050 		      	call 	_DisplayChar
FFFC6855 000000FFCF 
FFFC685A 0000001271 		      	pop  	r18
FFFC6860 0000001270 		      	push 	r18
FFFC6865 0002048009 		      	ld   	r18,#32
FFFC686A C644A00050 		      	call 	_DisplayChar
FFFC6870 000000FFCF 
FFFC6875 0000001271 		      	pop  	r18
FFFC687A 0000001270 		      	push 	r18
FFFC6880 0002048009 		      	ld   	r18,#32
FFFC6885 C644A00050 		      	call 	_DisplayChar
FFFC688A 000000FFCF 
FFFC6890 0000001271 		      	pop  	r18
FFFC6895 0065C00046 		      	bra  	console_149
                        	console_161:
FFFC689A C5A8A00050 		      	call 	_CalcScreenLocation
FFFC68A0 000000FFCF 
FFFC68A5 0000030130 		      	mov  	r12,r1
FFFC68AA 0000000370 		      	push 	r3
FFFC68B0 C536500050 		      	call 	_GetCurrAttr
FFFC68B5 000000FFCF 
FFFC68BA 0000000371 		      	pop  	r3
FFFC68C0 0000000370 		      	push 	r3
FFFC68C5 0000001270 		      	push 	r18
FFFC68CA C572500050 		      	call 	_AsciiToScreen
FFFC68D0 000000FFCF 
FFFC68D5 0000001271 		      	pop  	r18
FFFC68DA 0000000371 		      	pop  	r3
FFFC68E0 1700400102 		      	sxh  	r1,r1
FFFC68E5 0900304102 		      	or   	r3,r1,r1
	      	std  	r3,[r12]
FFFC68EA 000000CC93 
FFFC68F0 C631000050 		      	call 	_IncrementCursorPos
FFFC68F5 000000FFCF 
                        	console_149:
                        	console_180:
FFFC68FA 0000000C71 		      	pop  	r12
FFFC6900 0000000B71 		      	pop  	r11
FFFC6905 00000FFB30 		      	mov  	sp,bp
FFFC690A 0000003B71 		      	pop  	bp
FFFC6910 0000003A71 		      	pop  	xlr
FFFC6915 0000000AEF 		      	ret  	#10
                        	console_146:
FFFC691A 0000ADFB86 		      	ldd  	lr,10[bp]
FFFC6920 00014DFB93 		      	std  	lr,20[bp]
FFFC6925 FFD5C00046 		      	bra  	console_180
                        	_DisplayCharSTKSIZE_ EQU 30
FFFC692A 0000000053 	public code _CRLF:
	      	tgt  
FFFC6930 0000003A70 		      	push 	xlr
FFFC6935 0000003B70 		      	push 	bp
FFFC693A C699AE8009 		      	ld   	xlr,#console_181
FFFC6940 000000FFCF 
FFFC6945 00000EFF30 		      	mov  	bp,sp
FFFC694A 00000FFF04 		      	sub  	sp,sp,#_CRLFSTKSIZE_
FFFC6950 0000001270 		      	push 	r18
FFFC6955 0000D48009 		      	ld   	r18,#13
FFFC695A C644A00050 		      	call 	_DisplayChar
FFFC6960 000000FFCF 
FFFC6965 0000001271 		      	pop  	r18
FFFC696A 0000001270 		      	push 	r18
FFFC6970 0000A48009 		      	ld   	r18,#10
FFFC6975 C644A00050 		      	call 	_DisplayChar
FFFC697A 000000FFCF 
FFFC6980 0000001271 		      	pop  	r18
                        	console_184:
FFFC6985 00000FFB30 		      	mov  	sp,bp
FFFC698A 0000003B71 		      	pop  	bp
FFFC6990 0000003A71 		      	pop  	xlr
FFFC6995 0000000AEF 		      	ret  	#10
                        	console_181:
FFFC699A 0000ADFB86 		      	ldd  	lr,10[bp]
FFFC69A0 00014DFB93 		      	std  	lr,20[bp]
FFFC69A5 FFE0C00046 		      	bra  	console_184
                        	endpublic
                        	
                        	_CRLFSTKSIZE_ EQU 0
                        	_DisplayString:
FFFC69AA 0000000053 		      	tgt  
FFFC69B0 0000003A70 		      	push 	xlr
FFFC69B5 0000003B70 		      	push 	bp
FFFC69BA C6A1AE8009 		      	ld   	xlr,#console_185
FFFC69C0 000000FFCF 
FFFC69C5 00000EFF30 		      	mov  	bp,sp
FFFC69CA 00000FFF04 		      	sub  	sp,sp,#_DisplayStringSTKSIZE_
                        	console_188:
FFFC69D0 000000D282 		      	ldw  	r3,[r18]
FFFC69D5 0030000346 		      	beq  	r3,r0,console_189
FFFC69DA 0000001270 		      	push 	r18
FFFC69E0 000000D282 		      	ldw  	r3,[r18]
FFFC69E5 0000048330 		      	mov  	r18,r3
FFFC69EA C644A00050 		      	call 	_DisplayChar
FFFC69F0 000000FFCF 
FFFC69F5 0000001271 		      	pop  	r18
FFFC69FA 0000249204 		      	add  	r18,r18,#2
FFFC6A00 FFD0C00046 		      	bra  	console_188
                        	console_189:
                        	console_190:
FFFC6A05 00000FFB30 		      	mov  	sp,bp
FFFC6A0A 0000003B71 		      	pop  	bp
FFFC6A10 0000003A71 		      	pop  	xlr
FFFC6A15 0000000AEF 		      	ret  	#10
                        	console_185:
FFFC6A1A 0000ADFB86 		      	ldd  	lr,10[bp]
FFFC6A20 00014DFB93 		      	std  	lr,20[bp]
FFFC6A25 FFE0C00046 		      	bra  	console_190
                        	_DisplayStringSTKSIZE_ EQU 0
                        	_DisplayStringCRLF:
FFFC6A2A 0000000053 		      	tgt  
FFFC6A30 0000003A70 		      	push 	xlr
FFFC6A35 0000003B70 		      	push 	bp
FFFC6A3A C6A85E8009 		      	ld   	xlr,#console_191
FFFC6A40 000000FFCF 
FFFC6A45 00000EFF30 		      	mov  	bp,sp
FFFC6A4A 00000FFF04 		      	sub  	sp,sp,#_DisplayStringCRLFSTKSIZE_
FFFC6A50 0000001270 		      	push 	r18
FFFC6A55 C69AA00050 		      	call 	_DisplayString
FFFC6A5A 000000FFCF 
FFFC6A60 0000001271 		      	pop  	r18
FFFC6A65 C692A00050 		      	call 	_CRLF
FFFC6A6A 000000FFCF 
                        	console_194:
FFFC6A70 00000FFB30 		      	mov  	sp,bp
FFFC6A75 0000003B71 		      	pop  	bp
FFFC6A7A 0000003A71 		      	pop  	xlr
FFFC6A80 0000000AEF 		      	ret  	#10
                        	console_191:
FFFC6A85 0000ADFB86 		      	ldd  	lr,10[bp]
FFFC6A8A 00014DFB93 		      	std  	lr,20[bp]
FFFC6A90 FFE0C00046 		      	bra  	console_194
                        	_DisplayStringCRLFSTKSIZE_ EQU 0
                        	_DBGDisplayChar:
FFFC6A95 0000000053 		      	tgt  
FFFC6A9A 0000003A70 		      	push 	xlr
FFFC6AA0 0000003B70 		      	push 	bp
FFFC6AA5 C6F65E8009 		      	ld   	xlr,#console_195
FFFC6AAA 000000FFCF 
FFFC6AB0 00000EFF30 		      	mov  	bp,sp
FFFC6AB5 FFFE2FFF04 		      	sub  	sp,sp,#_DBGDisplayCharSTKSIZE_
FFFC6ABA 0000000B70 		      	push 	r11
FFFC6AC0 0000000C70 		      	push 	r12
FFFC6AC5 0000000D70 		      	push 	r13
FFFC6ACA 0000000E70 		      	push 	r14
FFFC6AD0 0141C30009 		      	ld   	r12,#_DBGAttr
FFFC6AD5 0141834009 		      	ld   	r13,#_DBGCursorCol
FFFC6ADA 0141438009 		      	ld   	r14,#_DBGCursorRow
FFFC6AE0 0060035256 		      	beq  	r18,#13,console_199
FFFC6AE5 0070029256 		      	beq  	r18,#10,console_200
FFFC6AEA 007B245256 		      	beq  	r18,#145,console_201
FFFC6AF0 00000000C0 
FFFC6AF5 009B241256 		      	beq  	r18,#144,console_202
FFFC6AFA 00000000C0 
FFFC6B00 00BA24D256 		      	beq  	r18,#147,console_203
FFFC6B05 00000000C0 
FFFC6B0A 00DB249256 		      	beq  	r18,#146,console_204
FFFC6B10 00000000C0 
FFFC6B15 00FB251256 		      	beq  	r18,#148,console_205
FFFC6B1A 00000000C0 
FFFC6B20 0115265256 		      	beq  	r18,#153,console_206
FFFC6B25 00000000C0 
FFFC6B2A 01E6021256 		      	beq  	r18,#8,console_207
FFFC6B30 02D5031256 		      	beq  	r18,#12,console_208
FFFC6B35 02EB025256 		      	beq  	r18,#9,console_209
FFFC6B3A 0356C00046 		      	bra  	console_210
                        	console_199:
FFFC6B40 0000000D94 		      	stt  	r0,[r13]
FFFC6B45 C590500050 		      	call 	_DBGUpdateCursorPos
FFFC6B4A 000000FFCF 
FFFC6B50 03EAC00046 		      	bra  	console_198
                        	console_200:
FFFC6B55 C626500050 		      	call 	_DBGIncrementCursorRow
FFFC6B5A 000000FFCF 
FFFC6B60 03DAC00046 		      	bra  	console_198
                        	console_201:
FFFC6B65 000000CD87 		      	ldt  	r3,[r13]
FFFC6B6A 0020150359 		      	bge  	r3,#84,console_211
FFFC6B70 000000CD87 		      	ldt  	r3,[r13]
FFFC6B75 000010C304 		      	add  	r3,r3,#1
FFFC6B7A 000000CD94 		      	stt  	r3,[r13]
FFFC6B80 C590500050 		      	call 	_DBGUpdateCursorPos
FFFC6B85 000000FFCF 
                        	console_211:
FFFC6B8A 03B0C00046 		      	bra  	console_198
                        	console_202:
FFFC6B90 000000CE87 		      	ldt  	r3,[r14]
FFFC6B95 002000035A 		      	ble  	r3,#0,console_213
FFFC6B9A 000000CE87 		      	ldt  	r3,[r14]
FFFC6BA0 FFFFF0C304 		      	sub  	r3,r3,#1
FFFC6BA5 000000CE94 		      	stt  	r3,[r14]
FFFC6BAA C590500050 		      	call 	_DBGUpdateCursorPos
FFFC6BB0 000000FFCF 
                        	console_213:
FFFC6BB5 0385C00046 		      	bra  	console_198
                        	console_203:
FFFC6BBA 000000CD87 		      	ldt  	r3,[r13]
FFFC6BC0 002000035A 		      	ble  	r3,#0,console_215
FFFC6BC5 000000CD87 		      	ldt  	r3,[r13]
FFFC6BCA FFFFF0C304 		      	sub  	r3,r3,#1
FFFC6BD0 000000CD94 		      	stt  	r3,[r13]
FFFC6BD5 C590500050 		      	call 	_DBGUpdateCursorPos
FFFC6BDA 000000FFCF 
                        	console_215:
FFFC6BE0 035AC00046 		      	bra  	console_198
                        	console_204:
FFFC6BE5 000000CE87 		      	ldt  	r3,[r14]
FFFC6BEA 0020078359 		      	bge  	r3,#30,console_217
FFFC6BF0 000000CE87 		      	ldt  	r3,[r14]
FFFC6BF5 000010C304 		      	add  	r3,r3,#1
FFFC6BFA 000000CE94 		      	stt  	r3,[r14]
FFFC6C00 C590500050 		      	call 	_DBGUpdateCursorPos
FFFC6C05 000000FFCF 
                        	console_217:
FFFC6C0A 0330C00046 		      	bra  	console_198
                        	console_205:
FFFC6C10 000000CD87 		      	ldt  	r3,[r13]
FFFC6C15 000B000357 		      	bne  	r3,#0,console_219
FFFC6C1A 0000000E94 		      	stt  	r0,[r14]
                        	console_219:
FFFC6C20 0000000D94 		      	stt  	r0,[r13]
FFFC6C25 C590500050 		      	call 	_DBGUpdateCursorPos
FFFC6C2A 000000FFCF 
FFFC6C30 030AC00046 		      	bra  	console_198
                        	console_206:
FFFC6C35 000000C009 		      	ld   	r3,#-3145728
FFFC6C3A FFFFFFFFCD 
FFFC6C40 000002C330 		      	mov  	r11,r3
FFFC6C45 000000CD86 		      	ldd  	r3,[r13]
FFFC6C4A FFFEC0FB93 		      	std  	r3,-20[bp]
                        	console_221:
FFFC6C50 FFFEC0FB86 		      	ldd  	r3,-20[bp]
FFFC6C55 005514C359 		      	bge  	r3,#83,console_222
FFFC6C5A FFFEC17B86 		      	ldd  	r5,-20[bp]
FFFC6C60 0000018D87 		      	ldt  	r6,[r13]
FFFC6C65 0700418502 		      	sub  	r4,r5,r6
	      	shl  	r3,r4,#2
FFFC6C6A 4000308402 
FFFC6C70 FFFEC1FB86 		      	ldd  	r7,-20[bp]
FFFC6C75 0000020D87 		      	ldt  	r8,[r13]
FFFC6C7A 0700620702 		      	sub  	r6,r7,r8
	      	shl  	r5,r6,#2
FFFC6C80 4000508602 
FFFC6C85 040042C502 		      	add  	r4,r5,r11
	      	ldt  	r5,4[r4]
FFFC6C8A 0000414487 
FFFC6C90 000050CBB4 		      	stt  	r5,[r11+r3]
                        	console_223:
FFFC6C95 FFFEC0FB86 		      	ldd  	r3,-20[bp]
FFFC6C9A 000010C304 		      	add  	r3,r3,#1
FFFC6CA0 FFFEC0FB93 		      	std  	r3,-20[bp]
FFFC6CA5 FFABC00046 		      	bra  	console_221
                        	console_222:
FFFC6CAA FFFEC17B86 		      	ldd  	r5,-20[bp]
FFFC6CB0 0000018D87 		      	ldt  	r6,[r13]
FFFC6CB5 0700418502 		      	sub  	r4,r5,r6
	      	shl  	r3,r4,#2
FFFC6CBA 4000308402 
FFFC6CC0 0000014C87 		      	ldt  	r5,[r12]
FFFC6CC5 0000000370 		      	push 	r3
FFFC6CCA 0000000470 		      	push 	r4
FFFC6CD0 0000000570 		      	push 	r5
FFFC6CD5 0000001270 		      	push 	r18
FFFC6CDA 0002048009 		      	ld   	r18,#32
FFFC6CE0 C572500050 		      	call 	_AsciiToScreen
FFFC6CE5 000000FFCF 
FFFC6CEA 0000001271 		      	pop  	r18
FFFC6CF0 0000000571 		      	pop  	r5
FFFC6CF5 0000000471 		      	pop  	r4
FFFC6CFA 0000000371 		      	pop  	r3
FFFC6D00 0900404502 		      	or   	r4,r5,r1
	      	stt  	r4,[r11+r3]
FFFC6D05 000040CBB4 
FFFC6D0A 0230C00046 		      	bra  	console_198
                        	console_207:
FFFC6D10 000000CD87 		      	ldt  	r3,[r13]
FFFC6D15 00EB00035A 		      	ble  	r3,#0,console_224
FFFC6D1A 000000CD87 		      	ldt  	r3,[r13]
FFFC6D20 FFFFF0C304 		      	sub  	r3,r3,#1
FFFC6D25 000000CD94 		      	stt  	r3,[r13]
FFFC6D2A 000000C009 		      	ld   	r3,#-3145728
FFFC6D30 FFFFFFFFCD 
FFFC6D35 000002C330 		      	mov  	r11,r3
FFFC6D3A 000000CD86 		      	ldd  	r3,[r13]
FFFC6D40 FFFEC0FB93 		      	std  	r3,-20[bp]
                        	console_226:
FFFC6D45 FFFEC0FB86 		      	ldd  	r3,-20[bp]
FFFC6D4A 005614C359 		      	bge  	r3,#83,console_227
FFFC6D50 FFFEC17B86 		      	ldd  	r5,-20[bp]
FFFC6D55 0000018D87 		      	ldt  	r6,[r13]
FFFC6D5A 0700418502 		      	sub  	r4,r5,r6
	      	shl  	r3,r4,#2
FFFC6D60 4000308402 
FFFC6D65 FFFEC1FB86 		      	ldd  	r7,-20[bp]
FFFC6D6A 0000020D87 		      	ldt  	r8,[r13]
FFFC6D70 0700620702 		      	sub  	r6,r7,r8
	      	shl  	r5,r6,#2
FFFC6D75 4000508602 
FFFC6D7A 040042C502 		      	add  	r4,r5,r11
	      	ldt  	r5,4[r4]
FFFC6D80 0000414487 
FFFC6D85 000050CBB4 		      	stt  	r5,[r11+r3]
                        	console_228:
FFFC6D8A FFFEC0FB86 		      	ldd  	r3,-20[bp]
FFFC6D90 000010C304 		      	add  	r3,r3,#1
FFFC6D95 FFFEC0FB93 		      	std  	r3,-20[bp]
FFFC6D9A FFABC00046 		      	bra  	console_226
                        	console_227:
FFFC6DA0 FFFEC17B86 		      	ldd  	r5,-20[bp]
FFFC6DA5 0000018D87 		      	ldt  	r6,[r13]
FFFC6DAA 0700418502 		      	sub  	r4,r5,r6
	      	shl  	r3,r4,#2
FFFC6DB0 4000308402 
FFFC6DB5 0000014C87 		      	ldt  	r5,[r12]
FFFC6DBA 0000000370 		      	push 	r3
FFFC6DC0 0000000470 		      	push 	r4
FFFC6DC5 0000000570 		      	push 	r5
FFFC6DCA 0000001270 		      	push 	r18
FFFC6DD0 0002048009 		      	ld   	r18,#32
FFFC6DD5 C572500050 		      	call 	_AsciiToScreen
FFFC6DDA 000000FFCF 
FFFC6DE0 0000001271 		      	pop  	r18
FFFC6DE5 0000000571 		      	pop  	r5
FFFC6DEA 0000000471 		      	pop  	r4
FFFC6DF0 0000000371 		      	pop  	r3
FFFC6DF5 0900404502 		      	or   	r4,r5,r1
	      	stt  	r4,[r11+r3]
FFFC6DFA 000040CBB4 
                        	console_224:
FFFC6E00 013AC00046 		      	bra  	console_198
                        	console_208:
FFFC6E05 C5C8500050 		      	call 	_DBGClearScreen
FFFC6E0A 000000FFCF 
FFFC6E10 C5A2A00050 		      	call 	_DBGHomeCursor
FFFC6E15 000000FFCF 
FFFC6E1A 0120C00046 		      	bra  	console_198
                        	console_209:
FFFC6E20 0000001270 		      	push 	r18
FFFC6E25 0002048009 		      	ld   	r18,#32
FFFC6E2A C6A9500050 		      	call 	_DBGDisplayChar
FFFC6E30 000000FFCF 
FFFC6E35 0000001271 		      	pop  	r18
FFFC6E3A 0000001270 		      	push 	r18
FFFC6E40 0002048009 		      	ld   	r18,#32
FFFC6E45 C6A9500050 		      	call 	_DBGDisplayChar
FFFC6E4A 000000FFCF 
FFFC6E50 0000001271 		      	pop  	r18
FFFC6E55 0000001270 		      	push 	r18
FFFC6E5A 0002048009 		      	ld   	r18,#32
FFFC6E60 C6A9500050 		      	call 	_DBGDisplayChar
FFFC6E65 000000FFCF 
FFFC6E6A 0000001271 		      	pop  	r18
FFFC6E70 0000001270 		      	push 	r18
FFFC6E75 0002048009 		      	ld   	r18,#32
FFFC6E7A C6A9500050 		      	call 	_DBGDisplayChar
FFFC6E80 000000FFCF 
FFFC6E85 0000001271 		      	pop  	r18
FFFC6E8A 00B0C00046 		      	bra  	console_198
                        	console_210:
                        		      	     	
FFFC6E90 0003204009 				ldi		r1,#50
FFFC6E95 C060004094 				stt		r1,LEDS
FFFC6E9A 000000FFCD 
FFFC6EA0 000000C009 		      	ld   	r3,#-3145728
FFFC6EA5 FFFFFFFFCD 
FFFC6EAA 000002C330 		      	mov  	r11,r3
FFFC6EB0 0000014E87 		      	ldt  	r5,[r14]
FFFC6EB5 0005410510 		      	mul  	r4,r5,#84
FFFC6EBA 0000014D87 		      	ldt  	r5,[r13]
FFFC6EC0 0400314402 		      	add  	r3,r4,r5
	      	std  	r3,-20[bp]
FFFC6EC5 FFFEC0FB93 
                        		      	     	
FFFC6ECA 00000000F8 				mark1
FFFC6ED0 FFFEC13B86 		      	ldd  	r4,-20[bp]
FFFC6ED5 4000308402 		      	shl  	r3,r4,#2
FFFC6EDA 0000014C87 		      	ldt  	r5,[r12]
FFFC6EE0 0000000370 		      	push 	r3
FFFC6EE5 0000000470 		      	push 	r4
FFFC6EEA 0000000570 		      	push 	r5
FFFC6EF0 0000001270 		      	push 	r18
FFFC6EF5 C572500050 		      	call 	_AsciiToScreen
FFFC6EFA 000000FFCF 
FFFC6F00 0000001271 		      	pop  	r18
FFFC6F05 0000000571 		      	pop  	r5
FFFC6F0A 0000000471 		      	pop  	r4
FFFC6F10 0000000371 		      	pop  	r3
FFFC6F15 0900404502 		      	or   	r4,r5,r1
	      	stt  	r4,[r11+r3]
FFFC6F1A 000040CBB4 
FFFC6F20 C63B500050 		      	call 	_DBGIncrementCursorPos
FFFC6F25 000000FFCF 
                        		      	     	
FFFC6F2A 0003304009 				ldi		r1,#51
FFFC6F30 C060004094 				stt		r1,LEDS
FFFC6F35 000000FFCD 
                        	console_198:
                        	console_229:
FFFC6F3A 0000000E71 		      	pop  	r14
FFFC6F40 0000000D71 		      	pop  	r13
FFFC6F45 0000000C71 		      	pop  	r12
FFFC6F4A 0000000B71 		      	pop  	r11
FFFC6F50 00000FFB30 		      	mov  	sp,bp
FFFC6F55 0000003B71 		      	pop  	bp
FFFC6F5A 0000003A71 		      	pop  	xlr
FFFC6F60 0000000AEF 		      	ret  	#10
                        	console_195:
FFFC6F65 0000ADFB86 		      	ldd  	lr,10[bp]
FFFC6F6A 00014DFB93 		      	std  	lr,20[bp]
FFFC6F70 FFCAC00046 		      	bra  	console_229
                        	_DBGDisplayCharSTKSIZE_ EQU 30
FFFC6F75 0000000053 	public code _DBGCRLF:
	      	tgt  
FFFC6F7A 0000003A70 		      	push 	xlr
FFFC6F80 0000003B70 		      	push 	bp
FFFC6F85 C6FE5E8009 		      	ld   	xlr,#console_230
FFFC6F8A 000000FFCF 
FFFC6F90 00000EFF30 		      	mov  	bp,sp
FFFC6F95 00000FFF04 		      	sub  	sp,sp,#_DBGCRLFSTKSIZE_
FFFC6F9A 0000001270 		      	push 	r18
FFFC6FA0 0000D48009 		      	ld   	r18,#13
FFFC6FA5 C6A9500050 		      	call 	_DBGDisplayChar
FFFC6FAA 000000FFCF 
FFFC6FB0 0000001271 		      	pop  	r18
FFFC6FB5 0000001270 		      	push 	r18
FFFC6FBA 0000A48009 		      	ld   	r18,#10
FFFC6FC0 C6A9500050 		      	call 	_DBGDisplayChar
FFFC6FC5 000000FFCF 
FFFC6FCA 0000001271 		      	pop  	r18
                        	console_233:
FFFC6FD0 00000FFB30 		      	mov  	sp,bp
FFFC6FD5 0000003B71 		      	pop  	bp
FFFC6FDA 0000003A71 		      	pop  	xlr
FFFC6FE0 0000000AEF 		      	ret  	#10
                        	console_230:
FFFC6FE5 0000ADFB86 		      	ldd  	lr,10[bp]
FFFC6FEA 00014DFB93 		      	std  	lr,20[bp]
FFFC6FF0 FFE0C00046 		      	bra  	console_233
                        	endpublic
                        	
                        	_DBGCRLFSTKSIZE_ EQU 0
                        	_DBGDisplayString:
FFFC6FF5 0000000053 		      	tgt  
FFFC6FFA 0000003A70 		      	push 	xlr
FFFC7000 0000003B70 		      	push 	bp
FFFC7005 C7065E8009 		      	ld   	xlr,#console_234
FFFC700A 000000FFCF 
FFFC7010 00000EFF30 		      	mov  	bp,sp
FFFC7015 00000FFF04 		      	sub  	sp,sp,#_DBGDisplayStringSTKSIZE_
                        	console_237:
FFFC701A 000000D282 		      	ldw  	r3,[r18]
FFFC7020 0030000346 		      	beq  	r3,r0,console_238
FFFC7025 0000001270 		      	push 	r18
FFFC702A 000000D282 		      	ldw  	r3,[r18]
FFFC7030 0000048330 		      	mov  	r18,r3
FFFC7035 C6A9500050 		      	call 	_DBGDisplayChar
FFFC703A 000000FFCF 
FFFC7040 0000001271 		      	pop  	r18
FFFC7045 0000249204 		      	add  	r18,r18,#2
FFFC704A FFD0C00046 		      	bra  	console_237
                        	console_238:
                        	console_239:
FFFC7050 00000FFB30 		      	mov  	sp,bp
FFFC7055 0000003B71 		      	pop  	bp
FFFC705A 0000003A71 		      	pop  	xlr
FFFC7060 0000000AEF 		      	ret  	#10
                        	console_234:
FFFC7065 0000ADFB86 		      	ldd  	lr,10[bp]
FFFC706A 00014DFB93 		      	std  	lr,20[bp]
FFFC7070 FFE0C00046 		      	bra  	console_239
                        	_DBGDisplayStringSTKSIZE_ EQU 0
                        	_DBGDisplayStringCRLF:
FFFC7075 0000000053 		      	tgt  
FFFC707A 0000003A70 		      	push 	xlr
FFFC7080 0000003B70 		      	push 	bp
FFFC7085 C70D0E8009 		      	ld   	xlr,#console_240
FFFC708A 000000FFCF 
FFFC7090 00000EFF30 		      	mov  	bp,sp
FFFC7095 00000FFF04 		      	sub  	sp,sp,#_DBGDisplayStringCRLFSTKSIZE_
FFFC709A 0000001270 		      	push 	r18
FFFC70A0 C6FF500050 		      	call 	_DBGDisplayString
FFFC70A5 000000FFCF 
FFFC70AA 0000001271 		      	pop  	r18
FFFC70B0 C6F7500050 		      	call 	_DBGCRLF
FFFC70B5 000000FFCF 
                        	console_243:
FFFC70BA 00000FFB30 		      	mov  	sp,bp
FFFC70C0 0000003B71 		      	pop  	bp
FFFC70C5 0000003A71 		      	pop  	xlr
FFFC70CA 0000000AEF 		      	ret  	#10
                        	console_240:
FFFC70D0 0000ADFB86 		      	ldd  	lr,10[bp]
FFFC70D5 00014DFB93 		      	std  	lr,20[bp]
FFFC70DA FFE0C00046 		      	bra  	console_243
                        	_DBGDisplayStringCRLFSTKSIZE_ EQU 0
                        	_DBGHideCursor:
FFFC70E0 0000000053 		      	tgt  
FFFC70E5 0000003A70 		      	push 	xlr
FFFC70EA 0000003B70 		      	push 	bp
FFFC70F0 00000EFF30 		      	mov  	bp,sp
FFFC70F5 00000FFF04 		      	sub  	sp,sp,#_DBGHideCursorSTKSIZE_
FFFC70FA 000040FB86 		      	ldd  	r3,4[bp]
FFFC7100 001A000346 		      	beq  	r3,r0,console_247
                        		      	     	
FFFC7105 0002004009 				ldi		r1,#%00100000
FFFC710A A001004094 				stt		r1,$FFDA0010
FFFC7110 000000FFCD 
FFFC7115 0015C00046 		      	bra  	console_248
                        	console_247:
                        		      	     	
FFFC711A 000E004009 				ldi		r1,#%11100000
FFFC7120 A001004094 				stt		r1,$FFDA0010
FFFC7125 000000FFCD 
                        	console_248:
                        	console_249:
FFFC712A 00000FFB30 		      	mov  	sp,bp
FFFC7130 0000003B71 		      	pop  	bp
FFFC7135 0000003A71 		      	pop  	xlr
FFFC713A 0000000AEF 		      	ret  	#10
                        	_DBGHideCursorSTKSIZE_ EQU 0
                        		code
                        		align	16                        	
                        	_in8STKSIZE_ EQU 0
                        	_in8uSTKSIZE_ EQU 0
                        	_in16STKSIZE_ EQU 0
                        	_in16uSTKSIZE_ EQU 0
                        	_in32STKSIZE_ EQU 0
                        	_in32uSTKSIZE_ EQU 0
                        	_out8STKSIZE_ EQU 0
                        	_out16STKSIZE_ EQU 0
                        	_out32STKSIZE_ EQU 0
                        	_getCPUSTKSIZE_ EQU 0
                        	_set_vector:
FFFC7140 0000000053 		      	tgt  
FFFC7145 0000003A70 		      	push 	xlr
FFFC714A 0000003B70 		      	push 	bp
FFFC7150 00000E8030 		      	mov  	xlr,r0
FFFC7155 00000EFF30 		      	mov  	bp,sp
FFFC715A 00000FFF04 		      	sub  	sp,sp,#_set_vectorSTKSIZE_
FFFC7160 00203FD25E 		      	bleu 	r18,#511,PIC_3
FFFC7165 00000000C1 
                        	PIC_5:
FFFC716A 00000FFB30 		      	mov  	sp,bp
FFFC7170 0000003B71 		      	pop  	bp
FFFC7175 0000003A71 		      	pop  	xlr
FFFC717A 0000000AEF 		      	ret  	#10
                        	PIC_3:
FFFC7180 000A001357 		      	bne  	r19,#0,PIC_6
FFFC7185 FFE5C00046 		      	bra  	PIC_5
                        	PIC_6:
FFFC718A 0000A0D211 		      	mulu 	r3,r18,#10
FFFC7190 000004C393 		      	std  	r19,_interrupt_table[r3]
FFFC7195 FFD5C00046 		      	bra  	PIC_5
                        	PIC_0:
FFFC719A 0000ADFB86 		      	ldd  	lr,10[bp]
FFFC71A0 00014DFB93 		      	std  	lr,20[bp]
FFFC71A5 FFC5C00046 		      	bra  	PIC_5
                        	_set_vectorSTKSIZE_ EQU 0
FFFC71AA 0000000053 	public code _InitPIC:
	      	tgt  
FFFC71B0 0000003A70 		      	push 	xlr
FFFC71B5 0000003B70 		      	push 	bp
FFFC71BA C729AE8009 		      	ld   	xlr,#PIC_8
FFFC71C0 000000FFCF 
FFFC71C5 00000EFF30 		      	mov  	bp,sp
FFFC71CA 00000FFF04 		      	sub  	sp,sp,#_InitPICSTKSIZE_
FFFC71D0 0000001270 		      	push 	r18
FFFC71D5 0000001370 		      	push 	r19
FFFC71DA 0000C4C009 		      	ld   	r19,#1073741836
FFFC71E0 00000040C0 
FFFC71E5 C0FD048009 		      	ld   	r18,#-2355248
FFFC71EA FFFFFFFFCD 
FFFC71F0 0000000053 		      	tgt  
                        		      	     	
FFFC71F5 000004D294 				stt   r19,[r18]
                        	PIC_14:
                        	PIC_11:
                        	PIC_13:
FFFC71FA 0000001371 		      	pop  	r19
FFFC7200 0000001271 		      	pop  	r18
FFFC7205 0000000053 		      	tgt  
                        		      	     	
FFFC720A 300040400F 				csrrw	r1,#1,r0
                        	PIC_20:
                        	PIC_17:
                        	PIC_19:
FFFC7210 0040004157 		      	bne  	r1,#1,PIC_15
FFFC7215 0000001270 		      	push 	r18
FFFC721A 0000001370 		      	push 	r19
FFFC7220 000004C009 		      	ld   	r19,#-1073741824
FFFC7225 FFFFFFC0C0 
FFFC722A C0FC448009 		      	ld   	r18,#-2355260
FFFC7230 FFFFFFFFCD 
FFFC7235 0000000053 		      	tgt  
                        		      	     	
FFFC723A 000004D294 				stt   r19,[r18]
                        	PIC_24:
                        	PIC_21:
                        	PIC_23:
FFFC7240 0000001371 		      	pop  	r19
FFFC7245 0000001271 		      	pop  	r18
FFFC724A 003BC00046 		      	bra  	PIC_16
                        	PIC_15:
FFFC7250 0000001270 		      	push 	r18
FFFC7255 0000001370 		      	push 	r19
FFFC725A 0000B4C009 		      	ld   	r19,#1073741835
FFFC7260 00000040C0 
FFFC7265 C0FC448009 		      	ld   	r18,#-2355260
FFFC726A FFFFFFFFCD 
FFFC7270 0000000053 		      	tgt  
                        		      	     	
FFFC7275 000004D294 				stt   r19,[r18]
                        	PIC_28:
                        	PIC_25:
                        	PIC_27:
FFFC727A 0000001371 		      	pop  	r19
FFFC7280 0000001271 		      	pop  	r18
                        	PIC_16:
                        	PIC_29:
FFFC7285 00000FFB30 		      	mov  	sp,bp
FFFC728A 0000003B71 		      	pop  	bp
FFFC7290 0000003A71 		      	pop  	xlr
FFFC7295 0000000AEF 		      	ret  	#10
                        	PIC_8:
FFFC729A 0000ADFB86 		      	ldd  	lr,10[bp]
FFFC72A0 00014DFB93 		      	std  	lr,20[bp]
FFFC72A5 FFE0C00046 		      	bra  	PIC_29
                        	endpublic
                        	
                        	_InitPICSTKSIZE_ EQU 0
                        		code
FFFC72AA 0000000000 		align	1
                        	
                        	_UnlockSemaphoreSTKSIZE_ EQU 0
                        	_SetVBASTKSIZE_ EQU 0
                        	_LEDSSTKSIZE_ EQU 0
                        	_GetRunningTCBPtrSTKSIZE_ EQU 0
                        	_GetRunningTCBSTKSIZE_ EQU 0
                        	_SetRunningTCBSTKSIZE_ EQU 0
                        		code
                        		align	16                        	
FFFC72B0 0000000053 	public code _FMTK_FuncTbl:
	      	tgt  
                        		      	;    	      asm {
                        		      	     	
FFFC72B5       8F00       				dw  _FMTKInitialize
FFFC72B7       8670       				dw  _FMTK_StartTask
FFFC72B9       85E5       				dw  _FMTK_ExitTask
FFFC72BB       8180       				dw  _FMTK_KillTask
FFFC72BD       8D75       				dw  _FMTK_SetTaskPriority
FFFC72BF       8C15       				dw  _FMTK_Sleep
FFFC72C1       A400       				dw  _FMTK_AllocMbx
FFFC72C3       A5E5       				dw  _FMTK_FreeMbx
FFFC72C5       AEEA       				dw  _FMTK_PostMsg
FFFC72C7       AAD0       				dw  _FMTK_SendMsg
FFFC72C9       B310       				dw  _FMTK_WaitMsg
FFFC72CB       B8F0       				dw  _FMTK_CheckMsg
                        		      	;    	      }
                        	FMTKc_3:
                        	FMTKc_0:
                        	endpublic
                        	
                        	_FMTK_FuncTblSTKSIZE_ EQU 0
                        	_GetCauseCodeSTKSIZE_ EQU 0
                        	_GetTickSTKSIZE_ EQU 0
                        	_SetR1STKSIZE_ EQU 0
                        	_SetSPSTKSIZE_ EQU 0
                        	_AckTimerIRQSTKSIZE_ EQU 0
FFFC72CD 0000000053 	public code _DisplayIRQLive:
	      	tgt  
                        		      	;    	     asm {
                        		      	     	
FFFC72D2 000DC04088 				ldtu     r1,$FFD00000+220
FFFC72D7 000000FFCD 
FFFC72DC 0000104104 				addi     r1,r1,#1
FFFC72E1 000DC04094 				stt      r1,$FFD00000+220
FFFC72E6 000000FFCD 
FFFC72EB 0000000AEF 				ret
	      	;    	     }
                        	FMTKc_7:
                        	FMTKc_4:
                        	endpublic
                        	
                        	_DisplayIRQLiveSTKSIZE_ EQU 0
FFFC72F0 0000000053 	public code _GetJCBPtr:
	      	tgt  
FFFC72F5 0000003A70 		      	push 	xlr
FFFC72FA 0000003B70 		      	push 	bp
FFFC7300 C7385E8009 		      	ld   	xlr,#FMTKc_8
FFFC7305 000000FFCF 
FFFC730A 00000EFF30 		      	mov  	bp,sp
FFFC7310 00000FFF04 		      	sub  	sp,sp,#_GetJCBPtrSTKSIZE_
                        		      	;    	    return &jcbs[GetRunningTCBPtr()->hJob];
FFFC7315 0000000053 		      	tgt  
                        		      	;    	    asm {
                        		      	     	
FFFC731A 300400400F 				csrrw	r1,#$10,r0
                        		      	;    	    }
                        	FMTKc_14:
FFFC7320 0005C00046 		      	bra  	FMTKc_13
                        	FMTKc_11:
                        	FMTKc_13:
FFFC7325 0020E18186 		      	ldd  	r6,526[r1]
FFFC732A 0020E18191 		      	stw  	r6,526[r1]
FFFC7330 0020E18182 		      	ldw  	r6,526[r1]
FFFC7335 0000014630 		      	mov  	r5,r6
FFFC733A 4100520502 		      	shru 	r5,r5,#8
FFFC7340 000FF14508 		      	and  	r5,r5,#255
FFFC7345 FFF8018009 		      	ld   	r6,#-128
FFFC734A 0400518502 		      	add  	r5,r5,r6
	      	xor  	r5,r5,r6
	      	mulu 	r4,r5,#2048
FFFC7350 0A00518502 
FFFC7355 0080010511 
FFFC735A 020000C404 		      	add  	r3,r4,#_jcbs
FFFC7360 00000000CC 
                        		      	hint 	#2
FFFC7365 0000004330 		      	mov  	r1,r3
                        	FMTKc_15:
FFFC736A 00000FFB30 		      	mov  	sp,bp
FFFC7370 0000003B71 		      	pop  	bp
FFFC7375 0000003A71 		      	pop  	xlr
FFFC737A 0000000AEF 		      	ret  	#10
FFFC7380 FFEAC00046 		      	bra  	FMTKc_15
                        	FMTKc_8:
FFFC7385 0000ADFB86 		      	ldd  	lr,10[bp]
FFFC738A 00014DFB93 		      	std  	lr,20[bp]
FFFC7390 FFDAC00046 		      	bra  	FMTKc_15
                        	endpublic
                        	
                        	_GetJCBPtrSTKSIZE_ EQU 0
                        	_SevenSegSTKSIZE_ EQU 0
FFFC7395 0000000053 	public code _FMTK_IRQDispatch:
	      	tgt  
                        		      	;    		asm {
                        		      	     	
FFFC739A C73A500040 				jmp		_FMTK_IRQDispatch2
	      	;    		}
FFFC73A0 000000FFCF 
                        	FMTKc_19:
                        	FMTKc_16:
                        	endpublic
                        	
                        	_FMTK_IRQDispatchSTKSIZE_ EQU 0
FFFC73A5 0000000053 	public code _FMTK_IRQDispatch2:
	      	tgt  
                        		      	;    		asm {
                        		      	     	
FFFC73AA 300180400F 				csrrw	r1,#6,r0	// get the cause code
FFFC73B0 4000104102 				shl		r1,r1,#1
FFFC73B5 003C804122 				lw		r1,interrupt_table[r1]
FFFC73BA 00000000C0 
FFFC73C0 0000000140 				jmp		[r1]
                        		      	;    		}
                        	FMTKc_23:
                        	FMTKc_20:
                        	endpublic
                        	
                        	_FMTK_IRQDispatch2STKSIZE_ EQU 0
FFFC73C5 0000000053 	public code _SaveContext:
	      	tgt  
                        		      	;    		asm {
                        		      	     	
FFFC73CA 300400400F 				csrrw	r1,#$10,r0	// get pointer to TCB
FFFC73D0 301000800F 				csrrw	r2,#$40,r0	// EPC
FFFC73D5 0004A08194 				stt		r2,74[r1]
FFFC73DA 301040800F 				csrrw	r2,#$41,r0	// save sp
FFFC73E0 0003E08194 				stt		r2,62[r1]
FFFC73E5 301080800F 				csrrw	r2,#$42,r0	// and r1
FFFC73EA 0000208194 				stt		r2,2[r1]
FFFC73F0 3010C0800F 				csrrw	r2,#$43,r0	// and r2
FFFC73F5 0000408194 				stt		r2,4[r1]
                        				ipush
FFFC73FA 00000000E8 				cli					// now enable interrupts
FFFC7400 000060C193 				std		r3,6[r1]
FFFC7405 0000810193 				std		r4,8[r1]
FFFC740A 0000A14193 				std		r5,10[r1]
FFFC7410 0000C18193 				std		r6,12[r1]
FFFC7415 0000E1C193 				std		r7,14[r1]
FFFC741A 0001020193 				std		r8,16[r1]
FFFC7420 0001224193 				std		r9,18[r1]
FFFC7425 0001428193 				std		r10,20[r1]
FFFC742A 000162C193 				std		r11,22[r1]
FFFC7430 0001830193 				std		r12,24[r1]
FFFC7435 0001A34193 				std		r13,26[r1]
FFFC743A 0001C38193 				std		r14,28[r1]
FFFC7440 0001E3C193 				std		r15,30[r1]
FFFC7445 0002040193 				std		r16,32[r1]
FFFC744A 0002244193 				std		r17,34[r1]
FFFC7450 0002448193 				std		r18,36[r1]
FFFC7455 000264C193 				std		r19,38[r1]
FFFC745A 0002850193 				std		r20,40[r1]
FFFC7460 0002A54193 				std		r21,42[r1]
FFFC7465 0002C58193 				std		r22,44[r1]
FFFC746A 0002E5C193 				std		r23,46[r1]
FFFC7470 0003060193 				std		r24,48[r1]
FFFC7475 0003264193 				std		r25,50[r1]
FFFC747A 0003468193 				std		r26,52[r1]
FFFC7480 000366C193 				std		r27,54[r1]
FFFC7485 0003870193 				std		r28,56[r1]
FFFC748A 0003A74193 				std		r29,58[r1]
FFFC7490 0003C78193 				std		r30,60[r1]
FFFC7495 0000000AEF 				ret
	      	;    		}
                        	FMTKc_27:
                        	FMTKc_24:
                        	endpublic
                        	
                        	_SaveContextSTKSIZE_ EQU 0
                        	_RestoreContext:
FFFC749A 0000000053 		      	tgt  
                        		      	;    		asm {
                        		      	     	
FFFC74A0 300400120F 				csrrw	r0,#$10,r18		// set new TCB pointer
FFFC74A5 0000005230 				mov		r1,r18
FFFC74AA 0000408186 				ldd		r2,4[r1]
FFFC74B0 000060C186 				ldd		r3,6[r1]
FFFC74B5 0000810186 				ldd		r4,8[r1]
FFFC74BA 0000A14186 				ldd		r5,10[r1]
FFFC74C0 0000C18186 				ldd		r6,12[r1]
FFFC74C5 0000E1C186 				ldd		r7,14[r1]
FFFC74CA 0001020186 				ldd		r8,16[r1]
FFFC74D0 0001224186 				ldd		r9,18[r1]
FFFC74D5 0001428186 				ldd		r10,20[r1]
FFFC74DA 000162C186 				ldd		r11,22[r1]
FFFC74E0 0001830186 				ldd		r12,24[r1]
FFFC74E5 0001A34186 				ldd		r13,26[r1]
FFFC74EA 0001C38186 				ldd		r14,28[r1]
FFFC74F0 0001E3C186 				ldd		r15,30[r1]
FFFC74F5 0002040186 				ldd		r16,32[r1]
FFFC74FA 0002244186 				ldd		r17,34[r1]
FFFC7500 0002448186 				ldd		r18,36[r1]
FFFC7505 000264C186 				ldd		r19,38[r1]
FFFC750A 0002850186 				ldd		r20,40[r1]
FFFC7510 0002A54186 				ldd		r21,42[r1]
FFFC7515 0002C58186 				ldd		r22,44[r1]
FFFC751A 0002E5C186 				ldd		r23,46[r1]
FFFC7520 0003060186 				ldd		r24,48[r1]
FFFC7525 0003264186 				ldd		r25,50[r1]
FFFC752A 0003468186 				ldd		r26,52[r1]
FFFC7530 000366C186 				ldd		r27,54[r1]
FFFC7535 0003870186 				ldd		r28,56[r1]
FFFC753A 0003A74186 				ldd		r29,58[r1]
FFFC7540 0003C78186 				ldd		r30,60[r1]
FFFC7545 0003E7C186 				ldd		r31,62[r1]
                        				ipop					// This might enable or disable interrupts
FFFC754A 0000204186 				ldd		r1,2[r1]
                        				// An IRET will load sp,r1, and r2 from the interrupt stack, we
                        				// want these to be the value from the TCB
FFFC7550 3010403F0F 				csrrw	r0,#$41,sp
FFFC7555 301080010F 				csrrw	r0,#$42,r1
FFFC755A 3010C0020F 				csrrw	r0,#$43,r2
FFFC7560 300400400F 				csrrw	r1,#$10,r0		// Get TCB pointer
FFFC7565 0004A08186 				ldd		r2,74[r1]
FFFC756A 301000020F 				csrrw	r0,#$40,r2
FFFC7570 00000000E4 				iret	sf1				// This will enable interrupts, and allow system calls
                        		      	;    		}
                        	FMTKc_31:
                        	FMTKc_28:
                        	_RestoreContextSTKSIZE_ EQU 0
                        		code
FFFC7575 0000000000 		align	1
FFFC757A 0000000000 
                        	
                        	_SelectTaskToRun:
FFFC7580 0000000053 		      	tgt  
FFFC7585 0000003A70 		      	push 	xlr
FFFC758A 0000003B70 		      	push 	bp
FFFC7590 C794AE8009 		      	ld   	xlr,#FMTKc_36
FFFC7595 000000FFCF 
FFFC759A 00000EFF30 		      	mov  	bp,sp
FFFC75A0 FFFCCFFF04 		      	sub  	sp,sp,#_SelectTaskToRunSTKSIZE_
                        		      	;    		int nn,kk;
                        		      	;    		startQNdx++;
FFFC75A5 018C80C082 		      	ldw  	r3,FMTKc_33
FFFC75AA 00000001C0 
FFFC75B0 50F000C313 		      	bfext	r3,r3,#0,#15
FFFC75B5 018C80C090 		      	stb  	r3,FMTKc_33
FFFC75BA 00000001C0 
FFFC75C0 018C804024 		      	inc  	FMTKc_33,#1
FFFC75C5 00000001C0 
                        		      	;    		startQNdx &= 31;
FFFC75CA 018C80C082 		      	ldw  	r3,FMTKc_33
FFFC75D0 00000001C0 
FFFC75D5 50F000C313 		      	bfext	r3,r3,#0,#15
FFFC75DA 018C80C090 		      	stb  	r3,FMTKc_33
FFFC75E0 00000001C0 
FFFC75E5 018C80C082 		      	ldw  	r3,FMTKc_33
FFFC75EA 00000001C0 
FFFC75F0 0001F0C308 		      	and  	r3,r3,#31
FFFC75F5 018C80C091 		      	stw  	r3,FMTKc_33
FFFC75FA 00000001C0 
                        		      	;    		qToCheck = startQ[startQNdx];
FFFC7600 018C810082 		      	ldw  	r4,FMTKc_33
FFFC7605 00000001C0 
FFFC760A 50F0010413 		      	bfext	r4,r4,#0,#15
FFFC7610 018C810090 		      	stb  	r4,FMTKc_33
FFFC7615 00000001C0 
FFFC761A 018C810080 		      	ldb  	r4,FMTKc_33
FFFC7620 00000001C0 
FFFC7625 000020C411 		      	mulu 	r3,r4,#2
FFFC762A CE0C010382 		      	ldw  	r4,FMTKc_32[r3]
FFFC7630 000000FFCF 
FFFC7635 50F0010413 		      	bfext	r4,r4,#0,#15
FFFC763A CE0C010390 		      	stb  	r4,FMTKc_32[r3]
FFFC7640 000000FFCF 
FFFC7645 CE0C010386 		      	ldd  	r4,FMTKc_32[r3]
FFFC764A 000000FFCF 
FFFC7650 FFFCE13B93 		      	std  	r4,-50[bp]
                        		      	;    		qToCheck &= 7;
FFFC7655 FFFCE0FB86 		      	ldd  	r3,-50[bp]
FFFC765A 000070C308 		      	and  	r3,r3,#7
FFFC7660 FFFCE0FB93 		      	std  	r3,-50[bp]
                        		      	;    		for (nn = 0; nn < 8; nn++) {
FFFC7665 FFFF603B93 		      	std  	r0,-10[bp]
                        	FMTKc_39:
FFFC766A FFFF60FB86 		      	ldd  	r3,-10[bp]
FFFC7670 0290020359 		      	bge  	r3,#8,FMTKc_40
                        		      	;    			h = readyQ[qToCheck];
FFFC7675 FFFCC0FB82 		      	ldw  	r3,-52[bp]
FFFC767A 50F000C313 		      	bfext	r3,r3,#0,#15
FFFC7680 FFFCC0FB90 		      	stb  	r3,-52[bp]
FFFC7685 FFFCE13B86 		      	ldd  	r4,-50[bp]
FFFC768A 000020C411 		      	mulu 	r3,r4,#2
FFFC7690 6FC0410382 		      	ldw  	r4,_readyQ[r3]
FFFC7695 00000001C3 
FFFC769A 50F0010413 		      	bfext	r4,r4,#0,#15
FFFC76A0 6FC0410390 		      	stb  	r4,_readyQ[r3]
FFFC76A5 00000001C3 
FFFC76AA 6FC0410382 		      	ldw  	r4,_readyQ[r3]
FFFC76B0 00000001C3 
FFFC76B5 FFFCC13B91 		      	stw  	r4,-52[bp]
                        		      	;    			if (h >= 0 && h < 256) {
FFFC76BA FFFCC0FB82 		      	ldw  	r3,-52[bp]
FFFC76C0 50F000C313 		      	bfext	r3,r3,#0,#15
FFFC76C5 FFFCC0FB90 		      	stb  	r3,-52[bp]
FFFC76CA FFFCC0FB80 		      	ldb  	r3,-52[bp]
FFFC76D0 01FA000358 		      	blt  	r3,#0,FMTKc_42
FFFC76D5 FFFCC0FB82 		      	ldw  	r3,-52[bp]
FFFC76DA 50F000C313 		      	bfext	r3,r3,#0,#15
FFFC76E0 FFFCC0FB90 		      	stb  	r3,-52[bp]
FFFC76E5 FFFCC0FB80 		      	ldb  	r3,-52[bp]
FFFC76EA 01E0000359 		      	bge  	r3,#256,FMTKc_42
FFFC76F0 00000000C1 
                        		      	;    	    		p = &tcbs[h];
FFFC76F5 FFFCC17B82 		      	ldw  	r5,-52[bp]
FFFC76FA 50F0014513 		      	bfext	r5,r5,#0,#15
FFFC7700 FFFCC17B90 		      	stb  	r5,-52[bp]
FFFC7705 FFFCC17B80 		      	ldb  	r5,-52[bp]
FFFC770A 0040010511 		      	mulu 	r4,r5,#1024
FFFC7710 2FC000C404 		      	add  	r3,r4,#_tcbs
FFFC7715 00000001C3 
FFFC771A FFFE20FB93 		      	std  	r3,-30[bp]
                        		      	;    	            kk = 0;
FFFC7720 FFFEC03B93 		      	std  	r0,-20[bp]
                        		      	;    	            if (h != GetRunningTCB())
FFFC7725 FFFCC0FB82 		      	ldw  	r3,-52[bp]
FFFC772A 50F000C313 		      	bfext	r3,r3,#0,#15
FFFC7730 FFFCC0FB90 		      	stb  	r3,-52[bp]
FFFC7735 FFFCC0FB80 		      	ldb  	r3,-52[bp]
FFFC773A 0000000053 		      	tgt  
                        		      	;    	    asm {
                        		      	     	
FFFC7740 300400400F 				csrrw	r1,#$10,r0
FFFC7745 D040004104 				sub 	r1,r1,#_tcbs
FFFC774A FFFFFFFECC 
FFFC7750 4100124102 				shru 	r1,r1,#9
                        		      	;    	    }
                        	FMTKc_49:
FFFC7755 0005C00046 		      	bra  	FMTKc_48
                        	FMTKc_46:
                        	FMTKc_48:
FFFC775A 1700400102 		      	sxh  	r1,r1
FFFC7760 0015004346 		      	beq  	r3,r1,FMTKc_44
                        		      	;    	           		q = p;
FFFC7765 FFFE20FB86 		      	ldd  	r3,-30[bp]
FFFC776A FFFD80FB93 		      	std  	r3,-40[bp]
FFFC7770 0025C00046 		      	bra  	FMTKc_45
                        		      	;    	; else
                        	FMTKc_44:
                        		      	;    	           		q = &tcbs[p->next];
FFFC7775 FFFE217B86 		      	ldd  	r5,-30[bp]
FFFC777A 0018614582 		      	ldw  	r5,390[r5]
FFFC7780 0040010511 		      	mulu 	r4,r5,#1024
FFFC7785 2FC000C404 		      	add  	r3,r4,#_tcbs
FFFC778A 00000001C3 
FFFC7790 FFFD80FB93 		      	std  	r3,-40[bp]
                        	FMTKc_45:
                        		      	;    	            do {
                        	FMTKc_50:
                        		      	;    	                if (!(q->status & 8)) {
FFFC7795 FFFD817B86 		      	ldd  	r5,-40[bp]
FFFC779A 0020C14586 		      	ldd  	r5,524[r5]
FFFC77A0 0000010530 		      	mov  	r4,r5
FFFC77A5 4100420402 		      	shru 	r4,r4,#8
FFFC77AA 000FF10408 		      	and  	r4,r4,#255
FFFC77B0 FFF8014009 		      	ld   	r5,#-128
FFFC77B5 0400414402 		      	add  	r4,r4,r5
	      	xor  	r4,r4,r5
	      	and  	r3,r4,#8
FFFC77BA 0A00414402 
FFFC77C0 000080C408 
FFFC77C5 00B5000347 		      	bne  	r3,r0,FMTKc_52
                        		      	;    	                    if (q->affinity == getCPU()) {
FFFC77CA FFFD813B86 		      	ldd  	r4,-40[bp]
FFFC77D0 0020E10486 		      	ldd  	r4,526[r4]
FFFC77D5 000000C430 		      	mov  	r3,r4
FFFC77DA 000FF0C308 		      	and  	r3,r3,#255
FFFC77E0 FFF8010009 		      	ld   	r4,#-128
FFFC77E5 0400310302 		      	add  	r3,r3,r4
	      	xor  	r3,r3,r4
	      	push 	r3
FFFC77EA 0A00310302 
FFFC77F0 0000000370 
FFFC77F5 0000000050 		      	call 	_getCPU
FFFC77FA 0000000371 		      	pop  	r3
FFFC7800 007A004347 		      	bne  	r3,r1,FMTKc_54
                        		      	;    	        			   readyQ[qToCheck] = q - tcbs;
FFFC7805 FFFCE13B86 		      	ldd  	r4,-50[bp]
FFFC780A 000020C411 		      	mulu 	r3,r4,#2
FFFC7810 6FC0410382 		      	ldw  	r4,_readyQ[r3]
FFFC7815 00000001C3 
FFFC781A 50F0010413 		      	bfext	r4,r4,#0,#15
FFFC7820 6FC0410390 		      	stb  	r4,_readyQ[r3]
FFFC7825 00000001C3 
FFFC782A FFFD81BB86 		      	ldd  	r6,-40[bp]
FFFC7830 D040014604 		      	sub  	r5,r6,#_tcbs
FFFC7835 FFFFFFFECC 
FFFC783A 0040010519 		      	divu 	r4,r5,#1024
FFFC7840 6FC0410391 		      	stw  	r4,_readyQ[r3]
FFFC7845 00000001C3 
                        		      	;    	        			   return (q - tcbs);
FFFC784A FFFD817B86 		      	ldd  	r5,-40[bp]
FFFC7850 D040010504 		      	sub  	r4,r5,#_tcbs
FFFC7855 FFFFFFFECC 
FFFC785A 004000C419 		      	divu 	r3,r4,#1024
                        		      	hint 	#2
FFFC7860 0000004330 		      	mov  	r1,r3
                        	FMTKc_56:
FFFC7865 00000FFB30 		      	mov  	sp,bp
FFFC786A 0000003B71 		      	pop  	bp
FFFC7870 0000003A71 		      	pop  	xlr
FFFC7875 0000000AEF 		      	ret  	#10
                        	FMTKc_54:
                        	FMTKc_52:
                        		      	;    	                q = &tcbs[q->next];
FFFC787A FFFD817B86 		      	ldd  	r5,-40[bp]
FFFC7880 0018614582 		      	ldw  	r5,390[r5]
FFFC7885 0040010511 		      	mulu 	r4,r5,#1024
FFFC788A 2FC000C404 		      	add  	r3,r4,#_tcbs
FFFC7890 00000001C3 
FFFC7895 FFFD80FB93 		      	std  	r3,-40[bp]
                        		      	;    	                kk = kk + 1;
FFFC789A FFFEC13B86 		      	ldd  	r4,-20[bp]
FFFC78A0 000010C404 		      	add  	r3,r4,#1
FFFC78A5 FFFEC0FB93 		      	std  	r3,-20[bp]
FFFC78AA FFFD80FB86 		      	ldd  	r3,-40[bp]
FFFC78B0 FFFE213B86 		      	ldd  	r4,-30[bp]
FFFC78B5 0015010346 		      	beq  	r3,r4,FMTKc_57
FFFC78BA FFFEC0FB86 		      	ldd  	r3,-20[bp]
FFFC78C0 FED5000358 		      	blt  	r3,#256,FMTKc_50
FFFC78C5 00000000C1 
                        	FMTKc_57:
                        	FMTKc_51:
                        	FMTKc_42:
                        		      	;    			qToCheck++;
FFFC78CA FFFCE0FB86 		      	ldd  	r3,-50[bp]
FFFC78D0 000010C304 		      	add  	r3,r3,#1
FFFC78D5 FFFCE0FB93 		      	std  	r3,-50[bp]
                        		      	;    			qToCheck &= 7;
FFFC78DA FFFCE0FB86 		      	ldd  	r3,-50[bp]
FFFC78E0 000070C308 		      	and  	r3,r3,#7
FFFC78E5 FFFCE0FB93 		      	std  	r3,-50[bp]
                        	FMTKc_41:
FFFC78EA FFFF60FB86 		      	ldd  	r3,-10[bp]
FFFC78F0 000010C304 		      	add  	r3,r3,#1
FFFC78F5 FFFF60FB93 		      	std  	r3,-10[bp]
FFFC78FA FD70C00046 		      	bra  	FMTKc_39
                        	FMTKc_40:
                        		      	;    		return (GetRunningTCB());
FFFC7900 0000000053 		      	tgt  
                        		      	;    	    asm {
                        		      	     	
FFFC7905 300400400F 				csrrw	r1,#$10,r0
FFFC790A D040004104 				sub 	r1,r1,#_tcbs
FFFC7910 FFFFFFFECC 
FFFC7915 4100124102 				shru 	r1,r1,#9
                        		      	;    	    }
                        	FMTKc_61:
FFFC791A 0006C00046 		      	bra  	FMTKc_60
                        	FMTKc_58:
                        	FMTKc_60:
                        		      	hint 	#2
FFFC7920 0000004130 		      	mov  	r1,r1
FFFC7925 FF40C00046 		      	bra  	FMTKc_56
                        		      	;    		panic("No entries in ready queue.");
FFFC792A CE1580009C 		      	push 	#FMTKc_35
FFFC7930 000000FFCF 
FFFC7935 C7FF000050 		      	call 	_panic
FFFC793A 000000FFCF 
FFFC7940 0000AFFF04 		      	add  	sp,sp,#10
FFFC7945 FF20C00046 		      	bra  	FMTKc_56
                        	FMTKc_36:
FFFC794A 0000ADFB86 		      	ldd  	lr,10[bp]
FFFC7950 00014DFB93 		      	std  	lr,20[bp]
FFFC7955 FF10C00046 		      	bra  	FMTKc_56
                        	_SelectTaskToRunSTKSIZE_ EQU 52
FFFC795A 0000000053 	public code _FMTK_SystemCall:
	      	tgt  
                        		      	;    	    asm {
                        		      	     	
FFFC7960 400300810F 				csrrs  r1,#$0C,#2			// read status bit and set it
FFFC7965 0025004154 				bbc    r1,#1,.0002			// if it wasn't already set, okay to process
FFFC796A 301000400F 				csrrw	r1,#$40,r0			// get exceptioned PC
FFFC7970 0000104104 				add	r1,r1,#1			// increment to skip over static parameter
FFFC7975 301000010F 				csrrw  r0,#$40,r1			// write it back
FFFC797A 0010BCC00F 				csrrw  r0,#$42,#E_Busy		// store busy status in ER1 to be returned in r1
FFFC7980 00000000C3 
FFFC7985 00000000E4 				iret
                        				.0002:
FFFC798A 1BFFEFC009 				ld		sp,#_sysstack+2046	// set stack pointer
FFFC7990 00000000CC 
FFFC7995 C73C500050 				call	_SaveContext
FFFC799A 000000FFCF 
FFFC79A0 0004A28186 				ldd	r10,74[r1]			// get return address into r10
FFFC79A5 000012CA83 				ldwu   r11,1[r10]			// get static call number parameter into r11
FFFC79AA 0000128A04 				add    r10,r10,#1			// update return address
FFFC79B0 0004A28193 				std	r10,74[r1]			// set return address in epc
FFFC79B5 0000000170 				push	r1					// save TCB pointer
FFFC79BA 0000204186 				ldd	r1,2[r1]			// get r1 value for system function
FFFC79C0 0030050B5F 				bgtu   r11,#20,.bad_callno	// check the call number
FFFC79C5 4000B04B02 				shl    r11,r11,#1
                        				// 'C' uses r18 to r22 in order to pass parameters to a function
                        				// in registers.
FFFC79CA C72B02CB86 				ldd	r11,_FMTK_FuncTbl[r11]
FFFC79D0 000000FFCF 
FFFC79D5 0000000050 				call   [r11]				// do the system function
                        				.0001:
FFFC79DA 0000001271 				pop	r18					// get back TCB pointer
FFFC79E0 0000205293 				std	r1,2[r18]			// store return value in TCB.r1
FFFC79E5 C749A03F40 				jmp	_RestoreContext[pc]
FFFC79EA 000000FFCF 
                        				.bad_callno:
FFFC79F0 CD43A04009 				ldi   r1,#E_BadFuncno
FFFC79F5 000000FFCF 
FFFC79FA FFE0C00046 				bra   .0001   
                        		      	;    	    }
                        	FMTKc_65:
                        	FMTKc_62:
                        	endpublic
                        	
                        	_FMTK_SystemCallSTKSIZE_ EQU 0
FFFC7A00 0000000053 	public code _FMTK_SchedulerIRQ:
	      	tgt  
                        		      	;    			asm {
                        		      	     	
FFFC7A05 400300810F 				csrrs  r1,#$0C,#2			// read status bit and set it
FFFC7A0A 000B004154 				bbc    r1,#1,.0002			// check bit #1
FFFC7A10 00000000E4 				iret
                        				.0002:
FFFC7A15 1BFFEFC009 				ld		sp,#_sysstack+2046
FFFC7A1A 00000000CC 
                        		      	;    			}
                        		      	;    			SaveContext();
FFFC7A20 C73C500050 		      	call 	_SaveContext
FFFC7A25 000000FFCF 
                        		      	;    	    TCB *t;
                        		      	;    		t = GetRunningTCBPtr();
FFFC7A2A 0000000053 		      	tgt  
                        		      	;    	    asm {
                        		      	     	
FFFC7A30 300400400F 				csrrw	r1,#$10,r0
                        		      	;    	    }
                        	FMTKc_72:
FFFC7A35 0005C00046 		      	bra  	FMTKc_71
                        	FMTKc_69:
                        	FMTKc_71:
FFFC7A3A FFFF607B93 		      	std  	r1,-10[bp]
                        		      	;    		t->endTick = GetTick();
FFFC7A40 FFFF60FB86 		      	ldd  	r3,-10[bp]
FFFC7A45 0000000370 		      	push 	r3
FFFC7A4A 0000000053 		      	tgt  
                        		      	;    		asm	{
                        		      	     	
FFFC7A50 300080400F 				csrrw	r1,#2,r0
                        		      	;    		}
                        	FMTKc_76:
FFFC7A55 0005C00046 		      	bra  	FMTKc_75
                        	FMTKc_73:
                        	FMTKc_75:
FFFC7A5A 0000000371 		      	pop  	r3
FFFC7A60 0021C04393 		      	std  	r1,540[r3]
                        		      	;    		switch(GetCauseCode()) {
FFFC7A65 0000000053 		      	tgt  
                        		      	;    	    asm {
                        		      	     	
FFFC7A6A 300180400F 				csrrw	r1,#6,r0
                        		      	;    	    }
                        	FMTKc_82:
FFFC7A70 0005C00046 		      	bra  	FMTKc_81
                        	FMTKc_79:
                        	FMTKc_81:
FFFC7A75 001530C156 		      	beq  	r1,#451,FMTKc_78
FFFC7A7A 00000000C1 
FFFC7A80 034A008156 		      	beq  	r1,#2,FMTKc_83
FFFC7A85 0440C00046 		      	bra  	FMTKc_84
                        	FMTKc_78:
                        		      	;    			if (getCPU()==0) DisplayIRQLive();
FFFC7A8A 0000000050 		      	call 	_getCPU
FFFC7A90 0010000157 		      	bne  	r1,#0,FMTKc_85
FFFC7A95 C72CD00050 		      	call 	_DisplayIRQLive
FFFC7A9A 000000FFCF 
                        	FMTKc_85:
                        		      	;    			if (LockSemaphore(&sys_sema,10)) {
FFFC7AA0 0000001270 		      	push 	r18
FFFC7AA5 0000001370 		      	push 	r19
                        		      	hint 	#1
FFFC7AAA 0000A4C009 		      	ld   	r19,#10
                        		      	hint 	#1
FFFC7AB0 0142048009 		      	ld   	r18,#_sys_sema
FFFC7AB5 C524000050 		      	call 	_LockSemaphore
FFFC7ABA 000000FFCF 
FFFC7AC0 0000001371 		      	pop  	r19
FFFC7AC5 0000001271 		      	pop  	r18
FFFC7ACA 02E0000146 		      	beq  	r1,r0,FMTKc_87
                        		      	;    				t->ticks = t->ticks + (t->endTick - t->startTick);
FFFC7AD0 FFFF60FB86 		      	ldd  	r3,-10[bp]
FFFC7AD5 FFFF617B86 		      	ldd  	r5,-10[bp]
FFFC7ADA 0022614586 		      	ldd  	r5,550[r5]
FFFC7AE0 FFFF61FB86 		      	ldd  	r7,-10[bp]
FFFC7AE5 0021C1C786 		      	ldd  	r7,540[r7]
FFFC7AEA FFFF623B86 		      	ldd  	r8,-10[bp]
FFFC7AF0 0021220886 		      	ldd  	r8,530[r8]
FFFC7AF5 0700620702 		      	sub  	r6,r7,r8
	      	add  	r4,r5,r6
	      	std  	r4,550[r3]
FFFC7AFA 0400418502 
FFFC7B00 0022610393 
                        		      	;    				if (t->priority != 000) {
FFFC7B05 FFFF613B86 		      	ldd  	r4,-10[bp]
FFFC7B0A 0020C10486 		      	ldd  	r4,524[r4]
FFFC7B10 000000C430 		      	mov  	r3,r4
FFFC7B15 000FF0C308 		      	and  	r3,r3,#255
FFFC7B1A FFF8010009 		      	ld   	r4,#-128
FFFC7B20 0400310302 		      	add  	r3,r3,r4
	      	xor  	r3,r3,r4
	      	beq  	r3,#0,FMTKc_89
FFFC7B25 0A00310302 
FFFC7B2A 0240000356 
                        		      	;    					t->status = 4;
FFFC7B30 FFFF60FB86 		      	ldd  	r3,-10[bp]
FFFC7B35 0000410009 		      	ld   	r4,#4
FFFC7B3A 0020C14386 		      	ldd  	r5,524[r3]
FFFC7B40 000FF10408 		      	and  	r4,r4,#255
FFFC7B45 4500520502 		      	ror  	r5,r5,#8
FFFC7B4A FFF0014508 		      	and  	r5,r5,#-256
FFFC7B50 0900510502 		      	or   	r5,r5,r4
	      	rol  	r5,r5,#8
FFFC7B55 4400520502 
FFFC7B5A 0020C14393 		      	std  	r5,524[r3]
                        		      	;    					while (TimeoutList >= 0 && TimeoutList < 256) {
                        	FMTKc_91:
FFFC7B60 6FC020C082 		      	ldw  	r3,_TimeoutList
FFFC7B65 00000001C3 
FFFC7B6A 50F000C313 		      	bfext	r3,r3,#0,#15
FFFC7B70 6FC020C090 		      	stb  	r3,_TimeoutList
FFFC7B75 00000001C3 
FFFC7B7A 6FC020C080 		      	ldb  	r3,_TimeoutList
FFFC7B80 00000001C3 
FFFC7B85 0140000358 		      	blt  	r3,#0,FMTKc_92
FFFC7B8A 6FC020C082 		      	ldw  	r3,_TimeoutList
FFFC7B90 00000001C3 
FFFC7B95 50F000C313 		      	bfext	r3,r3,#0,#15
FFFC7B9A 6FC020C090 		      	stb  	r3,_TimeoutList
FFFC7BA0 00000001C3 
FFFC7BA5 6FC020C080 		      	ldb  	r3,_TimeoutList
FFFC7BAA 00000001C3 
FFFC7BB0 0115000359 		      	bge  	r3,#256,FMTKc_92
FFFC7BB5 00000000C1 
                        		      	;    						if (tcbs[TimeoutList].timeout<=0)
FFFC7BBA 6FC0214082 		      	ldw  	r5,_TimeoutList
FFFC7BC0 00000001C3 
FFFC7BC5 50F0014513 		      	bfext	r5,r5,#0,#15
FFFC7BCA 6FC0214090 		      	stb  	r5,_TimeoutList
FFFC7BD0 00000001C3 
FFFC7BD5 6FC0214080 		      	ldb  	r5,_TimeoutList
FFFC7BDA 00000001C3 
FFFC7BE0 0040010511 		      	mulu 	r4,r5,#1024
FFFC7BE5 2FC000C404 		      	add  	r3,r4,#_tcbs
FFFC7BEA 00000001C3 
FFFC7BF0 001AE0C386 		      	ldd  	r3,430[r3]
FFFC7BF5 003000035B 		      	bgt  	r3,#0,FMTKc_93
                        		      	;    							InsertIntoReadyList(PopTimeoutList());
FFFC7BFA 0000001270 		      	push 	r18
FFFC7C00 CC48500050 		      	call 	_PopTimeoutList
FFFC7C05 000000FFCF 
                        		      	hint 	#1
FFFC7C0A 0000048130 		      	mov  	r18,r1
FFFC7C10 CBBB000050 		      	call 	_InsertIntoReadyList
FFFC7C15 000000FFCF 
FFFC7C1A 0000001271 		      	pop  	r18
FFFC7C20 00A0C00046 		      	bra  	FMTKc_94
                        		      	;    	; else
                        	FMTKc_93:
                        		      	;    							tcbs[TimeoutList].timeout = tcbs[TimeoutList].timeout - missed_ticks - 1;
FFFC7C25 6FC0214082 		      	ldw  	r5,_TimeoutList
FFFC7C2A 00000001C3 
FFFC7C30 50F0014513 		      	bfext	r5,r5,#0,#15
FFFC7C35 6FC0214090 		      	stb  	r5,_TimeoutList
FFFC7C3A 00000001C3 
FFFC7C40 6FC0214080 		      	ldb  	r5,_TimeoutList
FFFC7C45 00000001C3 
FFFC7C4A 0040010511 		      	mulu 	r4,r5,#1024
FFFC7C50 2FC000C404 		      	add  	r3,r4,#_tcbs
FFFC7C55 00000001C3 
FFFC7C5A 6FC0220082 		      	ldw  	r8,_TimeoutList
FFFC7C60 00000001C3 
FFFC7C65 50F0020813 		      	bfext	r8,r8,#0,#15
FFFC7C6A 6FC0220090 		      	stb  	r8,_TimeoutList
FFFC7C70 00000001C3 
FFFC7C75 6FC0220080 		      	ldb  	r8,_TimeoutList
FFFC7C7A 00000001C3 
FFFC7C80 004001C811 		      	mulu 	r7,r8,#1024
FFFC7C85 2FC0018704 		      	add  	r6,r7,#_tcbs
FFFC7C8A 00000001C3 
FFFC7C90 001AE18686 		      	ldd  	r6,430[r6]
FFFC7C95 3086C1C086 		      	ldd  	r7,_missed_ticks
FFFC7C9A 00000001C2 
FFFC7CA0 070051C602 		      	sub  	r5,r6,r7
	      	sub  	r4,r5,#1
FFFC7CA5 FFFFF10504 
FFFC7CAA 001AE10393 		      	std  	r4,430[r3]
                        		      	;    							missed_ticks = 0;
FFFC7CB0 3086C00093 		      	std  	r0,_missed_ticks
FFFC7CB5 00000001C2 
                        		      	;    							break;
FFFC7CBA 000BC00046 		      	bra  	FMTKc_92
                        	FMTKc_94:
FFFC7CC0 FEA0C00046 		      	bra  	FMTKc_91
                        	FMTKc_92:
                        		      	;    					if (t->priority > 002)
FFFC7CC5 FFFF613B86 		      	ldd  	r4,-10[bp]
FFFC7CCA 0020C10486 		      	ldd  	r4,524[r4]
FFFC7CD0 000000C430 		      	mov  	r3,r4
FFFC7CD5 000FF0C308 		      	and  	r3,r3,#255
FFFC7CDA FFF8010009 		      	ld   	r4,#-128
FFFC7CE0 0400310302 		      	add  	r3,r3,r4
	      	xor  	r3,r3,r4
	      	ble  	r3,#2,FMTKc_95
FFFC7CE5 0A00310302 
FFFC7CEA 004000835A 
                        		      	;    					SetRunningTCB(SelectTaskToRun());
FFFC7CF0 0000001270 		      	push 	r18
FFFC7CF5 C758000050 		      	call 	_SelectTaskToRun
FFFC7CFA 000000FFCF 
                        		      	hint 	#1
FFFC7D00 0000048130 		      	mov  	r18,r1
FFFC7D05 0000000053 		      	tgt  
                        		      	;    	     asm {
                        		      	     	
FFFC7D0A 4000125202 				shl     r1,r18,#9
FFFC7D10 2FC0004104 				add     r1,r1,#_tcbs
FFFC7D15 00000001C3 
FFFC7D1A 300400010F 				csrrw	 r0,#$10,r1
                        		      	;    	     }
                        	FMTKc_100:
FFFC7D20 0005C00046 		      	bra  	FMTKc_99
                        	FMTKc_97:
                        	FMTKc_99:
FFFC7D25 0000001271 		      	pop  	r18
                        	FMTKc_95:
                        		      	;    					GetRunningTCBPtr()->status = 8;
FFFC7D2A 0000000053 		      	tgt  
                        		      	;    	    asm {
                        		      	     	
FFFC7D30 300400400F 				csrrw	r1,#$10,r0
                        		      	;    	    }
                        	FMTKc_104:
FFFC7D35 0005C00046 		      	bra  	FMTKc_103
                        	FMTKc_101:
                        	FMTKc_103:
FFFC7D3A 000080C009 		      	ld   	r3,#8
FFFC7D40 0020C10186 		      	ldd  	r4,524[r1]
FFFC7D45 000FF0C308 		      	and  	r3,r3,#255
FFFC7D4A 4500420402 		      	ror  	r4,r4,#8
FFFC7D50 FFF0010408 		      	and  	r4,r4,#-256
FFFC7D55 090040C402 		      	or   	r4,r4,r3
	      	rol  	r4,r4,#8
FFFC7D5A 4400420402 
FFFC7D60 0020C10193 		      	std  	r4,524[r1]
FFFC7D65 0020C00046 		      	bra  	FMTKc_90
                        		      	;    	; else
                        	FMTKc_89:
                        		      	;    					missed_ticks++;
FFFC7D6A 3086C0C086 		      	ldd  	r3,_missed_ticks
FFFC7D70 00000001C2 
FFFC7D75 000010C304 		      	add  	r3,r3,#1
FFFC7D7A 3086C0C093 		      	std  	r3,_missed_ticks
FFFC7D80 00000001C2 
                        	FMTKc_90:
                        		      	;    				UnlockSemaphore(&sys_sema);
FFFC7D85 0000001270 		      	push 	r18
                        		      	hint 	#1
FFFC7D8A 0142048009 		      	ld   	r18,#_sys_sema
FFFC7D90 0000000053 		      	tgt  
                        		      	;    		asm {
                        		      	     	
FFFC7D95 0000001293 				std	r0,[r18]
                        		      	;    		}
                        	FMTKc_108:
FFFC7D9A 0006C00046 		      	bra  	FMTKc_107
                        	FMTKc_105:
                        	FMTKc_107:
FFFC7DA0 0000001271 		      	pop  	r18
FFFC7DA5 0020C00046 		      	bra  	FMTKc_88
                        		      	;    	; else
                        	FMTKc_87:
                        		      	;    				missed_ticks++;
FFFC7DAA 3086C0C086 		      	ldd  	r3,_missed_ticks
FFFC7DB0 00000001C2 
FFFC7DB5 000010C304 		      	add  	r3,r3,#1
FFFC7DBA 3086C0C093 		      	std  	r3,_missed_ticks
FFFC7DC0 00000001C2 
                        	FMTKc_88:
                        		      	;    			break;
FFFC7DC5 0100C00046 		      	bra  	FMTKc_77
                        	FMTKc_83:
                        		      	;    			t->ticks = t->ticks + (t->endTick - t->startTick);
FFFC7DCA FFFF60FB86 		      	ldd  	r3,-10[bp]
FFFC7DD0 FFFF617B86 		      	ldd  	r5,-10[bp]
FFFC7DD5 0022614586 		      	ldd  	r5,550[r5]
FFFC7DDA FFFF61FB86 		      	ldd  	r7,-10[bp]
FFFC7DE0 0021C1C786 		      	ldd  	r7,540[r7]
FFFC7DE5 FFFF623B86 		      	ldd  	r8,-10[bp]
FFFC7DEA 0021220886 		      	ldd  	r8,530[r8]
FFFC7DF0 0700620702 		      	sub  	r6,r7,r8
	      	add  	r4,r5,r6
	      	std  	r4,550[r3]
FFFC7DF5 0400418502 
FFFC7DFA 0022610393 
                        		      	;    			t->status = 4;
FFFC7E00 FFFF60FB86 		      	ldd  	r3,-10[bp]
FFFC7E05 0000410009 		      	ld   	r4,#4
FFFC7E0A 0020C14386 		      	ldd  	r5,524[r3]
FFFC7E10 000FF10408 		      	and  	r4,r4,#255
FFFC7E15 4500520502 		      	ror  	r5,r5,#8
FFFC7E1A FFF0014508 		      	and  	r5,r5,#-256
FFFC7E20 0900510502 		      	or   	r5,r5,r4
	      	rol  	r5,r5,#8
FFFC7E25 4400520502 
FFFC7E2A 0020C14393 		      	std  	r5,524[r3]
                        		      	;    			t->ipc = t->ipc + 1;  // advance the return address
FFFC7E30 FFFF60FB86 		      	ldd  	r3,-10[bp]
FFFC7E35 FFFF617B86 		      	ldd  	r5,-10[bp]
FFFC7E3A 0015E14586 		      	ldd  	r5,350[r5]
FFFC7E40 0000110504 		      	add  	r4,r5,#1
FFFC7E45 0015E10393 		      	std  	r4,350[r3]
                        		      	;    			SetRunningTCB(SelectTaskToRun());
FFFC7E4A 0000001270 		      	push 	r18
FFFC7E50 C758000050 		      	call 	_SelectTaskToRun
FFFC7E55 000000FFCF 
                        		      	hint 	#1
FFFC7E5A 0000048130 		      	mov  	r18,r1
FFFC7E60 0000000053 		      	tgt  
                        		      	;    	     asm {
                        		      	     	
FFFC7E65 4000125202 				shl     r1,r18,#9
FFFC7E6A 2FC0004104 				add     r1,r1,#_tcbs
FFFC7E70 00000001C3 
FFFC7E75 300400010F 				csrrw	 r0,#$10,r1
                        		      	;    	     }
                        	FMTKc_112:
FFFC7E7A 0006C00046 		      	bra  	FMTKc_111
                        	FMTKc_109:
                        	FMTKc_111:
FFFC7E80 0000001271 		      	pop  	r18
                        		      	;    			GetRunningTCBPtr()->status = 8;
FFFC7E85 0000000053 		      	tgt  
                        		      	;    	    asm {
                        		      	     	
FFFC7E8A 300400400F 				csrrw	r1,#$10,r0
                        		      	;    	    }
                        	FMTKc_116:
FFFC7E90 0005C00046 		      	bra  	FMTKc_115
                        	FMTKc_113:
                        	FMTKc_115:
FFFC7E95 000080C009 		      	ld   	r3,#8
FFFC7E9A 0020C10186 		      	ldd  	r4,524[r1]
FFFC7EA0 000FF0C308 		      	and  	r3,r3,#255
FFFC7EA5 4500420402 		      	ror  	r4,r4,#8
FFFC7EAA FFF0010408 		      	and  	r4,r4,#-256
FFFC7EB0 090040C402 		      	or   	r4,r4,r3
	      	rol  	r4,r4,#8
FFFC7EB5 4400420402 
FFFC7EBA 0020C10193 		      	std  	r4,524[r1]
                        		      	;    			break;
FFFC7EC0 0005C00046 		      	bra  	FMTKc_77
                        	FMTKc_84:
                        		      	;    		default:  ;
                        	FMTKc_77:
                        		      	;    		t = GetRunningTCBPtr();
FFFC7EC5 0000000053 		      	tgt  
                        		      	;    	    asm {
                        		      	     	
FFFC7ECA 300400400F 				csrrw	r1,#$10,r0
                        		      	;    	    }
                        	FMTKc_120:
FFFC7ED0 0005C00046 		      	bra  	FMTKc_119
                        	FMTKc_117:
                        	FMTKc_119:
FFFC7ED5 FFFF607B93 		      	std  	r1,-10[bp]
                        		      	;    		if (t->exception) {
FFFC7EDA FFFF60FB86 		      	ldd  	r3,-10[bp]
FFFC7EE0 002300C386 		      	ldd  	r3,560[r3]
FFFC7EE5 00B5000346 		      	beq  	r3,r0,FMTKc_121
                        		      	;    			t->regs[29] = t->regs[28];   // set link register to catch handler
FFFC7EEA 0001D10009 		      	ld   	r4,#29
FFFC7EF0 0000A0C411 		      	mulu 	r3,r4,#10
FFFC7EF5 FFFF617B86 		      	ldd  	r5,-10[bp]
FFFC7EFA 0000010504 		      	add  	r4,r5,#0
FFFC7F00 0001C18009 		      	ld   	r6,#28
FFFC7F05 0000A14611 		      	mulu 	r5,r6,#10
FFFC7F0A FFFF61FB86 		      	ldd  	r7,-10[bp]
FFFC7F10 0000018704 		      	add  	r6,r7,#0
FFFC7F15 00007146A6 		      	ldd  	r7,[r6+r5]
FFFC7F1A 000070C4B3 		      	std  	r7,[r4+r3]
                        		      	;    			t->epc = t->regs[28];        // and the PC register
FFFC7F20 FFFF60FB86 		      	ldd  	r3,-10[bp]
FFFC7F25 0001C14009 		      	ld   	r5,#28
FFFC7F2A 0000A10511 		      	mulu 	r4,r5,#10
FFFC7F30 FFFF61BB86 		      	ldd  	r6,-10[bp]
FFFC7F35 0000014604 		      	add  	r5,r6,#0
FFFC7F3A 00004105A6 		      	ldd  	r4,[r5+r4]
FFFC7F40 0017210393 		      	std  	r4,370[r3]
                        		      	;    			t->regs[1] = t->exception;    // r1 = exception value
FFFC7F45 0000110009 		      	ld   	r4,#1
FFFC7F4A 0000A0C411 		      	mulu 	r3,r4,#10
FFFC7F50 FFFF617B86 		      	ldd  	r5,-10[bp]
FFFC7F55 0000010504 		      	add  	r4,r5,#0
FFFC7F5A FFFF617B86 		      	ldd  	r5,-10[bp]
FFFC7F60 0023018586 		      	ldd  	r6,560[r5]
FFFC7F65 000060C4B3 		      	std  	r6,[r4+r3]
                        		      	;    			t->exception = 0;
FFFC7F6A FFFF60FB86 		      	ldd  	r3,-10[bp]
FFFC7F70 0000010009 		      	ld   	r4,#0
FFFC7F75 0023010393 		      	std  	r4,560[r3]
                        		      	;    			t->regs[2] = 24;              // r2 = exception type
FFFC7F7A 0000210009 		      	ld   	r4,#2
FFFC7F80 0000A0C411 		      	mulu 	r3,r4,#10
FFFC7F85 FFFF617B86 		      	ldd  	r5,-10[bp]
FFFC7F8A 0000010504 		      	add  	r4,r5,#0
FFFC7F90 0001814009 		      	ld   	r5,#24
FFFC7F95 000050C4B3 		      	std  	r5,[r4+r3]
                        	FMTKc_121:
                        		      	;    		t->startTick = GetTick();
FFFC7F9A FFFF60FB86 		      	ldd  	r3,-10[bp]
FFFC7FA0 0000000370 		      	push 	r3
FFFC7FA5 0000000053 		      	tgt  
                        		      	;    		asm	{
                        		      	     	
FFFC7FAA 300080400F 				csrrw	r1,#2,r0
                        		      	;    		}
                        	FMTKc_126:
FFFC7FB0 0005C00046 		      	bra  	FMTKc_125
                        	FMTKc_123:
                        	FMTKc_125:
FFFC7FB5 0000000371 		      	pop  	r3
FFFC7FBA 0021204393 		      	std  	r1,530[r3]
                        		      	;    		RestoreContext(t);
FFFC7FC0 0000001270 		      	push 	r18
FFFC7FC5 FFFF60FB86 		      	ldd  	r3,-10[bp]
                        		      	hint 	#1
FFFC7FCA 0000048330 		      	mov  	r18,r3
FFFC7FD0 C749A00050 		      	call 	_RestoreContext
FFFC7FD5 000000FFCF 
FFFC7FDA 0000001271 		      	pop  	r18
                        	FMTKc_127:
                        	FMTKc_66:
FFFC7FE0 0000ADFB86 		      	ldd  	lr,10[bp]
FFFC7FE5 00014DFB93 		      	std  	lr,20[bp]
FFFC7FEA FFF6C00046 		      	bra  	FMTKc_127
                        	endpublic
                        	
                        	_FMTK_SchedulerIRQSTKSIZE_ EQU 10
                        	_panic:
FFFC7FF0 0000000053 		      	tgt  
FFFC7FF5 0000003A70 		      	push 	xlr
FFFC7FFA 0000003B70 		      	push 	bp
FFFC8000 C804AE8009 		      	ld   	xlr,#FMTKc_129
FFFC8005 000000FFCF 
FFFC800A 00000EFF30 		      	mov  	bp,sp
FFFC8010 00000FFF04 		      	sub  	sp,sp,#_panicSTKSIZE_
                        		      	;    	     putstr(msg);
FFFC8015 000060FB86 		      	ldd  	r3,6[bp]
FFFC801A 0000000370 		      	push 	r3
FFFC8020 C32BA00050 		      	call 	_putstr
FFFC8025 000000FFCF 
FFFC802A 0000AFFF04 		      	add  	sp,sp,#10
                        		      	;    	j1:  goto j1;
                        	FMTKc_128:
FFFC8030 0000C00046 		      	bra  	FMTKc_128
                        	FMTKc_132:
FFFC8035 00000FFB30 		      	mov  	sp,bp
FFFC803A 0000003B71 		      	pop  	bp
FFFC8040 0000003A71 		      	pop  	xlr
FFFC8045 0000000AEF 		      	ret  	#10
                        	FMTKc_129:
FFFC804A 0000ADFB86 		      	ldd  	lr,10[bp]
FFFC8050 00014DFB93 		      	std  	lr,20[bp]
FFFC8055 FFE0C00046 		      	bra  	FMTKc_132
                        	_panicSTKSIZE_ EQU 0
                        		code
FFFC805A 0000000000 		align	1
                        	
FFFC8060 0000000053 	public code _IdleTask:
	      	tgt  
FFFC8065 0000003A70 		      	push 	xlr
FFFC806A 0000003B70 		      	push 	bp
FFFC8070 C8165E8009 		      	ld   	xlr,#FMTKc_136
FFFC8075 000000FFCF 
FFFC807A 00000EFF30 		      	mov  	bp,sp
FFFC8080 FFFECFFF04 		      	sub  	sp,sp,#_IdleTaskSTKSIZE_
                        		      	;    	     int ii;
FFFC8085 000000C009 		      	ld   	r3,#-3145728
FFFC808A FFFFFFFFCD 
FFFC8090 FFFEC0FB93 		      	std  	r3,-20[bp]
                        		      	;    	j1:  ;
                        	FMTKc_133:
                        		      	;    	         forever {
                        	FMTKc_139:
                        		      	;    	             try {
FFFC8095 C80DAE8009 		      	ld   	xlr,#FMTKc_142
FFFC809A 000000FFCF 
                        		      	;    	                 ii++;
FFFC80A0 FFFF60FB86 		      	ldd  	r3,-10[bp]
FFFC80A5 000010C304 		      	add  	r3,r3,#1
FFFC80AA FFFF60FB93 		      	std  	r3,-10[bp]
                        		      	;    	                 if (getCPU()==0) {
FFFC80B0 0000000050 		      	call 	_getCPU
FFFC80B5 0020000157 		      	bne  	r1,#0,FMTKc_143
                        		      	;    	                     screen[57] = ii;
FFFC80BA 0003910009 		      	ld   	r4,#57
FFFC80C0 000040C411 		      	mulu 	r3,r4,#4
FFFC80C5 FFFEC13B86 		      	ldd  	r4,-20[bp]
FFFC80CA FFFF617B87 		      	ldt  	r5,-10[bp]
FFFC80D0 000050C4B4 		      	stt  	r5,[r4+r3]
                        	FMTKc_143:
FFFC80D5 006BC00046 		      	bra  	FMTKc_141
                        	FMTKc_142:
                        		      	;    	             catch(static __exception ex=0) {
                        	FMTKc_145:
FFFC80DA 00500A4257 		      	bnei 	r2,#41,FMTKc_146
FFFC80E0 018CA04093 		      	std  	r1,FMTKc_134
FFFC80E5 00000001C0 
                        		      	;    	                 if (ex&0xFFFFFFFFL==515) {
FFFC80EA 018CA10086 		      	ldd  	r4,FMTKc_134
FFFC80F0 00000001C0 
FFFC80F5 FFFFF18009 		      	ld   	r6,#-1
FFFC80FA 0020314676 		      	seq  	r5,r6,#515
FFFC8100 0800314402 		      	and  	r3,r4,r5
	      	beq  	r3,r0,FMTKc_146
FFFC8105 0025000346 
                        		      	;    	                     printf("IdleTask: CTRL-C pressed.\r\n");
FFFC810A CE1200009C 		      	push 	#FMTKc_135
FFFC8110 000000FFCF 
FFFC8115 C351000050 		      	call 	_printf
FFFC811A 000000FFCF 
FFFC8120 0000AFFF04 		      	add  	sp,sp,#10
FFFC8125 001BC00046 		      	bra  	FMTKc_147
                        		      	;    	; else
                        	FMTKc_146:
                        		      	;    	                     throw ex;
FFFC812A 018CA04022 		      	lw   	r1,FMTKc_134
FFFC8130 00000001C0 
FFFC8135 0002908009 		      	ld   	r2,#41
FFFC813A 002BC00046 		      	bra  	FMTKc_136
                        	FMTKc_147:
                        	FMTKc_150:
                        	FMTKc_141:
FFFC8140 C8165E8009 		      	ld   	xlr,#FMTKc_136
FFFC8145 000000FFCF 
FFFC814A FF4BC00046 		      	bra  	FMTKc_139
                        	FMTKc_140:
                        	FMTKc_151:
FFFC8150 00000FFB30 		      	mov  	sp,bp
FFFC8155 0000003B71 		      	pop  	bp
FFFC815A 0000003A71 		      	pop  	xlr
FFFC8160 0000000AEF 		      	ret  	#10
                        	FMTKc_136:
FFFC8165 0000ADFB86 		      	ldd  	lr,10[bp]
FFFC816A 00014DFB93 		      	std  	lr,20[bp]
FFFC8170 FFE0C00046 		      	bra  	FMTKc_151
                        	endpublic
                        	
                        	_IdleTaskSTKSIZE_ EQU 20
                        		code
FFFC8175 0000000000 		align	1
FFFC817A 0000000000 
                        	
                        	_FMTK_KillTask:
FFFC8180 0000000053 		      	tgt  
FFFC8185 0000003A70 		      	push 	xlr
FFFC818A 0000003B70 		      	push 	bp
FFFC8190 C85D5E8009 		      	ld   	xlr,#FMTKc_152
FFFC8195 000000FFCF 
FFFC819A 00000EFF30 		      	mov  	bp,sp
FFFC81A0 FFFE2FFF04 		      	sub  	sp,sp,#_FMTK_KillTaskSTKSIZE_
                        		      	;    	    hTCB ht;
                        		      	;    	    asm { };
                        		      	     	
                        		      	;    	    ht = taskno;
FFFC81A5 FFFFE0FB82 		      	ldw  	r3,-2[bp]
FFFC81AA 50F000C313 		      	bfext	r3,r3,#0,#15
FFFC81B0 FFFFE0FB90 		      	stb  	r3,-2[bp]
FFFC81B5 FFFFE4BB91 		      	stw  	r18,-2[bp]
                        		      	;    	    if (LockSemaphore(&sys_sema,-1)) {
FFFC81BA 0000001270 		      	push 	r18
FFFC81C0 0000001370 		      	push 	r19
                        		      	hint 	#1
FFFC81C5 FFFFF4C009 		      	ld   	r19,#-1
                        		      	hint 	#1
FFFC81CA 0142048009 		      	ld   	r18,#_sys_sema
FFFC81D0 C524000050 		      	call 	_LockSemaphore
FFFC81D5 000000FFCF 
FFFC81DA 0000001371 		      	pop  	r19
FFFC81E0 0000001271 		      	pop  	r18
FFFC81E5 03DB000146 		      	beq  	r1,r0,FMTKc_155
                        		      	;    	        RemoveFromReadyList(ht);
FFFC81EA 0000001270 		      	push 	r18
FFFC81F0 FFFFE0FB82 		      	ldw  	r3,-2[bp]
FFFC81F5 50F000C313 		      	bfext	r3,r3,#0,#15
FFFC81FA FFFFE0FB90 		      	stb  	r3,-2[bp]
FFFC8200 FFFFE0FB80 		      	ldb  	r3,-2[bp]
                        		      	hint 	#1
FFFC8205 0000048330 		      	mov  	r18,r3
FFFC820A CBED000050 		      	call 	_RemoveFromReadyList
FFFC8210 000000FFCF 
FFFC8215 0000001271 		      	pop  	r18
                        		      	;    	        RemoveFromTimeoutList(ht);
FFFC821A 0000001270 		      	push 	r18
FFFC8220 FFFFE0FB82 		      	ldw  	r3,-2[bp]
FFFC8225 50F000C313 		      	bfext	r3,r3,#0,#15
FFFC822A FFFFE0FB90 		      	stb  	r3,-2[bp]
FFFC8230 FFFFE0FB80 		      	ldb  	r3,-2[bp]
                        		      	hint 	#1
FFFC8235 0000048330 		      	mov  	r18,r3
FFFC823A CC33500050 		      	call 	_RemoveFromTimeoutList
FFFC8240 000000FFCF 
FFFC8245 0000001271 		      	pop  	r18
                        		      	;    	        for (nn = 0; nn < 4; nn++)
FFFC824A FFFEC03B93 		      	std  	r0,-20[bp]
                        	FMTKc_157:
FFFC8250 FFFEC0FB86 		      	ldd  	r3,-20[bp]
FFFC8255 0170010359 		      	bge  	r3,#4,FMTKc_158
                        		      	;    	            if (tcbs[ht].hMailboxes[nn] >= 0 && tcbs[ht].hMailboxes[nn] < 1024) {
FFFC825A FFFEC13B86 		      	ldd  	r4,-20[bp]
FFFC8260 000020C411 		      	mulu 	r3,r4,#2
FFFC8265 FFFFE1FB82 		      	ldw  	r7,-2[bp]
FFFC826A 50F001C713 		      	bfext	r7,r7,#0,#15
FFFC8270 FFFFE1FB90 		      	stb  	r7,-2[bp]
FFFC8275 FFFFE1FB80 		      	ldb  	r7,-2[bp]
FFFC827A 0040018711 		      	mulu 	r6,r7,#1024
FFFC8280 2FC0014604 		      	add  	r5,r6,#_tcbs
FFFC8285 00000001C3 
FFFC828A 0020010504 		      	add  	r4,r5,#512
FFFC8290 000050C4A2 		      	ldw  	r5,[r4+r3]
FFFC8295 50F0014513 		      	bfext	r5,r5,#0,#15
FFFC829A 000050C4B0 		      	stb  	r5,[r4+r3]
FFFC82A0 000030C4A0 		      	ldb  	r3,[r4+r3]
FFFC82A5 010B000358 		      	blt  	r3,#0,FMTKc_160
FFFC82AA FFFEC13B86 		      	ldd  	r4,-20[bp]
FFFC82B0 000020C411 		      	mulu 	r3,r4,#2
FFFC82B5 FFFFE1FB82 		      	ldw  	r7,-2[bp]
FFFC82BA 50F001C713 		      	bfext	r7,r7,#0,#15
FFFC82C0 FFFFE1FB90 		      	stb  	r7,-2[bp]
FFFC82C5 FFFFE1FB80 		      	ldb  	r7,-2[bp]
FFFC82CA 0040018711 		      	mulu 	r6,r7,#1024
FFFC82D0 2FC0014604 		      	add  	r5,r6,#_tcbs
FFFC82D5 00000001C3 
FFFC82DA 0020010504 		      	add  	r4,r5,#512
FFFC82E0 000050C4A2 		      	ldw  	r5,[r4+r3]
FFFC82E5 50F0014513 		      	bfext	r5,r5,#0,#15
FFFC82EA 000050C4B0 		      	stb  	r5,[r4+r3]
FFFC82F0 000030C4A0 		      	ldb  	r3,[r4+r3]
FFFC82F5 00BB000359 		      	bge  	r3,#1024,FMTKc_160
FFFC82FA 00000000C4 
                        		      	;    	                FMTK_FreeMbx(tcbs[ht].hMailboxes[nn]);
FFFC8300 FFFEC13B86 		      	ldd  	r4,-20[bp]
FFFC8305 000020C411 		      	mulu 	r3,r4,#2
FFFC830A FFFFE1FB82 		      	ldw  	r7,-2[bp]
FFFC8310 50F001C713 		      	bfext	r7,r7,#0,#15
FFFC8315 FFFFE1FB90 		      	stb  	r7,-2[bp]
FFFC831A FFFFE1FB80 		      	ldb  	r7,-2[bp]
FFFC8320 0040018711 		      	mulu 	r6,r7,#1024
FFFC8325 2FC0014604 		      	add  	r5,r6,#_tcbs
FFFC832A 00000001C3 
FFFC8330 0020010504 		      	add  	r4,r5,#512
FFFC8335 000050C4A2 		      	ldw  	r5,[r4+r3]
FFFC833A 50F0014513 		      	bfext	r5,r5,#0,#15
FFFC8340 000050C4B0 		      	stb  	r5,[r4+r3]
FFFC8345 000030C4A0 		      	ldb  	r3,[r4+r3]
FFFC834A 0000000370 		      	push 	r3
FFFC8350 CA5E500050 		      	call 	_FMTK_FreeMbx
FFFC8355 000000FFCF 
FFFC835A 0000AFFF04 		      	add  	sp,sp,#10
                        		      	;    	                tcbs[ht].hMailboxes[nn] = -1;
FFFC8360 FFFEC13B86 		      	ldd  	r4,-20[bp]
FFFC8365 000020C411 		      	mulu 	r3,r4,#2
FFFC836A FFFFE1FB82 		      	ldw  	r7,-2[bp]
FFFC8370 50F001C713 		      	bfext	r7,r7,#0,#15
FFFC8375 FFFFE1FB90 		      	stb  	r7,-2[bp]
FFFC837A FFFFE1FB80 		      	ldb  	r7,-2[bp]
FFFC8380 0040018711 		      	mulu 	r6,r7,#1024
FFFC8385 2FC0014604 		      	add  	r5,r6,#_tcbs
FFFC838A 00000001C3 
FFFC8390 0020010504 		      	add  	r4,r5,#512
FFFC8395 000050C4A2 		      	ldw  	r5,[r4+r3]
FFFC839A 50F0014513 		      	bfext	r5,r5,#0,#15
FFFC83A0 000050C4B0 		      	stb  	r5,[r4+r3]
FFFC83A5 FFFFF14009 		      	ld   	r5,#-1
FFFC83AA 000050C4B1 		      	stw  	r5,[r4+r3]
                        	FMTKc_160:
                        	FMTKc_159:
FFFC83B0 FFFEC0FB86 		      	ldd  	r3,-20[bp]
FFFC83B5 000010C304 		      	add  	r3,r3,#1
FFFC83BA FFFEC0FB93 		      	std  	r3,-20[bp]
FFFC83C0 FE90C00046 		      	bra  	FMTKc_157
                        	FMTKc_158:
                        		      	;    	        j = &jcbs[tcbs[ht].hJob];
FFFC83C5 FFFFE23B82 		      	ldw  	r8,-2[bp]
FFFC83CA 50F0020813 		      	bfext	r8,r8,#0,#15
FFFC83D0 FFFFE23B90 		      	stb  	r8,-2[bp]
FFFC83D5 FFFFE23B80 		      	ldb  	r8,-2[bp]
FFFC83DA 004001C811 		      	mulu 	r7,r8,#1024
FFFC83E0 2FC0018704 		      	add  	r6,r7,#_tcbs
FFFC83E5 00000001C3 
FFFC83EA 0020E1C686 		      	ldd  	r7,526[r6]
FFFC83F0 0020E1C691 		      	stw  	r7,526[r6]
FFFC83F5 0020E18682 		      	ldw  	r6,526[r6]
FFFC83FA 0000014630 		      	mov  	r5,r6
FFFC8400 4100520502 		      	shru 	r5,r5,#8
FFFC8405 000FF14508 		      	and  	r5,r5,#255
FFFC840A FFF8018009 		      	ld   	r6,#-128
FFFC8410 0400518502 		      	add  	r5,r5,r6
	      	xor  	r5,r5,r6
	      	mulu 	r4,r5,#2048
FFFC8415 0A00518502 
FFFC841A 0080010511 
FFFC8420 020000C404 		      	add  	r3,r4,#_jcbs
FFFC8425 00000000CC 
FFFC842A FFFE20FB93 		      	std  	r3,-30[bp]
                        		      	;    	        for (nn = 0; nn < 8; nn++) {
FFFC8430 FFFEC03B93 		      	std  	r0,-20[bp]
                        	FMTKc_162:
FFFC8435 FFFEC0FB86 		      	ldd  	r3,-20[bp]
FFFC843A 0090020359 		      	bge  	r3,#8,FMTKc_163
                        		      	;    	            if (j->tasks[nn]==ht)
FFFC8440 FFFEC13B86 		      	ldd  	r4,-20[bp]
FFFC8445 000020C411 		      	mulu 	r3,r4,#2
FFFC844A FFFE217B86 		      	ldd  	r5,-30[bp]
FFFC8450 006C410504 		      	add  	r4,r5,#1732
FFFC8455 000050C4A2 		      	ldw  	r5,[r4+r3]
FFFC845A 50F0014513 		      	bfext	r5,r5,#0,#15
FFFC8460 000050C4B0 		      	stb  	r5,[r4+r3]
FFFC8465 000030C4A0 		      	ldb  	r3,[r4+r3]
FFFC846A FFFFE13B82 		      	ldw  	r4,-2[bp]
FFFC8470 50F0010413 		      	bfext	r4,r4,#0,#15
FFFC8475 FFFFE13B90 		      	stb  	r4,-2[bp]
FFFC847A FFFFE13B80 		      	ldb  	r4,-2[bp]
FFFC8480 0035010347 		      	bne  	r3,r4,FMTKc_165
                        		      	;    	                j->tasks[nn] = -1;
FFFC8485 FFFEC13B86 		      	ldd  	r4,-20[bp]
FFFC848A 000020C411 		      	mulu 	r3,r4,#2
FFFC8490 FFFE217B86 		      	ldd  	r5,-30[bp]
FFFC8495 006C410504 		      	add  	r4,r5,#1732
FFFC849A 000050C4A2 		      	ldw  	r5,[r4+r3]
FFFC84A0 50F0014513 		      	bfext	r5,r5,#0,#15
FFFC84A5 000050C4B0 		      	stb  	r5,[r4+r3]
FFFC84AA FFFFF14009 		      	ld   	r5,#-1
FFFC84B0 000050C4B1 		      	stw  	r5,[r4+r3]
                        	FMTKc_165:
                        	FMTKc_164:
FFFC84B5 FFFEC0FB86 		      	ldd  	r3,-20[bp]
FFFC84BA 000010C304 		      	add  	r3,r3,#1
FFFC84C0 FFFEC0FB93 		      	std  	r3,-20[bp]
FFFC84C5 FF70C00046 		      	bra  	FMTKc_162
                        	FMTKc_163:
                        		      	;    	        for (nn = 0; nn < 8; nn++)
FFFC84CA FFFEC03B93 		      	std  	r0,-20[bp]
                        	FMTKc_167:
FFFC84D0 FFFEC0FB86 		      	ldd  	r3,-20[bp]
FFFC84D5 0050020359 		      	bge  	r3,#8,FMTKc_168
                        		      	;    	            if (j->tasks[nn]!=-1)
FFFC84DA FFFEC13B86 		      	ldd  	r4,-20[bp]
FFFC84E0 000020C411 		      	mulu 	r3,r4,#2
FFFC84E5 FFFE217B86 		      	ldd  	r5,-30[bp]
FFFC84EA 006C410504 		      	add  	r4,r5,#1732
FFFC84F0 000050C4A2 		      	ldw  	r5,[r4+r3]
FFFC84F5 50F0014513 		      	bfext	r5,r5,#0,#15
FFFC84FA 000050C4B0 		      	stb  	r5,[r4+r3]
FFFC8500 000030C4A0 		      	ldb  	r3,[r4+r3]
FFFC8505 000B3FC356 		      	beq  	r3,#-1,FMTKc_170
                        		      	;    	                break;
FFFC850A 001BC00046 		      	bra  	FMTKc_168
                        	FMTKc_170:
                        	FMTKc_169:
FFFC8510 FFFEC0FB86 		      	ldd  	r3,-20[bp]
FFFC8515 000010C304 		      	add  	r3,r3,#1
FFFC851A FFFEC0FB93 		      	std  	r3,-20[bp]
FFFC8520 FFB0C00046 		      	bra  	FMTKc_167
                        	FMTKc_168:
                        		      	;    	        if (nn == 8) {
FFFC8525 FFFEC0FB86 		      	ldd  	r3,-20[bp]
FFFC852A 0076020357 		      	bne  	r3,#8,FMTKc_172
                        		      	;    	            j->next = freeJCB;
FFFC8530 FFFE20FB86 		      	ldd  	r3,-30[bp]
FFFC8535 3081410082 		      	ldw  	r4,_freeJCB
FFFC853A 00000001C2 
FFFC8540 50F0010413 		      	bfext	r4,r4,#0,#15
FFFC8545 3081410090 		      	stb  	r4,_freeJCB
FFFC854A 00000001C2 
FFFC8550 3081410082 		      	ldw  	r4,_freeJCB
FFFC8555 00000001C2 
FFFC855A 0FFFF10408 		      	and  	r4,r4,#65535
FFFC8560 006D410391 		      	stw  	r4,1748[r3]
                        		      	;    	            freeJCB = j - jcbs;
FFFC8565 308140C082 		      	ldw  	r3,_freeJCB
FFFC856A 00000001C2 
FFFC8570 50F000C313 		      	bfext	r3,r3,#0,#15
FFFC8575 308140C090 		      	stb  	r3,_freeJCB
FFFC857A 00000001C2 
FFFC8580 FFFE217B86 		      	ldd  	r5,-30[bp]
FFFC8585 FE00010504 		      	sub  	r4,r5,#_jcbs
FFFC858A FFFFFFFFC3 
FFFC8590 008000C419 		      	divu 	r3,r4,#2048
FFFC8595 308140C091 		      	stw  	r3,_freeJCB
FFFC859A 00000001C2 
                        	FMTKc_172:
                        		      	;    	        UnlockSemaphore(&sys_sema);
FFFC85A0 0000001270 		      	push 	r18
                        		      	hint 	#1
FFFC85A5 0142048009 		      	ld   	r18,#_sys_sema
FFFC85AA 0000000053 		      	tgt  
                        		      	;    		asm {
                        		      	     	
FFFC85B0 0000001293 				std	r0,[r18]
                        		      	;    		}
                        	FMTKc_177:
FFFC85B5 0005C00046 		      	bra  	FMTKc_176
                        	FMTKc_174:
                        	FMTKc_176:
FFFC85BA 0000001271 		      	pop  	r18
                        	FMTKc_155:
                        	FMTKc_178:
FFFC85C0 00000FFB30 		      	mov  	sp,bp
FFFC85C5 0000003B71 		      	pop  	bp
FFFC85CA 0000003A71 		      	pop  	xlr
FFFC85D0 0000000AEF 		      	ret  	#10
                        	FMTKc_152:
FFFC85D5 0000ADFB86 		      	ldd  	lr,10[bp]
FFFC85DA 00014DFB93 		      	std  	lr,20[bp]
FFFC85E0 FFE0C00046 		      	bra  	FMTKc_178
                        	_FMTK_KillTaskSTKSIZE_ EQU 30
FFFC85E5 0000000053 	public code _FMTK_ExitTask:
	      	tgt  
FFFC85EA 0000003A70 		      	push 	xlr
FFFC85F0 0000003B70 		      	push 	bp
FFFC85F5 C865AE8009 		      	ld   	xlr,#FMTKc_180
FFFC85FA 000000FFCF 
FFFC8600 00000EFF30 		      	mov  	bp,sp
FFFC8605 00000FFF04 		      	sub  	sp,sp,#_FMTK_ExitTaskSTKSIZE_
                        		      	;    	    asm { };
                        		      	     	
                        		      	;    	    KillTask(GetRunningTCB());
FFFC860A 0000000053 		      	tgt  
                        		      	;    	    asm {
                        		      	     	
FFFC8610 300400400F 				csrrw	r1,#$10,r0
FFFC8615 D040004104 				sub 	r1,r1,#_tcbs
FFFC861A FFFFFFFECC 
FFFC8620 4100124102 				shru 	r1,r1,#9
                        		      	;    	    }
                        	FMTKc_186:
FFFC8625 0005C00046 		      	bra  	FMTKc_185
                        	FMTKc_183:
                        	FMTKc_185:
FFFC862A 0000000170 		      	push 	r1
FFFC8630 0000000050 		      	call 	_KillTask
FFFC8635 0000AFFF04 		      	add  	sp,sp,#10
                        		      	;    	    asm { int #2 }     // reschedule
                        		      	     	
FFFC863A 000080021B 				int #2 
                        		      	;    	j1: goto j1;
                        	FMTKc_179:
FFFC8640 0000C00046 		      	bra  	FMTKc_179
                        	FMTKc_187:
FFFC8645 00000FFB30 		      	mov  	sp,bp
FFFC864A 0000003B71 		      	pop  	bp
FFFC8650 0000003A71 		      	pop  	xlr
FFFC8655 0000000AEF 		      	ret  	#10
                        	FMTKc_180:
FFFC865A 0000ADFB86 		      	ldd  	lr,10[bp]
FFFC8660 00014DFB93 		      	std  	lr,20[bp]
FFFC8665 FFE0C00046 		      	bra  	FMTKc_187
                        	endpublic
                        	
                        	_FMTK_ExitTaskSTKSIZE_ EQU 0
                        		code
FFFC866A 0000000000 		align	1
                        	
                        	_FMTK_StartTask:
FFFC8670 0000000053 		      	tgt  
FFFC8675 0000003A70 		      	push 	xlr
FFFC867A 0000003B70 		      	push 	bp
FFFC8680 C8C05E8009 		      	ld   	xlr,#FMTKc_188
FFFC8685 000000FFCF 
FFFC868A 00000EFF30 		      	mov  	bp,sp
FFFC8690 FFFE2FFF04 		      	sub  	sp,sp,#_FMTK_StartTaskSTKSIZE_
                        		      	;    	    hTCB ht;
                        		      	;    	    asm {
                        		      	     	
FFFC8695 0003C04009 				ldi   r1,#60
FFFC869A C060004094 				stt    r1,$FFDC0600
FFFC86A0 000000FFCD 
                        		      	;    	    }
                        		      	;    	    asm { };
                        		      	     	
                        		      	;    	    if (LockSemaphore(&sys_sema,100000)) {
FFFC86A5 0000001270 		      	push 	r18
FFFC86AA 0000001370 		      	push 	r19
                        		      	hint 	#1
FFFC86B0 186A04C009 		      	ld   	r19,#100000
                        		      	hint 	#1
FFFC86B5 0142048009 		      	ld   	r18,#_sys_sema
FFFC86BA C524000050 		      	call 	_LockSemaphore
FFFC86C0 000000FFCF 
FFFC86C5 0000001371 		      	pop  	r19
FFFC86CA 0000001271 		      	pop  	r18
FFFC86D0 00D5000146 		      	beq  	r1,r0,FMTKc_191
                        		      	;    	    asm {
                        		      	     	
FFFC86D5 0003D04009 				ldi   r1,#61
FFFC86DA C060004094 				stt    r1,$FFDC0600
FFFC86E0 000000FFCD 
                        		      	;    	    }
                        		      	;    	        ht = freeTCB;
FFFC86E5 FFFFE0FB82 		      	ldw  	r3,-2[bp]
FFFC86EA 50F000C313 		      	bfext	r3,r3,#0,#15
FFFC86F0 FFFFE0FB90 		      	stb  	r3,-2[bp]
FFFC86F5 6FC000C082 		      	ldw  	r3,_freeTCB
FFFC86FA 00000001C3 
FFFC8700 50F000C313 		      	bfext	r3,r3,#0,#15
FFFC8705 6FC000C090 		      	stb  	r3,_freeTCB
FFFC870A 00000001C3 
FFFC8710 6FC000C082 		      	ldw  	r3,_freeTCB
FFFC8715 00000001C3 
FFFC871A FFFFE0FB91 		      	stw  	r3,-2[bp]
                        		      	;    	        freeTCB = tcbs[ht].next;
FFFC8720 6FC000C082 		      	ldw  	r3,_freeTCB
FFFC8725 00000001C3 
FFFC872A 50F000C313 		      	bfext	r3,r3,#0,#15
FFFC8730 6FC000C090 		      	stb  	r3,_freeTCB
FFFC8735 00000001C3 
FFFC873A FFFFE17B82 		      	ldw  	r5,-2[bp]
FFFC8740 50F0014513 		      	bfext	r5,r5,#0,#15
FFFC8745 FFFFE17B90 		      	stb  	r5,-2[bp]
FFFC874A FFFFE17B80 		      	ldb  	r5,-2[bp]
FFFC8750 0040010511 		      	mulu 	r4,r5,#1024
FFFC8755 2FC000C404 		      	add  	r3,r4,#_tcbs
FFFC875A 00000001C3 
FFFC8760 0018610382 		      	ldw  	r4,390[r3]
FFFC8765 50F0010413 		      	bfext	r4,r4,#0,#15
FFFC876A 0018610390 		      	stb  	r4,390[r3]
FFFC8770 0018610382 		      	ldw  	r4,390[r3]
FFFC8775 6FC0010091 		      	stw  	r4,_freeTCB
FFFC877A 00000001C3 
                        		      	;    	        UnlockSemaphore(&sys_sema);
FFFC8780 0000001270 		      	push 	r18
                        		      	hint 	#1
FFFC8785 0142048009 		      	ld   	r18,#_sys_sema
FFFC878A 0000000053 		      	tgt  
                        		      	;    		asm {
                        		      	     	
FFFC8790 0000001293 				std	r0,[r18]
                        		      	;    		}
                        	FMTKc_196:
FFFC8795 0005C00046 		      	bra  	FMTKc_195
                        	FMTKc_193:
                        	FMTKc_195:
FFFC879A 0000001271 		      	pop  	r18
FFFC87A0 0030C00046 		      	bra  	FMTKc_192
                        		      	;    	; else
                        	FMTKc_191:
                        		      	;    			asm {
                        		      	     	
FFFC87A5 0004504009 				ldi   r1,#69
FFFC87AA C060004094 				stt    r1,$FFDC0600
FFFC87B0 000000FFCD 
                        		      	;    			}
                        		      	;    			return (E_Busy);
                        		      	hint 	#2
FFFC87B5 0000F04009 		      	ld   	r1,#15
                        	FMTKc_197:
FFFC87BA 00000FFB30 		      	mov  	sp,bp
FFFC87C0 0000003B71 		      	pop  	bp
FFFC87C5 0000003A71 		      	pop  	xlr
FFFC87CA 0000000AEF 		      	ret  	#10
                        	FMTKc_192:
                        		      	;    	    asm {
                        		      	     	
FFFC87D0 0003E04009 				ldi   r1,#62
FFFC87D5 C060004094 				stt    r1,$FFDC0600
FFFC87DA 000000FFCD 
                        		      	;    	    }
                        		      	;    	    t = &tcbs[ht];
FFFC87E0 FFFFE17B82 		      	ldw  	r5,-2[bp]
FFFC87E5 50F0014513 		      	bfext	r5,r5,#0,#15
FFFC87EA FFFFE17B90 		      	stb  	r5,-2[bp]
FFFC87F0 FFFFE17B80 		      	ldb  	r5,-2[bp]
FFFC87F5 0040010511 		      	mulu 	r4,r5,#1024
FFFC87FA 2FC000C404 		      	add  	r3,r4,#_tcbs
FFFC8800 00000001C3 
FFFC8805 FFFEC0FB93 		      	std  	r3,-20[bp]
                        		      	;    	    t->affinity = affinity;
FFFC880A FFFEC0FB86 		      	ldd  	r3,-20[bp]
FFFC8810 0020E10386 		      	ldd  	r4,526[r3]
FFFC8815 000FF4D308 		      	and  	r19,r19,#255
FFFC881A FFF0010408 		      	and  	r4,r4,#-256
FFFC8820 090044C402 		      	or   	r4,r4,r19
	      	std  	r4,526[r3]
FFFC8825 0020E10393 
                        		      	;    	    t->priority = priority;
FFFC882A FFFEC0FB86 		      	ldd  	r3,-20[bp]
FFFC8830 0020C10386 		      	ldd  	r4,524[r3]
FFFC8835 000FF49208 		      	and  	r18,r18,#255
FFFC883A FFF0010408 		      	and  	r4,r4,#-256
FFFC8840 0900448402 		      	or   	r4,r4,r18
	      	std  	r4,524[r3]
FFFC8845 0020C10393 
                        		      	;    	    t->hJob = job;
FFFC884A FFFEC0FB86 		      	ldd  	r3,-20[bp]
FFFC8850 0020E10386 		      	ldd  	r4,526[r3]
FFFC8855 000FF59608 		      	and  	r22,r22,#255
FFFC885A 4500420402 		      	ror  	r4,r4,#8
FFFC8860 FFF0010408 		      	and  	r4,r4,#-256
FFFC8865 0900458402 		      	or   	r4,r4,r22
	      	rol  	r4,r4,#8
FFFC886A 4400420402 
FFFC8870 0020E10393 		      	std  	r4,526[r3]
                        		      	;    	    for (nn = 0; nn < 8; nn++) {
FFFC8875 FFFE203B93 		      	std  	r0,-30[bp]
                        	FMTKc_198:
FFFC887A FFFE20FB86 		      	ldd  	r3,-30[bp]
FFFC8880 00B5020359 		      	bge  	r3,#8,FMTKc_199
                        		      	;    	    asm {
                        		      	     	
FFFC8885 0003F04009 				ldi   r1,#63
FFFC888A C060004094 				stt    r1,$FFDC0600
FFFC8890 000000FFCD 
                        		      	;    	    }
                        		      	;    	        if (jcbs[job].tasks[nn]<0) {
FFFC8895 FFFE213B86 		      	ldd  	r4,-30[bp]
FFFC889A 000020C411 		      	mulu 	r3,r4,#2
FFFC88A0 0080019611 		      	mulu 	r6,r22,#2048
FFFC88A5 0200014604 		      	add  	r5,r6,#_jcbs
FFFC88AA 00000000CC 
FFFC88B0 006C410504 		      	add  	r4,r5,#1732
FFFC88B5 000050C4A2 		      	ldw  	r5,[r4+r3]
FFFC88BA 50F0014513 		      	bfext	r5,r5,#0,#15
FFFC88C0 000050C4B0 		      	stb  	r5,[r4+r3]
FFFC88C5 000030C4A0 		      	ldb  	r3,[r4+r3]
FFFC88CA 0056000359 		      	bge  	r3,#0,FMTKc_201
                        		      	;    	            jcbs[job].tasks[nn] = ht;
FFFC88D0 FFFE213B86 		      	ldd  	r4,-30[bp]
FFFC88D5 000020C411 		      	mulu 	r3,r4,#2
FFFC88DA 0080019611 		      	mulu 	r6,r22,#2048
FFFC88E0 0200014604 		      	add  	r5,r6,#_jcbs
FFFC88E5 00000000CC 
FFFC88EA 006C410504 		      	add  	r4,r5,#1732
FFFC88F0 000050C4A2 		      	ldw  	r5,[r4+r3]
FFFC88F5 50F0014513 		      	bfext	r5,r5,#0,#15
FFFC88FA 000050C4B0 		      	stb  	r5,[r4+r3]
FFFC8900 FFFFE17B82 		      	ldw  	r5,-2[bp]
FFFC8905 50F0014513 		      	bfext	r5,r5,#0,#15
FFFC890A FFFFE17B90 		      	stb  	r5,-2[bp]
FFFC8910 FFFFE17B82 		      	ldw  	r5,-2[bp]
FFFC8915 000050C4B1 		      	stw  	r5,[r4+r3]
                        		      	;    	            break;
FFFC891A 001BC00046 		      	bra  	FMTKc_199
                        	FMTKc_201:
                        	FMTKc_200:
FFFC8920 FFFE20FB86 		      	ldd  	r3,-30[bp]
FFFC8925 000010C304 		      	add  	r3,r3,#1
FFFC892A FFFE20FB93 		      	std  	r3,-30[bp]
FFFC8930 FF4AC00046 		      	bra  	FMTKc_198
                        	FMTKc_199:
                        		      	;    	    if (nn == 8) {
FFFC8935 FFFE20FB86 		      	ldd  	r3,-30[bp]
FFFC893A 011B020357 		      	bne  	r3,#8,FMTKc_203
                        		      	;    	    asm {
                        		      	     	
FFFC8940 0004004009 				ldi   r1,#64
FFFC8945 C060004094 				stt    r1,$FFDC0600
FFFC894A 000000FFCD 
                        		      	;    	    }
                        		      	;    	        if (LockSemaphore(&sys_sema,100000)) {
FFFC8950 0000001270 		      	push 	r18
FFFC8955 0000001370 		      	push 	r19
                        		      	hint 	#1
FFFC895A 186A04C009 		      	ld   	r19,#100000
                        		      	hint 	#1
FFFC8960 0142048009 		      	ld   	r18,#_sys_sema
FFFC8965 C524000050 		      	call 	_LockSemaphore
FFFC896A 000000FFCF 
FFFC8970 0000001371 		      	pop  	r19
FFFC8975 0000001271 		      	pop  	r18
FFFC897A 00C6000146 		      	beq  	r1,r0,FMTKc_205
                        		      	;    	            tcbs[ht].next = freeTCB;
FFFC8980 FFFFE17B82 		      	ldw  	r5,-2[bp]
FFFC8985 50F0014513 		      	bfext	r5,r5,#0,#15
FFFC898A FFFFE17B90 		      	stb  	r5,-2[bp]
FFFC8990 FFFFE17B80 		      	ldb  	r5,-2[bp]
FFFC8995 0040010511 		      	mulu 	r4,r5,#1024
FFFC899A 2FC000C404 		      	add  	r3,r4,#_tcbs
FFFC89A0 00000001C3 
FFFC89A5 0018610382 		      	ldw  	r4,390[r3]
FFFC89AA 50F0010413 		      	bfext	r4,r4,#0,#15
FFFC89B0 0018610390 		      	stb  	r4,390[r3]
FFFC89B5 6FC0010082 		      	ldw  	r4,_freeTCB
FFFC89BA 00000001C3 
FFFC89C0 50F0010413 		      	bfext	r4,r4,#0,#15
FFFC89C5 6FC0010090 		      	stb  	r4,_freeTCB
FFFC89CA 00000001C3 
FFFC89D0 6FC0010082 		      	ldw  	r4,_freeTCB
FFFC89D5 00000001C3 
FFFC89DA 0018610391 		      	stw  	r4,390[r3]
                        		      	;    	            freeTCB = ht;
FFFC89E0 6FC000C082 		      	ldw  	r3,_freeTCB
FFFC89E5 00000001C3 
FFFC89EA 50F000C313 		      	bfext	r3,r3,#0,#15
FFFC89F0 6FC000C090 		      	stb  	r3,_freeTCB
FFFC89F5 00000001C3 
FFFC89FA FFFFE0FB82 		      	ldw  	r3,-2[bp]
FFFC8A00 50F000C313 		      	bfext	r3,r3,#0,#15
FFFC8A05 FFFFE0FB90 		      	stb  	r3,-2[bp]
FFFC8A0A FFFFE0FB82 		      	ldw  	r3,-2[bp]
FFFC8A10 6FC000C091 		      	stw  	r3,_freeTCB
FFFC8A15 00000001C3 
                        		      	;    	            UnlockSemaphore(&sys_sema);
FFFC8A1A 0000001270 		      	push 	r18
                        		      	hint 	#1
FFFC8A20 0142048009 		      	ld   	r18,#_sys_sema
FFFC8A25 0000000053 		      	tgt  
                        		      	;    		asm {
                        		      	     	
FFFC8A2A 0000001293 				std	r0,[r18]
                        		      	;    		}
                        	FMTKc_210:
FFFC8A30 0005C00046 		      	bra  	FMTKc_209
                        	FMTKc_207:
                        	FMTKc_209:
FFFC8A35 0000001271 		      	pop  	r18
FFFC8A3A 0010C00046 		      	bra  	FMTKc_206
                        		      	;    	; else
                        	FMTKc_205:
                        		      	;    				return (E_Busy);
                        		      	hint 	#2
FFFC8A40 0000F04009 		      	ld   	r1,#15
FFFC8A45 FD75C00046 		      	bra  	FMTKc_197
                        	FMTKc_206:
                        		      	;    	        return (E_TooManyTasks);
                        		      	hint 	#2
FFFC8A4A 0004504009 		      	ld   	r1,#69
FFFC8A50 FD6AC00046 		      	bra  	FMTKc_197
                        	FMTKc_203:
                        		      	;    	    t->regs[1] = parm;
FFFC8A55 0000110009 		      	ld   	r4,#1
FFFC8A5A 0000A0C411 		      	mulu 	r3,r4,#10
FFFC8A60 FFFEC17B86 		      	ldd  	r5,-20[bp]
FFFC8A65 0000010504 		      	add  	r4,r5,#0
FFFC8A6A 000150C4B3 		      	std  	r21,[r4+r3]
                        		      	;    	    t->regs[28] = FMTK_ExitTask;
FFFC8A70 0001C10009 		      	ld   	r4,#28
FFFC8A75 0000A0C411 		      	mulu 	r3,r4,#10
FFFC8A7A FFFEC17B86 		      	ldd  	r5,-20[bp]
FFFC8A80 0000010504 		      	add  	r4,r5,#0
FFFC8A85 C85E514009 		      	ld   	r5,#_FMTK_ExitTask
FFFC8A8A 000000FFCF 
FFFC8A90 000050C4B3 		      	std  	r5,[r4+r3]
                        		      	;    	    t->regs[31] = FMTK_ExitTask;
FFFC8A95 0001F10009 		      	ld   	r4,#31
FFFC8A9A 0000A0C411 		      	mulu 	r3,r4,#10
FFFC8AA0 FFFEC17B86 		      	ldd  	r5,-20[bp]
FFFC8AA5 0000010504 		      	add  	r4,r5,#0
FFFC8AAA C85E514009 		      	ld   	r5,#_FMTK_ExitTask
FFFC8AB0 000000FFCF 
FFFC8AB5 000050C4B3 		      	std  	r5,[r4+r3]
                        		      	;    	    t->isp = t->stack + 1023;
FFFC8ABA FFFEC0FB86 		      	ldd  	r3,-20[bp]
FFFC8AC0 FFFEC17B86 		      	ldd  	r5,-20[bp]
FFFC8AC5 001A414586 		      	ldd  	r5,420[r5]
FFFC8ACA 003FF1C009 		      	ld   	r7,#1023
FFFC8AD0 0000A18711 		      	mulu 	r6,r7,#10
FFFC8AD5 0400418502 		      	add  	r4,r5,r6
	      	std  	r4,320[r3]
FFFC8ADA 0014010393 
                        		      	;    	    t->ipc = adr|1;   // stay in kernel mode for now
FFFC8AE0 FFFEC0FB86 		      	ldd  	r3,-20[bp]
FFFC8AE5 0000111409 		      	or   	r4,r20,#1
FFFC8AEA 0015E10393 		      	std  	r4,350[r3]
                        		      	;    	    t->cr0 = 0x140000000L;
FFFC8AF0 FFFEC0FB86 		      	ldd  	r3,-20[bp]
FFFC8AF5 0000010009 		      	ld   	r4,#1073741824
FFFC8AFA 00000040C0 
FFFC8B00 0017C10393 		      	std  	r4,380[r3]
                        		      	;    	    t->startTick = 0;
FFFC8B05 FFFEC0FB86 		      	ldd  	r3,-20[bp]
FFFC8B0A 0000010009 		      	ld   	r4,#0
FFFC8B10 0021210393 		      	std  	r4,530[r3]
                        		      	;    	    t->endTick = 0;
FFFC8B15 FFFEC0FB86 		      	ldd  	r3,-20[bp]
FFFC8B1A 0000010009 		      	ld   	r4,#0
FFFC8B20 0021C10393 		      	std  	r4,540[r3]
                        		      	;    	    t->ticks = 0;
FFFC8B25 FFFEC0FB86 		      	ldd  	r3,-20[bp]
FFFC8B2A 0000010009 		      	ld   	r4,#0
FFFC8B30 0022610393 		      	std  	r4,550[r3]
                        		      	;    	    t->exception = 0;
FFFC8B35 FFFEC0FB86 		      	ldd  	r3,-20[bp]
FFFC8B3A 0000010009 		      	ld   	r4,#0
FFFC8B40 0023010393 		      	std  	r4,560[r3]
                        		      	;    	    asm {
                        		      	     	
FFFC8B45 0004104009 				ldi   r1,#65
FFFC8B4A C060004094 				stt    r1,$FFDC0600
FFFC8B50 000000FFCD 
                        		      	;    	    }
                        		      	;    	    if (LockSemaphore(&sys_sema,100000)) {
FFFC8B55 0000001270 		      	push 	r18
FFFC8B5A 0000001370 		      	push 	r19
                        		      	hint 	#1
FFFC8B60 186A04C009 		      	ld   	r19,#100000
                        		      	hint 	#1
FFFC8B65 0142048009 		      	ld   	r18,#_sys_sema
FFFC8B6A C524000050 		      	call 	_LockSemaphore
FFFC8B70 000000FFCF 
FFFC8B75 0000001371 		      	pop  	r19
FFFC8B7A 0000001271 		      	pop  	r18
FFFC8B80 005A000146 		      	beq  	r1,r0,FMTKc_211
                        		      	;    	        InsertIntoReadyList(ht);
FFFC8B85 0000001270 		      	push 	r18
FFFC8B8A FFFFE0FB82 		      	ldw  	r3,-2[bp]
FFFC8B90 50F000C313 		      	bfext	r3,r3,#0,#15
FFFC8B95 FFFFE0FB90 		      	stb  	r3,-2[bp]
FFFC8B9A FFFFE0FB80 		      	ldb  	r3,-2[bp]
                        		      	hint 	#1
FFFC8BA0 0000048330 		      	mov  	r18,r3
FFFC8BA5 CBBB000050 		      	call 	_InsertIntoReadyList
FFFC8BAA 000000FFCF 
FFFC8BB0 0000001271 		      	pop  	r18
                        		      	;    	        UnlockSemaphore(&sys_sema);
FFFC8BB5 0000001270 		      	push 	r18
                        		      	hint 	#1
FFFC8BBA 0142048009 		      	ld   	r18,#_sys_sema
FFFC8BC0 0000000053 		      	tgt  
                        		      	;    		asm {
                        		      	     	
FFFC8BC5 0000001293 				std	r0,[r18]
                        		      	;    		}
                        	FMTKc_216:
FFFC8BCA 0006C00046 		      	bra  	FMTKc_215
                        	FMTKc_213:
                        	FMTKc_215:
FFFC8BD0 0000001271 		      	pop  	r18
FFFC8BD5 0010C00046 		      	bra  	FMTKc_212
                        		      	;    	; else
                        	FMTKc_211:
                        		      	;    			return (E_Busy);
                        		      	hint 	#2
FFFC8BDA 0000F04009 		      	ld   	r1,#15
FFFC8BE0 FBDAC00046 		      	bra  	FMTKc_197
                        	FMTKc_212:
                        		      	;    	    asm {
                        		      	     	
FFFC8BE5 0004304009 				ldi   r1,#67
FFFC8BEA C060004094 				stt    r1,$FFDC0600
FFFC8BF0 000000FFCD 
                        		      	;    	    }
                        		      	;    	    return (E_Ok);
                        		      	hint 	#2
FFFC8BF5 0000004009 		      	ld   	r1,#0
FFFC8BFA FBC0C00046 		      	bra  	FMTKc_197
FFFC8C00 FBBAC00046 		      	bra  	FMTKc_197
                        	FMTKc_188:
FFFC8C05 0000ADFB86 		      	ldd  	lr,10[bp]
FFFC8C0A 00014DFB93 		      	std  	lr,20[bp]
FFFC8C10 FBAAC00046 		      	bra  	FMTKc_197
                        	_FMTK_StartTaskSTKSIZE_ EQU 30
                        	_FMTK_Sleep:
FFFC8C15 0000000053 		      	tgt  
FFFC8C1A 0000003A70 		      	push 	xlr
FFFC8C20 0000003B70 		      	push 	bp
FFFC8C25 C8D65E8009 		      	ld   	xlr,#FMTKc_217
FFFC8C2A 000000FFCF 
FFFC8C30 00000EFF30 		      	mov  	bp,sp
FFFC8C35 FFFFEFFF04 		      	sub  	sp,sp,#_FMTK_SleepSTKSIZE_
                        		      	;    	    hTCB ht;
                        		      	;    	    asm { };
                        		      	     	
                        		      	;    	    if (LockSemaphore(&sys_sema,100000)) {
FFFC8C3A 0000001270 		      	push 	r18
FFFC8C40 0000001370 		      	push 	r19
                        		      	hint 	#1
FFFC8C45 186A04C009 		      	ld   	r19,#100000
                        		      	hint 	#1
FFFC8C4A 0142048009 		      	ld   	r18,#_sys_sema
FFFC8C50 C524000050 		      	call 	_LockSemaphore
FFFC8C55 000000FFCF 
FFFC8C5A 0000001371 		      	pop  	r19
FFFC8C60 0000001271 		      	pop  	r18
FFFC8C65 00D0000146 		      	beq  	r1,r0,FMTKc_220
                        		      	;    	        ht = GetRunningTCB();
FFFC8C6A FFFFE0FB82 		      	ldw  	r3,-2[bp]
FFFC8C70 50F000C313 		      	bfext	r3,r3,#0,#15
FFFC8C75 FFFFE0FB90 		      	stb  	r3,-2[bp]
FFFC8C7A 0000000053 		      	tgt  
                        		      	;    	    asm {
                        		      	     	
FFFC8C80 300400400F 				csrrw	r1,#$10,r0
FFFC8C85 D040004104 				sub 	r1,r1,#_tcbs
FFFC8C8A FFFFFFFECC 
FFFC8C90 4100124102 				shru 	r1,r1,#9
                        		      	;    	    }
                        	FMTKc_225:
FFFC8C95 0005C00046 		      	bra  	FMTKc_224
                        	FMTKc_222:
                        	FMTKc_224:
FFFC8C9A FFFFE07B91 		      	stw  	r1,-2[bp]
                        		      	;    	        RemoveFromReadyList(ht);
FFFC8CA0 0000001270 		      	push 	r18
FFFC8CA5 FFFFE0FB82 		      	ldw  	r3,-2[bp]
FFFC8CAA 50F000C313 		      	bfext	r3,r3,#0,#15
FFFC8CB0 FFFFE0FB90 		      	stb  	r3,-2[bp]
FFFC8CB5 FFFFE0FB80 		      	ldb  	r3,-2[bp]
                        		      	hint 	#1
FFFC8CBA 0000048330 		      	mov  	r18,r3
FFFC8CC0 CBED000050 		      	call 	_RemoveFromReadyList
FFFC8CC5 000000FFCF 
FFFC8CCA 0000001271 		      	pop  	r18
                        		      	;    	        InsertIntoTimeoutList(ht, timeout);
FFFC8CD0 0000001270 		      	push 	r18
FFFC8CD5 0000001370 		      	push 	r19
                        		      	hint 	#1
FFFC8CDA 000004D230 		      	mov  	r19,r18
FFFC8CE0 FFFFE0FB82 		      	ldw  	r3,-2[bp]
FFFC8CE5 50F000C313 		      	bfext	r3,r3,#0,#15
FFFC8CEA FFFFE0FB90 		      	stb  	r3,-2[bp]
FFFC8CF0 FFFFE0FB80 		      	ldb  	r3,-2[bp]
                        		      	hint 	#1
FFFC8CF5 0000048330 		      	mov  	r18,r3
FFFC8CFA CC16A00050 		      	call 	_InsertIntoTimeoutList
FFFC8D00 000000FFCF 
FFFC8D05 0000001371 		      	pop  	r19
FFFC8D0A 0000001271 		      	pop  	r18
                        		      	;    	        UnlockSemaphore(&sys_sema);
FFFC8D10 0000001270 		      	push 	r18
                        		      	hint 	#1
FFFC8D15 0142048009 		      	ld   	r18,#_sys_sema
FFFC8D1A 0000000053 		      	tgt  
                        		      	;    		asm {
                        		      	     	
FFFC8D20 0000001293 				std	r0,[r18]
                        		      	;    		}
                        	FMTKc_229:
FFFC8D25 0005C00046 		      	bra  	FMTKc_228
                        	FMTKc_226:
                        	FMTKc_228:
FFFC8D2A 0000001271 		      	pop  	r18
FFFC8D30 0020C00046 		      	bra  	FMTKc_221
                        		      	;    	; else
                        	FMTKc_220:
                        		      	;    			return (E_Busy);
                        		      	hint 	#2
FFFC8D35 0000F04009 		      	ld   	r1,#15
                        	FMTKc_230:
FFFC8D3A 00000FFB30 		      	mov  	sp,bp
FFFC8D40 0000003B71 		      	pop  	bp
FFFC8D45 0000003A71 		      	pop  	xlr
FFFC8D4A 0000000AEF 		      	ret  	#10
                        	FMTKc_221:
                        		      	;    	    asm { int #2 }      // reschedule
                        		      	     	
FFFC8D50 000080021B 				int #2 
                        		      	;    	    return (E_Ok);
                        		      	hint 	#2
FFFC8D55 0000004009 		      	ld   	r1,#0
FFFC8D5A FFE0C00046 		      	bra  	FMTKc_230
FFFC8D60 FFDAC00046 		      	bra  	FMTKc_230
                        	FMTKc_217:
FFFC8D65 0000ADFB86 		      	ldd  	lr,10[bp]
FFFC8D6A 00014DFB93 		      	std  	lr,20[bp]
FFFC8D70 FFCAC00046 		      	bra  	FMTKc_230
                        	_FMTK_SleepSTKSIZE_ EQU 2
                        	_FMTK_SetTaskPriority:
FFFC8D75 0000000053 		      	tgt  
FFFC8D7A 0000003A70 		      	push 	xlr
FFFC8D80 0000003B70 		      	push 	bp
FFFC8D85 C8EF0E8009 		      	ld   	xlr,#FMTKc_231
FFFC8D8A 000000FFCF 
FFFC8D90 00000EFF30 		      	mov  	bp,sp
FFFC8D95 FFFF6FFF04 		      	sub  	sp,sp,#_FMTK_SetTaskPrioritySTKSIZE_
                        		      	;    	    TCB *t;
                        		      	;    	    asm { };
                        		      	     	
                        		      	;    	    if (priority > 077 || priority < 000)
FFFC8D9A 000B0FD35B 		      	bgt  	r19,#63,FMTKc_236
FFFC8DA0 0020001359 		      	bge  	r19,#0,FMTKc_234
                        	FMTKc_236:
                        		      	;    	       return E_Arg;
                        		      	hint 	#2
FFFC8DA5 0000404009 		      	ld   	r1,#4
                        	FMTKc_237:
FFFC8DAA 00000FFB30 		      	mov  	sp,bp
FFFC8DB0 0000003B71 		      	pop  	bp
FFFC8DB5 0000003A71 		      	pop  	xlr
FFFC8DBA 0000000AEF 		      	ret  	#10
                        	FMTKc_234:
                        		      	;    	    if (LockSemaphore(&sys_sema,-1)) {
FFFC8DC0 0000001270 		      	push 	r18
FFFC8DC5 0000001370 		      	push 	r19
                        		      	hint 	#1
FFFC8DCA FFFFF4C009 		      	ld   	r19,#-1
                        		      	hint 	#1
FFFC8DD0 0142048009 		      	ld   	r18,#_sys_sema
FFFC8DD5 C524000050 		      	call 	_LockSemaphore
FFFC8DDA 000000FFCF 
FFFC8DE0 0000001371 		      	pop  	r19
FFFC8DE5 0000001271 		      	pop  	r18
FFFC8DEA 00F6000146 		      	beq  	r1,r0,FMTKc_238
                        		      	;    	        t = &tcbs[ht];
FFFC8DF0 0040011211 		      	mulu 	r4,r18,#1024
FFFC8DF5 2FC000C404 		      	add  	r3,r4,#_tcbs
FFFC8DFA 00000001C3 
FFFC8E00 FFFF60FB93 		      	std  	r3,-10[bp]
                        		      	;    	        if (t->status & (8 | 16)) {
FFFC8E05 FFFF617B86 		      	ldd  	r5,-10[bp]
FFFC8E0A 0020C14586 		      	ldd  	r5,524[r5]
FFFC8E10 0000010530 		      	mov  	r4,r5
FFFC8E15 4100420402 		      	shru 	r4,r4,#8
FFFC8E1A 000FF10408 		      	and  	r4,r4,#255
FFFC8E20 FFF8014009 		      	ld   	r5,#-128
FFFC8E25 0400414402 		      	add  	r4,r4,r5
	      	xor  	r4,r4,r5
	      	ld   	r6,#8
FFFC8E2A 0A00414402 
FFFC8E30 0000818009 
FFFC8E35 0001014609 		      	or   	r5,r6,#16
FFFC8E3A 0800314402 		      	and  	r3,r4,r5
	      	beq  	r3,r0,FMTKc_240
FFFC8E40 0060000346 
                        		      	;    	            RemoveFromReadyList(ht);
FFFC8E45 0000001270 		      	push 	r18
                        		      	hint 	#1
FFFC8E4A 0000049230 		      	mov  	r18,r18
FFFC8E50 CBED000050 		      	call 	_RemoveFromReadyList
FFFC8E55 000000FFCF 
FFFC8E5A 0000001271 		      	pop  	r18
                        		      	;    	            t->priority = priority;
FFFC8E60 FFFF60FB86 		      	ldd  	r3,-10[bp]
FFFC8E65 0020C10386 		      	ldd  	r4,524[r3]
FFFC8E6A 000FF4D308 		      	and  	r19,r19,#255
FFFC8E70 FFF0010408 		      	and  	r4,r4,#-256
FFFC8E75 090044C402 		      	or   	r4,r4,r19
	      	std  	r4,524[r3]
FFFC8E7A 0020C10393 
                        		      	;    	            InsertIntoReadyList(ht);
FFFC8E80 0000001270 		      	push 	r18
                        		      	hint 	#1
FFFC8E85 0000049230 		      	mov  	r18,r18
FFFC8E8A CBBB000050 		      	call 	_InsertIntoReadyList
FFFC8E90 000000FFCF 
FFFC8E95 0000001271 		      	pop  	r18
FFFC8E9A 0026C00046 		      	bra  	FMTKc_241
                        		      	;    	; else
                        	FMTKc_240:
                        		      	;    	            t->priority = priority;
FFFC8EA0 FFFF60FB86 		      	ldd  	r3,-10[bp]
FFFC8EA5 0020C10386 		      	ldd  	r4,524[r3]
FFFC8EAA 000FF4D308 		      	and  	r19,r19,#255
FFFC8EB0 FFF0010408 		      	and  	r4,r4,#-256
FFFC8EB5 090044C402 		      	or   	r4,r4,r19
	      	std  	r4,524[r3]
FFFC8EBA 0020C10393 
                        	FMTKc_241:
                        		      	;    	        UnlockSemaphore(&sys_sema);
FFFC8EC0 0000001270 		      	push 	r18
                        		      	hint 	#1
FFFC8EC5 0142048009 		      	ld   	r18,#_sys_sema
FFFC8ECA 0000000053 		      	tgt  
                        		      	;    		asm {
                        		      	     	
FFFC8ED0 0000001293 				std	r0,[r18]
                        		      	;    		}
                        	FMTKc_245:
FFFC8ED5 0005C00046 		      	bra  	FMTKc_244
                        	FMTKc_242:
                        	FMTKc_244:
FFFC8EDA 0000001271 		      	pop  	r18
                        	FMTKc_238:
                        		      	;    	    return (E_Ok);
                        		      	hint 	#2
FFFC8EE0 0000004009 		      	ld   	r1,#0
FFFC8EE5 FEC5C00046 		      	bra  	FMTKc_237
FFFC8EEA FEC0C00046 		      	bra  	FMTKc_237
                        	FMTKc_231:
FFFC8EF0 0000ADFB86 		      	ldd  	lr,10[bp]
FFFC8EF5 00014DFB93 		      	std  	lr,20[bp]
FFFC8EFA FEB0C00046 		      	bra  	FMTKc_237
                        	_FMTK_SetTaskPrioritySTKSIZE_ EQU 10
FFFC8F00 0000000053 	public code _FMTKInitialize:
	      	tgt  
FFFC8F05 0000003A70 		      	push 	xlr
FFFC8F0A 0000003B70 		      	push 	bp
FFFC8F10 C9C70E8009 		      	ld   	xlr,#FMTKc_246
FFFC8F15 000000FFCF 
FFFC8F1A 00000EFF30 		      	mov  	bp,sp
FFFC8F20 FFFECFFF04 		      	sub  	sp,sp,#_FMTKInitializeSTKSIZE_
                        		      	;    		int nn,jj;
                        		      	;    	    asm { };
                        		      	     	
                        		      	;    	        asm {
                        		      	     	
FFFC8F25 0001404009 				ldi   r1,#20
FFFC8F2A C060004094 				stt    r1,$FFDC0600
FFFC8F30 000000FFCD 
                        		      	;    	        }
                        		      	;    	        hasUltraHighPriorityTasks = 0;
FFFC8F35 3086A0C082 		      	ldw  	r3,_hasUltraHighPriorityTasks
FFFC8F3A 00000001C2 
FFFC8F40 50F000C313 		      	bfext	r3,r3,#0,#15
FFFC8F45 3086A0C090 		      	stb  	r3,_hasUltraHighPriorityTasks
FFFC8F4A 00000001C2 
FFFC8F50 3086A00091 		      	stw  	r0,_hasUltraHighPriorityTasks
FFFC8F55 00000001C2 
                        		      	;    	        missed_ticks = 0;
FFFC8F5A 3086C00093 		      	std  	r0,_missed_ticks
FFFC8F60 00000001C2 
                        		      	;    	        IOFocusTbl[0] = 0;
FFFC8F65 0000010009 		      	ld   	r4,#0
FFFC8F6A 0000A0C411 		      	mulu 	r3,r4,#10
FFFC8F70 3082400393 		      	std  	r0,_IOFocusTbl[r3]
FFFC8F75 00000001C2 
                        		      	;    	        IOFocusNdx = (void *)0;
FFFC8F7A 000000C009 		      	ld   	r3,#0
FFFC8F80 3081A0C093 		      	std  	r3,_IOFocusNdx
FFFC8F85 00000001C2 
                        		      	;    	        iof_switch = 0;
FFFC8F8A 3084C00093 		      	std  	r0,_iof_switch
FFFC8F90 00000001C2 
                        		      	;    	    	SetRunningTCB(0);
FFFC8F95 0000001270 		      	push 	r18
                        		      	hint 	#1
FFFC8F9A 0000048009 		      	ld   	r18,#0
FFFC8FA0 0000000053 		      	tgt  
                        		      	;    	     asm {
                        		      	     	
FFFC8FA5 4000125202 				shl     r1,r18,#9
FFFC8FAA 2FC0004104 				add     r1,r1,#_tcbs
FFFC8FB0 00000001C3 
FFFC8FB5 300400010F 				csrrw	 r0,#$10,r1
                        		      	;    	     }
                        	FMTKc_252:
FFFC8FBA 0006C00046 		      	bra  	FMTKc_251
                        	FMTKc_249:
                        	FMTKc_251:
FFFC8FC0 0000001271 		      	pop  	r18
                        		      	;    	        UnlockSemaphore(&sys_sema);
FFFC8FC5 0000001270 		      	push 	r18
                        		      	hint 	#1
FFFC8FCA 0142048009 		      	ld   	r18,#_sys_sema
FFFC8FD0 0000000053 		      	tgt  
                        		      	;    		asm {
                        		      	     	
FFFC8FD5 0000001293 				std	r0,[r18]
                        		      	;    		}
                        	FMTKc_256:
FFFC8FDA 0006C00046 		      	bra  	FMTKc_255
                        	FMTKc_253:
                        	FMTKc_255:
FFFC8FE0 0000001271 		      	pop  	r18
                        		      	;    	        UnlockSemaphore(&iof_sema);
FFFC8FE5 0000001270 		      	push 	r18
                        		      	hint 	#1
FFFC8FEA 0142448009 		      	ld   	r18,#_iof_sema
FFFC8FF0 0000000053 		      	tgt  
                        		      	;    		asm {
                        		      	     	
FFFC8FF5 0000001293 				std	r0,[r18]
                        		      	;    		}
                        	FMTKc_260:
FFFC8FFA 0006C00046 		      	bra  	FMTKc_259
                        	FMTKc_257:
                        	FMTKc_259:
FFFC9000 0000001271 		      	pop  	r18
                        		      	;    	        UnlockSemaphore(&kbd_sema);
FFFC9005 0000001270 		      	push 	r18
                        		      	hint 	#1
FFFC900A 0000048009 		      	ld   	r18,#_kbd_sema
FFFC9010 0000000053 		      	tgt  
                        		      	;    		asm {
                        		      	     	
FFFC9015 0000001293 				std	r0,[r18]
                        		      	;    		}
                        	FMTKc_264:
FFFC901A 0006C00046 		      	bra  	FMTKc_263
                        	FMTKc_261:
                        	FMTKc_263:
FFFC9020 0000001271 		      	pop  	r18
                        		      	;    	        for (nn = 0; nn < 16384; nn++) {
FFFC9025 FFFF603B93 		      	std  	r0,-10[bp]
                        	FMTKc_265:
FFFC902A FFFF60FB86 		      	ldd  	r3,-10[bp]
FFFC9030 0075000359 		      	bge  	r3,#16384,FMTKc_266
FFFC9035 00000004C0 
                        		      	;    				SevenSeg(nn);
FFFC903A 0000001270 		      	push 	r18
FFFC9040 FFFF60FB86 		      	ldd  	r3,-10[bp]
                        		      	hint 	#1
FFFC9045 0000048330 		      	mov  	r18,r3
FFFC904A 0000000053 		      	tgt  
                        		      	;    		asm {
                        		      	     	
FFFC9050 C008048094 				stt	r18,$FFDC0080
FFFC9055 000000FFCD 
                        		      	;    		}
                        	FMTKc_271:
FFFC905A 0006C00046 		      	bra  	FMTKc_270
                        	FMTKc_268:
                        	FMTKc_270:
FFFC9060 0000001271 		      	pop  	r18
                        		      	;    	            message[nn].link = nn+1;
FFFC9065 FFFF617B86 		      	ldd  	r5,-10[bp]
FFFC906A 0004010511 		      	mulu 	r4,r5,#64
FFFC9070 308000C404 		      	add  	r3,r4,#_message
FFFC9075 00000001C1 
FFFC907A FFFF617B86 		      	ldd  	r5,-10[bp]
FFFC9080 0000110504 		      	add  	r4,r5,#1
FFFC9085 0FFFF10408 		      	and  	r4,r4,#65535
FFFC908A 0000010391 		      	stw  	r4,0[r3]
                        	FMTKc_267:
FFFC9090 FFFF60FB86 		      	ldd  	r3,-10[bp]
FFFC9095 000010C304 		      	add  	r3,r3,#1
FFFC909A FFFF60FB93 		      	std  	r3,-10[bp]
FFFC90A0 FF8AC00046 		      	bra  	FMTKc_265
                        	FMTKc_266:
                        		      	;    	        message[16384-1].link = -1;
FFFC90A5 0400018009 		      	ld   	r6,#16384
FFFC90AA FFFFF14604 		      	sub  	r5,r6,#1
FFFC90B0 0004010511 		      	mulu 	r4,r5,#64
FFFC90B5 308000C404 		      	add  	r3,r4,#_message
FFFC90BA 00000001C1 
FFFC90C0 FFFFF10009 		      	ld   	r4,#-1
FFFC90C5 0FFFF10408 		      	and  	r4,r4,#65535
FFFC90CA 0000010391 		      	stw  	r4,0[r3]
                        		      	;    	        freeMSG = 0;
FFFC90D0 308160C082 		      	ldw  	r3,_freeMSG
FFFC90D5 00000001C2 
FFFC90DA 50F000C313 		      	bfext	r3,r3,#0,#15
FFFC90E0 308160C090 		      	stb  	r3,_freeMSG
FFFC90E5 00000001C2 
FFFC90EA 3081600091 		      	stw  	r0,_freeMSG
FFFC90F0 00000001C2 
                        		      	;    	        asm {
                        		      	     	
FFFC90F5 0001E04009 				ldi   r1,#30
FFFC90FA C060004094 				stt    r1,$FFDC0600
FFFC9100 000000FFCD 
                        		      	;    	        }
                        		      	;    	        for (nn = 0; nn < 51; nn++) {
FFFC9105 FFFF603B93 		      	std  	r0,-10[bp]
                        	FMTKc_272:
FFFC910A FFFF60FB86 		      	ldd  	r3,-10[bp]
FFFC9110 03750CC359 		      	bge  	r3,#51,FMTKc_273
                        		      	;    				SevenSeg(nn);
FFFC9115 0000001270 		      	push 	r18
FFFC911A FFFF60FB86 		      	ldd  	r3,-10[bp]
                        		      	hint 	#1
FFFC9120 0000048330 		      	mov  	r18,r3
FFFC9125 0000000053 		      	tgt  
                        		      	;    		asm {
                        		      	     	
FFFC912A C008048094 				stt	r18,$FFDC0080
FFFC9130 000000FFCD 
                        		      	;    		}
                        	FMTKc_278:
FFFC9135 0005C00046 		      	bra  	FMTKc_277
                        	FMTKc_275:
                        	FMTKc_277:
FFFC913A 0000001271 		      	pop  	r18
                        		      	;    	            jcbs[nn].number = nn;
FFFC9140 FFFF617B86 		      	ldd  	r5,-10[bp]
FFFC9145 0080010511 		      	mulu 	r4,r5,#2048
FFFC914A 020000C404 		      	add  	r3,r4,#_jcbs
FFFC9150 00000000CC 
FFFC9155 006C210382 		      	ldw  	r4,1730[r3]
FFFC915A 50F0010413 		      	bfext	r4,r4,#0,#15
FFFC9160 006C210390 		      	stb  	r4,1730[r3]
FFFC9165 FFFF613B82 		      	ldw  	r4,-10[bp]
FFFC916A 006C210391 		      	stw  	r4,1730[r3]
                        		      	;    	            for (jj = 0; jj < 8; jj++)
FFFC9170 FFFEC03B93 		      	std  	r0,-20[bp]
                        	FMTKc_279:
FFFC9175 FFFEC0FB86 		      	ldd  	r3,-20[bp]
FFFC917A 005B020359 		      	bge  	r3,#8,FMTKc_280
                        		      	;    	                jcbs[nn].tasks[jj] = -1;
FFFC9180 FFFEC13B86 		      	ldd  	r4,-20[bp]
FFFC9185 000020C411 		      	mulu 	r3,r4,#2
FFFC918A FFFF61FB86 		      	ldd  	r7,-10[bp]
FFFC9190 0080018711 		      	mulu 	r6,r7,#2048
FFFC9195 0200014604 		      	add  	r5,r6,#_jcbs
FFFC919A 00000000CC 
FFFC91A0 006C410504 		      	add  	r4,r5,#1732
FFFC91A5 000050C4A2 		      	ldw  	r5,[r4+r3]
FFFC91AA 50F0014513 		      	bfext	r5,r5,#0,#15
FFFC91B0 000050C4B0 		      	stb  	r5,[r4+r3]
FFFC91B5 FFFFF14009 		      	ld   	r5,#-1
FFFC91BA 000050C4B1 		      	stw  	r5,[r4+r3]
                        	FMTKc_281:
FFFC91C0 FFFEC0FB86 		      	ldd  	r3,-20[bp]
FFFC91C5 000010C304 		      	add  	r3,r3,#1
FFFC91CA FFFEC0FB93 		      	std  	r3,-20[bp]
FFFC91D0 FFA5C00046 		      	bra  	FMTKc_279
                        	FMTKc_280:
                        		      	;    	            if (nn == 0 ) {
FFFC91D5 FFFF60FB86 		      	ldd  	r3,-10[bp]
FFFC91DA 00D0000357 		      	bne  	r3,#0,FMTKc_282
                        		      	;    	                jcbs[nn].pVidMem = 0xFFD00000;
FFFC91E0 FFFF617B86 		      	ldd  	r5,-10[bp]
FFFC91E5 0080010511 		      	mulu 	r4,r5,#2048
FFFC91EA 020000C404 		      	add  	r3,r4,#_jcbs
FFFC91F0 00000000CC 
FFFC91F5 0000010009 		      	ld   	r4,#-3145728
FFFC91FA FFFFFFFFCD 
FFFC9200 0065410393 		      	std  	r4,1620[r3]
                        		      	;    	                jcbs[nn].pVirtVidMem = video_bufs[nn];
FFFC9205 FFFF617B86 		      	ldd  	r5,-10[bp]
FFFC920A 0080010511 		      	mulu 	r4,r5,#2048
FFFC9210 020000C404 		      	add  	r3,r4,#_jcbs
FFFC9215 00000000CC 
FFFC921A FFFF61BB86 		      	ldd  	r6,-10[bp]
FFFC9220 0000014611 		      	mulu 	r5,r6,#0
FFFC9225 3087610504 		      	add  	r4,r5,#_video_bufs
FFFC922A 00000001C2 
FFFC9230 0065E10393 		      	std  	r4,1630[r3]
                        		      	;    	                jcbs[nn].NormAttr = 0x0026B800;
FFFC9235 FFFF617B86 		      	ldd  	r5,-10[bp]
FFFC923A 0080010511 		      	mulu 	r4,r5,#2048
FFFC9240 020000C404 		      	add  	r3,r4,#_jcbs
FFFC9245 00000000CC 
FFFC924A 6B80010009 		      	ld   	r4,#2537472
FFFC9250 00000000C2 
FFFC9255 0067210393 		      	std  	r4,1650[r3]
                        		      	;    	        asm {
                        		      	     	
FFFC925A 0001F04009 				ldi   r1,#31
FFFC9260 C060004094 				stt    r1,$FFDC0600
FFFC9265 000000FFCD 
                        		      	;    	        }
                        		      	;    	                RequestIOFocus(&jcbs[0]);
FFFC926A 0000014009 		      	ld   	r5,#0
FFFC9270 0080010511 		      	mulu 	r4,r5,#2048
FFFC9275 020000C404 		      	add  	r3,r4,#_jcbs
FFFC927A 00000000CC 
FFFC9280 0000000370 		      	push 	r3
FFFC9285 CCD5500050 		      	call 	_RequestIOFocus
FFFC928A 000000FFCF 
FFFC9290 0000AFFF04 		      	add  	sp,sp,#10
                        		      	;    	        asm {
                        		      	     	
FFFC9295 0002004009 				ldi   r1,#32
FFFC929A C060004094 				stt    r1,$FFDC0600
FFFC92A0 000000FFCD 
                        		      	;    	        }
FFFC92A5 008BC00046 		      	bra  	FMTKc_283
                        		      	;    	; else
                        	FMTKc_282:
                        		      	;    	                 jcbs[nn].pVidMem = video_bufs[nn];
FFFC92AA FFFF617B86 		      	ldd  	r5,-10[bp]
FFFC92B0 0080010511 		      	mulu 	r4,r5,#2048
FFFC92B5 020000C404 		      	add  	r3,r4,#_jcbs
FFFC92BA 00000000CC 
FFFC92C0 FFFF61BB86 		      	ldd  	r6,-10[bp]
FFFC92C5 0000014611 		      	mulu 	r5,r6,#0
FFFC92CA 3087610504 		      	add  	r4,r5,#_video_bufs
FFFC92D0 00000001C2 
FFFC92D5 0065410393 		      	std  	r4,1620[r3]
                        		      	;    	                 jcbs[nn].pVirtVidMem = video_bufs[nn];
FFFC92DA FFFF617B86 		      	ldd  	r5,-10[bp]
FFFC92E0 0080010511 		      	mulu 	r4,r5,#2048
FFFC92E5 020000C404 		      	add  	r3,r4,#_jcbs
FFFC92EA 00000000CC 
FFFC92F0 FFFF61BB86 		      	ldd  	r6,-10[bp]
FFFC92F5 0000014611 		      	mulu 	r5,r6,#0
FFFC92FA 3087610504 		      	add  	r4,r5,#_video_bufs
FFFC9300 00000001C2 
FFFC9305 0065E10393 		      	std  	r4,1630[r3]
                        		      	;    	                 jcbs[nn].NormAttr = 0x0026B800;
FFFC930A FFFF617B86 		      	ldd  	r5,-10[bp]
FFFC9310 0080010511 		      	mulu 	r4,r5,#2048
FFFC9315 020000C404 		      	add  	r3,r4,#_jcbs
FFFC931A 00000000CC 
FFFC9320 6B80010009 		      	ld   	r4,#2537472
FFFC9325 00000000C2 
FFFC932A 0067210393 		      	std  	r4,1650[r3]
                        	FMTKc_283:
                        		      	;    	            jcbs[nn].VideoRows = 31;
FFFC9330 FFFF617B86 		      	ldd  	r5,-10[bp]
FFFC9335 0080010511 		      	mulu 	r4,r5,#2048
FFFC933A 020000C404 		      	add  	r3,r4,#_jcbs
FFFC9340 00000000CC 
FFFC9345 0001F10009 		      	ld   	r4,#31
FFFC934A 0FFFF10408 		      	and  	r4,r4,#65535
FFFC9350 0066810391 		      	stw  	r4,1640[r3]
                        		      	;    	            jcbs[nn].VideoCols = 84;
FFFC9355 FFFF617B86 		      	ldd  	r5,-10[bp]
FFFC935A 0080010511 		      	mulu 	r4,r5,#2048
FFFC9360 020000C404 		      	add  	r3,r4,#_jcbs
FFFC9365 00000000CC 
FFFC936A 0005410009 		      	ld   	r4,#84
FFFC9370 0FFFF10408 		      	and  	r4,r4,#65535
FFFC9375 0066A10391 		      	stw  	r4,1642[r3]
                        		      	;    	            jcbs[nn].CursorRow = 0;
FFFC937A FFFF617B86 		      	ldd  	r5,-10[bp]
FFFC9380 0080010511 		      	mulu 	r4,r5,#2048
FFFC9385 020000C404 		      	add  	r3,r4,#_jcbs
FFFC938A 00000000CC 
FFFC9390 0000010009 		      	ld   	r4,#0
FFFC9395 0FFFF10408 		      	and  	r4,r4,#65535
FFFC939A 0066C10391 		      	stw  	r4,1644[r3]
                        		      	;    	            jcbs[nn].CursorCol = 0;
FFFC93A0 FFFF617B86 		      	ldd  	r5,-10[bp]
FFFC93A5 0080010511 		      	mulu 	r4,r5,#2048
FFFC93AA 020000C404 		      	add  	r3,r4,#_jcbs
FFFC93B0 00000000CC 
FFFC93B5 0000010009 		      	ld   	r4,#0
FFFC93BA 0FFFF10408 		      	and  	r4,r4,#65535
FFFC93C0 0066E10391 		      	stw  	r4,1646[r3]
                        		      	;    	            jcbs[nn].KeybdHead = 0;
FFFC93C5 FFFF617B86 		      	ldd  	r5,-10[bp]
FFFC93CA 0080010511 		      	mulu 	r4,r5,#2048
FFFC93D0 020000C404 		      	add  	r3,r4,#_jcbs
FFFC93D5 00000000CC 
FFFC93DA 0067E10382 		      	ldw  	r4,1662[r3]
FFFC93E0 50F0010413 		      	bfext	r4,r4,#0,#15
FFFC93E5 0067E10390 		      	stb  	r4,1662[r3]
FFFC93EA 0067E00391 		      	stw  	r0,1662[r3]
                        		      	;    	            jcbs[nn].KeybdTail = 0;
FFFC93F0 FFFF617B86 		      	ldd  	r5,-10[bp]
FFFC93F5 0080010511 		      	mulu 	r4,r5,#2048
FFFC93FA 020000C404 		      	add  	r3,r4,#_jcbs
FFFC9400 00000000CC 
FFFC9405 0068010382 		      	ldw  	r4,1664[r3]
FFFC940A 50F0010413 		      	bfext	r4,r4,#0,#15
FFFC9410 0068010390 		      	stb  	r4,1664[r3]
FFFC9415 0068000391 		      	stw  	r0,1664[r3]
                        		      	;    	            jcbs[nn].KeyState1 = 0;
FFFC941A FFFF617B86 		      	ldd  	r5,-10[bp]
FFFC9420 0080010511 		      	mulu 	r4,r5,#2048
FFFC9425 020000C404 		      	add  	r3,r4,#_jcbs
FFFC942A 00000000CC 
FFFC9430 0067810382 		      	ldw  	r4,1656[r3]
FFFC9435 50F0010413 		      	bfext	r4,r4,#0,#15
FFFC943A 0067810390 		      	stb  	r4,1656[r3]
FFFC9440 0067800391 		      	stw  	r0,1656[r3]
                        		      	;    	            jcbs[nn].KeyState2 = 0;
FFFC9445 FFFF617B86 		      	ldd  	r5,-10[bp]
FFFC944A 0080010511 		      	mulu 	r4,r5,#2048
FFFC9450 020000C404 		      	add  	r3,r4,#_jcbs
FFFC9455 00000000CC 
FFFC945A 0067A10382 		      	ldw  	r4,1658[r3]
FFFC9460 50F0010413 		      	bfext	r4,r4,#0,#15
FFFC9465 0067A10390 		      	stb  	r4,1658[r3]
FFFC946A 0067A00391 		      	stw  	r0,1658[r3]
                        	FMTKc_274:
FFFC9470 FFFF60FB86 		      	ldd  	r3,-10[bp]
FFFC9475 000010C304 		      	add  	r3,r3,#1
FFFC947A FFFF60FB93 		      	std  	r3,-10[bp]
FFFC9480 FC8AC00046 		      	bra  	FMTKc_272
                        	FMTKc_273:
                        		      	;    	        asm {
                        		      	     	
FFFC9485 0002804009 				ldi   r1,#40
FFFC948A C060004094 				stt    r1,$FFDC0600
FFFC9490 000000FFCD 
                        		      	;    	        }
                        		      	;    	    	for (nn = 0; nn < 8; nn++)
FFFC9495 FFFF603B93 		      	std  	r0,-10[bp]
                        	FMTKc_284:
FFFC949A FFFF60FB86 		      	ldd  	r3,-10[bp]
FFFC94A0 0050020359 		      	bge  	r3,#8,FMTKc_285
                        		      	;    	    		readyQ[nn] = -1;
FFFC94A5 FFFF613B86 		      	ldd  	r4,-10[bp]
FFFC94AA 000020C411 		      	mulu 	r3,r4,#2
FFFC94B0 6FC0410382 		      	ldw  	r4,_readyQ[r3]
FFFC94B5 00000001C3 
FFFC94BA 50F0010413 		      	bfext	r4,r4,#0,#15
FFFC94C0 6FC0410390 		      	stb  	r4,_readyQ[r3]
FFFC94C5 00000001C3 
FFFC94CA FFFFF10009 		      	ld   	r4,#-1
FFFC94D0 6FC0410391 		      	stw  	r4,_readyQ[r3]
FFFC94D5 00000001C3 
                        	FMTKc_286:
FFFC94DA FFFF60FB86 		      	ldd  	r3,-10[bp]
FFFC94E0 000010C304 		      	add  	r3,r3,#1
FFFC94E5 FFFF60FB93 		      	std  	r3,-10[bp]
FFFC94EA FFB0C00046 		      	bra  	FMTKc_284
                        	FMTKc_285:
                        		      	;    	    	for (nn = 0; nn < 256; nn++) {
FFFC94F0 FFFF603B93 		      	std  	r0,-10[bp]
                        	FMTKc_287:
FFFC94F5 FFFF60FB86 		      	ldd  	r3,-10[bp]
FFFC94FA 0436000359 		      	bge  	r3,#256,FMTKc_288
FFFC9500 00000000C1 
                        		      	;    				SevenSeg(nn);
FFFC9505 0000001270 		      	push 	r18
FFFC950A FFFF60FB86 		      	ldd  	r3,-10[bp]
                        		      	hint 	#1
FFFC9510 0000048330 		      	mov  	r18,r3
FFFC9515 0000000053 		      	tgt  
                        		      	;    		asm {
                        		      	     	
FFFC951A C008048094 				stt	r18,$FFDC0080
FFFC9520 000000FFCD 
                        		      	;    		}
                        	FMTKc_293:
FFFC9525 0005C00046 		      	bra  	FMTKc_292
                        	FMTKc_290:
                        	FMTKc_292:
FFFC952A 0000001271 		      	pop  	r18
                        		      	;    	            tcbs[nn].number = nn;
FFFC9530 FFFF617B86 		      	ldd  	r5,-10[bp]
FFFC9535 0040010511 		      	mulu 	r4,r5,#1024
FFFC953A 2FC000C404 		      	add  	r3,r4,#_tcbs
FFFC9540 00000001C3 
FFFC9545 0020A10382 		      	ldw  	r4,522[r3]
FFFC954A 50F0010413 		      	bfext	r4,r4,#0,#15
FFFC9550 0020A10390 		      	stb  	r4,522[r3]
FFFC9555 FFFF613B82 		      	ldw  	r4,-10[bp]
FFFC955A 0020A10391 		      	stw  	r4,522[r3]
                        		      	;    	    		tcbs[nn].next = nn+1;
FFFC9560 FFFF617B86 		      	ldd  	r5,-10[bp]
FFFC9565 0040010511 		      	mulu 	r4,r5,#1024
FFFC956A 2FC000C404 		      	add  	r3,r4,#_tcbs
FFFC9570 00000001C3 
FFFC9575 0018610382 		      	ldw  	r4,390[r3]
FFFC957A 50F0010413 		      	bfext	r4,r4,#0,#15
FFFC9580 0018610390 		      	stb  	r4,390[r3]
FFFC9585 FFFF617B86 		      	ldd  	r5,-10[bp]
FFFC958A 0000110504 		      	add  	r4,r5,#1
FFFC9590 0018610391 		      	stw  	r4,390[r3]
                        		      	;    	    		tcbs[nn].prev = -1;
FFFC9595 FFFF617B86 		      	ldd  	r5,-10[bp]
FFFC959A 0040010511 		      	mulu 	r4,r5,#1024
FFFC95A0 2FC000C404 		      	add  	r3,r4,#_tcbs
FFFC95A5 00000001C3 
FFFC95AA 0018810382 		      	ldw  	r4,392[r3]
FFFC95B0 50F0010413 		      	bfext	r4,r4,#0,#15
FFFC95B5 0018810390 		      	stb  	r4,392[r3]
FFFC95BA FFFFF10009 		      	ld   	r4,#-1
FFFC95C0 0018810391 		      	stw  	r4,392[r3]
                        		      	;    	    		tcbs[nn].status = 0;
FFFC95C5 FFFF617B86 		      	ldd  	r5,-10[bp]
FFFC95CA 0040010511 		      	mulu 	r4,r5,#1024
FFFC95D0 2FC000C404 		      	add  	r3,r4,#_tcbs
FFFC95D5 00000001C3 
FFFC95DA 0000010009 		      	ld   	r4,#0
FFFC95E0 0020C14386 		      	ldd  	r5,524[r3]
FFFC95E5 000FF10408 		      	and  	r4,r4,#255
FFFC95EA 4500520502 		      	ror  	r5,r5,#8
FFFC95F0 FFF0014508 		      	and  	r5,r5,#-256
FFFC95F5 0900510502 		      	or   	r5,r5,r4
	      	rol  	r5,r5,#8
FFFC95FA 4400520502 
FFFC9600 0020C14393 		      	std  	r5,524[r3]
                        		      	;    	    		tcbs[nn].priority = 070;
FFFC9605 FFFF617B86 		      	ldd  	r5,-10[bp]
FFFC960A 0040010511 		      	mulu 	r4,r5,#1024
FFFC9610 2FC000C404 		      	add  	r3,r4,#_tcbs
FFFC9615 00000001C3 
FFFC961A 0003810009 		      	ld   	r4,#56
FFFC9620 0020C14386 		      	ldd  	r5,524[r3]
FFFC9625 000FF10408 		      	and  	r4,r4,#255
FFFC962A FFF0014508 		      	and  	r5,r5,#-256
FFFC9630 0900510502 		      	or   	r5,r5,r4
	      	std  	r5,524[r3]
FFFC9635 0020C14393 
                        		      	;    	    		tcbs[nn].affinity = 0;
FFFC963A FFFF617B86 		      	ldd  	r5,-10[bp]
FFFC9640 0040010511 		      	mulu 	r4,r5,#1024
FFFC9645 2FC000C404 		      	add  	r3,r4,#_tcbs
FFFC964A 00000001C3 
FFFC9650 0000010009 		      	ld   	r4,#0
FFFC9655 0020E14386 		      	ldd  	r5,526[r3]
FFFC965A 000FF10408 		      	and  	r4,r4,#255
FFFC9660 FFF0014508 		      	and  	r5,r5,#-256
FFFC9665 0900510502 		      	or   	r5,r5,r4
	      	std  	r5,526[r3]
FFFC966A 0020E14393 
                        		      	;    	    		tcbs[nn].sys_stack = &sys_stacks[nn] + 511;
FFFC9670 FFFF617B86 		      	ldd  	r5,-10[bp]
FFFC9675 0040010511 		      	mulu 	r4,r5,#1024
FFFC967A 2FC000C404 		      	add  	r3,r4,#_tcbs
FFFC9680 00000001C3 
FFFC9685 FFFF61FB86 		      	ldd  	r7,-10[bp]
FFFC968A 0000018711 		      	mulu 	r6,r7,#0
FFFC9690 9E00014604 		      	add  	r5,r6,#_sys_stacks
FFFC9695 00000000CE 
FFFC969A 001FF1C009 		      	ld   	r7,#511
FFFC96A0 0000818711 		      	mulu 	r6,r7,#8
FFFC96A5 0400418502 		      	add  	r4,r5,r6
	      	std  	r4,400[r3]
FFFC96AA 0019010393 
                        		      	;    	    		tcbs[nn].bios_stack = &bios_stacks[nn] + 511;
FFFC96B0 FFFF617B86 		      	ldd  	r5,-10[bp]
FFFC96B5 0040010511 		      	mulu 	r4,r5,#1024
FFFC96BA 2FC000C404 		      	add  	r3,r4,#_tcbs
FFFC96C0 00000001C3 
FFFC96C5 FFFF61FB86 		      	ldd  	r7,-10[bp]
FFFC96CA 0000018711 		      	mulu 	r6,r7,#0
FFFC96D0 DE00014604 		      	add  	r5,r6,#_bios_stacks
FFFC96D5 00000000CF 
FFFC96DA 001FF1C009 		      	ld   	r7,#511
FFFC96E0 0000818711 		      	mulu 	r6,r7,#8
FFFC96E5 0400418502 		      	add  	r4,r5,r6
	      	std  	r4,410[r3]
FFFC96EA 0019A10393 
                        		      	;    	    		tcbs[nn].stack = &stacks[nn] + 1023;
FFFC96F0 FFFF617B86 		      	ldd  	r5,-10[bp]
FFFC96F5 0040010511 		      	mulu 	r4,r5,#1024
FFFC96FA 2FC000C404 		      	add  	r3,r4,#_tcbs
FFFC9700 00000001C3 
FFFC9705 FFFF61FB86 		      	ldd  	r7,-10[bp]
FFFC970A 0000018711 		      	mulu 	r6,r7,#0
FFFC9710 1E00014604 		      	add  	r5,r6,#_stacks
FFFC9715 00000000CC 
FFFC971A 003FF1C009 		      	ld   	r7,#1023
FFFC9720 0000818711 		      	mulu 	r6,r7,#8
FFFC9725 0400418502 		      	add  	r4,r5,r6
	      	std  	r4,420[r3]
FFFC972A 001A410393 
                        		      	;    	    		tcbs[nn].hJob = 0;
FFFC9730 FFFF617B86 		      	ldd  	r5,-10[bp]
FFFC9735 0040010511 		      	mulu 	r4,r5,#1024
FFFC973A 2FC000C404 		      	add  	r3,r4,#_tcbs
FFFC9740 00000001C3 
FFFC9745 0000010009 		      	ld   	r4,#0
FFFC974A 0020E14386 		      	ldd  	r5,526[r3]
FFFC9750 000FF10408 		      	and  	r4,r4,#255
FFFC9755 4500520502 		      	ror  	r5,r5,#8
FFFC975A FFF0014508 		      	and  	r5,r5,#-256
FFFC9760 0900510502 		      	or   	r5,r5,r4
	      	rol  	r5,r5,#8
FFFC9765 4400520502 
FFFC976A 0020E14393 		      	std  	r5,526[r3]
                        		      	;    	    		tcbs[nn].timeout = 0;
FFFC9770 FFFF617B86 		      	ldd  	r5,-10[bp]
FFFC9775 0040010511 		      	mulu 	r4,r5,#1024
FFFC977A 2FC000C404 		      	add  	r3,r4,#_tcbs
FFFC9780 00000001C3 
FFFC9785 001AE00393 		      	std  	r0,430[r3]
                        		      	;    	    		tcbs[nn].hMailboxes[0] = -1;
FFFC978A 0000010009 		      	ld   	r4,#0
FFFC9790 000020C411 		      	mulu 	r3,r4,#2
FFFC9795 FFFF61FB86 		      	ldd  	r7,-10[bp]
FFFC979A 0040018711 		      	mulu 	r6,r7,#1024
FFFC97A0 2FC0014604 		      	add  	r5,r6,#_tcbs
FFFC97A5 00000001C3 
FFFC97AA 0020010504 		      	add  	r4,r5,#512
FFFC97B0 000050C4A2 		      	ldw  	r5,[r4+r3]
FFFC97B5 50F0014513 		      	bfext	r5,r5,#0,#15
FFFC97BA 000050C4B0 		      	stb  	r5,[r4+r3]
FFFC97C0 FFFFF14009 		      	ld   	r5,#-1
FFFC97C5 000050C4B1 		      	stw  	r5,[r4+r3]
                        		      	;    	    		tcbs[nn].hMailboxes[1] = -1;
FFFC97CA 0000110009 		      	ld   	r4,#1
FFFC97D0 000020C411 		      	mulu 	r3,r4,#2
FFFC97D5 FFFF61FB86 		      	ldd  	r7,-10[bp]
FFFC97DA 0040018711 		      	mulu 	r6,r7,#1024
FFFC97E0 2FC0014604 		      	add  	r5,r6,#_tcbs
FFFC97E5 00000001C3 
FFFC97EA 0020010504 		      	add  	r4,r5,#512
FFFC97F0 000050C4A2 		      	ldw  	r5,[r4+r3]
FFFC97F5 50F0014513 		      	bfext	r5,r5,#0,#15
FFFC97FA 000050C4B0 		      	stb  	r5,[r4+r3]
FFFC9800 FFFFF14009 		      	ld   	r5,#-1
FFFC9805 000050C4B1 		      	stw  	r5,[r4+r3]
                        		      	;    	    		tcbs[nn].hMailboxes[2] = -1;
FFFC980A 0000210009 		      	ld   	r4,#2
FFFC9810 000020C411 		      	mulu 	r3,r4,#2
FFFC9815 FFFF61FB86 		      	ldd  	r7,-10[bp]
FFFC981A 0040018711 		      	mulu 	r6,r7,#1024
FFFC9820 2FC0014604 		      	add  	r5,r6,#_tcbs
FFFC9825 00000001C3 
FFFC982A 0020010504 		      	add  	r4,r5,#512
FFFC9830 000050C4A2 		      	ldw  	r5,[r4+r3]
FFFC9835 50F0014513 		      	bfext	r5,r5,#0,#15
FFFC983A 000050C4B0 		      	stb  	r5,[r4+r3]
FFFC9840 FFFFF14009 		      	ld   	r5,#-1
FFFC9845 000050C4B1 		      	stw  	r5,[r4+r3]
                        		      	;    	    		tcbs[nn].hMailboxes[3] = -1;
FFFC984A 0000310009 		      	ld   	r4,#3
FFFC9850 000020C411 		      	mulu 	r3,r4,#2
FFFC9855 FFFF61FB86 		      	ldd  	r7,-10[bp]
FFFC985A 0040018711 		      	mulu 	r6,r7,#1024
FFFC9860 2FC0014604 		      	add  	r5,r6,#_tcbs
FFFC9865 00000001C3 
FFFC986A 0020010504 		      	add  	r4,r5,#512
FFFC9870 000050C4A2 		      	ldw  	r5,[r4+r3]
FFFC9875 50F0014513 		      	bfext	r5,r5,#0,#15
FFFC987A 000050C4B0 		      	stb  	r5,[r4+r3]
FFFC9880 FFFFF14009 		      	ld   	r5,#-1
FFFC9885 000050C4B1 		      	stw  	r5,[r4+r3]
                        		      	;    	    		if (nn<2) {
FFFC988A FFFF60FB86 		      	ldd  	r3,-10[bp]
FFFC9890 0070008359 		      	bge  	r3,#2,FMTKc_294
                        		      	;    	                tcbs[nn].affinity = nn;
FFFC9895 FFFF617B86 		      	ldd  	r5,-10[bp]
FFFC989A 0040010511 		      	mulu 	r4,r5,#1024
FFFC98A0 2FC000C404 		      	add  	r3,r4,#_tcbs
FFFC98A5 00000001C3 
FFFC98AA FFFF613B86 		      	ldd  	r4,-10[bp]
FFFC98B0 0020E14386 		      	ldd  	r5,526[r3]
FFFC98B5 000FF10408 		      	and  	r4,r4,#255
FFFC98BA FFF0014508 		      	and  	r5,r5,#-256
FFFC98C0 0900510502 		      	or   	r5,r5,r4
	      	std  	r5,526[r3]
FFFC98C5 0020E14393 
                        		      	;    	                tcbs[nn].priority = 030;
FFFC98CA FFFF617B86 		      	ldd  	r5,-10[bp]
FFFC98D0 0040010511 		      	mulu 	r4,r5,#1024
FFFC98D5 2FC000C404 		      	add  	r3,r4,#_tcbs
FFFC98DA 00000001C3 
FFFC98E0 0001810009 		      	ld   	r4,#24
FFFC98E5 0020C14386 		      	ldd  	r5,524[r3]
FFFC98EA 000FF10408 		      	and  	r4,r4,#255
FFFC98F0 FFF0014508 		      	and  	r5,r5,#-256
FFFC98F5 0900510502 		      	or   	r5,r5,r4
	      	std  	r5,524[r3]
FFFC98FA 0020C14393 
                        	FMTKc_294:
                        		      	;    	            tcbs[nn].exception = 0;
FFFC9900 FFFF617B86 		      	ldd  	r5,-10[bp]
FFFC9905 0040010511 		      	mulu 	r4,r5,#1024
FFFC990A 2FC000C404 		      	add  	r3,r4,#_tcbs
FFFC9910 00000001C3 
FFFC9915 0023000393 		      	std  	r0,560[r3]
                        	FMTKc_289:
FFFC991A FFFF60FB86 		      	ldd  	r3,-10[bp]
FFFC9920 000010C304 		      	add  	r3,r3,#1
FFFC9925 FFFF60FB93 		      	std  	r3,-10[bp]
FFFC992A FBCBC00046 		      	bra  	FMTKc_287
                        	FMTKc_288:
                        		      	;    	    	tcbs[256-1].next = -1;
FFFC9930 0010018009 		      	ld   	r6,#256
FFFC9935 FFFFF14604 		      	sub  	r5,r6,#1
FFFC993A 0040010511 		      	mulu 	r4,r5,#1024
FFFC9940 2FC000C404 		      	add  	r3,r4,#_tcbs
FFFC9945 00000001C3 
FFFC994A 0018610382 		      	ldw  	r4,390[r3]
FFFC9950 50F0010413 		      	bfext	r4,r4,#0,#15
FFFC9955 0018610390 		      	stb  	r4,390[r3]
FFFC995A FFFFF10009 		      	ld   	r4,#-1
FFFC9960 0018610391 		      	stw  	r4,390[r3]
                        		      	;    	    	freeTCB = 2;
FFFC9965 6FC000C082 		      	ldw  	r3,_freeTCB
FFFC996A 00000001C3 
FFFC9970 50F000C313 		      	bfext	r3,r3,#0,#15
FFFC9975 6FC000C090 		      	stb  	r3,_freeTCB
FFFC997A 00000001C3 
FFFC9980 000020C009 		      	ld   	r3,#2
FFFC9985 6FC000C091 		      	stw  	r3,_freeTCB
FFFC998A 00000001C3 
                        		      	;    	        asm {
                        		      	     	
FFFC9990 0002A04009 				ldi   r1,#42
FFFC9995 C060004094 				stt    r1,$FFDC0600
FFFC999A 000000FFCD 
                        		      	;    	        }
                        		      	;    	    	InsertIntoReadyList(0);
FFFC99A0 0000001270 		      	push 	r18
                        		      	hint 	#1
FFFC99A5 0000048009 		      	ld   	r18,#0
FFFC99AA CBBB000050 		      	call 	_InsertIntoReadyList
FFFC99B0 000000FFCF 
FFFC99B5 0000001271 		      	pop  	r18
                        		      	;    	    	InsertIntoReadyList(1);
FFFC99BA 0000001270 		      	push 	r18
                        		      	hint 	#1
FFFC99C0 0000148009 		      	ld   	r18,#1
FFFC99C5 CBBB000050 		      	call 	_InsertIntoReadyList
FFFC99CA 000000FFCF 
FFFC99D0 0000001271 		      	pop  	r18
                        		      	;    	    	tcbs[0].status = 8;
FFFC99D5 0000014009 		      	ld   	r5,#0
FFFC99DA 0040010511 		      	mulu 	r4,r5,#1024
FFFC99E0 2FC000C404 		      	add  	r3,r4,#_tcbs
FFFC99E5 00000001C3 
FFFC99EA 0000810009 		      	ld   	r4,#8
FFFC99F0 0020C14386 		      	ldd  	r5,524[r3]
FFFC99F5 000FF10408 		      	and  	r4,r4,#255
FFFC99FA 4500520502 		      	ror  	r5,r5,#8
FFFC9A00 FFF0014508 		      	and  	r5,r5,#-256
FFFC9A05 0900510502 		      	or   	r5,r5,r4
	      	rol  	r5,r5,#8
FFFC9A0A 4400520502 
FFFC9A10 0020C14393 		      	std  	r5,524[r3]
                        		      	;    	    	tcbs[1].status = 8;
FFFC9A15 0000114009 		      	ld   	r5,#1
FFFC9A1A 0040010511 		      	mulu 	r4,r5,#1024
FFFC9A20 2FC000C404 		      	add  	r3,r4,#_tcbs
FFFC9A25 00000001C3 
FFFC9A2A 0000810009 		      	ld   	r4,#8
FFFC9A30 0020C14386 		      	ldd  	r5,524[r3]
FFFC9A35 000FF10408 		      	and  	r4,r4,#255
FFFC9A3A 4500520502 		      	ror  	r5,r5,#8
FFFC9A40 FFF0014508 		      	and  	r5,r5,#-256
FFFC9A45 0900510502 		      	or   	r5,r5,r4
	      	rol  	r5,r5,#8
FFFC9A4A 4400520502 
FFFC9A50 0020C14393 		      	std  	r5,524[r3]
                        		      	;    	        asm {
                        		      	     	
FFFC9A55 0002C04009 				ldi   r1,#44
FFFC9A5A C060004094 				stt    r1,$FFDC0600
FFFC9A60 000000FFCD 
                        		      	;    	        }
                        		      	;    	    	TimeoutList = -1;
FFFC9A65 6FC020C082 		      	ldw  	r3,_TimeoutList
FFFC9A6A 00000001C3 
FFFC9A70 50F000C313 		      	bfext	r3,r3,#0,#15
FFFC9A75 6FC020C090 		      	stb  	r3,_TimeoutList
FFFC9A7A 00000001C3 
FFFC9A80 FFFFF0C009 		      	ld   	r3,#-1
FFFC9A85 6FC020C091 		      	stw  	r3,_TimeoutList
FFFC9A8A 00000001C3 
                        		      	;    	    	set_vector(4,(unsigned int)FMTK_SystemCall);
FFFC9A90 0000001270 		      	push 	r18
FFFC9A95 0000001370 		      	push 	r19
                        		      	hint 	#1
FFFC9A9A C795A4C009 		      	ld   	r19,#_FMTK_SystemCall
FFFC9AA0 000000FFCF 
                        		      	hint 	#1
FFFC9AA5 0000448009 		      	ld   	r18,#4
FFFC9AAA C714000050 		      	call 	_set_vector
FFFC9AB0 000000FFCF 
FFFC9AB5 0000001371 		      	pop  	r19
FFFC9ABA 0000001271 		      	pop  	r18
                        		      	;    	    	set_vector(2,(unsigned int)FMTK_SchedulerIRQ);
FFFC9AC0 0000001270 		      	push 	r18
FFFC9AC5 0000001370 		      	push 	r19
                        		      	hint 	#1
FFFC9ACA C7A004C009 		      	ld   	r19,#_FMTK_SchedulerIRQ
FFFC9AD0 000000FFCF 
                        		      	hint 	#1
FFFC9AD5 0000248009 		      	ld   	r18,#2
FFFC9ADA C714000050 		      	call 	_set_vector
FFFC9AE0 000000FFCF 
FFFC9AE5 0000001371 		      	pop  	r19
FFFC9AEA 0000001271 		      	pop  	r18
                        		      	;    	        asm {
                        		      	     	
FFFC9AF0 0002D04009 				ldi   r1,#45
FFFC9AF5 C060004094 				stt    r1,$FFDC0600
FFFC9AFA 000000FFCD 
                        		      	;    	        }
                        		      	;    	    	FMTK_StartTask(030, 0, FocusSwitcher, 0, 0);
FFFC9B00 000000009C 		      	push 	#0
FFFC9B05 000000009C 		      	push 	#0
FFFC9B0A CCA400009C 		      	push 	#_FocusSwitcher
FFFC9B10 000000FFCF 
FFFC9B15 000000009C 		      	push 	#0
FFFC9B1A 000180009C 		      	push 	#24
FFFC9B20 C867000050 		      	call 	_FMTK_StartTask
FFFC9B25 000000FFCF 
FFFC9B2A 00032FFF04 		      	add  	sp,sp,#50
                        		      	;    	        asm {
                        		      	     	
FFFC9B30 0002E04009 				ldi   r1,#46
FFFC9B35 C060004094 				stt    r1,$FFDC0600
FFFC9B3A 000000FFCD 
                        		      	;    	        }
                        		      	;    	    	FMTK_StartTask(033, 0, shell, 0, 1);
FFFC9B40 000010009C 		      	push 	#1
FFFC9B45 000000009C 		      	push 	#0
FFFC9B4A 000000009C 		      	push 	#_shell
FFFC9B50 000000009C 		      	push 	#0
FFFC9B55 0001B0009C 		      	push 	#27
FFFC9B5A C867000050 		      	call 	_FMTK_StartTask
FFFC9B60 000000FFCF 
FFFC9B65 00032FFF04 		      	add  	sp,sp,#50
                        		      	;    	        asm {
                        		      	     	
FFFC9B6A 0008104009 				ldi   r1,#129
FFFC9B70 C060004094 				stt    r1,$FFDC0600
FFFC9B75 000000FFCD 
                        		      	;    	        }
                        		      	;    	    	FMTK_StartTask(055, 0, gfx_demo, 0, 1);
FFFC9B7A 000010009C 		      	push 	#1
FFFC9B80 000000009C 		      	push 	#0
FFFC9B85 000000009C 		      	push 	#_gfx_demo
FFFC9B8A 000000009C 		      	push 	#0
FFFC9B90 0002D0009C 		      	push 	#45
FFFC9B95 C867000050 		      	call 	_FMTK_StartTask
FFFC9B9A 000000FFCF 
FFFC9BA0 00032FFF04 		      	add  	sp,sp,#50
                        		      	;    	        asm {
                        		      	     	
FFFC9BA5 0008204009 				ldi   r1,#130
FFFC9BAA C060004094 				stt    r1,$FFDC0600
FFFC9BB0 000000FFCD 
                        		      	;    	        }
                        		      	;    	        FMTK_StartTask(077, 0, IdleTask, 0, 0);
FFFC9BB5 000000009C 		      	push 	#0
FFFC9BBA 000000009C 		      	push 	#0
FFFC9BC0 C80600009C 		      	push 	#_IdleTask
FFFC9BC5 000000FFCF 
FFFC9BCA 000000009C 		      	push 	#0
FFFC9BD0 0003F0009C 		      	push 	#63
FFFC9BD5 C867000050 		      	call 	_FMTK_StartTask
FFFC9BDA 000000FFCF 
FFFC9BE0 00032FFF04 		      	add  	sp,sp,#50
                        		      	;    	        asm {
                        		      	     	
FFFC9BE5 0008304009 				ldi   r1,#131
FFFC9BEA C060004094 				stt    r1,$FFDC0600
FFFC9BF0 000000FFCD 
                        		      	;    	        }
                        		      	;    	        FMTK_StartTask(077, 1, IdleTask, 0, 0);
FFFC9BF5 000000009C 		      	push 	#0
FFFC9BFA 000000009C 		      	push 	#0
FFFC9C00 C80600009C 		      	push 	#_IdleTask
FFFC9C05 000000FFCF 
FFFC9C0A 000010009C 		      	push 	#1
FFFC9C10 0003F0009C 		      	push 	#63
FFFC9C15 C867000050 		      	call 	_FMTK_StartTask
FFFC9C1A 000000FFCF 
FFFC9C20 00032FFF04 		      	add  	sp,sp,#50
                        		      	;    	        asm {
                        		      	     	
FFFC9C25 0008404009 				ldi   r1,#132
FFFC9C2A C060004094 				stt    r1,$FFDC0600
FFFC9C30 000000FFCD 
                        		      	;    	        }
                        		      	;    	    	FMTK_Inited = 0x12345678;
FFFC9C35 456780C009 		      	ld   	r3,#305419896
FFFC9C3A 00000012C3 
FFFC9C40 01C960C093 		      	std  	r3,_FMTK_Inited
FFFC9C45 00000000CC 
                        		      	;    	        asm {
                        		      	     	
FFFC9C4A 0003204009 				ldi   r1,#50
FFFC9C50 C060004094 				stt    r1,$FFDC0600
FFFC9C55 000000FFCD 
                        		      	;    	        }
                        	FMTKc_296:
FFFC9C5A 00000FFB30 		      	mov  	sp,bp
FFFC9C60 0000003B71 		      	pop  	bp
FFFC9C65 0000003A71 		      	pop  	xlr
FFFC9C6A 0000000AEF 		      	ret  	#10
                        	FMTKc_246:
FFFC9C70 0000ADFB86 		      	ldd  	lr,10[bp]
FFFC9C75 00014DFB93 		      	std  	lr,20[bp]
FFFC9C7A FFE0C00046 		      	bra  	FMTKc_296
                        	endpublic
                        	
                        	_FMTKInitializeSTKSIZE_ EQU 20
                        		code
                        		align	16                        	
                        	_UnlockSemaphoreSTKSIZE_ EQU 0
                        	_SetVBASTKSIZE_ EQU 0
                        	_LEDSSTKSIZE_ EQU 0
                        		code
                        		align	16                        	
                        	_QueueMsg:
FFFC9C80 0000000053 		      	tgt  
FFFC9C85 0000003A70 		      	push 	xlr
FFFC9C8A 0000003B70 		      	push 	bp
FFFC9C90 CA070E8009 		      	ld   	xlr,#FMTKmsg_1
FFFC9C95 000000FFCF 
FFFC9C9A 00000EFF30 		      	mov  	bp,sp
FFFC9CA0 FFFE2FFF04 		      	sub  	sp,sp,#_QueueMsgSTKSIZE_
FFFC9CA5 0000000B70 		      	push 	r11
FFFC9CAA 0000000C70 		      	push 	r12
FFFC9CB0 0000000D70 		      	push 	r13
FFFC9CB5 0000000E70 		      	push 	r14
FFFC9CBA 0000000F70 		      	push 	r15
FFFC9CC0 3080034009 		      	ld   	r13,#_nMsgBlk
FFFC9CC5 00000001C2 
FFFC9CCA 3081638009 		      	ld   	r14,#_freeMSG
FFFC9CD0 00000001C2 
FFFC9CD5 308003C009 		      	ld   	r15,#_message
FFFC9CDA 00000001C1 
FFFC9CE0 FFFE203B93 		      	std  	r0,-30[bp]
FFFC9CE5 0000001270 		      	push 	r18
FFFC9CEA 0000001370 		      	push 	r19
FFFC9CF0 FFFFF4C009 		      	ld   	r19,#-1
FFFC9CF5 0142048009 		      	ld   	r18,#_sys_sema
FFFC9CFA C524000050 		      	call 	_LockSemaphore
FFFC9D00 000000FFCF 
FFFC9D05 0000001371 		      	pop  	r19
FFFC9D0A 0000001271 		      	pop  	r18
FFFC9D10 0355000146 		      	beq  	r1,r0,FMTKmsg_4
FFFC9D15 000280CB86 		      	ldd  	r3,40[r11]
FFFC9D1A 000010C304 		      	add  	r3,r3,#1
FFFC9D20 000280CB93 		      	std  	r3,40[r11]
FFFC9D25 0000C0CB82 		      	ldw  	r3,12[r11]
FFFC9D2A 0016000356 		      	beq  	r3,#0,FMTKmsg_7
FFFC9D30 0015008356 		      	beq  	r3,#2,FMTKmsg_8
FFFC9D35 0100004356 		      	beq  	r3,#1,FMTKmsg_9
FFFC9D3A 02ABC00046 		      	bra  	FMTKmsg_6
                        	FMTKmsg_7:
FFFC9D40 02A5C00046 		      	bra  	FMTKmsg_6
                        	FMTKmsg_8:
                        	FMTKmsg_10:
FFFC9D45 000280CB86 		      	ldd  	r3,40[r11]
FFFC9D4A 0001E10B86 		      	ldd  	r4,30[r11]
FFFC9D50 00E001034E 		      	bleu 	r3,r4,FMTKmsg_11
FFFC9D55 FFFF40FB82 		      	ldw  	r3,-12[bp]
FFFC9D5A 50F000C313 		      	bfext	r3,r3,#0,#15
FFFC9D60 FFFF40FB90 		      	stb  	r3,-12[bp]
FFFC9D65 0000810B82 		      	ldw  	r4,8[r11]
FFFC9D6A 4000318402 		      	shl  	r3,r4,#6
FFFC9D70 000040CFA2 		      	ldw  	r4,[r15+r3]
FFFC9D75 FFFF413B91 		      	stw  	r4,-12[bp]
FFFC9D7A FFFF417B82 		      	ldw  	r5,-12[bp]
FFFC9D80 50F0014513 		      	bfext	r5,r5,#0,#15
FFFC9D85 FFFF417B90 		      	stb  	r5,-12[bp]
FFFC9D8A FFFF417B80 		      	ldb  	r5,-12[bp]
FFFC9D90 4000418502 		      	shl  	r4,r5,#6
FFFC9D95 040033C402 		      	add  	r3,r4,r15
	      	mov  	r12,r3
FFFC9D9A 0000030330 
FFFC9DA0 0000810B82 		      	ldw  	r4,8[r11]
FFFC9DA5 4000318402 		      	shl  	r3,r4,#6
FFFC9DAA 0000010E82 		      	ldw  	r4,[r14]
FFFC9DB0 0FFFF10408 		      	and  	r4,r4,#65535
FFFC9DB5 000040CFB1 		      	stw  	r4,[r15+r3]
FFFC9DBA 000080CB82 		      	ldw  	r3,8[r11]
FFFC9DC0 000000CE91 		      	stw  	r3,[r14]
FFFC9DC5 000000CD86 		      	ldd  	r3,[r13]
FFFC9DCA 000010C304 		      	add  	r3,r3,#1
FFFC9DD0 000000CD93 		      	std  	r3,[r13]
FFFC9DD5 000280CB86 		      	ldd  	r3,40[r11]
FFFC9DDA FFFFF0C304 		      	sub  	r3,r3,#1
FFFC9DE0 000280CB93 		      	std  	r3,40[r11]
FFFC9DE5 FFFF40FB82 		      	ldw  	r3,-12[bp]
FFFC9DEA 50F000C313 		      	bfext	r3,r3,#0,#15
FFFC9DF0 FFFF40FB90 		      	stb  	r3,-12[bp]
FFFC9DF5 FFFF40FB82 		      	ldw  	r3,-12[bp]
FFFC9DFA 0FFFF0C308 		      	and  	r3,r3,#65535
FFFC9E00 000080CB91 		      	stw  	r3,8[r11]
FFFC9E05 000320CB86 		      	ldd  	r3,50[r11]
FFFC9E0A 00163FC35D 		      	bgeu 	r3,#-1,FMTKmsg_12
FFFC9E10 000320CB86 		      	ldd  	r3,50[r11]
FFFC9E15 000010C304 		      	add  	r3,r3,#1
FFFC9E1A 000320CB93 		      	std  	r3,50[r11]
                        	FMTKmsg_12:
FFFC9E20 000060C009 		      	ld   	r3,#6
FFFC9E25 FFFE20FB93 		      	std  	r3,-30[bp]
FFFC9E2A FF1BC00046 		      	bra  	FMTKmsg_10
                        	FMTKmsg_11:
FFFC9E30 01B5C00046 		      	bra  	FMTKmsg_6
                        	FMTKmsg_9:
FFFC9E35 000280CB86 		      	ldd  	r3,40[r11]
FFFC9E3A 0001E10B86 		      	ldd  	r4,30[r11]
FFFC9E40 006A01034E 		      	bleu 	r3,r4,FMTKmsg_14
FFFC9E45 000000CE82 		      	ldw  	r3,[r14]
FFFC9E4A 0FFFF0C308 		      	and  	r3,r3,#65535
FFFC9E50 000000CB91 		      	stw  	r3,[r11]
FFFC9E55 070043CB02 		      	sub  	r4,r11,r15
	      	shru 	r3,r4,#6
FFFC9E5A 4100318402 
FFFC9E60 000000CE91 		      	stw  	r3,[r14]
FFFC9E65 000000CD86 		      	ldd  	r3,[r13]
FFFC9E6A 000010C304 		      	add  	r3,r3,#1
FFFC9E70 000000CD93 		      	std  	r3,[r13]
FFFC9E75 000320CB86 		      	ldd  	r3,50[r11]
FFFC9E7A 00163FC35D 		      	bgeu 	r3,#-1,FMTKmsg_16
FFFC9E80 000320CB86 		      	ldd  	r3,50[r11]
FFFC9E85 000010C304 		      	add  	r3,r3,#1
FFFC9E8A 000320CB93 		      	std  	r3,50[r11]
                        	FMTKmsg_16:
FFFC9E90 000060C009 		      	ld   	r3,#6
FFFC9E95 FFFE20FB93 		      	std  	r3,-30[bp]
FFFC9E9A 000280CB86 		      	ldd  	r3,40[r11]
FFFC9EA0 FFFFF0C304 		      	sub  	r3,r3,#1
FFFC9EA5 000280CB93 		      	std  	r3,40[r11]
                        	FMTKmsg_14:
                        	FMTKmsg_18:
FFFC9EAA 000280CB86 		      	ldd  	r3,40[r11]
FFFC9EB0 0001E10B86 		      	ldd  	r4,30[r11]
FFFC9EB5 00D501034E 		      	bleu 	r3,r4,FMTKmsg_19
FFFC9EBA 0000814B82 		      	ldw  	r5,8[r11]
FFFC9EC0 4000418502 		      	shl  	r4,r5,#6
FFFC9EC5 040033C402 		      	add  	r3,r4,r15
	      	mov  	r12,r3
FFFC9ECA 0000030330 
                        	FMTKmsg_20:
FFFC9ED0 070043CC02 		      	sub  	r4,r12,r15
	      	shru 	r3,r4,#6
FFFC9ED5 4100318402 
FFFC9EDA 0000A10B82 		      	ldw  	r4,10[r11]
FFFC9EE0 0FFFF10408 		      	and  	r4,r4,#65535
FFFC9EE5 0025010346 		      	beq  	r3,r4,FMTKmsg_21
FFFC9EEA 000002CC30 		      	mov  	r11,r12
FFFC9EF0 0000014C86 		      	ldd  	r5,[r12]
FFFC9EF5 4000418502 		      	shl  	r4,r5,#6
FFFC9EFA 040033C402 		      	add  	r3,r4,r15
	      	mov  	r12,r3
FFFC9F00 0000030330 
FFFC9F05 FFCBC00046 		      	bra  	FMTKmsg_20
                        	FMTKmsg_21:
FFFC9F0A 070043CB02 		      	sub  	r4,r11,r15
	      	shru 	r3,r4,#6
FFFC9F10 4100318402 
FFFC9F15 0FFFF0C308 		      	and  	r3,r3,#65535
FFFC9F1A 0000A0CB91 		      	stw  	r3,10[r11]
FFFC9F20 000000CE82 		      	ldw  	r3,[r14]
FFFC9F25 0FFFF0C308 		      	and  	r3,r3,#65535
FFFC9F2A 000000CC91 		      	stw  	r3,[r12]
FFFC9F30 070043CC02 		      	sub  	r4,r12,r15
	      	shru 	r3,r4,#6
FFFC9F35 4100318402 
FFFC9F3A 000000CE91 		      	stw  	r3,[r14]
FFFC9F40 000000CD86 		      	ldd  	r3,[r13]
FFFC9F45 000010C304 		      	add  	r3,r3,#1
FFFC9F4A 000000CD93 		      	std  	r3,[r13]
FFFC9F50 000320CB86 		      	ldd  	r3,50[r11]
FFFC9F55 00153FC35D 		      	bgeu 	r3,#-1,FMTKmsg_22
FFFC9F5A 000320CB86 		      	ldd  	r3,50[r11]
FFFC9F60 000010C304 		      	add  	r3,r3,#1
FFFC9F65 000320CB93 		      	std  	r3,50[r11]
                        	FMTKmsg_22:
FFFC9F6A 000280CB86 		      	ldd  	r3,40[r11]
FFFC9F70 FFFFF0C304 		      	sub  	r3,r3,#1
FFFC9F75 000280CB93 		      	std  	r3,40[r11]
FFFC9F7A 000060C009 		      	ld   	r3,#6
FFFC9F80 FFFE20FB93 		      	std  	r3,-30[bp]
FFFC9F85 FF25C00046 		      	bra  	FMTKmsg_18
                        	FMTKmsg_19:
FFFC9F8A FFFE20FB86 		      	ldd  	r3,-30[bp]
FFFC9F90 0055018357 		      	bne  	r3,#6,FMTKmsg_24
FFFC9F95 0000001270 		      	push 	r18
FFFC9F9A 0142048009 		      	ld   	r18,#_sys_sema
FFFC9FA0 0000000053 		      	tgt  
                        		      	     	
FFFC9FA5 0000001293 				std	r0,[r18]
                        	FMTKmsg_29:
                        	FMTKmsg_26:
                        	FMTKmsg_28:
FFFC9FAA 0000001271 		      	pop  	r18
FFFC9FB0 FFFE207B86 		      	ldd  	r1,-30[bp]
                        	FMTKmsg_30:
FFFC9FB5 0000000F71 		      	pop  	r15
FFFC9FBA 0000000E71 		      	pop  	r14
FFFC9FC0 0000000D71 		      	pop  	r13
FFFC9FC5 0000000C71 		      	pop  	r12
FFFC9FCA 0000000B71 		      	pop  	r11
FFFC9FD0 00000FFB30 		      	mov  	sp,bp
FFFC9FD5 0000003B71 		      	pop  	bp
FFFC9FDA 0000003A71 		      	pop  	xlr
FFFC9FE0 0000001EEF 		      	ret  	#30
                        	FMTKmsg_24:
                        	FMTKmsg_6:
FFFC9FE5 0000A0CB82 		      	ldw  	r3,10[r11]
FFFC9FEA 002B000358 		      	blt  	r3,#0,FMTKmsg_31
FFFC9FF0 0000A10B82 		      	ldw  	r4,10[r11]
FFFC9FF5 4000318402 		      	shl  	r3,r4,#6
FFFC9FFA 070053CB02 		      	sub  	r5,r11,r15
	      	shru 	r4,r5,#6
FFFCA000 4100418502 
FFFCA005 0FFFF10408 		      	and  	r4,r4,#65535
FFFCA00A 000040CFB1 		      	stw  	r4,[r15+r3]
FFFCA010 001AC00046 		      	bra  	FMTKmsg_32
                        	FMTKmsg_31:
FFFCA015 070043CB02 		      	sub  	r4,r11,r15
	      	shru 	r3,r4,#6
FFFCA01A 4100318402 
FFFCA020 0FFFF0C308 		      	and  	r3,r3,#65535
FFFCA025 000080CB91 		      	stw  	r3,8[r11]
                        	FMTKmsg_32:
FFFCA02A 070043CB02 		      	sub  	r4,r11,r15
	      	shru 	r3,r4,#6
FFFCA030 4100318402 
FFFCA035 0FFFF0C308 		      	and  	r3,r3,#65535
FFFCA03A 0000A0CB91 		      	stw  	r3,10[r11]
FFFCA040 0FFFF0C009 		      	ld   	r3,#65535
FFFCA045 000000CB91 		      	stw  	r3,[r11]
FFFCA04A 0000001270 		      	push 	r18
FFFCA050 0142048009 		      	ld   	r18,#_sys_sema
FFFCA055 0000000053 		      	tgt  
                        		      	     	
FFFCA05A 0000001293 				std	r0,[r18]
                        	FMTKmsg_36:
                        	FMTKmsg_33:
                        	FMTKmsg_35:
FFFCA060 0000001271 		      	pop  	r18
                        	FMTKmsg_4:
FFFCA065 FFFE207B86 		      	ldd  	r1,-30[bp]
FFFCA06A FF4BC00046 		      	bra  	FMTKmsg_30
                        	FMTKmsg_1:
FFFCA070 0000ADFB86 		      	ldd  	lr,10[bp]
FFFCA075 00014DFB93 		      	std  	lr,20[bp]
FFFCA07A FF3BC00046 		      	bra  	FMTKmsg_30
                        	_QueueMsgSTKSIZE_ EQU 30
                        	_DequeueMsg:
FFFCA080 0000000053 		      	tgt  
FFFCA085 0000003A70 		      	push 	xlr
FFFCA08A 0000003B70 		      	push 	bp
FFFCA090 CA19AE8009 		      	ld   	xlr,#FMTKmsg_38
FFFCA095 000000FFCF 
FFFCA09A 00000EFF30 		      	mov  	bp,sp
FFFCA0A0 FFFF4FFF04 		      	sub  	sp,sp,#_DequeueMsgSTKSIZE_
FFFCA0A5 0000000B70 		      	push 	r11
FFFCA0AA 0000000C70 		      	push 	r12
FFFCA0B0 000000C030 		      	mov  	r3,r0
FFFCA0B5 0000030330 		      	mov  	r12,r3
FFFCA0BA 000280CB86 		      	ldd  	r3,40[r11]
FFFCA0C0 00B5000346 		      	beq  	r3,r0,FMTKmsg_41
FFFCA0C5 000280CB86 		      	ldd  	r3,40[r11]
FFFCA0CA FFFFF0C304 		      	sub  	r3,r3,#1
FFFCA0D0 000280CB93 		      	std  	r3,40[r11]
FFFCA0D5 FFFF40FB82 		      	ldw  	r3,-12[bp]
FFFCA0DA 50F000C313 		      	bfext	r3,r3,#0,#15
FFFCA0E0 FFFF40FB90 		      	stb  	r3,-12[bp]
FFFCA0E5 000080CB82 		      	ldw  	r3,8[r11]
FFFCA0EA FFFF40FB91 		      	stw  	r3,-12[bp]
FFFCA0F0 FFFF40FB82 		      	ldw  	r3,-12[bp]
FFFCA0F5 50F000C313 		      	bfext	r3,r3,#0,#15
FFFCA0FA FFFF40FB90 		      	stb  	r3,-12[bp]
FFFCA100 FFFF40FB80 		      	ldb  	r3,-12[bp]
FFFCA105 0070000358 		      	blt  	r3,#0,FMTKmsg_43
FFFCA10A FFFF417B82 		      	ldw  	r5,-12[bp]
FFFCA110 50F0014513 		      	bfext	r5,r5,#0,#15
FFFCA115 FFFF417B90 		      	stb  	r5,-12[bp]
FFFCA11A FFFF417B80 		      	ldb  	r5,-12[bp]
FFFCA120 4000418502 		      	shl  	r4,r5,#6
FFFCA125 308000C404 		      	add  	r3,r4,#_message
FFFCA12A 00000001C1 
FFFCA130 0000030330 		      	mov  	r12,r3
FFFCA135 000000CC82 		      	ldw  	r3,[r12]
FFFCA13A 000080CB91 		      	stw  	r3,8[r11]
FFFCA140 000080CB82 		      	ldw  	r3,8[r11]
FFFCA145 0010000359 		      	bge  	r3,#0,FMTKmsg_45
FFFCA14A 0FFFF0C009 		      	ld   	r3,#65535
FFFCA150 0000A0CB91 		      	stw  	r3,10[r11]
                        	FMTKmsg_45:
FFFCA155 FFFF40FB82 		      	ldw  	r3,-12[bp]
FFFCA15A 50F000C313 		      	bfext	r3,r3,#0,#15
FFFCA160 FFFF40FB90 		      	stb  	r3,-12[bp]
FFFCA165 FFFF40FB82 		      	ldw  	r3,-12[bp]
FFFCA16A 0FFFF0C308 		      	and  	r3,r3,#65535
FFFCA170 000000CC91 		      	stw  	r3,[r12]
                        	FMTKmsg_43:
                        	FMTKmsg_41:
                        		      	hint 	#2
FFFCA175 0000004C30 		      	mov  	r1,r12
                        	FMTKmsg_47:
FFFCA17A 0000000C71 		      	pop  	r12
FFFCA180 0000000B71 		      	pop  	r11
FFFCA185 00000FFB30 		      	mov  	sp,bp
FFFCA18A 0000003B71 		      	pop  	bp
FFFCA190 0000003A71 		      	pop  	xlr
FFFCA195 00000014EF 		      	ret  	#20
                        	FMTKmsg_38:
FFFCA19A 0000ADFB86 		      	ldd  	lr,10[bp]
FFFCA1A0 00014DFB93 		      	std  	lr,20[bp]
FFFCA1A5 FFD5C00046 		      	bra  	FMTKmsg_47
                        	_DequeueMsgSTKSIZE_ EQU 12
                        	_DequeThreadFromMbx:
FFFCA1AA 0000000053 		      	tgt  
FFFCA1B0 0000003A70 		      	push 	xlr
FFFCA1B5 0000003B70 		      	push 	bp
FFFCA1BA CA3F0E8009 		      	ld   	xlr,#FMTKmsg_49
FFFCA1C0 000000FFCF 
FFFCA1C5 00000EFF30 		      	mov  	bp,sp
FFFCA1CA 00000FFF04 		      	sub  	sp,sp,#_DequeThreadFromMbxSTKSIZE_
FFFCA1D0 0000000B70 		      	push 	r11
FFFCA1D5 0000000C70 		      	push 	r12
FFFCA1DA 2FC0030009 		      	ld   	r12,#_tcbs
FFFCA1E0 00000001C3 
FFFCA1E5 000B000B56 		      	beq  	r11,#0,FMTKmsg_54
FFFCA1EA 002B000B57 		      	bne  	r11,#0,FMTKmsg_52
                        	FMTKmsg_54:
                        		      	hint 	#2
FFFCA1F0 0000404009 		      	ld   	r1,#4
                        	FMTKmsg_55:
FFFCA1F5 0000000C71 		      	pop  	r12
FFFCA1FA 0000000B71 		      	pop  	r11
FFFCA200 00000FFB30 		      	mov  	sp,bp
FFFCA205 0000003B71 		      	pop  	bp
FFFCA20A 0000003A71 		      	pop  	xlr
FFFCA210 0000000AEF 		      	ret  	#10
                        	FMTKmsg_52:
FFFCA215 0000001270 		      	push 	r18
FFFCA21A 0000001370 		      	push 	r19
FFFCA220 FFFFF4C009 		      	ld   	r19,#-1
FFFCA225 0142048009 		      	ld   	r18,#_sys_sema
FFFCA22A C524000050 		      	call 	_LockSemaphore
FFFCA230 000000FFCF 
FFFCA235 0000001371 		      	pop  	r19
FFFCA23A 0000001271 		      	pop  	r18
FFFCA240 00F5000146 		      	beq  	r1,r0,FMTKmsg_56
FFFCA245 000040CB82 		      	ldw  	r3,4[r11]
FFFCA24A 00363FC357 		      	bne  	r3,#-1,FMTKmsg_58
FFFCA250 0000001270 		      	push 	r18
FFFCA255 0142048009 		      	ld   	r18,#_sys_sema
FFFCA25A 0000000053 		      	tgt  
                        		      	     	
FFFCA260 0000001293 				std	r0,[r18]
                        	FMTKmsg_63:
                        	FMTKmsg_60:
                        	FMTKmsg_62:
FFFCA265 0000001271 		      	pop  	r18
FFFCA26A 000000C030 		      	mov  	r3,r0
FFFCA270 000000CB93 		      	std  	r3,[r11]
FFFCA275 0000704009 		      	ld   	r1,#7
FFFCA27A FF7BC00046 		      	bra  	FMTKmsg_55
                        	FMTKmsg_58:
FFFCA280 000140CB86 		      	ldd  	r3,20[r11]
FFFCA285 FFFFF0C304 		      	sub  	r3,r3,#1
FFFCA28A 000140CB93 		      	std  	r3,20[r11]
FFFCA290 0000414B82 		      	ldw  	r5,4[r11]
FFFCA295 4000428502 		      	shl  	r4,r5,#10
FFFCA29A 0400330402 		      	add  	r3,r4,r12
	      	std  	r3,[r11]
FFFCA2A0 000000CB93 
FFFCA2A5 0000414B82 		      	ldw  	r5,4[r11]
FFFCA2AA 4000428502 		      	shl  	r4,r5,#10
FFFCA2B0 0400330402 		      	add  	r3,r4,r12
	      	ldw  	r4,394[r3]
FFFCA2B5 0018A10382 
FFFCA2BA 50F0010413 		      	bfext	r4,r4,#0,#15
FFFCA2C0 0018A10390 		      	stb  	r4,394[r3]
FFFCA2C5 0018A0C382 		      	ldw  	r3,394[r3]
FFFCA2CA 0FFFF0C308 		      	and  	r3,r3,#65535
FFFCA2D0 000040CB91 		      	stw  	r3,4[r11]
FFFCA2D5 000040CB82 		      	ldw  	r3,4[r11]
FFFCA2DA 003600035A 		      	ble  	r3,#0,FMTKmsg_64
FFFCA2E0 0000414B82 		      	ldw  	r5,4[r11]
FFFCA2E5 4000428502 		      	shl  	r4,r5,#10
FFFCA2EA 0400330402 		      	add  	r3,r4,r12
	      	ldw  	r4,396[r3]
FFFCA2F0 0018C10382 
FFFCA2F5 50F0010413 		      	bfext	r4,r4,#0,#15
FFFCA2FA 0018C10390 		      	stb  	r4,396[r3]
FFFCA300 FFFFF10009 		      	ld   	r4,#-1
FFFCA305 0018C10391 		      	stw  	r4,396[r3]
FFFCA30A 0010C00046 		      	bra  	FMTKmsg_65
                        	FMTKmsg_64:
FFFCA310 0FFFF0C009 		      	ld   	r3,#65535
FFFCA315 000060CB91 		      	stw  	r3,6[r11]
                        	FMTKmsg_65:
FFFCA31A 0000001270 		      	push 	r18
FFFCA320 0142048009 		      	ld   	r18,#_sys_sema
FFFCA325 0000000053 		      	tgt  
                        		      	     	
FFFCA32A 0000001293 				std	r0,[r18]
                        	FMTKmsg_69:
                        	FMTKmsg_66:
                        	FMTKmsg_68:
FFFCA330 0000001271 		      	pop  	r18
                        	FMTKmsg_56:
FFFCA335 0000014B86 		      	ldd  	r5,[r11]
FFFCA33A 0020C14586 		      	ldd  	r5,524[r5]
FFFCA340 0000010530 		      	mov  	r4,r5
FFFCA345 4100420402 		      	shru 	r4,r4,#8
FFFCA34A 000FF10408 		      	and  	r4,r4,#255
FFFCA350 FFF8014009 		      	ld   	r5,#-128
FFFCA355 0400414402 		      	add  	r4,r4,r5
	      	xor  	r4,r4,r5
	      	and  	r3,r4,#1
FFFCA35A 0A00414402 
FFFCA360 000010C408 
FFFCA365 0020000346 		      	beq  	r3,r0,FMTKmsg_70
FFFCA36A 000000CB86 		      	ldd  	r3,[r11]
FFFCA370 0000000370 		      	push 	r3
FFFCA375 CC33500050 		      	call 	_RemoveFromTimeoutList
FFFCA37A 000000FFCF 
FFFCA380 0000AFFF04 		      	add  	sp,sp,#10
                        	FMTKmsg_70:
FFFCA385 000000CB86 		      	ldd  	r3,[r11]
FFFCA38A 0000010B86 		      	ldd  	r4,[r11]
FFFCA390 0FFFF14009 		      	ld   	r5,#65535
FFFCA395 0018A14491 		      	stw  	r5,394[r4]
FFFCA39A 0018A10482 		      	ldw  	r4,394[r4]
FFFCA3A0 0FFFF10408 		      	and  	r4,r4,#65535
FFFCA3A5 0018C10391 		      	stw  	r4,396[r3]
FFFCA3AA 000000CB86 		      	ldd  	r3,[r11]
FFFCA3B0 0FFFF10009 		      	ld   	r4,#65535
FFFCA3B5 0020810391 		      	stw  	r4,520[r3]
FFFCA3BA 0000010B86 		      	ldd  	r4,[r11]
FFFCA3C0 0020C0C422 		      	lw   	r3,524[r4]
FFFCA3C5 4100320302 		      	shru 	r3,r3,#8
FFFCA3CA 000FF0C308 		      	and  	r3,r3,#255
FFFCA3D0 FFF8010009 		      	ld   	r4,#-128
FFFCA3D5 0400310302 		      	add  	r3,r3,r4
	      	xor  	r3,r3,r4
	      	and  	r3,r3,#-3
FFFCA3DA 0A00310302 
FFFCA3E0 FFFFD0C308 
FFFCA3E5 0000004030 		      	mov  	r1,r0
FFFCA3EA FE0BC00046 		      	bra  	FMTKmsg_55
                        	FMTKmsg_49:
FFFCA3F0 0000ADFB86 		      	ldd  	lr,10[bp]
FFFCA3F5 00014DFB93 		      	std  	lr,20[bp]
FFFCA3FA FDFBC00046 		      	bra  	FMTKmsg_55
                        	_DequeThreadFromMbxSTKSIZE_ EQU 0
                        	_FMTK_AllocMbx:
FFFCA400 0000000053 		      	tgt  
FFFCA405 0000003A70 		      	push 	xlr
FFFCA40A 0000003B70 		      	push 	bp
FFFCA410 CA5D5E8009 		      	ld   	xlr,#FMTKmsg_72
FFFCA415 000000FFCF 
FFFCA41A 00000EFF30 		      	mov  	bp,sp
FFFCA420 FFFF6FFF04 		      	sub  	sp,sp,#_FMTK_AllocMbxSTKSIZE_
FFFCA425 0000000B70 		      	push 	r11
FFFCA42A 0000000C70 		      	push 	r12
FFFCA430 0000000D70 		      	push 	r13
FFFCA435 3081830009 		      	ld   	r12,#_freeMBX
FFFCA43A 00000001C2 
                        		      	     	
FFFCA440 0030000D57 		      	bne  	r13,#0,FMTKmsg_75
FFFCA445 0000404009 		      	ld   	r1,#4
                        	FMTKmsg_77:
FFFCA44A 0000000D71 		      	pop  	r13
FFFCA450 0000000C71 		      	pop  	r12
FFFCA455 0000000B71 		      	pop  	r11
FFFCA45A 00000FFB30 		      	mov  	sp,bp
FFFCA460 0000003B71 		      	pop  	bp
FFFCA465 0000003A71 		      	pop  	xlr
FFFCA46A 0000000AEF 		      	ret  	#10
                        	FMTKmsg_75:
FFFCA470 0000001270 		      	push 	r18
FFFCA475 0000001370 		      	push 	r19
FFFCA47A FFFFF4C009 		      	ld   	r19,#-1
FFFCA480 0142048009 		      	ld   	r18,#_sys_sema
FFFCA485 C524000050 		      	call 	_LockSemaphore
FFFCA48A 000000FFCF 
FFFCA490 0000001371 		      	pop  	r19
FFFCA495 0000001271 		      	pop  	r18
FFFCA49A 00A0000146 		      	beq  	r1,r0,FMTKmsg_78
FFFCA4A0 000000CC80 		      	ldb  	r3,[r12]
FFFCA4A5 0015000358 		      	blt  	r3,#0,FMTKmsg_82
FFFCA4AA 000000CC80 		      	ldb  	r3,[r12]
FFFCA4B0 0030000358 		      	blt  	r3,#1024,FMTKmsg_80
FFFCA4B5 00000000C4 
                        	FMTKmsg_82:
FFFCA4BA 0000001270 		      	push 	r18
FFFCA4C0 0142048009 		      	ld   	r18,#_sys_sema
FFFCA4C5 0000000053 		      	tgt  
                        		      	     	
FFFCA4CA 0000001293 				std	r0,[r18]
                        	FMTKmsg_86:
                        	FMTKmsg_83:
                        	FMTKmsg_85:
FFFCA4D0 0000001271 		      	pop  	r18
FFFCA4D5 0004004009 		      	ld   	r1,#64
FFFCA4DA FF70C00046 		      	bra  	FMTKmsg_77
                        	FMTKmsg_80:
FFFCA4E0 0000014C80 		      	ldb  	r5,[r12]
FFFCA4E5 4000418502 		      	shl  	r4,r5,#6
FFFCA4EA 208000C404 		      	add  	r3,r4,#_mailbox
FFFCA4F0 00000001C1 
FFFCA4F5 000002C330 		      	mov  	r11,r3
FFFCA4FA 000000CB82 		      	ldw  	r3,[r11]
FFFCA500 000000CC91 		      	stw  	r3,[r12]
FFFCA505 3080A0C086 		      	ldd  	r3,_nMailbox
FFFCA50A 00000001C2 
FFFCA510 FFFFF0C304 		      	sub  	r3,r3,#1
FFFCA515 3080A0C093 		      	std  	r3,_nMailbox
FFFCA51A 00000001C2 
FFFCA520 0000001270 		      	push 	r18
FFFCA525 0142048009 		      	ld   	r18,#_sys_sema
FFFCA52A 0000000053 		      	tgt  
                        		      	     	
FFFCA530 0000001293 				std	r0,[r18]
                        	FMTKmsg_90:
                        	FMTKmsg_87:
                        	FMTKmsg_89:
FFFCA535 0000001271 		      	pop  	r18
                        	FMTKmsg_78:
FFFCA53A DF80010B04 		      	sub  	r4,r11,#_mailbox
FFFCA540 FFFFFFFECE 
FFFCA545 4100318402 		      	shru 	r3,r4,#6
FFFCA54A 0FFFF0C308 		      	and  	r3,r3,#65535
FFFCA550 000000CD91 		      	stw  	r3,[r13]
FFFCA555 C72F000050 		      	call 	_GetJCBPtr
FFFCA55A 000000FFCF 
FFFCA560 0FFFF04108 		      	and  	r1,r1,#65535
FFFCA565 0000204B91 		      	stw  	r1,2[r11]
FFFCA56A 0FFFF0C009 		      	ld   	r3,#65535
FFFCA570 000040CB91 		      	stw  	r3,4[r11]
FFFCA575 0FFFF0C009 		      	ld   	r3,#65535
FFFCA57A 000060CB91 		      	stw  	r3,6[r11]
FFFCA580 0FFFF0C009 		      	ld   	r3,#65535
FFFCA585 000080CB91 		      	stw  	r3,8[r11]
FFFCA58A 0FFFF0C009 		      	ld   	r3,#65535
FFFCA590 0000A0CB91 		      	stw  	r3,10[r11]
FFFCA595 000000C030 		      	mov  	r3,r0
FFFCA59A 000140CB93 		      	std  	r3,20[r11]
FFFCA5A0 000000C030 		      	mov  	r3,r0
FFFCA5A5 000280CB93 		      	std  	r3,40[r11]
FFFCA5AA 000000C030 		      	mov  	r3,r0
FFFCA5B0 000320CB93 		      	std  	r3,50[r11]
FFFCA5B5 000080C009 		      	ld   	r3,#8
FFFCA5BA 0001E0CB93 		      	std  	r3,30[r11]
FFFCA5C0 000020C009 		      	ld   	r3,#2
FFFCA5C5 0000C0CB91 		      	stw  	r3,12[r11]
FFFCA5CA 0000004030 		      	mov  	r1,r0
FFFCA5D0 FE7AC00046 		      	bra  	FMTKmsg_77
                        	FMTKmsg_72:
FFFCA5D5 0000ADFB86 		      	ldd  	lr,10[bp]
FFFCA5DA 00014DFB93 		      	std  	lr,20[bp]
FFFCA5E0 FE6AC00046 		      	bra  	FMTKmsg_77
                        	_FMTK_AllocMbxSTKSIZE_ EQU 10
                        	_FMTK_FreeMbx:
FFFCA5E5 0000000053 		      	tgt  
FFFCA5EA 0000003A70 		      	push 	xlr
FFFCA5F0 0000003B70 		      	push 	bp
FFFCA5F5 CA94AE8009 		      	ld   	xlr,#FMTKmsg_91
FFFCA5FA 000000FFCF 
FFFCA600 00000EFF30 		      	mov  	bp,sp
FFFCA605 FFFE2FFF04 		      	sub  	sp,sp,#_FMTK_FreeMbxSTKSIZE_
FFFCA60A 0000000B70 		      	push 	r11
FFFCA610 0000000C70 		      	push 	r12
FFFCA615 0000000D70 		      	push 	r13
FFFCA61A FFFE20FB25 		      	lea  	r3,-30[bp]
FFFCA620 000002C330 		      	mov  	r11,r3
                        		      	     	
FFFCA625 000060FB82 		      	ldw  	r3,6[bp]
FFFCA62A 50F000C313 		      	bfext	r3,r3,#0,#15
FFFCA630 000060FB90 		      	stb  	r3,6[bp]
FFFCA635 000060FB80 		      	ldb  	r3,6[bp]
FFFCA63A 004000030E 		      	chki 	r3,r0,#1024
FFFCA640 0000617B82 		      	ldw  	r5,6[bp]
FFFCA645 50F0014513 		      	bfext	r5,r5,#0,#15
FFFCA64A 0000617B90 		      	stb  	r5,6[bp]
FFFCA650 0000617B80 		      	ldb  	r5,6[bp]
FFFCA655 4000418502 		      	shl  	r4,r5,#6
FFFCA65A 208000C404 		      	add  	r3,r4,#_mailbox
FFFCA660 00000001C1 
FFFCA665 0000034330 		      	mov  	r13,r3
FFFCA66A 0000001270 		      	push 	r18
FFFCA670 0000001370 		      	push 	r19
FFFCA675 FFFFF4C009 		      	ld   	r19,#-1
FFFCA67A 0142048009 		      	ld   	r18,#_sys_sema
FFFCA680 C524000050 		      	call 	_LockSemaphore
FFFCA685 000000FFCF 
FFFCA68A 0000001371 		      	pop  	r19
FFFCA690 0000001271 		      	pop  	r18
FFFCA695 02AB000146 		      	beq  	r1,r0,FMTKmsg_94
FFFCA69A 000020CD82 		      	ldw  	r3,2[r13]
FFFCA6A0 0000000370 		      	push 	r3
FFFCA6A5 C72F000050 		      	call 	_GetJCBPtr
FFFCA6AA 000000FFCF 
FFFCA6B0 0000000371 		      	pop  	r3
FFFCA6B5 0060004346 		      	beq  	r3,r1,FMTKmsg_96
FFFCA6BA C72F000050 		      	call 	_GetJCBPtr
FFFCA6C0 000000FFCF 
FFFCA6C5 0050000156 		      	beq  	r1,#_jcbs,FMTKmsg_96
FFFCA6CA 00000C02C0 
FFFCA6D0 0000001270 		      	push 	r18
FFFCA6D5 0142048009 		      	ld   	r18,#_sys_sema
FFFCA6DA 0000000053 		      	tgt  
                        		      	     	
FFFCA6E0 0000001293 				std	r0,[r18]
                        	FMTKmsg_101:
                        	FMTKmsg_98:
                        	FMTKmsg_100:
FFFCA6E5 0000001271 		      	pop  	r18
FFFCA6EA 0000C04009 		      	ld   	r1,#12
                        	FMTKmsg_102:
FFFCA6F0 0000000D71 		      	pop  	r13
FFFCA6F5 0000000C71 		      	pop  	r12
FFFCA6FA 0000000B71 		      	pop  	r11
FFFCA700 00000FFB30 		      	mov  	sp,bp
FFFCA705 0000003B71 		      	pop  	bp
FFFCA70A 0000003A71 		      	pop  	xlr
FFFCA710 0000000AEF 		      	ret  	#10
                        	FMTKmsg_96:
                        	FMTKmsg_103:
FFFCA715 0000000D70 		      	push 	r13
FFFCA71A CA08000050 		      	call 	_DequeueMsg
FFFCA720 000000FFCF 
FFFCA725 0000030130 		      	mov  	r12,r1
FFFCA72A 00AB000C46 		      	beq  	r12,r0,FMTKmsg_104
FFFCA730 000010C009 		      	ld   	r3,#1
FFFCA735 000060CC91 		      	stw  	r3,6[r12]
FFFCA73A 0FFFF0C009 		      	ld   	r3,#65535
FFFCA740 000020CC91 		      	stw  	r3,2[r12]
FFFCA745 0FFFF0C009 		      	ld   	r3,#65535
FFFCA74A 000040CC91 		      	stw  	r3,4[r12]
FFFCA750 308160C082 		      	ldw  	r3,_freeMSG
FFFCA755 00000001C2 
FFFCA75A 50F000C313 		      	bfext	r3,r3,#0,#15
FFFCA760 308160C090 		      	stb  	r3,_freeMSG
FFFCA765 00000001C2 
FFFCA76A 308160C082 		      	ldw  	r3,_freeMSG
FFFCA770 00000001C2 
FFFCA775 0FFFF0C308 		      	and  	r3,r3,#65535
FFFCA77A 000000CC91 		      	stw  	r3,[r12]
FFFCA780 308160C082 		      	ldw  	r3,_freeMSG
FFFCA785 00000001C2 
FFFCA78A 50F000C313 		      	bfext	r3,r3,#0,#15
FFFCA790 308160C090 		      	stb  	r3,_freeMSG
FFFCA795 00000001C2 
FFFCA79A CF80010C04 		      	sub  	r4,r12,#_message
FFFCA7A0 FFFFFFFECE 
FFFCA7A5 4100318402 		      	shru 	r3,r4,#6
FFFCA7AA 308160C091 		      	stw  	r3,_freeMSG
FFFCA7B0 00000001C2 
FFFCA7B5 308000C086 		      	ldd  	r3,_nMsgBlk
FFFCA7BA 00000001C2 
FFFCA7C0 000010C304 		      	add  	r3,r3,#1
FFFCA7C5 308000C093 		      	std  	r3,_nMsgBlk
FFFCA7CA 00000001C2 
FFFCA7D0 FF45C00046 		      	bra  	FMTKmsg_103
                        	FMTKmsg_104:
                        	FMTKmsg_105:
FFFCA7D5 0000000B70 		      	push 	r11
FFFCA7DA 0000000D70 		      	push 	r13
FFFCA7E0 CA1AA00050 		      	call 	_DequeThreadFromMbx
FFFCA7E5 000000FFCF 
FFFCA7EA 00014FFF04 		      	add  	sp,sp,#20
FFFCA7F0 000000CB86 		      	ldd  	r3,[r11]
FFFCA7F5 000B000357 		      	bne  	r3,#0,FMTKmsg_107
FFFCA7FA 00ABC00046 		      	bra  	FMTKmsg_106
                        	FMTKmsg_107:
FFFCA800 000000CB86 		      	ldd  	r3,[r11]
FFFCA805 0000010030 		      	mov  	r4,r0
FFFCA80A 0FFFF10408 		      	and  	r4,r4,#65535
FFFCA810 001C610391 		      	stw  	r4,454[r3]
FFFCA815 0000014B86 		      	ldd  	r5,[r11]
FFFCA81A 0020C14586 		      	ldd  	r5,524[r5]
FFFCA820 0000010530 		      	mov  	r4,r5
FFFCA825 4100420402 		      	shru 	r4,r4,#8
FFFCA82A 000FF10408 		      	and  	r4,r4,#255
FFFCA830 FFF8014009 		      	ld   	r5,#-128
FFFCA835 0400414402 		      	add  	r4,r4,r5
	      	xor  	r4,r4,r5
	      	and  	r3,r4,#1
FFFCA83A 0A00414402 
FFFCA840 000010C408 
FFFCA845 0030000346 		      	beq  	r3,r0,FMTKmsg_109
FFFCA84A 0000014B86 		      	ldd  	r5,[r11]
FFFCA850 D040010504 		      	sub  	r4,r5,#_tcbs
FFFCA855 FFFFFFFECC 
FFFCA85A 4100328402 		      	shru 	r3,r4,#10
FFFCA860 0000000370 		      	push 	r3
FFFCA865 CC33500050 		      	call 	_RemoveFromTimeoutList
FFFCA86A 000000FFCF 
FFFCA870 0000AFFF04 		      	add  	sp,sp,#10
                        	FMTKmsg_109:
FFFCA875 0000014B86 		      	ldd  	r5,[r11]
FFFCA87A D040010504 		      	sub  	r4,r5,#_tcbs
FFFCA880 FFFFFFFECC 
FFFCA885 4100328402 		      	shru 	r3,r4,#10
FFFCA88A 0000000370 		      	push 	r3
FFFCA890 CBBB000050 		      	call 	_InsertIntoReadyList
FFFCA895 000000FFCF 
FFFCA89A 0000AFFF04 		      	add  	sp,sp,#10
FFFCA8A0 FF35C00046 		      	bra  	FMTKmsg_105
                        	FMTKmsg_106:
FFFCA8A5 308180C082 		      	ldw  	r3,_freeMBX
FFFCA8AA 00000001C2 
FFFCA8B0 50F000C313 		      	bfext	r3,r3,#0,#15
FFFCA8B5 308180C090 		      	stb  	r3,_freeMBX
FFFCA8BA 00000001C2 
FFFCA8C0 308180C082 		      	ldw  	r3,_freeMBX
FFFCA8C5 00000001C2 
FFFCA8CA 0FFFF0C308 		      	and  	r3,r3,#65535
FFFCA8D0 000000CD91 		      	stw  	r3,[r13]
FFFCA8D5 308180C082 		      	ldw  	r3,_freeMBX
FFFCA8DA 00000001C2 
FFFCA8E0 50F000C313 		      	bfext	r3,r3,#0,#15
FFFCA8E5 308180C090 		      	stb  	r3,_freeMBX
FFFCA8EA 00000001C2 
FFFCA8F0 DF80010D04 		      	sub  	r4,r13,#_mailbox
FFFCA8F5 FFFFFFFECE 
FFFCA8FA 4100318402 		      	shru 	r3,r4,#6
FFFCA900 308180C091 		      	stw  	r3,_freeMBX
FFFCA905 00000001C2 
FFFCA90A 3080A0C086 		      	ldd  	r3,_nMailbox
FFFCA910 00000001C2 
FFFCA915 000010C304 		      	add  	r3,r3,#1
FFFCA91A 3080A0C093 		      	std  	r3,_nMailbox
FFFCA920 00000001C2 
FFFCA925 0000001270 		      	push 	r18
FFFCA92A 0142048009 		      	ld   	r18,#_sys_sema
FFFCA930 0000000053 		      	tgt  
                        		      	     	
FFFCA935 0000001293 				std	r0,[r18]
                        	FMTKmsg_114:
                        	FMTKmsg_111:
                        	FMTKmsg_113:
FFFCA93A 0000001271 		      	pop  	r18
                        	FMTKmsg_94:
                        		      	hint 	#2
FFFCA940 0000004030 		      	mov  	r1,r0
FFFCA945 FDABC00046 		      	bra  	FMTKmsg_102
                        	FMTKmsg_91:
FFFCA94A 0000ADFB86 		      	ldd  	lr,10[bp]
FFFCA950 00014DFB93 		      	std  	lr,20[bp]
FFFCA955 FD9BC00046 		      	bra  	FMTKmsg_102
                        	_FMTK_FreeMbxSTKSIZE_ EQU 30
                        	_SetMbxMsgQueStrategy:
FFFCA95A 0000000053 		      	tgt  
FFFCA960 0000003A70 		      	push 	xlr
FFFCA965 0000003B70 		      	push 	bp
FFFCA96A CAAC0E8009 		      	ld   	xlr,#FMTKmsg_115
FFFCA970 000000FFCF 
FFFCA975 00000EFF30 		      	mov  	bp,sp
FFFCA97A FFFF6FFF04 		      	sub  	sp,sp,#_SetMbxMsgQueStrategySTKSIZE_
FFFCA980 0000000B70 		      	push 	r11
                        		      	     	
FFFCA985 000060FB82 		      	ldw  	r3,6[bp]
FFFCA98A 50F000C313 		      	bfext	r3,r3,#0,#15
FFFCA990 000060FB90 		      	stb  	r3,6[bp]
FFFCA995 000060FB80 		      	ldb  	r3,6[bp]
FFFCA99A 004000030E 		      	chki 	r3,r0,#1024
FFFCA9A0 000060FB86 		      	ldd  	r3,6[bp]
FFFCA9A5 002500835A 		      	ble  	r3,#2,FMTKmsg_118
FFFCA9AA 0000404009 		      	ld   	r1,#4
                        	FMTKmsg_120:
FFFCA9B0 0000000B71 		      	pop  	r11
FFFCA9B5 00000FFB30 		      	mov  	sp,bp
FFFCA9BA 0000003B71 		      	pop  	bp
FFFCA9C0 0000003A71 		      	pop  	xlr
FFFCA9C5 0000000AEF 		      	ret  	#10
                        	FMTKmsg_118:
FFFCA9CA 0000617B82 		      	ldw  	r5,6[bp]
FFFCA9D0 50F0014513 		      	bfext	r5,r5,#0,#15
FFFCA9D5 0000617B90 		      	stb  	r5,6[bp]
FFFCA9DA 0000617B80 		      	ldb  	r5,6[bp]
FFFCA9E0 4000418502 		      	shl  	r4,r5,#6
FFFCA9E5 208000C404 		      	add  	r3,r4,#_mailbox
FFFCA9EA 00000001C1 
FFFCA9F0 000002C330 		      	mov  	r11,r3
FFFCA9F5 0000001270 		      	push 	r18
FFFCA9FA 0000001370 		      	push 	r19
FFFCAA00 FFFFF4C009 		      	ld   	r19,#-1
FFFCAA05 0142048009 		      	ld   	r18,#_sys_sema
FFFCAA0A C524000050 		      	call 	_LockSemaphore
FFFCAA10 000000FFCF 
FFFCAA15 0000001371 		      	pop  	r19
FFFCAA1A 0000001271 		      	pop  	r18
FFFCAA20 0095000146 		      	beq  	r1,r0,FMTKmsg_121
FFFCAA25 000020CB82 		      	ldw  	r3,2[r11]
FFFCAA2A 0000000370 		      	push 	r3
FFFCAA30 C72F000050 		      	call 	_GetJCBPtr
FFFCAA35 000000FFCF 
FFFCAA3A 0000000371 		      	pop  	r3
FFFCAA40 0040004346 		      	beq  	r3,r1,FMTKmsg_123
FFFCAA45 C72F000050 		      	call 	_GetJCBPtr
FFFCAA4A 000000FFCF 
FFFCAA50 0030000156 		      	beq  	r1,#_jcbs,FMTKmsg_123
FFFCAA55 00000C02C0 
FFFCAA5A 0000001270 		      	push 	r18
FFFCAA60 0142048009 		      	ld   	r18,#_sys_sema
FFFCAA65 0000000053 		      	tgt  
                        		      	     	
FFFCAA6A 0000001293 				std	r0,[r18]
                        	FMTKmsg_128:
                        	FMTKmsg_125:
                        	FMTKmsg_127:
FFFCAA70 0000001271 		      	pop  	r18
FFFCAA75 0000C04009 		      	ld   	r1,#12
FFFCAA7A FF36C00046 		      	bra  	FMTKmsg_120
                        	FMTKmsg_123:
FFFCAA80 000060FB82 		      	ldw  	r3,6[bp]
FFFCAA85 0FFFF0C308 		      	and  	r3,r3,#65535
FFFCAA8A 0000C0CB91 		      	stw  	r3,12[r11]
FFFCAA90 000060FB86 		      	ldd  	r3,6[bp]
FFFCAA95 0001E0CB93 		      	std  	r3,30[r11]
FFFCAA9A 0000001270 		      	push 	r18
FFFCAAA0 0142048009 		      	ld   	r18,#_sys_sema
FFFCAAA5 0000000053 		      	tgt  
                        		      	     	
FFFCAAAA 0000001293 				std	r0,[r18]
                        	FMTKmsg_132:
                        	FMTKmsg_129:
                        	FMTKmsg_131:
FFFCAAB0 0000001271 		      	pop  	r18
                        	FMTKmsg_121:
                        		      	hint 	#2
FFFCAAB5 0000004030 		      	mov  	r1,r0
FFFCAABA FEF6C00046 		      	bra  	FMTKmsg_120
                        	FMTKmsg_115:
FFFCAAC0 0000ADFB86 		      	ldd  	lr,10[bp]
FFFCAAC5 00014DFB93 		      	std  	lr,20[bp]
FFFCAACA FEE6C00046 		      	bra  	FMTKmsg_120
                        	_SetMbxMsgQueStrategySTKSIZE_ EQU 10
                        	_FMTK_SendMsg:
FFFCAAD0 0000000053 		      	tgt  
FFFCAAD5 0000003A70 		      	push 	xlr
FFFCAADA 0000003B70 		      	push 	bp
FFFCAAE0 CAEDAE8009 		      	ld   	xlr,#FMTKmsg_133
FFFCAAE5 000000FFCF 
FFFCAAEA 00000EFF30 		      	mov  	bp,sp
FFFCAAF0 FFFE2FFF04 		      	sub  	sp,sp,#_FMTK_SendMsgSTKSIZE_
FFFCAAF5 0000000B70 		      	push 	r11
FFFCAAFA 0000000C70 		      	push 	r12
FFFCAB00 0000000D70 		      	push 	r13
FFFCAB05 0000000E70 		      	push 	r14
FFFCAB0A FFFE20FB25 		      	lea  	r3,-30[bp]
FFFCAB10 000002C330 		      	mov  	r11,r3
FFFCAB15 3081638009 		      	ld   	r14,#_freeMSG
FFFCAB1A 00000001C2 
                        		      	     	
FFFCAB20 000060FB82 		      	ldw  	r3,6[bp]
FFFCAB25 50F000C313 		      	bfext	r3,r3,#0,#15
FFFCAB2A 000060FB90 		      	stb  	r3,6[bp]
FFFCAB30 000060FB80 		      	ldb  	r3,6[bp]
FFFCAB35 004000030E 		      	chki 	r3,r0,#1024
FFFCAB3A 0000617B82 		      	ldw  	r5,6[bp]
FFFCAB40 50F0014513 		      	bfext	r5,r5,#0,#15
FFFCAB45 0000617B90 		      	stb  	r5,6[bp]
FFFCAB4A 0000617B80 		      	ldb  	r5,6[bp]
FFFCAB50 4000418502 		      	shl  	r4,r5,#6
FFFCAB55 208000C404 		      	add  	r3,r4,#_mailbox
FFFCAB5A 00000001C1 
FFFCAB60 0000034330 		      	mov  	r13,r3
FFFCAB65 0000001270 		      	push 	r18
FFFCAB6A 0000001370 		      	push 	r19
FFFCAB70 FFFFF4C009 		      	ld   	r19,#-1
FFFCAB75 0142048009 		      	ld   	r18,#_sys_sema
FFFCAB7A C524000050 		      	call 	_LockSemaphore
FFFCAB80 000000FFCF 
FFFCAB85 0000001371 		      	pop  	r19
FFFCAB8A 0000001271 		      	pop  	r18
FFFCAB90 01A0000146 		      	beq  	r1,r0,FMTKmsg_136
FFFCAB95 000020CD82 		      	ldw  	r3,2[r13]
FFFCAB9A 0010000358 		      	blt  	r3,#0,FMTKmsg_140
FFFCABA0 000020CD82 		      	ldw  	r3,2[r13]
FFFCABA5 00500CC358 		      	blt  	r3,#51,FMTKmsg_138
                        	FMTKmsg_140:
FFFCABAA 0000001270 		      	push 	r18
FFFCABB0 0142048009 		      	ld   	r18,#_sys_sema
FFFCABB5 0000000053 		      	tgt  
                        		      	     	
FFFCABBA 0000001293 				std	r0,[r18]
                        	FMTKmsg_144:
                        	FMTKmsg_141:
                        	FMTKmsg_143:
FFFCABC0 0000001271 		      	pop  	r18
FFFCABC5 0000804009 		      	ld   	r1,#8
                        	FMTKmsg_145:
FFFCABCA 0000000E71 		      	pop  	r14
FFFCABD0 0000000D71 		      	pop  	r13
FFFCABD5 0000000C71 		      	pop  	r12
FFFCABDA 0000000B71 		      	pop  	r11
FFFCABE0 00000FFB30 		      	mov  	sp,bp
FFFCABE5 0000003B71 		      	pop  	bp
FFFCABEA 0000003A71 		      	pop  	xlr
FFFCABF0 0000000AEF 		      	ret  	#10
                        	FMTKmsg_138:
FFFCABF5 000000CE80 		      	ldb  	r3,[r14]
FFFCABFA 0016000358 		      	blt  	r3,#0,FMTKmsg_148
FFFCAC00 000000CE80 		      	ldb  	r3,[r14]
FFFCAC05 0030000358 		      	blt  	r3,#16384,FMTKmsg_146
FFFCAC0A 00000004C0 
                        	FMTKmsg_148:
FFFCAC10 0000001270 		      	push 	r18
FFFCAC15 0142048009 		      	ld   	r18,#_sys_sema
FFFCAC1A 0000000053 		      	tgt  
                        		      	     	
FFFCAC20 0000001293 				std	r0,[r18]
                        	FMTKmsg_152:
                        	FMTKmsg_149:
                        	FMTKmsg_151:
FFFCAC25 0000001271 		      	pop  	r18
FFFCAC2A 0004104009 		      	ld   	r1,#65
FFFCAC30 FF9AC00046 		      	bra  	FMTKmsg_145
                        	FMTKmsg_146:
FFFCAC35 0000014E80 		      	ldb  	r5,[r14]
FFFCAC3A 4000418502 		      	shl  	r4,r5,#6
FFFCAC40 308000C404 		      	add  	r3,r4,#_message
FFFCAC45 00000001C1 
FFFCAC4A 0000030330 		      	mov  	r12,r3
FFFCAC50 000000CC82 		      	ldw  	r3,[r12]
FFFCAC55 000000CE91 		      	stw  	r3,[r14]
FFFCAC5A 308000C086 		      	ldd  	r3,_nMsgBlk
FFFCAC60 00000001C2 
FFFCAC65 FFFFF0C304 		      	sub  	r3,r3,#1
FFFCAC6A 308000C093 		      	std  	r3,_nMsgBlk
FFFCAC70 00000001C2 
FFFCAC75 0000000370 		      	push 	r3
FFFCAC7A 0000000470 		      	push 	r4
FFFCAC80 C72F000050 		      	call 	_GetJCBPtr
FFFCAC85 000000FFCF 
FFFCAC8A 0000000471 		      	pop  	r4
FFFCAC90 0000000371 		      	pop  	r3
FFFCAC95 FE00010104 		      	sub  	r4,r1,#_jcbs
FFFCAC9A FFFFFFFFC3 
FFFCACA0 410032C402 		      	shru 	r3,r4,#11
FFFCACA5 0FFFF0C308 		      	and  	r3,r3,#65535
FFFCACAA 000020CC91 		      	stw  	r3,2[r12]
FFFCACB0 000060FB82 		      	ldw  	r3,6[bp]
FFFCACB5 50F000C313 		      	bfext	r3,r3,#0,#15
FFFCACBA 000060FB90 		      	stb  	r3,6[bp]
FFFCACC0 000060FB82 		      	ldw  	r3,6[bp]
FFFCACC5 0FFFF0C308 		      	and  	r3,r3,#65535
FFFCACCA 000040CC91 		      	stw  	r3,4[r12]
FFFCACD0 000020C009 		      	ld   	r3,#2
FFFCACD5 000060CC91 		      	stw  	r3,6[r12]
FFFCACDA 000060FB86 		      	ldd  	r3,6[bp]
FFFCACE0 0000A0CC93 		      	std  	r3,10[r12]
FFFCACE5 000060FB86 		      	ldd  	r3,6[bp]
FFFCACEA 000140CC93 		      	std  	r3,20[r12]
FFFCACF0 000060FB86 		      	ldd  	r3,6[bp]
FFFCACF5 0001E0CC93 		      	std  	r3,30[r12]
FFFCACFA 0000000B70 		      	push 	r11
FFFCAD00 0000000D70 		      	push 	r13
FFFCAD05 CA1AA00050 		      	call 	_DequeThreadFromMbx
FFFCAD0A 000000FFCF 
FFFCAD10 00014FFF04 		      	add  	sp,sp,#20
FFFCAD15 0000001270 		      	push 	r18
FFFCAD1A 0142048009 		      	ld   	r18,#_sys_sema
FFFCAD20 0000000053 		      	tgt  
                        		      	     	
FFFCAD25 0000001293 				std	r0,[r18]
                        	FMTKmsg_156:
                        	FMTKmsg_153:
                        	FMTKmsg_155:
FFFCAD2A 0000001271 		      	pop  	r18
                        	FMTKmsg_136:
FFFCAD30 000000CB86 		      	ldd  	r3,[r11]
FFFCAD35 0020000357 		      	bne  	r3,#0,FMTKmsg_157
FFFCAD3A 0000000C70 		      	push 	r12
FFFCAD40 0000000D70 		      	push 	r13
FFFCAD45 C9C8000050 		      	call 	_QueueMsg
FFFCAD4A 000000FFCF 
FFFCAD50 FE7AC00046 		      	bra  	FMTKmsg_145
                        	FMTKmsg_157:
FFFCAD55 0000001270 		      	push 	r18
FFFCAD5A 0000001370 		      	push 	r19
FFFCAD60 FFFFF4C009 		      	ld   	r19,#-1
FFFCAD65 0142048009 		      	ld   	r18,#_sys_sema
FFFCAD6A C524000050 		      	call 	_LockSemaphore
FFFCAD70 000000FFCF 
FFFCAD75 0000001371 		      	pop  	r19
FFFCAD7A 0000001271 		      	pop  	r18
FFFCAD80 0150000146 		      	beq  	r1,r0,FMTKmsg_159
FFFCAD85 000000CB86 		      	ldd  	r3,[r11]
FFFCAD8A 0000210C82 		      	ldw  	r4,2[r12]
FFFCAD90 001C210391 		      	stw  	r4,450[r3]
FFFCAD95 000000CB86 		      	ldd  	r3,[r11]
FFFCAD9A 0000410C82 		      	ldw  	r4,4[r12]
FFFCADA0 001C410391 		      	stw  	r4,452[r3]
FFFCADA5 000000CB86 		      	ldd  	r3,[r11]
FFFCADAA 0000610C82 		      	ldw  	r4,6[r12]
FFFCADB0 001C610391 		      	stw  	r4,454[r3]
FFFCADB5 000000CB86 		      	ldd  	r3,[r11]
FFFCADBA 0000A10C86 		      	ldd  	r4,10[r12]
FFFCADC0 001CA10393 		      	std  	r4,458[r3]
FFFCADC5 000000CB86 		      	ldd  	r3,[r11]
FFFCADCA 0001410C86 		      	ldd  	r4,20[r12]
FFFCADD0 001D410393 		      	std  	r4,468[r3]
FFFCADD5 000000CB86 		      	ldd  	r3,[r11]
FFFCADDA 0001E10C86 		      	ldd  	r4,30[r12]
FFFCADE0 001DE10393 		      	std  	r4,478[r3]
FFFCADE5 000010C009 		      	ld   	r3,#1
FFFCADEA 000060CC91 		      	stw  	r3,6[r12]
FFFCADF0 0FFFF0C009 		      	ld   	r3,#65535
FFFCADF5 000020CC91 		      	stw  	r3,2[r12]
FFFCADFA 0FFFF0C009 		      	ld   	r3,#65535
FFFCAE00 000040CC91 		      	stw  	r3,4[r12]
FFFCAE05 000000CE82 		      	ldw  	r3,[r14]
FFFCAE0A 0FFFF0C308 		      	and  	r3,r3,#65535
FFFCAE10 000000CC91 		      	stw  	r3,[r12]
FFFCAE15 CF80010C04 		      	sub  	r4,r12,#_message
FFFCAE1A FFFFFFFECE 
FFFCAE20 4100318402 		      	shru 	r3,r4,#6
FFFCAE25 000000CE91 		      	stw  	r3,[r14]
FFFCAE2A 0000014B86 		      	ldd  	r5,[r11]
FFFCAE30 0020C14586 		      	ldd  	r5,524[r5]
FFFCAE35 0000010530 		      	mov  	r4,r5
FFFCAE3A 4100420402 		      	shru 	r4,r4,#8
FFFCAE40 000FF10408 		      	and  	r4,r4,#255
FFFCAE45 FFF8014009 		      	ld   	r5,#-128
FFFCAE4A 0400414402 		      	add  	r4,r4,r5
	      	xor  	r4,r4,r5
	      	and  	r3,r4,#1
FFFCAE50 0A00414402 
FFFCAE55 000010C408 
FFFCAE5A 0030000346 		      	beq  	r3,r0,FMTKmsg_161
FFFCAE60 0000014B86 		      	ldd  	r5,[r11]
FFFCAE65 D040010504 		      	sub  	r4,r5,#_tcbs
FFFCAE6A FFFFFFFECC 
FFFCAE70 4100328402 		      	shru 	r3,r4,#10
FFFCAE75 0000000370 		      	push 	r3
FFFCAE7A CC33500050 		      	call 	_RemoveFromTimeoutList
FFFCAE80 000000FFCF 
FFFCAE85 0000AFFF04 		      	add  	sp,sp,#10
                        	FMTKmsg_161:
FFFCAE8A 0000014B86 		      	ldd  	r5,[r11]
FFFCAE90 D040010504 		      	sub  	r4,r5,#_tcbs
FFFCAE95 FFFFFFFECC 
FFFCAE9A 4100328402 		      	shru 	r3,r4,#10
FFFCAEA0 0000000370 		      	push 	r3
FFFCAEA5 CBBB000050 		      	call 	_InsertIntoReadyList
FFFCAEAA 000000FFCF 
FFFCAEB0 0000AFFF04 		      	add  	sp,sp,#10
FFFCAEB5 0000001270 		      	push 	r18
FFFCAEBA 0142048009 		      	ld   	r18,#_sys_sema
FFFCAEC0 0000000053 		      	tgt  
                        		      	     	
FFFCAEC5 0000001293 				std	r0,[r18]
                        	FMTKmsg_166:
                        	FMTKmsg_163:
                        	FMTKmsg_165:
FFFCAECA 0000001271 		      	pop  	r18
                        	FMTKmsg_159:
                        		      	hint 	#2
FFFCAED0 0000004030 		      	mov  	r1,r0
FFFCAED5 FCF5C00046 		      	bra  	FMTKmsg_145
                        	FMTKmsg_133:
FFFCAEDA 0000ADFB86 		      	ldd  	lr,10[bp]
FFFCAEE0 00014DFB93 		      	std  	lr,20[bp]
FFFCAEE5 FCE5C00046 		      	bra  	FMTKmsg_145
                        	_FMTK_SendMsgSTKSIZE_ EQU 30
                        	_FMTK_PostMsg:
FFFCAEEA 0000000053 		      	tgt  
FFFCAEF0 0000003A70 		      	push 	xlr
FFFCAEF5 0000003B70 		      	push 	bp
FFFCAEFA CB300E8009 		      	ld   	xlr,#FMTKmsg_167
FFFCAF00 000000FFCF 
FFFCAF05 00000EFF30 		      	mov  	bp,sp
FFFCAF0A FFFD8FFF04 		      	sub  	sp,sp,#_FMTK_PostMsgSTKSIZE_
FFFCAF10 0000000B70 		      	push 	r11
FFFCAF15 0000000C70 		      	push 	r12
FFFCAF1A 0000000D70 		      	push 	r13
FFFCAF20 0000000E70 		      	push 	r14
FFFCAF25 FFFE20FB25 		      	lea  	r3,-30[bp]
FFFCAF2A 000002C330 		      	mov  	r11,r3
FFFCAF30 3081638009 		      	ld   	r14,#_freeMSG
FFFCAF35 00000001C2 
                        		      	     	
FFFCAF3A 000060FB82 		      	ldw  	r3,6[bp]
FFFCAF40 50F000C313 		      	bfext	r3,r3,#0,#15
FFFCAF45 000060FB90 		      	stb  	r3,6[bp]
FFFCAF4A 000060FB80 		      	ldb  	r3,6[bp]
FFFCAF50 004000030E 		      	chki 	r3,r0,#1024
FFFCAF55 0000617B82 		      	ldw  	r5,6[bp]
FFFCAF5A 50F0014513 		      	bfext	r5,r5,#0,#15
FFFCAF60 0000617B90 		      	stb  	r5,6[bp]
FFFCAF65 0000617B80 		      	ldb  	r5,6[bp]
FFFCAF6A 4000418502 		      	shl  	r4,r5,#6
FFFCAF70 208000C404 		      	add  	r3,r4,#_mailbox
FFFCAF75 00000001C1 
FFFCAF7A 0000034330 		      	mov  	r13,r3
FFFCAF80 0000001270 		      	push 	r18
FFFCAF85 0000001370 		      	push 	r19
FFFCAF8A FFFFF4C009 		      	ld   	r19,#-1
FFFCAF90 0142048009 		      	ld   	r18,#_sys_sema
FFFCAF95 C524000050 		      	call 	_LockSemaphore
FFFCAF9A 000000FFCF 
FFFCAFA0 0000001371 		      	pop  	r19
FFFCAFA5 0000001271 		      	pop  	r18
FFFCAFAA 01A0000146 		      	beq  	r1,r0,FMTKmsg_170
FFFCAFB0 000020CD82 		      	ldw  	r3,2[r13]
FFFCAFB5 0010000358 		      	blt  	r3,#0,FMTKmsg_174
FFFCAFBA 000020CD82 		      	ldw  	r3,2[r13]
FFFCAFC0 00500CC358 		      	blt  	r3,#51,FMTKmsg_172
                        	FMTKmsg_174:
FFFCAFC5 0000001270 		      	push 	r18
FFFCAFCA 0142048009 		      	ld   	r18,#_sys_sema
FFFCAFD0 0000000053 		      	tgt  
                        		      	     	
FFFCAFD5 0000001293 				std	r0,[r18]
                        	FMTKmsg_178:
                        	FMTKmsg_175:
                        	FMTKmsg_177:
FFFCAFDA 0000001271 		      	pop  	r18
FFFCAFE0 0000804009 		      	ld   	r1,#8
                        	FMTKmsg_179:
FFFCAFE5 0000000E71 		      	pop  	r14
FFFCAFEA 0000000D71 		      	pop  	r13
FFFCAFF0 0000000C71 		      	pop  	r12
FFFCAFF5 0000000B71 		      	pop  	r11
FFFCAFFA 00000FFB30 		      	mov  	sp,bp
FFFCB000 0000003B71 		      	pop  	bp
FFFCB005 0000003A71 		      	pop  	xlr
FFFCB00A 0000000AEF 		      	ret  	#10
                        	FMTKmsg_172:
FFFCB010 000000CE80 		      	ldb  	r3,[r14]
FFFCB015 0015000358 		      	blt  	r3,#0,FMTKmsg_182
FFFCB01A 000000CE80 		      	ldb  	r3,[r14]
FFFCB020 0030000358 		      	blt  	r3,#16384,FMTKmsg_180
FFFCB025 00000004C0 
                        	FMTKmsg_182:
FFFCB02A 0000001270 		      	push 	r18
FFFCB030 0142048009 		      	ld   	r18,#_sys_sema
FFFCB035 0000000053 		      	tgt  
                        		      	     	
FFFCB03A 0000001293 				std	r0,[r18]
                        	FMTKmsg_186:
                        	FMTKmsg_183:
                        	FMTKmsg_185:
FFFCB040 0000001271 		      	pop  	r18
FFFCB045 0004104009 		      	ld   	r1,#65
FFFCB04A FF9BC00046 		      	bra  	FMTKmsg_179
                        	FMTKmsg_180:
FFFCB050 0000014E80 		      	ldb  	r5,[r14]
FFFCB055 4000418502 		      	shl  	r4,r5,#6
FFFCB05A 308000C404 		      	add  	r3,r4,#_message
FFFCB060 00000001C1 
FFFCB065 0000030330 		      	mov  	r12,r3
FFFCB06A 000000CC82 		      	ldw  	r3,[r12]
FFFCB070 000000CE91 		      	stw  	r3,[r14]
FFFCB075 308000C086 		      	ldd  	r3,_nMsgBlk
FFFCB07A 00000001C2 
FFFCB080 FFFFF0C304 		      	sub  	r3,r3,#1
FFFCB085 308000C093 		      	std  	r3,_nMsgBlk
FFFCB08A 00000001C2 
FFFCB090 0000000370 		      	push 	r3
FFFCB095 0000000470 		      	push 	r4
FFFCB09A C72F000050 		      	call 	_GetJCBPtr
FFFCB0A0 000000FFCF 
FFFCB0A5 0000000471 		      	pop  	r4
FFFCB0AA 0000000371 		      	pop  	r3
FFFCB0B0 FE00010104 		      	sub  	r4,r1,#_jcbs
FFFCB0B5 FFFFFFFFC3 
FFFCB0BA 410032C402 		      	shru 	r3,r4,#11
FFFCB0C0 0FFFF0C308 		      	and  	r3,r3,#65535
FFFCB0C5 000020CC91 		      	stw  	r3,2[r12]
FFFCB0CA 000060FB82 		      	ldw  	r3,6[bp]
FFFCB0D0 50F000C313 		      	bfext	r3,r3,#0,#15
FFFCB0D5 000060FB90 		      	stb  	r3,6[bp]
FFFCB0DA 000060FB82 		      	ldw  	r3,6[bp]
FFFCB0E0 0FFFF0C308 		      	and  	r3,r3,#65535
FFFCB0E5 000040CC91 		      	stw  	r3,4[r12]
FFFCB0EA 000020C009 		      	ld   	r3,#2
FFFCB0F0 000060CC91 		      	stw  	r3,6[r12]
FFFCB0F5 000060FB86 		      	ldd  	r3,6[bp]
FFFCB0FA 0000A0CC93 		      	std  	r3,10[r12]
FFFCB100 000060FB86 		      	ldd  	r3,6[bp]
FFFCB105 000140CC93 		      	std  	r3,20[r12]
FFFCB10A 000060FB86 		      	ldd  	r3,6[bp]
FFFCB110 0001E0CC93 		      	std  	r3,30[r12]
FFFCB115 0000000B70 		      	push 	r11
FFFCB11A 0000000D70 		      	push 	r13
FFFCB120 CA1AA00050 		      	call 	_DequeThreadFromMbx
FFFCB125 000000FFCF 
FFFCB12A 00014FFF04 		      	add  	sp,sp,#20
FFFCB130 0000001270 		      	push 	r18
FFFCB135 0142048009 		      	ld   	r18,#_sys_sema
FFFCB13A 0000000053 		      	tgt  
                        		      	     	
FFFCB140 0000001293 				std	r0,[r18]
                        	FMTKmsg_190:
                        	FMTKmsg_187:
                        	FMTKmsg_189:
FFFCB145 0000001271 		      	pop  	r18
                        	FMTKmsg_170:
FFFCB14A 000000CB86 		      	ldd  	r3,[r11]
FFFCB150 002A000357 		      	bne  	r3,#0,FMTKmsg_191
FFFCB155 0000000C70 		      	push 	r12
FFFCB15A 0000000D70 		      	push 	r13
FFFCB160 C9C8000050 		      	call 	_QueueMsg
FFFCB165 000000FFCF 
FFFCB16A FFFD807B93 		      	std  	r1,-40[bp]
FFFCB170 FFFD807B86 		      	ldd  	r1,-40[bp]
FFFCB175 FE70C00046 		      	bra  	FMTKmsg_179
                        	FMTKmsg_191:
FFFCB17A 0000001270 		      	push 	r18
FFFCB180 0000001370 		      	push 	r19
FFFCB185 FFFFF4C009 		      	ld   	r19,#-1
FFFCB18A 0142048009 		      	ld   	r18,#_sys_sema
FFFCB190 C524000050 		      	call 	_LockSemaphore
FFFCB195 000000FFCF 
FFFCB19A 0000001371 		      	pop  	r19
FFFCB1A0 0000001271 		      	pop  	r18
FFFCB1A5 0150000146 		      	beq  	r1,r0,FMTKmsg_193
FFFCB1AA 000000CB86 		      	ldd  	r3,[r11]
FFFCB1B0 0000210C82 		      	ldw  	r4,2[r12]
FFFCB1B5 001C210391 		      	stw  	r4,450[r3]
FFFCB1BA 000000CB86 		      	ldd  	r3,[r11]
FFFCB1C0 0000410C82 		      	ldw  	r4,4[r12]
FFFCB1C5 001C410391 		      	stw  	r4,452[r3]
FFFCB1CA 000000CB86 		      	ldd  	r3,[r11]
FFFCB1D0 0000610C82 		      	ldw  	r4,6[r12]
FFFCB1D5 001C610391 		      	stw  	r4,454[r3]
FFFCB1DA 000000CB86 		      	ldd  	r3,[r11]
FFFCB1E0 0000A10C86 		      	ldd  	r4,10[r12]
FFFCB1E5 001CA10393 		      	std  	r4,458[r3]
FFFCB1EA 000000CB86 		      	ldd  	r3,[r11]
FFFCB1F0 0001410C86 		      	ldd  	r4,20[r12]
FFFCB1F5 001D410393 		      	std  	r4,468[r3]
FFFCB1FA 000000CB86 		      	ldd  	r3,[r11]
FFFCB200 0001E10C86 		      	ldd  	r4,30[r12]
FFFCB205 001DE10393 		      	std  	r4,478[r3]
FFFCB20A 000010C009 		      	ld   	r3,#1
FFFCB210 000060CC91 		      	stw  	r3,6[r12]
FFFCB215 0FFFF0C009 		      	ld   	r3,#65535
FFFCB21A 000020CC91 		      	stw  	r3,2[r12]
FFFCB220 0FFFF0C009 		      	ld   	r3,#65535
FFFCB225 000040CC91 		      	stw  	r3,4[r12]
FFFCB22A 000000CE82 		      	ldw  	r3,[r14]
FFFCB230 0FFFF0C308 		      	and  	r3,r3,#65535
FFFCB235 000000CC91 		      	stw  	r3,[r12]
FFFCB23A CF80010C04 		      	sub  	r4,r12,#_message
FFFCB240 FFFFFFFECE 
FFFCB245 4100318402 		      	shru 	r3,r4,#6
FFFCB24A 000000CE91 		      	stw  	r3,[r14]
FFFCB250 0000014B86 		      	ldd  	r5,[r11]
FFFCB255 0020C14586 		      	ldd  	r5,524[r5]
FFFCB25A 0000010530 		      	mov  	r4,r5
FFFCB260 4100420402 		      	shru 	r4,r4,#8
FFFCB265 000FF10408 		      	and  	r4,r4,#255
FFFCB26A FFF8014009 		      	ld   	r5,#-128
FFFCB270 0400414402 		      	add  	r4,r4,r5
	      	xor  	r4,r4,r5
	      	and  	r3,r4,#1
FFFCB275 0A00414402 
FFFCB27A 000010C408 
FFFCB280 0030000346 		      	beq  	r3,r0,FMTKmsg_195
FFFCB285 0000014B86 		      	ldd  	r5,[r11]
FFFCB28A D040010504 		      	sub  	r4,r5,#_tcbs
FFFCB290 FFFFFFFECC 
FFFCB295 4100328402 		      	shru 	r3,r4,#10
FFFCB29A 0000000370 		      	push 	r3
FFFCB2A0 CC33500050 		      	call 	_RemoveFromTimeoutList
FFFCB2A5 000000FFCF 
FFFCB2AA 0000AFFF04 		      	add  	sp,sp,#10
                        	FMTKmsg_195:
FFFCB2B0 0000014B86 		      	ldd  	r5,[r11]
FFFCB2B5 D040010504 		      	sub  	r4,r5,#_tcbs
FFFCB2BA FFFFFFFECC 
FFFCB2C0 4100328402 		      	shru 	r3,r4,#10
FFFCB2C5 0000000370 		      	push 	r3
FFFCB2CA CBBB000050 		      	call 	_InsertIntoReadyList
FFFCB2D0 000000FFCF 
FFFCB2D5 0000AFFF04 		      	add  	sp,sp,#10
FFFCB2DA 0000001270 		      	push 	r18
FFFCB2E0 0142048009 		      	ld   	r18,#_sys_sema
FFFCB2E5 0000000053 		      	tgt  
                        		      	     	
FFFCB2EA 0000001293 				std	r0,[r18]
                        	FMTKmsg_200:
                        	FMTKmsg_197:
                        	FMTKmsg_199:
FFFCB2F0 0000001271 		      	pop  	r18
                        	FMTKmsg_193:
                        		      	hint 	#2
FFFCB2F5 0000004030 		      	mov  	r1,r0
FFFCB2FA FCEBC00046 		      	bra  	FMTKmsg_179
                        	FMTKmsg_167:
FFFCB300 0000ADFB86 		      	ldd  	lr,10[bp]
FFFCB305 00014DFB93 		      	std  	lr,20[bp]
FFFCB30A FCDBC00046 		      	bra  	FMTKmsg_179
                        	_FMTK_PostMsgSTKSIZE_ EQU 40
                        	_FMTK_WaitMsg:
FFFCB310 0000000053 		      	tgt  
FFFCB315 0000003A70 		      	push 	xlr
FFFCB31A 0000003B70 		      	push 	bp
FFFCB320 CB865E8009 		      	ld   	xlr,#FMTKmsg_201
FFFCB325 000000FFCF 
FFFCB32A 00000EFF30 		      	mov  	bp,sp
FFFCB330 FFFD8FFF04 		      	sub  	sp,sp,#_FMTK_WaitMsgSTKSIZE_
FFFCB335 0000000B70 		      	push 	r11
FFFCB33A 0000000C70 		      	push 	r12
FFFCB340 0000000D70 		      	push 	r13
FFFCB345 0000000E70 		      	push 	r14
FFFCB34A 0000000F70 		      	push 	r15
FFFCB350 0000001070 		      	push 	r16
FFFCB355 2FC003C009 		      	ld   	r15,#_tcbs
FFFCB35A 00000001C3 
                        		      	     	
FFFCB360 000060FB82 		      	ldw  	r3,6[bp]
FFFCB365 50F000C313 		      	bfext	r3,r3,#0,#15
FFFCB36A 000060FB90 		      	stb  	r3,6[bp]
FFFCB370 000060FB80 		      	ldb  	r3,6[bp]
FFFCB375 004000030E 		      	chki 	r3,r0,#1024
FFFCB37A 0000617B82 		      	ldw  	r5,6[bp]
FFFCB380 50F0014513 		      	bfext	r5,r5,#0,#15
FFFCB385 0000617B90 		      	stb  	r5,6[bp]
FFFCB38A 0000617B80 		      	ldb  	r5,6[bp]
FFFCB390 4000418502 		      	shl  	r4,r5,#6
FFFCB395 208000C404 		      	add  	r3,r4,#_mailbox
FFFCB39A 00000001C1 
FFFCB3A0 0000034330 		      	mov  	r13,r3
FFFCB3A5 0000001270 		      	push 	r18
FFFCB3AA 0000001370 		      	push 	r19
FFFCB3B0 FFFFF4C009 		      	ld   	r19,#-1
FFFCB3B5 0142048009 		      	ld   	r18,#_sys_sema
FFFCB3BA C524000050 		      	call 	_LockSemaphore
FFFCB3C0 000000FFCF 
FFFCB3C5 0000001371 		      	pop  	r19
FFFCB3CA 0000001271 		      	pop  	r18
FFFCB3D0 00A0000146 		      	beq  	r1,r0,FMTKmsg_204
FFFCB3D5 000020CD82 		      	ldw  	r3,2[r13]
FFFCB3DA 0010000358 		      	blt  	r3,#0,FMTKmsg_208
FFFCB3E0 000020CD82 		      	ldw  	r3,2[r13]
FFFCB3E5 005B0CC358 		      	blt  	r3,#51,FMTKmsg_206
                        	FMTKmsg_208:
FFFCB3EA 0000001270 		      	push 	r18
FFFCB3F0 0142048009 		      	ld   	r18,#_sys_sema
FFFCB3F5 0000000053 		      	tgt  
                        		      	     	
FFFCB3FA 0000001293 				std	r0,[r18]
                        	FMTKmsg_212:
                        	FMTKmsg_209:
                        	FMTKmsg_211:
FFFCB400 0000001271 		      	pop  	r18
FFFCB405 0000804009 		      	ld   	r1,#8
                        	FMTKmsg_213:
FFFCB40A 0000001071 		      	pop  	r16
FFFCB410 0000000F71 		      	pop  	r15
FFFCB415 0000000E71 		      	pop  	r14
FFFCB41A 0000000D71 		      	pop  	r13
FFFCB420 0000000C71 		      	pop  	r12
FFFCB425 0000000B71 		      	pop  	r11
FFFCB42A 00000FFB30 		      	mov  	sp,bp
FFFCB430 0000003B71 		      	pop  	bp
FFFCB435 0000003A71 		      	pop  	xlr
FFFCB43A 0000000AEF 		      	ret  	#10
                        	FMTKmsg_206:
FFFCB440 0000000D70 		      	push 	r13
FFFCB445 CA08000050 		      	call 	_DequeueMsg
FFFCB44A 000000FFCF 
FFFCB450 0000040130 		      	mov  	r16,r1
FFFCB455 0000001270 		      	push 	r18
FFFCB45A 0142048009 		      	ld   	r18,#_sys_sema
FFFCB460 0000000053 		      	tgt  
                        		      	     	
FFFCB465 0000001293 				std	r0,[r18]
                        	FMTKmsg_217:
                        	FMTKmsg_214:
                        	FMTKmsg_216:
FFFCB46A 0000001271 		      	pop  	r18
                        	FMTKmsg_204:
FFFCB470 02D0001057 		      	bne  	r16,#0,FMTKmsg_218
FFFCB475 0000001270 		      	push 	r18
FFFCB47A 0000001370 		      	push 	r19
FFFCB480 FFFFF4C009 		      	ld   	r19,#-1
FFFCB485 0142048009 		      	ld   	r18,#_sys_sema
FFFCB48A C524000050 		      	call 	_LockSemaphore
FFFCB490 000000FFCF 
FFFCB495 0000001371 		      	pop  	r19
FFFCB49A 0000001271 		      	pop  	r18
FFFCB4A0 004A000146 		      	beq  	r1,r0,FMTKmsg_220
FFFCB4A5 0000000050 		      	call 	_GetRunningTCBPtr
FFFCB4AA 0000030130 		      	mov  	r12,r1
FFFCB4B0 070043CC02 		      	sub  	r4,r12,r15
	      	shru 	r3,r4,#10
FFFCB4B5 4100328402 
FFFCB4BA 0000000370 		      	push 	r3
FFFCB4C0 CBED000050 		      	call 	_RemoveFromReadyList
FFFCB4C5 000000FFCF 
FFFCB4CA 0000AFFF04 		      	add  	sp,sp,#10
FFFCB4D0 0000001270 		      	push 	r18
FFFCB4D5 0142048009 		      	ld   	r18,#_sys_sema
FFFCB4DA 0000000053 		      	tgt  
                        		      	     	
FFFCB4E0 0000001293 				std	r0,[r18]
                        	FMTKmsg_225:
                        	FMTKmsg_222:
                        	FMTKmsg_224:
FFFCB4E5 0000001271 		      	pop  	r18
                        	FMTKmsg_220:
FFFCB4EA 0020C0CC22 		      	lw   	r3,524[r12]
FFFCB4F0 4100320302 		      	shru 	r3,r3,#8
FFFCB4F5 000FF0C308 		      	and  	r3,r3,#255
FFFCB4FA FFF8010009 		      	ld   	r4,#-128
FFFCB500 0400310302 		      	add  	r3,r3,r4
	      	xor  	r3,r3,r4
	      	or   	r3,r3,#2
FFFCB505 0A00310302 
FFFCB50A 000020C309 
FFFCB510 000060FB82 		      	ldw  	r3,6[bp]
FFFCB515 50F000C313 		      	bfext	r3,r3,#0,#15
FFFCB51A 000060FB90 		      	stb  	r3,6[bp]
FFFCB520 000060FB82 		      	ldw  	r3,6[bp]
FFFCB525 0FFFF0C308 		      	and  	r3,r3,#65535
FFFCB52A 002080CC91 		      	stw  	r3,520[r12]
FFFCB530 0FFFF0C009 		      	ld   	r3,#65535
FFFCB535 0018A0CC91 		      	stw  	r3,394[r12]
FFFCB53A 0000001270 		      	push 	r18
FFFCB540 0000001370 		      	push 	r19
FFFCB545 FFFFF4C009 		      	ld   	r19,#-1
FFFCB54A 0142048009 		      	ld   	r18,#_sys_sema
FFFCB550 C524000050 		      	call 	_LockSemaphore
FFFCB555 000000FFCF 
FFFCB55A 0000001371 		      	pop  	r19
FFFCB560 0000001271 		      	pop  	r18
FFFCB565 00D0000146 		      	beq  	r1,r0,FMTKmsg_226
FFFCB56A 000040CD82 		      	ldw  	r3,4[r13]
FFFCB570 004A000359 		      	bge  	r3,#0,FMTKmsg_228
FFFCB575 0FFFF0C009 		      	ld   	r3,#65535
FFFCB57A 0018C0CC91 		      	stw  	r3,396[r12]
FFFCB580 070043CC02 		      	sub  	r4,r12,r15
	      	shru 	r3,r4,#10
FFFCB585 4100328402 
FFFCB58A 0FFFF0C308 		      	and  	r3,r3,#65535
FFFCB590 000040CD91 		      	stw  	r3,4[r13]
FFFCB595 070043CC02 		      	sub  	r4,r12,r15
	      	shru 	r3,r4,#10
FFFCB59A 4100328402 
FFFCB5A0 0FFFF0C308 		      	and  	r3,r3,#65535
FFFCB5A5 000060CD91 		      	stw  	r3,6[r13]
FFFCB5AA 000010C009 		      	ld   	r3,#1
FFFCB5B0 000140CD93 		      	std  	r3,20[r13]
FFFCB5B5 0065C00046 		      	bra  	FMTKmsg_229
                        	FMTKmsg_228:
FFFCB5BA 000060CD82 		      	ldw  	r3,6[r13]
FFFCB5C0 0018C0CC91 		      	stw  	r3,396[r12]
FFFCB5C5 0000614D82 		      	ldw  	r5,6[r13]
FFFCB5CA 4000428502 		      	shl  	r4,r5,#10
FFFCB5D0 040033C402 		      	add  	r3,r4,r15
	      	ldw  	r4,394[r3]
FFFCB5D5 0018A10382 
FFFCB5DA 50F0010413 		      	bfext	r4,r4,#0,#15
FFFCB5E0 0018A10390 		      	stb  	r4,394[r3]
FFFCB5E5 070053CC02 		      	sub  	r5,r12,r15
	      	shru 	r4,r5,#10
FFFCB5EA 4100428502 
FFFCB5F0 0018A10391 		      	stw  	r4,394[r3]
FFFCB5F5 070043CC02 		      	sub  	r4,r12,r15
	      	shru 	r3,r4,#10
FFFCB5FA 4100328402 
FFFCB600 0FFFF0C308 		      	and  	r3,r3,#65535
FFFCB605 000060CD91 		      	stw  	r3,6[r13]
FFFCB60A 000140CD86 		      	ldd  	r3,20[r13]
FFFCB610 000010C304 		      	add  	r3,r3,#1
FFFCB615 000140CD93 		      	std  	r3,20[r13]
                        	FMTKmsg_229:
FFFCB61A 0000001270 		      	push 	r18
FFFCB620 0142048009 		      	ld   	r18,#_sys_sema
FFFCB625 0000000053 		      	tgt  
                        		      	     	
FFFCB62A 0000001293 				std	r0,[r18]
                        	FMTKmsg_233:
                        	FMTKmsg_230:
                        	FMTKmsg_232:
FFFCB630 0000001271 		      	pop  	r18
                        	FMTKmsg_226:
FFFCB635 000060FB86 		      	ldd  	r3,6[bp]
FFFCB63A 007B000346 		      	beq  	r3,r0,FMTKmsg_234
                        		      	     	
                        				; Waitmsg here; 
FFFCB640 0000001270 		      	push 	r18
FFFCB645 0000001370 		      	push 	r19
FFFCB64A FFFFF4C009 		      	ld   	r19,#-1
FFFCB650 0142048009 		      	ld   	r18,#_sys_sema
FFFCB655 C524000050 		      	call 	_LockSemaphore
FFFCB65A 000000FFCF 
FFFCB660 0000001371 		      	pop  	r19
FFFCB665 0000001271 		      	pop  	r18
FFFCB66A 004B000146 		      	beq  	r1,r0,FMTKmsg_236
FFFCB670 000060FB86 		      	ldd  	r3,6[bp]
FFFCB675 0000000370 		      	push 	r3
FFFCB67A 070053CC02 		      	sub  	r5,r12,r15
	      	shru 	r4,r5,#10
FFFCB680 4100428502 
FFFCB685 0000000470 		      	push 	r4
FFFCB68A CC16A00050 		      	call 	_InsertIntoTimeoutList
FFFCB690 000000FFCF 
FFFCB695 00014FFF04 		      	add  	sp,sp,#20
FFFCB69A 0000001270 		      	push 	r18
FFFCB6A0 0142048009 		      	ld   	r18,#_sys_sema
FFFCB6A5 0000000053 		      	tgt  
                        		      	     	
FFFCB6AA 0000001293 				std	r0,[r18]
                        	FMTKmsg_241:
                        	FMTKmsg_238:
                        	FMTKmsg_240:
FFFCB6B0 0000001271 		      	pop  	r18
                        	FMTKmsg_236:
                        	FMTKmsg_234:
                        		      	     	
FFFCB6B5 000080021B 				int #2 
FFFCB6BA 0000000050 		      	call 	_GetRunningTCBPtr
FFFCB6C0 0000038130 		      	mov  	r14,r1
FFFCB6C5 001C00CE04 		      	add  	r3,r14,#448
FFFCB6CA 000060C382 		      	ldw  	r3,6[r3]
FFFCB6D0 0010000357 		      	bne  	r3,#0,FMTKmsg_242
FFFCB6D5 0000904009 		      	ld   	r1,#9
FFFCB6DA FD30C00046 		      	bra  	FMTKmsg_213
                        	FMTKmsg_242:
FFFCB6E0 000000C030 		      	mov  	r3,r0
FFFCB6E5 0FFFF0C308 		      	and  	r3,r3,#65535
FFFCB6EA 001C60CE91 		      	stw  	r3,454[r14]
FFFCB6F0 0FFFF0C009 		      	ld   	r3,#65535
FFFCB6F5 001C40CE91 		      	stw  	r3,452[r14]
FFFCB6FA 0FFFF0C009 		      	ld   	r3,#65535
FFFCB700 001C20CE91 		      	stw  	r3,450[r14]
FFFCB705 0010000B46 		      	beq  	r11,r0,FMTKmsg_244
FFFCB70A 001CA0CE86 		      	ldd  	r3,458[r14]
FFFCB710 000000CB93 		      	std  	r3,[r11]
                        	FMTKmsg_244:
FFFCB715 0010000B46 		      	beq  	r11,r0,FMTKmsg_246
FFFCB71A 001D40CE86 		      	ldd  	r3,468[r14]
FFFCB720 000000CB93 		      	std  	r3,[r11]
                        	FMTKmsg_246:
FFFCB725 0010000B46 		      	beq  	r11,r0,FMTKmsg_248
FFFCB72A 001DE0CE86 		      	ldd  	r3,478[r14]
FFFCB730 000000CB93 		      	std  	r3,[r11]
                        	FMTKmsg_248:
                        		      	hint 	#2
FFFCB735 0000004030 		      	mov  	r1,r0
FFFCB73A FCD0C00046 		      	bra  	FMTKmsg_213
                        	FMTKmsg_218:
FFFCB740 0010000B46 		      	beq  	r11,r0,FMTKmsg_250
FFFCB745 0000A0D086 		      	ldd  	r3,10[r16]
FFFCB74A 000000CB93 		      	std  	r3,[r11]
                        	FMTKmsg_250:
FFFCB750 0010000B46 		      	beq  	r11,r0,FMTKmsg_252
FFFCB755 000140D086 		      	ldd  	r3,20[r16]
FFFCB75A 000000CB93 		      	std  	r3,[r11]
                        	FMTKmsg_252:
FFFCB760 0010000B46 		      	beq  	r11,r0,FMTKmsg_254
FFFCB765 0001E0D086 		      	ldd  	r3,30[r16]
FFFCB76A 000000CB93 		      	std  	r3,[r11]
                        	FMTKmsg_254:
FFFCB770 0000001270 		      	push 	r18
FFFCB775 0000001370 		      	push 	r19
FFFCB77A FFFFF4C009 		      	ld   	r19,#-1
FFFCB780 0142048009 		      	ld   	r18,#_sys_sema
FFFCB785 C524000050 		      	call 	_LockSemaphore
FFFCB78A 000000FFCF 
FFFCB790 0000001371 		      	pop  	r19
FFFCB795 0000001271 		      	pop  	r18
FFFCB79A 00C0000146 		      	beq  	r1,r0,FMTKmsg_256
FFFCB7A0 000010C009 		      	ld   	r3,#1
FFFCB7A5 000060D091 		      	stw  	r3,6[r16]
FFFCB7AA 0FFFF0C009 		      	ld   	r3,#65535
FFFCB7B0 000020D091 		      	stw  	r3,2[r16]
FFFCB7B5 0FFFF0C009 		      	ld   	r3,#65535
FFFCB7BA 000040D091 		      	stw  	r3,4[r16]
FFFCB7C0 308160C082 		      	ldw  	r3,_freeMSG
FFFCB7C5 00000001C2 
FFFCB7CA 50F000C313 		      	bfext	r3,r3,#0,#15
FFFCB7D0 308160C090 		      	stb  	r3,_freeMSG
FFFCB7D5 00000001C2 
FFFCB7DA 308160C082 		      	ldw  	r3,_freeMSG
FFFCB7E0 00000001C2 
FFFCB7E5 0FFFF0C308 		      	and  	r3,r3,#65535
FFFCB7EA 000000D091 		      	stw  	r3,[r16]
FFFCB7F0 308160C082 		      	ldw  	r3,_freeMSG
FFFCB7F5 00000001C2 
FFFCB7FA 50F000C313 		      	bfext	r3,r3,#0,#15
FFFCB800 308160C090 		      	stb  	r3,_freeMSG
FFFCB805 00000001C2 
FFFCB80A CF80011004 		      	sub  	r4,r16,#_message
FFFCB810 FFFFFFFECE 
FFFCB815 4100318402 		      	shru 	r3,r4,#6
FFFCB81A 308160C091 		      	stw  	r3,_freeMSG
FFFCB820 00000001C2 
FFFCB825 308000C086 		      	ldd  	r3,_nMsgBlk
FFFCB82A 00000001C2 
FFFCB830 000010C304 		      	add  	r3,r3,#1
FFFCB835 308000C093 		      	std  	r3,_nMsgBlk
FFFCB83A 00000001C2 
FFFCB840 0000001270 		      	push 	r18
FFFCB845 0142048009 		      	ld   	r18,#_sys_sema
FFFCB84A 0000000053 		      	tgt  
                        		      	     	
FFFCB850 0000001293 				std	r0,[r18]
                        	FMTKmsg_261:
                        	FMTKmsg_258:
                        	FMTKmsg_260:
FFFCB855 0000001271 		      	pop  	r18
                        	FMTKmsg_256:
                        		      	hint 	#2
FFFCB85A 0000004030 		      	mov  	r1,r0
FFFCB860 FBAAC00046 		      	bra  	FMTKmsg_213
                        	FMTKmsg_201:
FFFCB865 0000ADFB86 		      	ldd  	lr,10[bp]
FFFCB86A 00014DFB93 		      	std  	lr,20[bp]
FFFCB870 FB9AC00046 		      	bra  	FMTKmsg_213
                        	_FMTK_WaitMsgSTKSIZE_ EQU 40
                        	_FMTK_PeekMsg:
FFFCB875 0000000053 		      	tgt  
FFFCB87A 0000003A70 		      	push 	xlr
FFFCB880 0000003B70 		      	push 	bp
FFFCB885 CB8E0E8009 		      	ld   	xlr,#FMTKmsg_262
FFFCB88A 000000FFCF 
FFFCB890 00000EFF30 		      	mov  	bp,sp
FFFCB895 00000FFF04 		      	sub  	sp,sp,#_FMTK_PeekMsgSTKSIZE_
FFFCB89A 000000009C 		      	push 	#0
FFFCB8A0 000060FB86 		      	ldd  	r3,6[bp]
FFFCB8A5 0000000370 		      	push 	r3
FFFCB8AA 0000613B86 		      	ldd  	r4,6[bp]
FFFCB8B0 0000000470 		      	push 	r4
FFFCB8B5 0000617B86 		      	ldd  	r5,6[bp]
FFFCB8BA 0000000570 		      	push 	r5
FFFCB8C0 0000000050 		      	call 	_CheckMsg
FFFCB8C5 00028FFF04 		      	add  	sp,sp,#40
                        	FMTKmsg_265:
FFFCB8CA 00000FFB30 		      	mov  	sp,bp
FFFCB8D0 0000003B71 		      	pop  	bp
FFFCB8D5 0000003A71 		      	pop  	xlr
FFFCB8DA 0000000AEF 		      	ret  	#10
                        	FMTKmsg_262:
FFFCB8E0 0000ADFB86 		      	ldd  	lr,10[bp]
FFFCB8E5 00014DFB93 		      	std  	lr,20[bp]
FFFCB8EA FFE0C00046 		      	bra  	FMTKmsg_265
                        	_FMTK_PeekMsgSTKSIZE_ EQU 0
                        	_FMTK_CheckMsg:
FFFCB8F0 0000000053 		      	tgt  
FFFCB8F5 0000003A70 		      	push 	xlr
FFFCB8FA 0000003B70 		      	push 	bp
FFFCB900 CBB70E8009 		      	ld   	xlr,#FMTKmsg_266
FFFCB905 000000FFCF 
FFFCB90A 00000EFF30 		      	mov  	bp,sp
FFFCB910 FFFECFFF04 		      	sub  	sp,sp,#_FMTK_CheckMsgSTKSIZE_
FFFCB915 0000000B70 		      	push 	r11
FFFCB91A 0000000C70 		      	push 	r12
FFFCB920 0000000D70 		      	push 	r13
                        		      	     	
FFFCB925 000060FB82 		      	ldw  	r3,6[bp]
FFFCB92A 50F000C313 		      	bfext	r3,r3,#0,#15
FFFCB930 000060FB90 		      	stb  	r3,6[bp]
FFFCB935 000060FB80 		      	ldb  	r3,6[bp]
FFFCB93A 004000030E 		      	chki 	r3,r0,#1024
FFFCB940 0000617B82 		      	ldw  	r5,6[bp]
FFFCB945 50F0014513 		      	bfext	r5,r5,#0,#15
FFFCB94A 0000617B90 		      	stb  	r5,6[bp]
FFFCB950 0000617B80 		      	ldb  	r5,6[bp]
FFFCB955 4000418502 		      	shl  	r4,r5,#6
FFFCB95A 208000C404 		      	add  	r3,r4,#_mailbox
FFFCB960 00000001C1 
FFFCB965 0000034330 		      	mov  	r13,r3
FFFCB96A 0000001270 		      	push 	r18
FFFCB970 0000001370 		      	push 	r19
FFFCB975 FFFFF4C009 		      	ld   	r19,#-1
FFFCB97A 0142048009 		      	ld   	r18,#_sys_sema
FFFCB980 C524000050 		      	call 	_LockSemaphore
FFFCB985 000000FFCF 
FFFCB98A 0000001371 		      	pop  	r19
FFFCB990 0000001271 		      	pop  	r18
FFFCB995 009B000146 		      	beq  	r1,r0,FMTKmsg_269
FFFCB99A 000020CD82 		      	ldw  	r3,2[r13]
FFFCB9A0 004A000357 		      	bne  	r3,#0,FMTKmsg_271
FFFCB9A5 0000001270 		      	push 	r18
FFFCB9AA 0142048009 		      	ld   	r18,#_sys_sema
FFFCB9B0 0000000053 		      	tgt  
                        		      	     	
FFFCB9B5 0000001293 				std	r0,[r18]
                        	FMTKmsg_276:
                        	FMTKmsg_273:
                        	FMTKmsg_275:
FFFCB9BA 0000001271 		      	pop  	r18
FFFCB9C0 0000804009 		      	ld   	r1,#8
                        	FMTKmsg_277:
FFFCB9C5 0000000D71 		      	pop  	r13
FFFCB9CA 0000000C71 		      	pop  	r12
FFFCB9D0 0000000B71 		      	pop  	r11
FFFCB9D5 00000FFB30 		      	mov  	sp,bp
FFFCB9DA 0000003B71 		      	pop  	bp
FFFCB9E0 0000003A71 		      	pop  	xlr
FFFCB9E5 0000000AEF 		      	ret  	#10
                        	FMTKmsg_271:
FFFCB9EA 000060FB86 		      	ldd  	r3,6[bp]
FFFCB9F0 0020004357 		      	bne  	r3,#1,FMTKmsg_278
FFFCB9F5 0000000D70 		      	push 	r13
FFFCB9FA CA08000050 		      	call 	_DequeueMsg
FFFCBA00 000000FFCF 
FFFCBA05 000002C130 		      	mov  	r11,r1
FFFCBA0A 000BC00046 		      	bra  	FMTKmsg_279
                        	FMTKmsg_278:
FFFCBA10 000082CD86 		      	ldd  	r11,8[r13]
                        	FMTKmsg_279:
FFFCBA15 0000001270 		      	push 	r18
FFFCBA1A 0142048009 		      	ld   	r18,#_sys_sema
FFFCBA20 0000000053 		      	tgt  
                        		      	     	
FFFCBA25 0000001293 				std	r0,[r18]
                        	FMTKmsg_283:
                        	FMTKmsg_280:
                        	FMTKmsg_282:
FFFCBA2A 0000001271 		      	pop  	r18
                        	FMTKmsg_269:
FFFCBA30 0010000B57 		      	bne  	r11,#0,FMTKmsg_284
FFFCBA35 0000904009 		      	ld   	r1,#9
FFFCBA3A FF8BC00046 		      	bra  	FMTKmsg_277
                        	FMTKmsg_284:
FFFCBA40 0010000C46 		      	beq  	r12,r0,FMTKmsg_286
FFFCBA45 0000A0CB86 		      	ldd  	r3,10[r11]
FFFCBA4A 000000CC93 		      	std  	r3,[r12]
                        	FMTKmsg_286:
FFFCBA50 0010000C46 		      	beq  	r12,r0,FMTKmsg_288
FFFCBA55 000140CB86 		      	ldd  	r3,20[r11]
FFFCBA5A 000000CC93 		      	std  	r3,[r12]
                        	FMTKmsg_288:
FFFCBA60 0010000C46 		      	beq  	r12,r0,FMTKmsg_290
FFFCBA65 0001E0CB86 		      	ldd  	r3,30[r11]
FFFCBA6A 000000CC93 		      	std  	r3,[r12]
                        	FMTKmsg_290:
FFFCBA70 000060FB86 		      	ldd  	r3,6[bp]
FFFCBA75 00F0004357 		      	bne  	r3,#1,FMTKmsg_292
FFFCBA7A 0000001270 		      	push 	r18
FFFCBA80 0000001370 		      	push 	r19
FFFCBA85 FFFFF4C009 		      	ld   	r19,#-1
FFFCBA8A 0142048009 		      	ld   	r18,#_sys_sema
FFFCBA90 C524000050 		      	call 	_LockSemaphore
FFFCBA95 000000FFCF 
FFFCBA9A 0000001371 		      	pop  	r19
FFFCBAA0 0000001271 		      	pop  	r18
FFFCBAA5 00C0000146 		      	beq  	r1,r0,FMTKmsg_294
FFFCBAAA 000010C009 		      	ld   	r3,#1
FFFCBAB0 000060CB91 		      	stw  	r3,6[r11]
FFFCBAB5 0FFFF0C009 		      	ld   	r3,#65535
FFFCBABA 000020CB91 		      	stw  	r3,2[r11]
FFFCBAC0 0FFFF0C009 		      	ld   	r3,#65535
FFFCBAC5 000040CB91 		      	stw  	r3,4[r11]
FFFCBACA 308160C082 		      	ldw  	r3,_freeMSG
FFFCBAD0 00000001C2 
FFFCBAD5 50F000C313 		      	bfext	r3,r3,#0,#15
FFFCBADA 308160C090 		      	stb  	r3,_freeMSG
FFFCBAE0 00000001C2 
FFFCBAE5 308160C082 		      	ldw  	r3,_freeMSG
FFFCBAEA 00000001C2 
FFFCBAF0 0FFFF0C308 		      	and  	r3,r3,#65535
FFFCBAF5 000000CB91 		      	stw  	r3,[r11]
FFFCBAFA 308160C082 		      	ldw  	r3,_freeMSG
FFFCBB00 00000001C2 
FFFCBB05 50F000C313 		      	bfext	r3,r3,#0,#15
FFFCBB0A 308160C090 		      	stb  	r3,_freeMSG
FFFCBB10 00000001C2 
FFFCBB15 CF80010B04 		      	sub  	r4,r11,#_message
FFFCBB1A FFFFFFFECE 
FFFCBB20 4100318402 		      	shru 	r3,r4,#6
FFFCBB25 308160C091 		      	stw  	r3,_freeMSG
FFFCBB2A 00000001C2 
FFFCBB30 308000C086 		      	ldd  	r3,_nMsgBlk
FFFCBB35 00000001C2 
FFFCBB3A 000010C304 		      	add  	r3,r3,#1
FFFCBB40 308000C093 		      	std  	r3,_nMsgBlk
FFFCBB45 00000001C2 
FFFCBB4A 0000001270 		      	push 	r18
FFFCBB50 0142048009 		      	ld   	r18,#_sys_sema
FFFCBB55 0000000053 		      	tgt  
                        		      	     	
FFFCBB5A 0000001293 				std	r0,[r18]
                        	FMTKmsg_299:
                        	FMTKmsg_296:
                        	FMTKmsg_298:
FFFCBB60 0000001271 		      	pop  	r18
                        	FMTKmsg_294:
                        	FMTKmsg_292:
                        		      	hint 	#2
FFFCBB65 0000004030 		      	mov  	r1,r0
FFFCBB6A FE5BC00046 		      	bra  	FMTKmsg_277
                        	FMTKmsg_266:
FFFCBB70 0000ADFB86 		      	ldd  	lr,10[bp]
FFFCBB75 00014DFB93 		      	std  	lr,20[bp]
FFFCBB7A FE4BC00046 		      	bra  	FMTKmsg_277
                        	_FMTK_CheckMsgSTKSIZE_ EQU 20
                        		code
                        		align	16                        	
                        	_UnlockSemaphoreSTKSIZE_ EQU 0
                        	_SetVBASTKSIZE_ EQU 0
                        	_LEDSSTKSIZE_ EQU 0
                        	_GetRunningTCBPtrSTKSIZE_ EQU 0
                        	_GetRunningTCBSTKSIZE_ EQU 0
                        	_SetRunningTCBSTKSIZE_ EQU 0
                        		code
                        		align	16                        	
                        	_chkTCB:
FFFCBB80 0000000053 		      	tgt  
FFFCBB85 0000003A70 		      	push 	xlr
FFFCBB8A 0000003B70 		      	push 	bp
FFFCBB90 00000EFF30 		      	mov  	bp,sp
FFFCBB95 00000FFF04 		      	sub  	sp,sp,#_chkTCBSTKSIZE_
                        		      	;    	    asm {
                        		      	     	
                        				chk   r1,r18,b48
                        		      	;    	    }
                        	TCB_3:
FFFCBB9A 00000FFB30 		      	mov  	sp,bp
FFFCBBA0 0000003B71 		      	pop  	bp
FFFCBBA5 0000003A71 		      	pop  	xlr
FFFCBBAA 0000000AEF 		      	ret  	#10
                        	_chkTCBSTKSIZE_ EQU 0
                        		code
                        		align	16                        	
                        	_InsertIntoReadyList:
FFFCBBB0 0000000053 		      	tgt  
FFFCBBB5 0000003A70 		      	push 	xlr
FFFCBBBA 0000003B70 		      	push 	bp
FFFCBBC0 CBEC0E8009 		      	ld   	xlr,#TCB_4
FFFCBBC5 000000FFCF 
FFFCBBCA 00000EFF30 		      	mov  	bp,sp
FFFCBBD0 FFFE2FFF04 		      	sub  	sp,sp,#_InsertIntoReadyListSTKSIZE_
FFFCBBD5 0000000B70 		      	push 	r11
FFFCBBDA 0000000C70 		      	push 	r12
FFFCBBE0 0000000D70 		      	push 	r13
FFFCBBE5 2FC0034009 		      	ld   	r13,#_tcbs
FFFCBBEA 00000001C3 
                        		      	;    	    hTCB hq;
                        		      	;    	    __check(ht >=0 && ht < 256);
FFFCBBF0 001000120E 		      	chki 	r18,r0,#256
                        		      	;    	    p = &tcbs[ht];
FFFCBBF5 4000429202 		      	shl  	r4,r18,#10
FFFCBBFA 0400334402 		      	add  	r3,r4,r13
	      	mov  	r11,r3
FFFCBC00 000002C330 
                        		      	;    		if (p->priority > 077 || p->priority < 000)
FFFCBC05 0020C10B86 		      	ldd  	r4,524[r11]
FFFCBC0A 000000C430 		      	mov  	r3,r4
FFFCBC10 000FF0C308 		      	and  	r3,r3,#255
FFFCBC15 FFF8010009 		      	ld   	r4,#-128
FFFCBC1A 0400310302 		      	add  	r3,r3,r4
	      	xor  	r3,r3,r4
	      	bgt  	r3,#63,TCB_9
FFFCBC20 0A00310302 
FFFCBC25 002B0FC35B 
FFFCBC2A 0020C10B86 		      	ldd  	r4,524[r11]
FFFCBC30 000000C430 		      	mov  	r3,r4
FFFCBC35 000FF0C308 		      	and  	r3,r3,#255
FFFCBC3A FFF8010009 		      	ld   	r4,#-128
FFFCBC40 0400310302 		      	add  	r3,r3,r4
	      	xor  	r3,r3,r4
	      	bge  	r3,#0,TCB_7
FFFCBC45 0A00310302 
FFFCBC4A 0030000359 
                        	TCB_9:
                        		      	;    			return E_BadPriority;
FFFCBC50 0000204009 		      	ld   	r1,#2
                        	TCB_10:
FFFCBC55 0000000D71 		      	pop  	r13
FFFCBC5A 0000000C71 		      	pop  	r12
FFFCBC60 0000000B71 		      	pop  	r11
FFFCBC65 00000FFB30 		      	mov  	sp,bp
FFFCBC6A 0000003B71 		      	pop  	bp
FFFCBC70 0000003A71 		      	pop  	xlr
FFFCBC75 0000000AEF 		      	ret  	#10
                        	TCB_7:
                        		      	;    		if (p->priority < 003)
FFFCBC7A 0020C10B86 		      	ldd  	r4,524[r11]
FFFCBC80 000000C430 		      	mov  	r3,r4
FFFCBC85 000FF0C308 		      	and  	r3,r3,#255
FFFCBC8A FFF8010009 		      	ld   	r4,#-128
FFFCBC90 0400310302 		      	add  	r3,r3,r4
	      	xor  	r3,r3,r4
	      	bge  	r3,#3,TCB_11
FFFCBC95 0A00310302 
FFFCBC9A 008000C359 
                        		      	;    		   hasUltraHighPriorityTasks |= (1 << p->priority);
FFFCBCA0 3086A0C082 		      	ldw  	r3,_hasUltraHighPriorityTasks
FFFCBCA5 00000001C2 
FFFCBCAA 50F000C313 		      	bfext	r3,r3,#0,#15
FFFCBCB0 3086A0C090 		      	stb  	r3,_hasUltraHighPriorityTasks
FFFCBCB5 00000001C2 
FFFCBCBA 0000110009 		      	ld   	r4,#1
FFFCBCC0 0020C18B86 		      	ldd  	r6,524[r11]
FFFCBCC5 0000014630 		      	mov  	r5,r6
FFFCBCCA 000FF14508 		      	and  	r5,r5,#255
FFFCBCD0 FFF8018009 		      	ld   	r6,#-128
FFFCBCD5 0400518502 		      	add  	r5,r5,r6
	      	xor  	r5,r5,r6
	      	shl  	r3,r4,r5
	      	ldw  	r4,_hasUltraHighPriorityTasks
FFFCBCDA 0A00518502 
FFFCBCE0 3000314402 
FFFCBCE5 3086A10082 
FFFCBCEA 00000001C2 
FFFCBCF0 090040C402 		      	or   	r4,r4,r3
	      	stw  	r4,_hasUltraHighPriorityTasks
FFFCBCF5 3086A10091 
FFFCBCFA 00000001C2 
FFFCBD00 3086A0C082 		      	ldw  	r3,_hasUltraHighPriorityTasks
FFFCBD05 00000001C2 
FFFCBD0A 50F000C313 		      	bfext	r3,r3,#0,#15
FFFCBD10 3086A0C093 		      	std  	r3,_hasUltraHighPriorityTasks
FFFCBD15 00000001C2 
                        	TCB_11:
                        		      	;    		p->status = 16;
FFFCBD1A 000100C009 		      	ld   	r3,#16
FFFCBD20 0020C10B86 		      	ldd  	r4,524[r11]
FFFCBD25 000FF0C308 		      	and  	r3,r3,#255
FFFCBD2A 4500420402 		      	ror  	r4,r4,#8
FFFCBD30 FFF0010408 		      	and  	r4,r4,#-256
FFFCBD35 090040C402 		      	or   	r4,r4,r3
	      	rol  	r4,r4,#8
FFFCBD3A 4400420402 
FFFCBD40 0020C10B93 		      	std  	r4,524[r11]
                        		      	;    		hq = readyQ[p->priority>>3];
FFFCBD45 FFFFE0FB82 		      	ldw  	r3,-2[bp]
FFFCBD4A 50F000C313 		      	bfext	r3,r3,#0,#15
FFFCBD50 FFFFE0FB90 		      	stb  	r3,-2[bp]
FFFCBD55 0020C18B86 		      	ldd  	r6,524[r11]
FFFCBD5A 0000014630 		      	mov  	r5,r6
FFFCBD60 000FF14508 		      	and  	r5,r5,#255
FFFCBD65 FFF8018009 		      	ld   	r6,#-128
FFFCBD6A 0400518502 		      	add  	r5,r5,r6
	      	xor  	r5,r5,r6
	      	asr  	r4,r5,#3
FFFCBD70 0A00518502 
FFFCBD75 430040C502 
FFFCBD7A 4000304402 		      	shl  	r3,r4,#1
FFFCBD80 6FC0410382 		      	ldw  	r4,_readyQ[r3]
FFFCBD85 00000001C3 
FFFCBD8A 50F0010413 		      	bfext	r4,r4,#0,#15
FFFCBD90 6FC0410390 		      	stb  	r4,_readyQ[r3]
FFFCBD95 00000001C3 
FFFCBD9A 6FC0410382 		      	ldw  	r4,_readyQ[r3]
FFFCBDA0 00000001C3 
FFFCBDA5 FFFFE13B91 		      	stw  	r4,-2[bp]
                        		      	;    		if (hq<0) {
FFFCBDAA FFFFE0FB82 		      	ldw  	r3,-2[bp]
FFFCBDB0 50F000C313 		      	bfext	r3,r3,#0,#15
FFFCBDB5 FFFFE0FB90 		      	stb  	r3,-2[bp]
FFFCBDBA FFFFE0FB80 		      	ldb  	r3,-2[bp]
FFFCBDC0 0075000359 		      	bge  	r3,#0,TCB_13
                        		      	;    			p->next = ht;
FFFCBDC5 0FFFF49208 		      	and  	r18,r18,#65535
FFFCBDCA 0018648B91 		      	stw  	r18,390[r11]
                        		      	;    			p->prev = ht;
FFFCBDD0 0FFFF49208 		      	and  	r18,r18,#65535
FFFCBDD5 0018848B91 		      	stw  	r18,392[r11]
                        		      	;    			readyQ[p->priority>>3] = ht;
FFFCBDDA 0020C18B86 		      	ldd  	r6,524[r11]
FFFCBDE0 0000014630 		      	mov  	r5,r6
FFFCBDE5 000FF14508 		      	and  	r5,r5,#255
FFFCBDEA FFF8018009 		      	ld   	r6,#-128
FFFCBDF0 0400518502 		      	add  	r5,r5,r6
	      	xor  	r5,r5,r6
	      	asr  	r4,r5,#3
FFFCBDF5 0A00518502 
FFFCBDFA 430040C502 
FFFCBE00 4000304402 		      	shl  	r3,r4,#1
FFFCBE05 6FC0410382 		      	ldw  	r4,_readyQ[r3]
FFFCBE0A 00000001C3 
FFFCBE10 50F0010413 		      	bfext	r4,r4,#0,#15
FFFCBE15 6FC0410390 		      	stb  	r4,_readyQ[r3]
FFFCBE1A 00000001C3 
FFFCBE20 6FC0448391 		      	stw  	r18,_readyQ[r3]
FFFCBE25 00000001C3 
                        		      	;    			return E_Ok;
FFFCBE2A 0000004030 		      	mov  	r1,r0
FFFCBE30 FE25C00046 		      	bra  	TCB_10
                        	TCB_13:
                        		      	;    		q = &tcbs[hq];
FFFCBE35 FFFFE17B82 		      	ldw  	r5,-2[bp]
FFFCBE3A 50F0014513 		      	bfext	r5,r5,#0,#15
FFFCBE40 FFFFE17B90 		      	stb  	r5,-2[bp]
FFFCBE45 FFFFE17B80 		      	ldb  	r5,-2[bp]
FFFCBE4A 4000428502 		      	shl  	r4,r5,#10
FFFCBE50 0400334402 		      	add  	r3,r4,r13
	      	mov  	r12,r3
FFFCBE55 0000030330 
                        		      	;    		p->next = hq;
FFFCBE5A FFFFE0FB82 		      	ldw  	r3,-2[bp]
FFFCBE60 50F000C313 		      	bfext	r3,r3,#0,#15
FFFCBE65 FFFFE0FB90 		      	stb  	r3,-2[bp]
FFFCBE6A FFFFE0FB82 		      	ldw  	r3,-2[bp]
FFFCBE70 0FFFF0C308 		      	and  	r3,r3,#65535
FFFCBE75 001860CB91 		      	stw  	r3,390[r11]
                        		      	;    		p->prev = q->prev;
FFFCBE7A 001880CC82 		      	ldw  	r3,392[r12]
FFFCBE80 001880CB91 		      	stw  	r3,392[r11]
                        		      	;    		tcbs[q->prev].next = ht;
FFFCBE85 0018814C82 		      	ldw  	r5,392[r12]
FFFCBE8A 4000428502 		      	shl  	r4,r5,#10
FFFCBE90 0400334402 		      	add  	r3,r4,r13
	      	ldw  	r4,390[r3]
FFFCBE95 0018610382 
FFFCBE9A 50F0010413 		      	bfext	r4,r4,#0,#15
FFFCBEA0 0018610390 		      	stb  	r4,390[r3]
FFFCBEA5 0018648391 		      	stw  	r18,390[r3]
                        		      	;    		q->prev = ht;
FFFCBEAA 0FFFF49208 		      	and  	r18,r18,#65535
FFFCBEB0 0018848C91 		      	stw  	r18,392[r12]
                        		      	;    		return E_Ok;
FFFCBEB5 0000004030 		      	mov  	r1,r0
FFFCBEBA FD9BC00046 		      	bra  	TCB_10
                        	TCB_4:
FFFCBEC0 0000ADFB86 		      	ldd  	lr,10[bp]
FFFCBEC5 00014DFB93 		      	std  	lr,20[bp]
FFFCBECA FD8BC00046 		      	bra  	TCB_10
                        	_InsertIntoReadyListSTKSIZE_ EQU 30
                        	_RemoveFromReadyList:
FFFCBED0 0000000053 		      	tgt  
FFFCBED5 0000003A70 		      	push 	xlr
FFFCBEDA 0000003B70 		      	push 	bp
FFFCBEE0 CC15AE8009 		      	ld   	xlr,#TCB_15
FFFCBEE5 000000FFCF 
FFFCBEEA 00000EFF30 		      	mov  	bp,sp
FFFCBEF0 FFFF6FFF04 		      	sub  	sp,sp,#_RemoveFromReadyListSTKSIZE_
FFFCBEF5 0000000B70 		      	push 	r11
FFFCBEFA 0000000C70 		      	push 	r12
FFFCBF00 0000000D70 		      	push 	r13
FFFCBF05 6FC0430009 		      	ld   	r12,#_readyQ
FFFCBF0A 00000001C3 
FFFCBF10 2FC0034009 		      	ld   	r13,#_tcbs
FFFCBF15 00000001C3 
                        		      	;    	    TCB *t;
                        		      	;    	    __check(ht >=0 && ht < 256);
FFFCBF1A 001000120E 		      	chki 	r18,r0,#256
                        		      	;    	    t = &tcbs[ht];
FFFCBF20 4000429202 		      	shl  	r4,r18,#10
FFFCBF25 0400334402 		      	add  	r3,r4,r13
	      	mov  	r11,r3
FFFCBF2A 000002C330 
                        		      	;    		if (t->priority > 077 || t->priority < 000)
FFFCBF30 0020C10B86 		      	ldd  	r4,524[r11]
FFFCBF35 000000C430 		      	mov  	r3,r4
FFFCBF3A 000FF0C308 		      	and  	r3,r3,#255
FFFCBF40 FFF8010009 		      	ld   	r4,#-128
FFFCBF45 0400310302 		      	add  	r3,r3,r4
	      	xor  	r3,r3,r4
	      	bgt  	r3,#63,TCB_20
FFFCBF4A 0A00310302 
FFFCBF50 002A0FC35B 
FFFCBF55 0020C10B86 		      	ldd  	r4,524[r11]
FFFCBF5A 000000C430 		      	mov  	r3,r4
FFFCBF60 000FF0C308 		      	and  	r3,r3,#255
FFFCBF65 FFF8010009 		      	ld   	r4,#-128
FFFCBF6A 0400310302 		      	add  	r3,r3,r4
	      	xor  	r3,r3,r4
	      	bge  	r3,#0,TCB_18
FFFCBF70 0A00310302 
FFFCBF75 0030000359 
                        	TCB_20:
                        		      	;    			return E_BadPriority;
FFFCBF7A 0000204009 		      	ld   	r1,#2
                        	TCB_21:
FFFCBF80 0000000D71 		      	pop  	r13
FFFCBF85 0000000C71 		      	pop  	r12
FFFCBF8A 0000000B71 		      	pop  	r11
FFFCBF90 00000FFB30 		      	mov  	sp,bp
FFFCBF95 0000003B71 		      	pop  	bp
FFFCBF9A 0000003A71 		      	pop  	xlr
FFFCBFA0 0000000AEF 		      	ret  	#10
                        	TCB_18:
                        		      	;    	    if (ht==readyQ[t->priority>>3])
FFFCBFA5 0020C18B86 		      	ldd  	r6,524[r11]
FFFCBFAA 0000014630 		      	mov  	r5,r6
FFFCBFB0 000FF14508 		      	and  	r5,r5,#255
FFFCBFB5 FFF8018009 		      	ld   	r6,#-128
FFFCBFBA 0400518502 		      	add  	r5,r5,r6
	      	xor  	r5,r5,r6
	      	asr  	r4,r5,#3
FFFCBFC0 0A00518502 
FFFCBFC5 430040C502 
FFFCBFCA 4000304402 		      	shl  	r3,r4,#1
FFFCBFD0 000040CCA2 		      	ldw  	r4,[r12+r3]
FFFCBFD5 50F0010413 		      	bfext	r4,r4,#0,#15
FFFCBFDA 000040CCB0 		      	stb  	r4,[r12+r3]
FFFCBFE0 000030CCA0 		      	ldb  	r3,[r12+r3]
FFFCBFE5 004B00D247 		      	bne  	r18,r3,TCB_22
                        		      	;    	       readyQ[t->priority>>3] = t->next;
FFFCBFEA 0020C18B86 		      	ldd  	r6,524[r11]
FFFCBFF0 0000014630 		      	mov  	r5,r6
FFFCBFF5 000FF14508 		      	and  	r5,r5,#255
FFFCBFFA FFF8018009 		      	ld   	r6,#-128
FFFCC000 0400518502 		      	add  	r5,r5,r6
	      	xor  	r5,r5,r6
	      	asr  	r4,r5,#3
FFFCC005 0A00518502 
FFFCC00A 430040C502 
FFFCC010 4000304402 		      	shl  	r3,r4,#1
FFFCC015 000040CCA2 		      	ldw  	r4,[r12+r3]
FFFCC01A 50F0010413 		      	bfext	r4,r4,#0,#15
FFFCC020 000040CCB0 		      	stb  	r4,[r12+r3]
FFFCC025 0018610B82 		      	ldw  	r4,390[r11]
FFFCC02A 000040CCB1 		      	stw  	r4,[r12+r3]
                        	TCB_22:
                        		      	;    	    if (ht==readyQ[t->priority>>3])
FFFCC030 0020C18B86 		      	ldd  	r6,524[r11]
FFFCC035 0000014630 		      	mov  	r5,r6
FFFCC03A 000FF14508 		      	and  	r5,r5,#255
FFFCC040 FFF8018009 		      	ld   	r6,#-128
FFFCC045 0400518502 		      	add  	r5,r5,r6
	      	xor  	r5,r5,r6
	      	asr  	r4,r5,#3
FFFCC04A 0A00518502 
FFFCC050 430040C502 
FFFCC055 4000304402 		      	shl  	r3,r4,#1
FFFCC05A 000040CCA2 		      	ldw  	r4,[r12+r3]
FFFCC060 50F0010413 		      	bfext	r4,r4,#0,#15
FFFCC065 000040CCB0 		      	stb  	r4,[r12+r3]
FFFCC06A 000030CCA0 		      	ldb  	r3,[r12+r3]
FFFCC070 004A00D247 		      	bne  	r18,r3,TCB_24
                        		      	;    	       readyQ[t->priority>>3] = -1;
FFFCC075 0020C18B86 		      	ldd  	r6,524[r11]
FFFCC07A 0000014630 		      	mov  	r5,r6
FFFCC080 000FF14508 		      	and  	r5,r5,#255
FFFCC085 FFF8018009 		      	ld   	r6,#-128
FFFCC08A 0400518502 		      	add  	r5,r5,r6
	      	xor  	r5,r5,r6
	      	asr  	r4,r5,#3
FFFCC090 0A00518502 
FFFCC095 430040C502 
FFFCC09A 4000304402 		      	shl  	r3,r4,#1
FFFCC0A0 000040CCA2 		      	ldw  	r4,[r12+r3]
FFFCC0A5 50F0010413 		      	bfext	r4,r4,#0,#15
FFFCC0AA 000040CCB0 		      	stb  	r4,[r12+r3]
FFFCC0B0 FFFFF10009 		      	ld   	r4,#-1
FFFCC0B5 000040CCB1 		      	stw  	r4,[r12+r3]
                        	TCB_24:
                        		      	;    	    tcbs[t->next].prev = t->prev;
FFFCC0BA 0018614B82 		      	ldw  	r5,390[r11]
FFFCC0C0 4000428502 		      	shl  	r4,r5,#10
FFFCC0C5 0400334402 		      	add  	r3,r4,r13
	      	ldw  	r4,392[r3]
FFFCC0CA 0018810382 
FFFCC0D0 50F0010413 		      	bfext	r4,r4,#0,#15
FFFCC0D5 0018810390 		      	stb  	r4,392[r3]
FFFCC0DA 0018810B82 		      	ldw  	r4,392[r11]
FFFCC0E0 0018810391 		      	stw  	r4,392[r3]
                        		      	;    	    tcbs[t->prev].next = t->next;
FFFCC0E5 0018814B82 		      	ldw  	r5,392[r11]
FFFCC0EA 4000428502 		      	shl  	r4,r5,#10
FFFCC0F0 0400334402 		      	add  	r3,r4,r13
	      	ldw  	r4,390[r3]
FFFCC0F5 0018610382 
FFFCC0FA 50F0010413 		      	bfext	r4,r4,#0,#15
FFFCC100 0018610390 		      	stb  	r4,390[r3]
FFFCC105 0018610B82 		      	ldw  	r4,390[r11]
FFFCC10A 0018610391 		      	stw  	r4,390[r3]
                        		      	;    	    t->next = -1;
FFFCC110 0FFFF0C009 		      	ld   	r3,#65535
FFFCC115 001860CB91 		      	stw  	r3,390[r11]
                        		      	;    	    t->prev = -1;
FFFCC11A 0FFFF0C009 		      	ld   	r3,#65535
FFFCC120 001880CB91 		      	stw  	r3,392[r11]
                        		      	;    	    t->status = 0;
FFFCC125 000000C030 		      	mov  	r3,r0
FFFCC12A 0020C10B86 		      	ldd  	r4,524[r11]
FFFCC130 000FF0C308 		      	and  	r3,r3,#255
FFFCC135 4500420402 		      	ror  	r4,r4,#8
FFFCC13A FFF0010408 		      	and  	r4,r4,#-256
FFFCC140 090040C402 		      	or   	r4,r4,r3
	      	rol  	r4,r4,#8
FFFCC145 4400420402 
FFFCC14A 0020C10B93 		      	std  	r4,524[r11]
                        		      	;    	    return E_Ok;
FFFCC150 0000004030 		      	mov  	r1,r0
FFFCC155 FE2BC00046 		      	bra  	TCB_21
                        	TCB_15:
FFFCC15A 0000ADFB86 		      	ldd  	lr,10[bp]
FFFCC160 00014DFB93 		      	std  	lr,20[bp]
FFFCC165 FE1BC00046 		      	bra  	TCB_21
                        	_RemoveFromReadyListSTKSIZE_ EQU 10
                        	_InsertIntoTimeoutList:
FFFCC16A 0000000053 		      	tgt  
FFFCC170 0000003A70 		      	push 	xlr
FFFCC175 0000003B70 		      	push 	bp
FFFCC17A CC325E8009 		      	ld   	xlr,#TCB_26
FFFCC180 000000FFCF 
FFFCC185 00000EFF30 		      	mov  	bp,sp
FFFCC18A FFFE2FFF04 		      	sub  	sp,sp,#_InsertIntoTimeoutListSTKSIZE_
FFFCC190 0000000B70 		      	push 	r11
FFFCC195 0000000C70 		      	push 	r12
FFFCC19A 0000000D70 		      	push 	r13
FFFCC1A0 0000000E70 		      	push 	r14
FFFCC1A5 6FC0238009 		      	ld   	r14,#_TimeoutList
FFFCC1AA 00000001C3 
                        		      	;    	    TCB *p, *q, *t;
                        		      	;    	    __check(ht >=0 && ht < 256);
FFFCC1B0 001000120E 		      	chki 	r18,r0,#256
                        		      	;    	    t = &tcbs[ht];
FFFCC1B5 4000429202 		      	shl  	r4,r18,#10
FFFCC1BA 2FC000C404 		      	add  	r3,r4,#_tcbs
FFFCC1C0 00000001C3 
FFFCC1C5 0000030330 		      	mov  	r12,r3
                        		      	;    	    if (TimeoutList<0) {
FFFCC1CA 000000CE80 		      	ldb  	r3,[r14]
FFFCC1D0 0055000359 		      	bge  	r3,#0,TCB_29
                        		      	;    	        t->timeout = to;
FFFCC1D5 001AE4CC93 		      	std  	r19,430[r12]
                        		      	;    	        TimeoutList = ht;
FFFCC1DA 0000048E91 		      	stw  	r18,[r14]
                        		      	;    	        t->next = -1;
FFFCC1E0 0FFFF0C009 		      	ld   	r3,#65535
FFFCC1E5 001860CC91 		      	stw  	r3,390[r12]
                        		      	;    	        t->prev = -1;
FFFCC1EA 0FFFF0C009 		      	ld   	r3,#65535
FFFCC1F0 001880CC91 		      	stw  	r3,392[r12]
                        		      	;    	        return E_Ok;
FFFCC1F5 0000004030 		      	mov  	r1,r0
                        	TCB_31:
FFFCC1FA 0000000E71 		      	pop  	r14
FFFCC200 0000000D71 		      	pop  	r13
FFFCC205 0000000C71 		      	pop  	r12
FFFCC20A 0000000B71 		      	pop  	r11
FFFCC210 00000FFB30 		      	mov  	sp,bp
FFFCC215 0000003B71 		      	pop  	bp
FFFCC21A 0000003A71 		      	pop  	xlr
FFFCC220 0000000AEF 		      	ret  	#10
                        	TCB_29:
                        		      	;    	    q = (void *)0;
FFFCC225 000000C030 		      	mov  	r3,r0
FFFCC22A 0000034330 		      	mov  	r13,r3
                        		      	;    	    p = &tcbs[TimeoutList];
FFFCC230 0000014E80 		      	ldb  	r5,[r14]
FFFCC235 4000428502 		      	shl  	r4,r5,#10
FFFCC23A 2FC000C404 		      	add  	r3,r4,#_tcbs
FFFCC240 00000001C3 
FFFCC245 000002C330 		      	mov  	r11,r3
                        		      	;    	    while (to > p->timeout) {
                        	TCB_32:
FFFCC24A 001AE0CB86 		      	ldd  	r3,430[r11]
FFFCC250 003500D34A 		      	ble  	r19,r3,TCB_33
                        		      	;    	        to -= p->timeout;
FFFCC255 001AE0CB86 		      	ldd  	r3,430[r11]
FFFCC25A 070130D302 		      	sub  	r19,r19,r3
	      	;    	        q = p;
FFFCC260 0000034B30 		      	mov  	r13,r11
                        		      	;    	        p = &tcbs[p->next];
FFFCC265 0018614B82 		      	ldw  	r5,390[r11]
FFFCC26A 4000428502 		      	shl  	r4,r5,#10
FFFCC270 2FC000C404 		      	add  	r3,r4,#_tcbs
FFFCC275 00000001C3 
FFFCC27A 000002C330 		      	mov  	r11,r3
FFFCC280 FFCAC00046 		      	bra  	TCB_32
                        	TCB_33:
                        		      	;    	    t->next = p - tcbs;
FFFCC285 D040010B04 		      	sub  	r4,r11,#_tcbs
FFFCC28A FFFFFFFECC 
FFFCC290 4100328402 		      	shru 	r3,r4,#10
FFFCC295 0FFFF0C308 		      	and  	r3,r3,#65535
FFFCC29A 001860CC91 		      	stw  	r3,390[r12]
                        		      	;    	    t->prev = q - tcbs;
FFFCC2A0 D040010D04 		      	sub  	r4,r13,#_tcbs
FFFCC2A5 FFFFFFFECC 
FFFCC2AA 4100328402 		      	shru 	r3,r4,#10
FFFCC2B0 0FFFF0C308 		      	and  	r3,r3,#65535
FFFCC2B5 001880CC91 		      	stw  	r3,392[r12]
                        		      	;    	    if (p) {
FFFCC2BA 0020000B46 		      	beq  	r11,r0,TCB_34
                        		      	;    	        p->timeout -= to;
FFFCC2C0 001AE0CB86 		      	ldd  	r3,430[r11]
FFFCC2C5 070034C302 		      	sub  	r3,r3,r19
	      	std  	r3,430[r11]
FFFCC2CA 001AE0CB93 
                        		      	;    	        p->prev = ht;
FFFCC2D0 0FFFF49208 		      	and  	r18,r18,#65535
FFFCC2D5 0018848B91 		      	stw  	r18,392[r11]
                        	TCB_34:
                        		      	;    	    if (q)
FFFCC2DA 0016000D46 		      	beq  	r13,r0,TCB_36
                        		      	;    	        q->next = ht;
FFFCC2E0 0FFFF49208 		      	and  	r18,r18,#65535
FFFCC2E5 0018648D91 		      	stw  	r18,390[r13]
FFFCC2EA 000BC00046 		      	bra  	TCB_37
                        	TCB_36:
                        		      	;    	        TimeoutList = ht;
FFFCC2F0 0000048E91 		      	stw  	r18,[r14]
                        	TCB_37:
                        		      	;    	    t->status |= 1;
FFFCC2F5 0020C0CC22 		      	lw   	r3,524[r12]
FFFCC2FA 4100320302 		      	shru 	r3,r3,#8
FFFCC300 000FF0C308 		      	and  	r3,r3,#255
FFFCC305 FFF8010009 		      	ld   	r4,#-128
FFFCC30A 0400310302 		      	add  	r3,r3,r4
	      	xor  	r3,r3,r4
	      	or   	r3,r3,#1
FFFCC310 0A00310302 
FFFCC315 000010C309 
                        		      	;    	    return E_Ok;
FFFCC31A 0000004030 		      	mov  	r1,r0
FFFCC320 FEDAC00046 		      	bra  	TCB_31
                        	TCB_26:
FFFCC325 0000ADFB86 		      	ldd  	lr,10[bp]
FFFCC32A 00014DFB93 		      	std  	lr,20[bp]
FFFCC330 FECAC00046 		      	bra  	TCB_31
                        	_InsertIntoTimeoutListSTKSIZE_ EQU 30
                        	_RemoveFromTimeoutList:
FFFCC335 0000000053 		      	tgt  
FFFCC33A 0000003A70 		      	push 	xlr
FFFCC340 0000003B70 		      	push 	bp
FFFCC345 CC475E8009 		      	ld   	xlr,#TCB_38
FFFCC34A 000000FFCF 
FFFCC350 00000EFF30 		      	mov  	bp,sp
FFFCC355 FFFF6FFF04 		      	sub  	sp,sp,#_RemoveFromTimeoutListSTKSIZE_
FFFCC35A 0000000B70 		      	push 	r11
FFFCC360 0000000C70 		      	push 	r12
FFFCC365 2FC0030009 		      	ld   	r12,#_tcbs
FFFCC36A 00000001C3 
                        		      	;    	    TCB *t;
                        		      	;    	    __check(ht >=0 && ht < 256);
FFFCC370 001000120E 		      	chki 	r18,r0,#256
                        		      	;    	    t = &tcbs[ht];
FFFCC375 4000429202 		      	shl  	r4,r18,#10
FFFCC37A 0400330402 		      	add  	r3,r4,r12
	      	mov  	r11,r3
FFFCC380 000002C330 
                        		      	;    	    if (t->next) {
FFFCC385 001860CB82 		      	ldw  	r3,390[r11]
FFFCC38A 0056000346 		      	beq  	r3,r0,TCB_41
                        		      	;    	       tcbs[t->next].prev = t->prev;
FFFCC390 0018614B82 		      	ldw  	r5,390[r11]
FFFCC395 4000428502 		      	shl  	r4,r5,#10
FFFCC39A 0400330402 		      	add  	r3,r4,r12
	      	ldw  	r4,392[r3]
FFFCC3A0 0018810382 
FFFCC3A5 50F0010413 		      	bfext	r4,r4,#0,#15
FFFCC3AA 0018810390 		      	stb  	r4,392[r3]
FFFCC3B0 0018810B82 		      	ldw  	r4,392[r11]
FFFCC3B5 0018810391 		      	stw  	r4,392[r3]
                        		      	;    	       tcbs[t->next].timeout += t->timeout;
FFFCC3BA 0018614B82 		      	ldw  	r5,390[r11]
FFFCC3C0 4000428502 		      	shl  	r4,r5,#10
FFFCC3C5 0400330402 		      	add  	r3,r4,r12
	      	ldd  	r4,430[r11]
FFFCC3CA 001AE10B86 
FFFCC3D0 001AE14386 		      	ldd  	r5,430[r3]
FFFCC3D5 0400510502 		      	add  	r5,r5,r4
	      	std  	r5,430[r3]
FFFCC3DA 001AE14393 
                        	TCB_41:
                        		      	;    	    if (t->prev >= 0)
FFFCC3E0 001880CB82 		      	ldw  	r3,392[r11]
FFFCC3E5 0030000358 		      	blt  	r3,#0,TCB_43
                        		      	;    	       tcbs[t->prev].next = t->next;
FFFCC3EA 0018814B82 		      	ldw  	r5,392[r11]
FFFCC3F0 4000428502 		      	shl  	r4,r5,#10
FFFCC3F5 0400330402 		      	add  	r3,r4,r12
	      	ldw  	r4,390[r3]
FFFCC3FA 0018610382 
FFFCC400 50F0010413 		      	bfext	r4,r4,#0,#15
FFFCC405 0018610390 		      	stb  	r4,390[r3]
FFFCC40A 0018610B82 		      	ldw  	r4,390[r11]
FFFCC410 0018610391 		      	stw  	r4,390[r3]
                        	TCB_43:
                        		      	;    	    t->status = 0;
FFFCC415 000000C030 		      	mov  	r3,r0
FFFCC41A 0020C10B86 		      	ldd  	r4,524[r11]
FFFCC420 000FF0C308 		      	and  	r3,r3,#255
FFFCC425 4500420402 		      	ror  	r4,r4,#8
FFFCC42A FFF0010408 		      	and  	r4,r4,#-256
FFFCC430 090040C402 		      	or   	r4,r4,r3
	      	rol  	r4,r4,#8
FFFCC435 4400420402 
FFFCC43A 0020C10B93 		      	std  	r4,524[r11]
                        		      	;    	    t->next = -1;
FFFCC440 0FFFF0C009 		      	ld   	r3,#65535
FFFCC445 001860CB91 		      	stw  	r3,390[r11]
                        		      	;    	    t->prev = -1;
FFFCC44A 0FFFF0C009 		      	ld   	r3,#65535
FFFCC450 001880CB91 		      	stw  	r3,392[r11]
                        	TCB_45:
FFFCC455 0000000C71 		      	pop  	r12
FFFCC45A 0000000B71 		      	pop  	r11
FFFCC460 00000FFB30 		      	mov  	sp,bp
FFFCC465 0000003B71 		      	pop  	bp
FFFCC46A 0000003A71 		      	pop  	xlr
FFFCC470 0000000AEF 		      	ret  	#10
                        	TCB_38:
FFFCC475 0000ADFB86 		      	ldd  	lr,10[bp]
FFFCC47A 00014DFB93 		      	std  	lr,20[bp]
FFFCC480 FFD5C00046 		      	bra  	TCB_45
                        	_RemoveFromTimeoutListSTKSIZE_ EQU 10
FFFCC485 0000000053 	public code _PopTimeoutList:
	      	tgt  
FFFCC48A 0000003A70 		      	push 	xlr
FFFCC490 0000003B70 		      	push 	bp
FFFCC495 CC59AE8009 		      	ld   	xlr,#TCB_46
FFFCC49A 000000FFCF 
FFFCC4A0 00000EFF30 		      	mov  	bp,sp
FFFCC4A5 FFFF4FFF04 		      	sub  	sp,sp,#_PopTimeoutListSTKSIZE_
FFFCC4AA 0000000B70 		      	push 	r11
FFFCC4B0 6FC022C009 		      	ld   	r11,#_TimeoutList
FFFCC4B5 00000001C3 
                        		      	;    	    TCB *p;
                        		      	;    	    h = TimeoutList;
FFFCC4BA FFFF40FB82 		      	ldw  	r3,-12[bp]
FFFCC4C0 50F000C313 		      	bfext	r3,r3,#0,#15
FFFCC4C5 FFFF40FB90 		      	stb  	r3,-12[bp]
FFFCC4CA 000000CB82 		      	ldw  	r3,[r11]
FFFCC4D0 FFFF40FB91 		      	stw  	r3,-12[bp]
                        		      	;    	    if (TimeoutList >= 0 && TimeoutList < 256) {
FFFCC4D5 000000CB80 		      	ldb  	r3,[r11]
FFFCC4DA 0090000358 		      	blt  	r3,#0,TCB_49
FFFCC4E0 000000CB80 		      	ldb  	r3,[r11]
FFFCC4E5 0085000359 		      	bge  	r3,#256,TCB_49
FFFCC4EA 00000000C1 
                        		      	;    	        TimeoutList = tcbs[TimeoutList].next;
FFFCC4F0 0000014B80 		      	ldb  	r5,[r11]
FFFCC4F5 4000428502 		      	shl  	r4,r5,#10
FFFCC4FA 2FC000C404 		      	add  	r3,r4,#_tcbs
FFFCC500 00000001C3 
FFFCC505 0018610382 		      	ldw  	r4,390[r3]
FFFCC50A 50F0010413 		      	bfext	r4,r4,#0,#15
FFFCC510 0018610390 		      	stb  	r4,390[r3]
FFFCC515 0018610382 		      	ldw  	r4,390[r3]
FFFCC51A 0000010B91 		      	stw  	r4,[r11]
                        		      	;    	        if (TimeoutList >= 0 && TimeoutList < 256)
FFFCC520 000000CB80 		      	ldb  	r3,[r11]
FFFCC525 0045000358 		      	blt  	r3,#0,TCB_51
FFFCC52A 000000CB80 		      	ldb  	r3,[r11]
FFFCC530 003A000359 		      	bge  	r3,#256,TCB_51
FFFCC535 00000000C1 
                        		      	;    	            tcbs[TimeoutList].prev = -1;
FFFCC53A 0000014B80 		      	ldb  	r5,[r11]
FFFCC540 4000428502 		      	shl  	r4,r5,#10
FFFCC545 2FC000C404 		      	add  	r3,r4,#_tcbs
FFFCC54A 00000001C3 
FFFCC550 0018810382 		      	ldw  	r4,392[r3]
FFFCC555 50F0010413 		      	bfext	r4,r4,#0,#15
FFFCC55A 0018810390 		      	stb  	r4,392[r3]
FFFCC560 FFFFF10009 		      	ld   	r4,#-1
FFFCC565 0018810391 		      	stw  	r4,392[r3]
                        	TCB_51:
                        	TCB_49:
                        		      	;    	    return h;
FFFCC56A FFFF40FB82 		      	ldw  	r3,-12[bp]
FFFCC570 50F000C313 		      	bfext	r3,r3,#0,#15
FFFCC575 FFFF40FB90 		      	stb  	r3,-12[bp]
FFFCC57A FFFF407B80 		      	ldb  	r1,-12[bp]
                        	TCB_53:
FFFCC580 0000000B71 		      	pop  	r11
FFFCC585 00000FFB30 		      	mov  	sp,bp
FFFCC58A 0000003B71 		      	pop  	bp
FFFCC590 0000003A71 		      	pop  	xlr
FFFCC595 0000000AEF 		      	ret  	#10
                        	TCB_46:
FFFCC59A 0000ADFB86 		      	ldd  	lr,10[bp]
FFFCC5A0 00014DFB93 		      	std  	lr,20[bp]
FFFCC5A5 FFDBC00046 		      	bra  	TCB_53
                        	endpublic
                        	
                        	_PopTimeoutListSTKSIZE_ EQU 12
FFFCC5AA 0000000053 	public code _DumpTaskList:
	      	tgt  
FFFCC5B0 0000003A70 		      	push 	xlr
FFFCC5B5 0000003B70 		      	push 	bp
FFFCC5BA CCA25E8009 		      	ld   	xlr,#TCB_59
FFFCC5C0 000000FFCF 
FFFCC5C5 00000EFF30 		      	mov  	bp,sp
FFFCC5CA FFFD4FFF04 		      	sub  	sp,sp,#_DumpTaskListSTKSIZE_
FFFCC5D0 0000000B70 		      	push 	r11
                        		      	;    	     TCB *p, *q;
                        		      	;    	     printf("CPU Pri Stat Task Prev Next Timeout\r\n");
FFFCC5D5 CE2580009C 		      	push 	#TCB_54
FFFCC5DA 000000FFCF 
FFFCC5E0 C351000050 		      	call 	_printf
FFFCC5E5 000000FFCF 
FFFCC5EA 0000AFFF04 		      	add  	sp,sp,#10
                        		      	;    	     for (n = 0; n < 8; n++) {
FFFCC5F0 FFFE203B93 		      	std  	r0,-30[bp]
                        	TCB_62:
FFFCC5F5 FFFE20FB86 		      	ldd  	r3,-30[bp]
FFFCC5FA 0246020359 		      	bge  	r3,#8,TCB_63
                        		      	;    	         h = readyQ[n];
FFFCC600 FFFD60FB82 		      	ldw  	r3,-42[bp]
FFFCC605 50F000C313 		      	bfext	r3,r3,#0,#15
FFFCC60A FFFD60FB90 		      	stb  	r3,-42[bp]
FFFCC610 FFFE213B86 		      	ldd  	r4,-30[bp]
FFFCC615 4000304402 		      	shl  	r3,r4,#1
FFFCC61A 6FC0410382 		      	ldw  	r4,_readyQ[r3]
FFFCC620 00000001C3 
FFFCC625 50F0010413 		      	bfext	r4,r4,#0,#15
FFFCC62A 6FC0410390 		      	stb  	r4,_readyQ[r3]
FFFCC630 00000001C3 
FFFCC635 6FC0410382 		      	ldw  	r4,_readyQ[r3]
FFFCC63A 00000001C3 
FFFCC640 FFFD613B91 		      	stw  	r4,-42[bp]
                        		      	;    	         if (h >= 0 && h < 256) {
FFFCC645 FFFD60FB82 		      	ldw  	r3,-42[bp]
FFFCC64A 50F000C313 		      	bfext	r3,r3,#0,#15
FFFCC650 FFFD60FB90 		      	stb  	r3,-42[bp]
FFFCC655 FFFD60FB80 		      	ldb  	r3,-42[bp]
FFFCC65A 01D0000358 		      	blt  	r3,#0,TCB_65
FFFCC660 FFFD60FB82 		      	ldw  	r3,-42[bp]
FFFCC665 50F000C313 		      	bfext	r3,r3,#0,#15
FFFCC66A FFFD60FB90 		      	stb  	r3,-42[bp]
FFFCC670 FFFD60FB80 		      	ldb  	r3,-42[bp]
FFFCC675 01B5000359 		      	bge  	r3,#256,TCB_65
FFFCC67A 00000000C1 
                        		      	;    	             q = &tcbs[h];
FFFCC680 FFFD617B82 		      	ldw  	r5,-42[bp]
FFFCC685 50F0014513 		      	bfext	r5,r5,#0,#15
FFFCC68A FFFD617B90 		      	stb  	r5,-42[bp]
FFFCC690 FFFD617B80 		      	ldb  	r5,-42[bp]
FFFCC695 4000428502 		      	shl  	r4,r5,#10
FFFCC69A 2FC000C404 		      	add  	r3,r4,#_tcbs
FFFCC6A0 00000001C3 
FFFCC6A5 FFFEC0FB93 		      	std  	r3,-20[bp]
                        		      	;    	             p = q;
FFFCC6AA FFFEC2FB86 		      	ldd  	r11,-20[bp]
                        		      	;    	             kk = 0;
FFFCC6B0 FFFD803B93 		      	std  	r0,-40[bp]
                        		      	;    	             do {
                        	TCB_67:
                        		      	;    	                   j = p - tcbs;
FFFCC6B5 FFFD40FB82 		      	ldw  	r3,-44[bp]
FFFCC6BA 50F000C313 		      	bfext	r3,r3,#0,#15
FFFCC6C0 FFFD40FB90 		      	stb  	r3,-44[bp]
FFFCC6C5 D040010B04 		      	sub  	r4,r11,#_tcbs
FFFCC6CA FFFFFFFECC 
FFFCC6D0 4100328402 		      	shru 	r3,r4,#10
FFFCC6D5 FFFD40FB91 		      	stw  	r3,-44[bp]
                        		      	;    	                 printf("%3d %3d  %02X  %04X %04X %04X %08X %08X\r\n", p->affinity, p->priority, p->status, (int)j, p->prev, p->next, p->timeout, p->ticks);
FFFCC6DA 002260CB86 		      	ldd  	r3,550[r11]
FFFCC6E0 0000000370 		      	push 	r3
FFFCC6E5 001AE10B86 		      	ldd  	r4,430[r11]
FFFCC6EA 0000000470 		      	push 	r4
FFFCC6F0 0018614B82 		      	ldw  	r5,390[r11]
FFFCC6F5 0000000570 		      	push 	r5
FFFCC6FA 0018818B82 		      	ldw  	r6,392[r11]
FFFCC700 0000000670 		      	push 	r6
FFFCC705 FFFD41FB82 		      	ldw  	r7,-44[bp]
FFFCC70A 50F001C713 		      	bfext	r7,r7,#0,#15
FFFCC710 FFFD41FB90 		      	stb  	r7,-44[bp]
FFFCC715 FFFD41FB80 		      	ldb  	r7,-44[bp]
FFFCC71A 0000000770 		      	push 	r7
FFFCC720 0020C24B86 		      	ldd  	r9,524[r11]
FFFCC725 0000020930 		      	mov  	r8,r9
FFFCC72A 4100820802 		      	shru 	r8,r8,#8
FFFCC730 000FF20808 		      	and  	r8,r8,#255
FFFCC735 FFF8024009 		      	ld   	r9,#-128
FFFCC73A 0400824802 		      	add  	r8,r8,r9
	      	xor  	r8,r8,r9
	      	push 	r8
FFFCC740 0A00824802 
FFFCC745 0000000870 
FFFCC74A 0020C28B86 		      	ldd  	r10,524[r11]
FFFCC750 0000024A30 		      	mov  	r9,r10
FFFCC755 000FF24908 		      	and  	r9,r9,#255
FFFCC75A FFF8028009 		      	ld   	r10,#-128
FFFCC760 0400928902 		      	add  	r9,r9,r10
	      	xor  	r9,r9,r10
	      	push 	r9
FFFCC765 0A00928902 
FFFCC76A 0000000970 
FFFCC770 0000000370 		      	push 	r3
FFFCC775 0020E0CB86 		      	ldd  	r3,526[r11]
FFFCC77A 0000028330 		      	mov  	r10,r3
FFFCC780 000FF28A08 		      	and  	r10,r10,#255
FFFCC785 FFF800C009 		      	ld   	r3,#-128
FFFCC78A 0400A0CA02 		      	add  	r10,r10,r3
	      	xor  	r10,r10,r3
	      	push 	r10
FFFCC790 0A00A0CA02 
FFFCC795 0000000A70 
FFFCC79A CE2040009C 		      	push 	#TCB_55
FFFCC7A0 000000FFCF 
FFFCC7A5 C351000050 		      	call 	_printf
FFFCC7AA 000000FFCF 
FFFCC7B0 0005AFFF04 		      	add  	sp,sp,#90
                        		      	;    	                 if (p->next < 0 || p->next >= 256)
FFFCC7B5 001860CB82 		      	ldw  	r3,390[r11]
FFFCC7BA 0016000358 		      	blt  	r3,#0,TCB_71
FFFCC7C0 001860CB82 		      	ldw  	r3,390[r11]
FFFCC7C5 0010000358 		      	blt  	r3,#256,TCB_69
FFFCC7CA 00000000C1 
                        	TCB_71:
                        		      	;    	                     break;
FFFCC7D0 005AC00046 		      	bra  	TCB_68
                        	TCB_69:
                        		      	;    	                 p = &tcbs[p->next];
FFFCC7D5 0018614B82 		      	ldw  	r5,390[r11]
FFFCC7DA 4000428502 		      	shl  	r4,r5,#10
FFFCC7E0 2FC000C404 		      	add  	r3,r4,#_tcbs
FFFCC7E5 00000001C3 
FFFCC7EA 000002C330 		      	mov  	r11,r3
                        		      	;    	                 if (getcharNoWait()==3)
FFFCC7F0 C344500050 		      	call 	_getcharNoWait
FFFCC7F5 000000FFCF 
FFFCC7FA 000B00C157 		      	bne  	r1,#3,TCB_72
                        		      	;    	                    goto j1;
FFFCC800 020AC00046 		      	bra  	TCB_56
                        	TCB_72:
                        		      	;    	                 kk = kk + 1;
FFFCC805 FFFD813B86 		      	ldd  	r4,-40[bp]
FFFCC80A 000010C404 		      	add  	r3,r4,#1
FFFCC810 FFFD80FB93 		      	std  	r3,-40[bp]
FFFCC815 FFFEC0FB86 		      	ldd  	r3,-20[bp]
FFFCC81A 001000CB46 		      	beq  	r11,r3,TCB_74
FFFCC820 FFFD80FB86 		      	ldd  	r3,-40[bp]
FFFCC825 FE90028358 		      	blt  	r3,#10,TCB_67
                        	TCB_74:
                        	TCB_68:
                        	TCB_65:
                        	TCB_64:
FFFCC82A FFFE20FB86 		      	ldd  	r3,-30[bp]
FFFCC830 000010C304 		      	add  	r3,r3,#1
FFFCC835 FFFE20FB93 		      	std  	r3,-30[bp]
FFFCC83A FDBBC00046 		      	bra  	TCB_62
                        	TCB_63:
                        		      	;    	     printf("Waiting tasks\r\n");
FFFCC840 CE1E40009C 		      	push 	#TCB_57
FFFCC845 000000FFCF 
FFFCC84A C351000050 		      	call 	_printf
FFFCC850 000000FFCF 
FFFCC855 0000AFFF04 		      	add  	sp,sp,#10
                        		      	;    	     h = TimeoutList;
FFFCC85A FFFD60FB82 		      	ldw  	r3,-42[bp]
FFFCC860 50F000C313 		      	bfext	r3,r3,#0,#15
FFFCC865 FFFD60FB90 		      	stb  	r3,-42[bp]
FFFCC86A 6FC020C082 		      	ldw  	r3,_TimeoutList
FFFCC870 00000001C3 
FFFCC875 50F000C313 		      	bfext	r3,r3,#0,#15
FFFCC87A 6FC020C090 		      	stb  	r3,_TimeoutList
FFFCC880 00000001C3 
FFFCC885 6FC020C082 		      	ldw  	r3,_TimeoutList
FFFCC88A 00000001C3 
FFFCC890 FFFD60FB91 		      	stw  	r3,-42[bp]
                        		      	;    	     while (h >= 0 && h < 256) {
                        	TCB_75:
FFFCC895 FFFD60FB82 		      	ldw  	r3,-42[bp]
FFFCC89A 50F000C313 		      	bfext	r3,r3,#0,#15
FFFCC8A0 FFFD60FB90 		      	stb  	r3,-42[bp]
FFFCC8A5 FFFD60FB80 		      	ldb  	r3,-42[bp]
FFFCC8AA 0160000358 		      	blt  	r3,#0,TCB_76
FFFCC8B0 FFFD60FB82 		      	ldw  	r3,-42[bp]
FFFCC8B5 50F000C313 		      	bfext	r3,r3,#0,#15
FFFCC8BA FFFD60FB90 		      	stb  	r3,-42[bp]
FFFCC8C0 FFFD60FB80 		      	ldb  	r3,-42[bp]
FFFCC8C5 0145000359 		      	bge  	r3,#256,TCB_76
FFFCC8CA 00000000C1 
                        		      	;    	         p = &tcbs[h];
FFFCC8D0 FFFD617B82 		      	ldw  	r5,-42[bp]
FFFCC8D5 50F0014513 		      	bfext	r5,r5,#0,#15
FFFCC8DA FFFD617B90 		      	stb  	r5,-42[bp]
FFFCC8E0 FFFD617B80 		      	ldb  	r5,-42[bp]
FFFCC8E5 4000428502 		      	shl  	r4,r5,#10
FFFCC8EA 2FC000C404 		      	add  	r3,r4,#_tcbs
FFFCC8F0 00000001C3 
FFFCC8F5 000002C330 		      	mov  	r11,r3
                        		      	;    	         printf("%3d %3d  %02X  %04X %04X %04X %08X %08X\r\n", p->affinity, p->priority, p->status, (int)j, p->prev, p->next, p->timeout, p->ticks);
FFFCC8FA 002260CB86 		      	ldd  	r3,550[r11]
FFFCC900 0000000370 		      	push 	r3
FFFCC905 001AE10B86 		      	ldd  	r4,430[r11]
FFFCC90A 0000000470 		      	push 	r4
FFFCC910 0018614B82 		      	ldw  	r5,390[r11]
FFFCC915 0000000570 		      	push 	r5
FFFCC91A 0018818B82 		      	ldw  	r6,392[r11]
FFFCC920 0000000670 		      	push 	r6
FFFCC925 FFFD41FB82 		      	ldw  	r7,-44[bp]
FFFCC92A 50F001C713 		      	bfext	r7,r7,#0,#15
FFFCC930 FFFD41FB90 		      	stb  	r7,-44[bp]
FFFCC935 FFFD41FB80 		      	ldb  	r7,-44[bp]
FFFCC93A 0000000770 		      	push 	r7
FFFCC940 0020C24B86 		      	ldd  	r9,524[r11]
FFFCC945 0000020930 		      	mov  	r8,r9
FFFCC94A 4100820802 		      	shru 	r8,r8,#8
FFFCC950 000FF20808 		      	and  	r8,r8,#255
FFFCC955 FFF8024009 		      	ld   	r9,#-128
FFFCC95A 0400824802 		      	add  	r8,r8,r9
	      	xor  	r8,r8,r9
	      	push 	r8
FFFCC960 0A00824802 
FFFCC965 0000000870 
FFFCC96A 0020C28B86 		      	ldd  	r10,524[r11]
FFFCC970 0000024A30 		      	mov  	r9,r10
FFFCC975 000FF24908 		      	and  	r9,r9,#255
FFFCC97A FFF8028009 		      	ld   	r10,#-128
FFFCC980 0400928902 		      	add  	r9,r9,r10
	      	xor  	r9,r9,r10
	      	push 	r9
FFFCC985 0A00928902 
FFFCC98A 0000000970 
FFFCC990 0000000370 		      	push 	r3
FFFCC995 0020E0CB86 		      	ldd  	r3,526[r11]
FFFCC99A 0000028330 		      	mov  	r10,r3
FFFCC9A0 000FF28A08 		      	and  	r10,r10,#255
FFFCC9A5 FFF800C009 		      	ld   	r3,#-128
FFFCC9AA 0400A0CA02 		      	add  	r10,r10,r3
	      	xor  	r10,r10,r3
	      	push 	r10
FFFCC9B0 0A00A0CA02 
FFFCC9B5 0000000A70 
FFFCC9BA CE1900009C 		      	push 	#TCB_58
FFFCC9C0 000000FFCF 
FFFCC9C5 C351000050 		      	call 	_printf
FFFCC9CA 000000FFCF 
FFFCC9D0 0005AFFF04 		      	add  	sp,sp,#90
                        		      	;    	         h = p->next;
FFFCC9D5 FFFD60FB82 		      	ldw  	r3,-42[bp]
FFFCC9DA 50F000C313 		      	bfext	r3,r3,#0,#15
FFFCC9E0 FFFD60FB90 		      	stb  	r3,-42[bp]
FFFCC9E5 001860CB82 		      	ldw  	r3,390[r11]
FFFCC9EA FFFD60FB91 		      	stw  	r3,-42[bp]
                        		      	;    	         if (getcharNoWait()==3)
FFFCC9F0 C344500050 		      	call 	_getcharNoWait
FFFCC9F5 000000FFCF 
FFFCC9FA 000B00C157 		      	bne  	r1,#3,TCB_77
                        		      	;    	            goto j1;
FFFCCA00 000AC00046 		      	bra  	TCB_56
                        	TCB_77:
FFFCCA05 FE90C00046 		      	bra  	TCB_75
                        	TCB_76:
                        		      	;    	j1:  ;
                        	TCB_56:
                        	TCB_79:
FFFCCA0A 0000000B71 		      	pop  	r11
FFFCCA10 00000FFB30 		      	mov  	sp,bp
FFFCCA15 0000003B71 		      	pop  	bp
FFFCCA1A 0000003A71 		      	pop  	xlr
FFFCCA20 0000000AEF 		      	ret  	#10
                        	TCB_59:
FFFCCA25 0000ADFB86 		      	ldd  	lr,10[bp]
FFFCCA2A 00014DFB93 		      	std  	lr,20[bp]
FFFCCA30 FFDAC00046 		      	bra  	TCB_79
                        	endpublic
                        	
                        	_DumpTaskListSTKSIZE_ EQU 44
                        		code
FFFCCA35 0000000000 		align	1
FFFCCA3A 0000000000 
                        	
                        	_UnlockSemaphoreSTKSIZE_ EQU 0
                        	_SetVBASTKSIZE_ EQU 0
                        	_LEDSSTKSIZE_ EQU 0
                        		code
                        		align	16                        	
                        		code
                        		align	16                        	
FFFCCA40 0000000053 	public code _FocusSwitcher:
	      	tgt  
FFFCCA45 0000003A70 		      	push 	xlr
FFFCCA4A 0000003B70 		      	push 	bp
FFFCCA50 CCB2AE8009 		      	ld   	xlr,#IOFocusc_1
FFFCCA55 000000FFCF 
FFFCCA5A 00000EFF30 		      	mov  	bp,sp
FFFCCA60 FFFE2FFF04 		      	sub  	sp,sp,#_FocusSwitcherSTKSIZE_
                        		      	;    	     int d1,d2,d3;
                        		      	;    	     if firstcall {
FFFCCA65 0000000070 		      	push 	r0
FFFCCA6A 0337000087 		      	ldt  	r0,IOFocusc_0
FFFCCA70 00000001C0 
FFFCCA75 002B000046 		      	beq  	r0,r0,IOFocusc_5
FFFCCA7A 0337000094 		      	stt  	r0,IOFocusc_0
FFFCCA80 00000001C0 
                        		      	;    	         FMTK_AllocMbx(&hFocusSwitchMbx);
FFFCCA85 0336E0009C 		      	push 	#_hFocusSwitchMbx
FFFCCA8A 00000001C0 
FFFCCA90 CA40000050 		      	call 	_FMTK_AllocMbx
FFFCCA95 000000FFCF 
FFFCCA9A 0000AFFF04 		      	add  	sp,sp,#10
                        	IOFocusc_5:
                        		      	;    	     forever {
                        	IOFocusc_6:
                        		      	;    	         FMTK_WaitMsg(hFocusSwitchMbx, &d1, &d2, &d3, 0x7FFFFFFFL);
FFFCCAA0 FFFFF0009C 		      	push 	#2147483647
FFFCCAA5 0000007FCF 
FFFCCAAA FFFE20FB25 		      	lea  	r3,-30[bp]
FFFCCAB0 0000000370 		      	push 	r3
FFFCCAB5 FFFEC13B25 		      	lea  	r4,-20[bp]
FFFCCABA 0000000470 		      	push 	r4
FFFCCAC0 FFFF617B25 		      	lea  	r5,-10[bp]
FFFCCAC5 0000000570 		      	push 	r5
FFFCCACA 0336E18082 		      	ldw  	r6,_hFocusSwitchMbx
FFFCCAD0 00000001C0 
FFFCCAD5 50F0018613 		      	bfext	r6,r6,#0,#15
FFFCCADA 0336E18090 		      	stb  	r6,_hFocusSwitchMbx
FFFCCAE0 00000001C0 
FFFCCAE5 0336E18080 		      	ldb  	r6,_hFocusSwitchMbx
FFFCCAEA 00000001C0 
FFFCCAF0 0000000670 		      	push 	r6
FFFCCAF5 CB31000050 		      	call 	_FMTK_WaitMsg
FFFCCAFA 000000FFCF 
FFFCCB00 00032FFF04 		      	add  	sp,sp,#50
                        		      	;    	         SwitchIOFocus();
FFFCCB05 CCC3A00050 		      	call 	_SwitchIOFocus
FFFCCB0A 000000FFCF 
FFFCCB10 FF90C00046 		      	bra  	IOFocusc_6
                        	IOFocusc_7:
                        	IOFocusc_8:
FFFCCB15 00000FFB30 		      	mov  	sp,bp
FFFCCB1A 0000003B71 		      	pop  	bp
FFFCCB20 0000003A71 		      	pop  	xlr
FFFCCB25 0000000AEF 		      	ret  	#10
                        	IOFocusc_1:
FFFCCB2A 0000ADFB86 		      	ldd  	lr,10[bp]
FFFCCB30 00014DFB93 		      	std  	lr,20[bp]
FFFCCB35 FFE0C00046 		      	bra  	IOFocusc_8
                        	endpublic
                        	
                        	_FocusSwitcherSTKSIZE_ EQU 30
                        	_ForceIOFocus:
FFFCCB3A 0000000053 		      	tgt  
FFFCCB40 0000003A70 		      	push 	xlr
FFFCCB45 0000003B70 		      	push 	bp
FFFCCB4A CCC2AE8009 		      	ld   	xlr,#IOFocusc_9
FFFCCB50 000000FFCF 
FFFCCB55 00000EFF30 		      	mov  	bp,sp
FFFCCB5A 00000FFF04 		      	sub  	sp,sp,#_ForceIOFocusSTKSIZE_
FFFCCB60 0000000B70 		      	push 	r11
                        		      	;    	    RequestIOFocus(j);   // In case it isn't requested yet.
FFFCCB65 0000000B70 		      	push 	r11
FFFCCB6A CCD5500050 		      	call 	_RequestIOFocus
FFFCCB70 000000FFCF 
FFFCCB75 0000AFFF04 		      	add  	sp,sp,#10
                        		      	;    	     if (LockSemaphore(&iof_sema,-1)) {
FFFCCB7A 0000001270 		      	push 	r18
FFFCCB80 0000001370 		      	push 	r19
FFFCCB85 FFFFF4C009 		      	ld   	r19,#-1
FFFCCB8A 0142448009 		      	ld   	r18,#_iof_sema
FFFCCB90 C524000050 		      	call 	_LockSemaphore
FFFCCB95 000000FFCF 
FFFCCB9A 0000001371 		      	pop  	r19
FFFCCBA0 0000001271 		      	pop  	r18
FFFCCBA5 006B000146 		      	beq  	r1,r0,IOFocusc_12
                        		      	;    	        if (j != IOFocusNdx) {
FFFCCBAA 3081A0C086 		      	ldd  	r3,_IOFocusNdx
FFFCCBB0 00000001C2 
FFFCCBB5 004000CB46 		      	beq  	r11,r3,IOFocusc_14
                        		      	;    	            CopyScreenToVirtualScreen();
FFFCCBBA CD2CA00050 		      	call 	_CopyScreenToVirtualScreen
FFFCCBC0 000000FFCF 
                        		      	;    	            j->pVidMem = j->pVirtVidMem;
FFFCCBC5 0065E0CB86 		      	ldd  	r3,1630[r11]
FFFCCBCA 006540CB93 		      	std  	r3,1620[r11]
                        		      	;    	            IOFocusNdx = j;
FFFCCBD0 3081A2C093 		      	std  	r11,_IOFocusNdx
FFFCCBD5 00000001C2 
                        		      	;    	            j->pVidMem = 0xFFD00000;
FFFCCBDA 000000C009 		      	ld   	r3,#-3145728
FFFCCBE0 FFFFFFFFCD 
FFFCCBE5 006540CB93 		      	std  	r3,1620[r11]
                        		      	;    	            CopyVirtualScreenToScreen();
FFFCCBEA CD1B500050 		      	call 	_CopyVirtualScreenToScreen
FFFCCBF0 000000FFCF 
                        	IOFocusc_14:
                        		      	;    	        UnlockSemaphore(&iof_sema);
FFFCCBF5 0000001270 		      	push 	r18
FFFCCBFA 0142448009 		      	ld   	r18,#_iof_sema
FFFCCC00 0000000053 		      	tgt  
                        		      	;    		asm {
                        		      	     	
FFFCCC05 0000001293 				std	r0,[r18]
                        		      	;    		}
                        	IOFocusc_19:
                        	IOFocusc_16:
                        	IOFocusc_18:
FFFCCC0A 0000001271 		      	pop  	r18
                        	IOFocusc_12:
                        	IOFocusc_20:
FFFCCC10 0000000B71 		      	pop  	r11
FFFCCC15 00000FFB30 		      	mov  	sp,bp
FFFCCC1A 0000003B71 		      	pop  	bp
FFFCCC20 0000003A71 		      	pop  	xlr
FFFCCC25 0000000AEF 		      	ret  	#10
                        	IOFocusc_9:
FFFCCC2A 0000ADFB86 		      	ldd  	lr,10[bp]
FFFCCC30 00014DFB93 		      	std  	lr,20[bp]
FFFCCC35 FFDBC00046 		      	bra  	IOFocusc_20
                        	_ForceIOFocusSTKSIZE_ EQU 0
FFFCCC3A 0000000053 	public code _SwitchIOFocus:
	      	tgt  
FFFCCC40 0000003A70 		      	push 	xlr
FFFCCC45 0000003B70 		      	push 	bp
FFFCCC4A CCD45E8009 		      	ld   	xlr,#IOFocusc_21
FFFCCC50 000000FFCF 
FFFCCC55 00000EFF30 		      	mov  	bp,sp
FFFCCC5A FFFECFFF04 		      	sub  	sp,sp,#_SwitchIOFocusSTKSIZE_
FFFCCC60 0000000B70 		      	push 	r11
FFFCCC65 0000000C70 		      	push 	r12
FFFCCC6A 0000000D70 		      	push 	r13
FFFCCC70 3081A34009 		      	ld   	r13,#_IOFocusNdx
FFFCCC75 00000001C2 
                        		      	;    	     JCB *j, *p;
                        		      	;    	     if (LockSemaphore(&iof_sema,-1)) {
FFFCCC7A 0000001270 		      	push 	r18
FFFCCC80 0000001370 		      	push 	r19
FFFCCC85 FFFFF4C009 		      	ld   	r19,#-1
FFFCCC8A 0142448009 		      	ld   	r18,#_iof_sema
FFFCCC90 C524000050 		      	call 	_LockSemaphore
FFFCCC95 000000FFCF 
FFFCCC9A 0000001371 		      	pop  	r19
FFFCCCA0 0000001271 		      	pop  	r18
FFFCCCA5 007B000146 		      	beq  	r1,r0,IOFocusc_24
                        		      	;    	         j = IOFocusNdx;
FFFCCCAA 0000030D86 		      	ldd  	r12,[r13]
                        		      	;    	         if (j) {
FFFCCCB0 0055000C46 		      	beq  	r12,r0,IOFocusc_26
                        		      	;    	             p = IOFocusNdx->iof_next;
FFFCCCB5 000000CD86 		      	ldd  	r3,[r13]
FFFCCCBA 000002C386 		      	ldd  	r11,[r3]
                        		      	;    	             if (p <> IOFocusNdx) {
FFFCCCC0 000000CD86 		      	ldd  	r3,[r13]
FFFCCCC5 004000CB46 		      	beq  	r11,r3,IOFocusc_28
                        		      	;    	                 if (p) {
FFFCCCCA 003B000B46 		      	beq  	r11,r0,IOFocusc_30
                        		      	;    	                     CopyScreenToVirtualScreen();
FFFCCCD0 CD2CA00050 		      	call 	_CopyScreenToVirtualScreen
FFFCCCD5 000000FFCF 
                        		      	;    	                     j->pVidMem = j->pVirtVidMem;
FFFCCCDA 0065E0CC86 		      	ldd  	r3,1630[r12]
FFFCCCE0 006540CC93 		      	std  	r3,1620[r12]
                        		      	;    	                     IOFocusNdx = p;
FFFCCCE5 000002CD93 		      	std  	r11,[r13]
                        		      	;    	                     p->pVidMem = 0xFFD00000;
FFFCCCEA 000000C009 		      	ld   	r3,#-3145728
FFFCCCF0 FFFFFFFFCD 
FFFCCCF5 006540CB93 		      	std  	r3,1620[r11]
                        		      	;    	                     CopyVirtualScreenToScreen();
FFFCCCFA CD1B500050 		      	call 	_CopyVirtualScreenToScreen
FFFCCD00 000000FFCF 
                        	IOFocusc_30:
                        	IOFocusc_28:
                        	IOFocusc_26:
                        		      	;    	        UnlockSemaphore(&iof_sema);
FFFCCD05 0000001270 		      	push 	r18
FFFCCD0A 0142448009 		      	ld   	r18,#_iof_sema
FFFCCD10 0000000053 		      	tgt  
                        		      	;    		asm {
                        		      	     	
FFFCCD15 0000001293 				std	r0,[r18]
                        		      	;    		}
                        	IOFocusc_35:
                        	IOFocusc_32:
                        	IOFocusc_34:
FFFCCD1A 0000001271 		      	pop  	r18
                        	IOFocusc_24:
                        	IOFocusc_36:
FFFCCD20 0000000D71 		      	pop  	r13
FFFCCD25 0000000C71 		      	pop  	r12
FFFCCD2A 0000000B71 		      	pop  	r11
FFFCCD30 00000FFB30 		      	mov  	sp,bp
FFFCCD35 0000003B71 		      	pop  	bp
FFFCCD3A 0000003A71 		      	pop  	xlr
FFFCCD40 0000000AEF 		      	ret  	#10
                        	IOFocusc_21:
FFFCCD45 0000ADFB86 		      	ldd  	lr,10[bp]
FFFCCD4A 00014DFB93 		      	std  	lr,20[bp]
FFFCCD50 FFD0C00046 		      	bra  	IOFocusc_36
                        	endpublic
                        	
                        	_SwitchIOFocusSTKSIZE_ EQU 20
                        	_RequestIOFocus:
FFFCCD55 0000000053 		      	tgt  
FFFCCD5A 0000003A70 		      	push 	xlr
FFFCCD60 0000003B70 		      	push 	bp
FFFCCD65 CCF85E8009 		      	ld   	xlr,#IOFocusc_37
FFFCCD6A 000000FFCF 
FFFCCD70 00000EFF30 		      	mov  	bp,sp
FFFCCD75 FFFE2FFF04 		      	sub  	sp,sp,#_RequestIOFocusSTKSIZE_
FFFCCD7A 0000000B70 		      	push 	r11
FFFCCD80 0000000C70 		      	push 	r12
FFFCCD85 3081A30009 		      	ld   	r12,#_IOFocusNdx
FFFCCD8A 00000001C2 
                        		      	;    	     int nj, nn;
                        		      	;    	     nj = j->number;
FFFCCD90 006C20CB86 		      	ldd  	r3,1730[r11]
FFFCCD95 FFFF60FB93 		      	std  	r3,-10[bp]
                        		      	;    		 nj = j - &jcbs[0];
FFFCCD9A FE00010B04 		      	sub  	r4,r11,#_jcbs
FFFCCDA0 FFFFFFFFC3 
FFFCCDA5 410032C402 		      	shru 	r3,r4,#11
FFFCCDAA FFFF60FB93 		      	std  	r3,-10[bp]
                        		      	;    		 if (nj < 0 || nj > 51-1)
FFFCCDB0 FFFF60FB86 		      	ldd  	r3,-10[bp]
FFFCCDB5 0010000358 		      	blt  	r3,#0,IOFocusc_42
FFFCCDBA FFFF60FB86 		      	ldd  	r3,-10[bp]
FFFCCDC0 00250C835A 		      	ble  	r3,#50,IOFocusc_40
                        	IOFocusc_42:
                        		      	;    			 return;
                        	IOFocusc_43:
FFFCCDC5 0000000C71 		      	pop  	r12
FFFCCDCA 0000000B71 		      	pop  	r11
FFFCCDD0 00000FFB30 		      	mov  	sp,bp
FFFCCDD5 0000003B71 		      	pop  	bp
FFFCCDDA 0000003A71 		      	pop  	xlr
FFFCCDE0 0000000AEF 		      	ret  	#10
                        	IOFocusc_40:
                        		      	;    	     if (LockSemaphore(&iof_sema,100000)) {
FFFCCDE5 0000001270 		      	push 	r18
FFFCCDEA 0000001370 		      	push 	r19
FFFCCDF0 186A04C009 		      	ld   	r19,#100000
FFFCCDF5 0142448009 		      	ld   	r18,#_iof_sema
FFFCCDFA C524000050 		      	call 	_LockSemaphore
FFFCCE00 000000FFCF 
FFFCCE05 0000001371 		      	pop  	r19
FFFCCE0A 0000001271 		      	pop  	r18
FFFCCE10 0170000146 		      	beq  	r1,r0,IOFocusc_44
                        		      	;    			 asm {
                        		      	     	
FFFCCE15 0010004009 				ldi	r1,#256
FFFCCE1A C060004094 				stt		r1,$FFDC0600
FFFCCE20 000000FFCD 
                        		      	;    			 }
                        		      	;    			nn = nj >> 5;	// 32 bits per table entry
FFFCCE25 FFFF613B86 		      	ldd  	r4,-10[bp]
FFFCCE2A 4300314402 		      	asr  	r3,r4,#5
FFFCCE30 FFFEC0FB93 		      	std  	r3,-20[bp]
                        		      	;    			nj &= 0x1f;		// max bit number
FFFCCE35 FFFF60FB86 		      	ldd  	r3,-10[bp]
FFFCCE3A 0001F0C308 		      	and  	r3,r3,#31
FFFCCE40 FFFF60FB93 		      	std  	r3,-10[bp]
                        		      	;    	        stat = (IOFocusTbl[nn] >> nj) & 1;
FFFCCE45 FFFEC1BB86 		      	ldd  	r6,-20[bp]
FFFCCE4A 0000A14611 		      	mulu 	r5,r6,#10
FFFCCE50 3082414586 		      	ldd  	r5,_IOFocusTbl[r5]
FFFCCE55 00000001C2 
FFFCCE5A FFFF61BB86 		      	ldd  	r6,-10[bp]
FFFCCE60 3300418502 		      	asr  	r4,r5,r6
	      	and  	r3,r4,#1
FFFCCE65 000010C408 
FFFCCE6A FFFE20FB93 		      	std  	r3,-30[bp]
                        		      	;    			 asm {
                        		      	     	
FFFCCE70 0010104009 				ldi	r1,#257
FFFCCE75 C060004094 				stt		r1,$FFDC0600
FFFCCE7A 000000FFCD 
                        		      	;    			 }
                        		      	;    	        if (!stat) {
FFFCCE80 FFFE20FB86 		      	ldd  	r3,-30[bp]
FFFCCE85 00D0000347 		      	bne  	r3,r0,IOFocusc_46
                        		      	;    			 asm {
                        		      	     	
FFFCCE8A 0010204009 				ldi	r1,#258
FFFCCE90 C060004094 				stt		r1,$FFDC0600
FFFCCE95 000000FFCD 
                        		      	;    			 }
                        		      	;    	           if (IOFocusNdx==null) {
FFFCCE9A 000000CC86 		      	ldd  	r3,[r12]
FFFCCEA0 001A000357 		      	bne  	r3,#0,IOFocusc_48
                        		      	;    	               IOFocusNdx = j;
FFFCCEA5 000002CC93 		      	std  	r11,[r12]
                        		      	;    	               j->iof_next = j;
FFFCCEAA 000002CB93 		      	std  	r11,[r11]
                        		      	;    	               j->iof_prev = j;
FFFCCEB0 0000A2CB93 		      	std  	r11,10[r11]
FFFCCEB5 004BC00046 		      	bra  	IOFocusc_49
                        	IOFocusc_48:
                        		      	;    			 asm {
                        		      	     	
FFFCCEBA 0010304009 				ldi	r1,#259
FFFCCEC0 C060004094 				stt		r1,$FFDC0600
FFFCCEC5 000000FFCD 
                        		      	;    			 }
                        		      	;    	               j->iof_prev = IOFocusNdx->iof_prev;
FFFCCECA 000000CC86 		      	ldd  	r3,[r12]
FFFCCED0 0000A10386 		      	ldd  	r4,10[r3]
FFFCCED5 0000A10B93 		      	std  	r4,10[r11]
                        		      	;    	               j->iof_next = IOFocusNdx;
FFFCCEDA 000000CC86 		      	ldd  	r3,[r12]
FFFCCEE0 000000CB93 		      	std  	r3,[r11]
                        		      	;    	               IOFocusNdx->iof_prev->iof_next = j;
FFFCCEE5 000000CC86 		      	ldd  	r3,[r12]
FFFCCEEA 0000A0C386 		      	ldd  	r3,10[r3]
FFFCCEF0 000002C393 		      	std  	r11,[r3]
                        		      	;    	               IOFocusNdx->iof_prev = j;
FFFCCEF5 000000CC86 		      	ldd  	r3,[r12]
FFFCCEFA 0000A2C393 		      	std  	r11,10[r3]
                        	IOFocusc_49:
                        		      	;    			 asm {
                        		      	     	
FFFCCF00 0010404009 				ldi	r1,#260
FFFCCF05 C060004094 				stt		r1,$FFDC0600
FFFCCF0A 000000FFCD 
                        		      	;    			 }
                        		      	;    	           IOFocusTbl[nn] |= (1 << nj);
FFFCCF10 FFFEC13B86 		      	ldd  	r4,-20[bp]
FFFCCF15 0000A0C411 		      	mulu 	r3,r4,#10
FFFCCF1A 0000114009 		      	ld   	r5,#1
FFFCCF20 FFFF61BB86 		      	ldd  	r6,-10[bp]
FFFCCF25 3000418502 		      	shl  	r4,r5,r6
	      	ldd  	r5,_IOFocusTbl[r3]
FFFCCF2A 3082414386 
FFFCCF30 00000001C2 
FFFCCF35 0900510502 		      	or   	r5,r5,r4
	      	std  	r5,_IOFocusTbl[r3]
FFFCCF3A 3082414393 
FFFCCF40 00000001C2 
                        		      	;    			 asm {
                        		      	     	
FFFCCF45 0010504009 				ldi	r1,#261
FFFCCF4A C060004094 				stt		r1,$FFDC0600
FFFCCF50 000000FFCD 
                        		      	;    			 }
                        	IOFocusc_46:
                        		      	;    			 asm {
                        		      	     	
FFFCCF55 0010604009 				ldi	r1,#262
FFFCCF5A C060004094 				stt		r1,$FFDC0600
FFFCCF60 000000FFCD 
                        		      	;    			 }
                        		      	;    	        UnlockSemaphore(&iof_sema);
FFFCCF65 0000001270 		      	push 	r18
FFFCCF6A 0142448009 		      	ld   	r18,#_iof_sema
FFFCCF70 0000000053 		      	tgt  
                        		      	;    		asm {
                        		      	     	
FFFCCF75 0000001293 				std	r0,[r18]
                        		      	;    		}
                        	IOFocusc_53:
                        	IOFocusc_50:
                        	IOFocusc_52:
FFFCCF7A 0000001271 		      	pop  	r18
                        	IOFocusc_44:
FFFCCF80 FE45C00046 		      	bra  	IOFocusc_43
                        	IOFocusc_37:
FFFCCF85 0000ADFB86 		      	ldd  	lr,10[bp]
FFFCCF8A 00014DFB93 		      	std  	lr,20[bp]
FFFCCF90 FE35C00046 		      	bra  	IOFocusc_43
                        	_RequestIOFocusSTKSIZE_ EQU 30
FFFCCF95 0000000053 	public code _ReleaseIOFocus:
	      	tgt  
FFFCCF9A 0000003A70 		      	push 	xlr
FFFCCFA0 0000003B70 		      	push 	bp
FFFCCFA5 CCFF0E8009 		      	ld   	xlr,#IOFocusc_54
FFFCCFAA 000000FFCF 
FFFCCFB0 00000EFF30 		      	mov  	bp,sp
FFFCCFB5 00000FFF04 		      	sub  	sp,sp,#_ReleaseIOFocusSTKSIZE_
                        		      	;    	     ForceReleaseIOFocus(GetJCBPtr());
FFFCCFBA C72F000050 		      	call 	_GetJCBPtr
FFFCCFC0 000000FFCF 
FFFCCFC5 0000000170 		      	push 	r1
FFFCCFCA CD00000050 		      	call 	_ForceReleaseIOFocus
FFFCCFD0 000000FFCF 
FFFCCFD5 0000AFFF04 		      	add  	sp,sp,#10
                        	IOFocusc_57:
FFFCCFDA 00000FFB30 		      	mov  	sp,bp
FFFCCFE0 0000003B71 		      	pop  	bp
FFFCCFE5 0000003A71 		      	pop  	xlr
FFFCCFEA 0000000AEF 		      	ret  	#10
                        	IOFocusc_54:
FFFCCFF0 0000ADFB86 		      	ldd  	lr,10[bp]
FFFCCFF5 00014DFB93 		      	std  	lr,20[bp]
FFFCCFFA FFE0C00046 		      	bra  	IOFocusc_57
                        	endpublic
                        	
                        	_ReleaseIOFocusSTKSIZE_ EQU 0
                        	_ForceReleaseIOFocus:
FFFCD000 0000000053 		      	tgt  
FFFCD005 0000003A70 		      	push 	xlr
FFFCD00A 0000003B70 		      	push 	bp
FFFCD010 CD1A5E8009 		      	ld   	xlr,#IOFocusc_58
FFFCD015 000000FFCF 
FFFCD01A 00000EFF30 		      	mov  	bp,sp
FFFCD020 FFFE2FFF04 		      	sub  	sp,sp,#_ForceReleaseIOFocusSTKSIZE_
FFFCD025 0000000B70 		      	push 	r11
FFFCD02A 0000000C70 		      	push 	r12
                        		      	;    	     JCB *p;
                        		      	;    	     if (LockSemaphore(&iof_sema,-1)) {
FFFCD030 0000001270 		      	push 	r18
FFFCD035 0000001370 		      	push 	r19
FFFCD03A FFFFF4C009 		      	ld   	r19,#-1
FFFCD040 0142448009 		      	ld   	r18,#_iof_sema
FFFCD045 C524000050 		      	call 	_LockSemaphore
FFFCD04A 000000FFCF 
FFFCD050 0000001371 		      	pop  	r19
FFFCD055 0000001271 		      	pop  	r18
FFFCD05A 012B000146 		      	beq  	r1,r0,IOFocusc_61
                        		      	;    			 nj = j - &jcbs[0];
FFFCD060 FE00010B04 		      	sub  	r4,r11,#_jcbs
FFFCD065 FFFFFFFFC3 
FFFCD06A 410032C402 		      	shru 	r3,r4,#11
FFFCD070 FFFEC0FB93 		      	std  	r3,-20[bp]
                        		      	;    			 nn = nj >> 5;
FFFCD075 FFFEC13B86 		      	ldd  	r4,-20[bp]
FFFCD07A 4300314402 		      	asr  	r3,r4,#5
FFFCD080 FFFE20FB93 		      	std  	r3,-30[bp]
                        		      	;    			 nj &= 0x1f;
FFFCD085 FFFEC0FB86 		      	ldd  	r3,-20[bp]
FFFCD08A 0001F0C308 		      	and  	r3,r3,#31
FFFCD090 FFFEC0FB93 		      	std  	r3,-20[bp]
                        		      	;    	         if (IOFocusTbl[nn] & (1 << nj)) {
FFFCD095 FFFE217B86 		      	ldd  	r5,-30[bp]
FFFCD09A 0000A10511 		      	mulu 	r4,r5,#10
FFFCD0A0 3082410486 		      	ldd  	r4,_IOFocusTbl[r4]
FFFCD0A5 00000001C2 
FFFCD0AA 0000118009 		      	ld   	r6,#1
FFFCD0B0 FFFEC1FB86 		      	ldd  	r7,-20[bp]
FFFCD0B5 300051C602 		      	shl  	r5,r6,r7
	      	and  	r3,r4,r5
	      	beq  	r3,r0,IOFocusc_63
FFFCD0BA 0800314402 
FFFCD0C0 00AA000346 
                        		      	;    	             IOFocusTbl[nn] &= ~(1 << nj);
FFFCD0C5 FFFE213B86 		      	ldd  	r4,-30[bp]
FFFCD0CA 0000A0C411 		      	mulu 	r3,r4,#10
FFFCD0D0 0000118009 		      	ld   	r6,#1
FFFCD0D5 FFFEC1FB86 		      	ldd  	r7,-20[bp]
FFFCD0DA 300051C602 		      	shl  	r5,r6,r7
	      	com  	r4,r5
FFFCD0E0 FFFFF1050A 
FFFCD0E5 3082414386 		      	ldd  	r5,_IOFocusTbl[r3]
FFFCD0EA 00000001C2 
FFFCD0F0 0800510502 		      	and  	r5,r5,r4
	      	std  	r5,_IOFocusTbl[r3]
FFFCD0F5 3082414393 
FFFCD0FA 00000001C2 
                        		      	;    	             if (j == IOFocusNdx)
FFFCD100 3081A0C086 		      	ldd  	r3,_IOFocusNdx
FFFCD105 00000001C2 
FFFCD10A 001000CB47 		      	bne  	r11,r3,IOFocusc_65
                        		      	;    	                SwitchIOFocus();
FFFCD110 CCC3A00050 		      	call 	_SwitchIOFocus
FFFCD115 000000FFCF 
                        	IOFocusc_65:
                        		      	;    	             p = j->iof_next;
FFFCD11A 0000030B86 		      	ldd  	r12,[r11]
                        		      	;    	             if (p) {
FFFCD120 004A000C46 		      	beq  	r12,r0,IOFocusc_67
                        		      	;    	                  if (p <> j) {
FFFCD125 002002CC46 		      	beq  	r12,r11,IOFocusc_69
                        		      	;    	                        p->iof_prev = j->iof_prev;
FFFCD12A 0000A0CB86 		      	ldd  	r3,10[r11]
FFFCD130 0000A0CC93 		      	std  	r3,10[r12]
                        		      	;    	                        j->iof_prev->iof_next = p;
FFFCD135 0000A0CB86 		      	ldd  	r3,10[r11]
FFFCD13A 0000030393 		      	std  	r12,[r3]
FFFCD140 0015C00046 		      	bra  	IOFocusc_70
                        	IOFocusc_69:
                        		      	;    	                       IOFocusNdx = null;
FFFCD145 000000C030 		      	mov  	r3,r0
FFFCD14A 3081A0C093 		      	std  	r3,_IOFocusNdx
FFFCD150 00000001C2 
                        	IOFocusc_70:
                        		      	;    	                  j->iof_next = null;
FFFCD155 000000C030 		      	mov  	r3,r0
FFFCD15A 000000CB93 		      	std  	r3,[r11]
                        		      	;    	                  j->iof_prev = null;
FFFCD160 000000C030 		      	mov  	r3,r0
FFFCD165 0000A0CB93 		      	std  	r3,10[r11]
                        	IOFocusc_67:
                        	IOFocusc_63:
                        		      	;    	        UnlockSemaphore(&iof_sema);
FFFCD16A 0000001270 		      	push 	r18
FFFCD170 0142448009 		      	ld   	r18,#_iof_sema
FFFCD175 0000000053 		      	tgt  
                        		      	;    		asm {
                        		      	     	
FFFCD17A 0000001293 				std	r0,[r18]
                        		      	;    		}
                        	IOFocusc_74:
                        	IOFocusc_71:
                        	IOFocusc_73:
FFFCD180 0000001271 		      	pop  	r18
                        	IOFocusc_61:
                        	IOFocusc_75:
FFFCD185 0000000C71 		      	pop  	r12
FFFCD18A 0000000B71 		      	pop  	r11
FFFCD190 00000FFB30 		      	mov  	sp,bp
FFFCD195 0000003B71 		      	pop  	bp
FFFCD19A 0000003A71 		      	pop  	xlr
FFFCD1A0 0000000AEF 		      	ret  	#10
                        	IOFocusc_58:
FFFCD1A5 0000ADFB86 		      	ldd  	lr,10[bp]
FFFCD1AA 00014DFB93 		      	std  	lr,20[bp]
FFFCD1B0 FFD5C00046 		      	bra  	IOFocusc_75
                        	_ForceReleaseIOFocusSTKSIZE_ EQU 30
FFFCD1B5 0000000053 	public code _CopyVirtualScreenToScreen:
	      	tgt  
FFFCD1BA 0000003A70 		      	push 	xlr
FFFCD1C0 0000003B70 		      	push 	bp
FFFCD1C5 CD2BAE8009 		      	ld   	xlr,#IOFocusc_76
FFFCD1CA 000000FFCF 
FFFCD1D0 00000EFF30 		      	mov  	bp,sp
FFFCD1D5 FFFCEFFF04 		      	sub  	sp,sp,#_CopyVirtualScreenToScreenSTKSIZE_
FFFCD1DA 0000000B70 		      	push 	r11
FFFCD1E0 0000000C70 		      	push 	r12
FFFCD1E5 0000000D70 		      	push 	r13
                        		      	;    	     int *p, *q;
                        		      	;    	     j = IOFocusNdx;
FFFCD1EA 3081A2C086 		      	ldd  	r11,_IOFocusNdx
FFFCD1F0 00000001C2 
                        		      	;    	     p = j->pVidMem;
FFFCD1F5 0065434B86 		      	ldd  	r13,1620[r11]
                        		      	;    	     q = j->pVirtVidMem;
FFFCD1FA 0065E30B86 		      	ldd  	r12,1630[r11]
                        		      	;    	     nn = j->VideoRows * j->VideoCols;
FFFCD200 0066810B82 		      	ldw  	r4,1640[r11]
FFFCD205 0066A14B82 		      	ldw  	r5,1642[r11]
FFFCD20A 1100314402 		      	mulu 	r3,r4,r5
	      	std  	r3,-40[bp]
FFFCD210 FFFD80FB93 
                        		      	;    	     for (; nn >= 0; nn--)
                        	IOFocusc_79:
FFFCD215 FFFD80FB86 		      	ldd  	r3,-40[bp]
FFFCD21A 003B000358 		      	blt  	r3,#0,IOFocusc_80
                        		      	;    	         p[nn] = q[nn];
FFFCD220 FFFD813B86 		      	ldd  	r4,-40[bp]
FFFCD225 0000A0C411 		      	mulu 	r3,r4,#10
FFFCD22A FFFD817B86 		      	ldd  	r5,-40[bp]
FFFCD230 0000A10511 		      	mulu 	r4,r5,#10
FFFCD235 0000510CA6 		      	ldd  	r5,[r12+r4]
FFFCD23A 000050CDB3 		      	std  	r5,[r13+r3]
                        	IOFocusc_81:
FFFCD240 FFFD80FB86 		      	ldd  	r3,-40[bp]
FFFCD245 FFFFF0C304 		      	sub  	r3,r3,#1
FFFCD24A FFFD80FB93 		      	std  	r3,-40[bp]
FFFCD250 FFC5C00046 		      	bra  	IOFocusc_79
                        	IOFocusc_80:
                        		      	;    	    pos = j->CursorRow * j->VideoCols + j->CursorCol;
FFFCD255 0066C14B82 		      	ldw  	r5,1644[r11]
FFFCD25A 0066A18B82 		      	ldw  	r6,1642[r11]
FFFCD260 1100418502 		      	mulu 	r4,r5,r6
	      	ldw  	r5,1646[r11]
FFFCD265 0066E14B82 
FFFCD26A 0400314402 		      	add  	r3,r4,r5
	      	std  	r3,-50[bp]
FFFCD270 FFFCE0FB93 
                        		      	;    	    SetVideoReg(11,pos);
FFFCD275 FFFCE0FB86 		      	ldd  	r3,-50[bp]
FFFCD27A 0000000370 		      	push 	r3
FFFCD280 0000B0009C 		      	push 	#11
FFFCD285 C542000050 		      	call 	_SetVideoReg
FFFCD28A 000000FFCF 
FFFCD290 00014FFF04 		      	add  	sp,sp,#20
                        	IOFocusc_82:
FFFCD295 0000000D71 		      	pop  	r13
FFFCD29A 0000000C71 		      	pop  	r12
FFFCD2A0 0000000B71 		      	pop  	r11
FFFCD2A5 00000FFB30 		      	mov  	sp,bp
FFFCD2AA 0000003B71 		      	pop  	bp
FFFCD2B0 0000003A71 		      	pop  	xlr
FFFCD2B5 0000000AEF 		      	ret  	#10
                        	IOFocusc_76:
FFFCD2BA 0000ADFB86 		      	ldd  	lr,10[bp]
FFFCD2C0 00014DFB93 		      	std  	lr,20[bp]
FFFCD2C5 FFD0C00046 		      	bra  	IOFocusc_82
                        	endpublic
                        	
                        	_CopyVirtualScreenToScreenSTKSIZE_ EQU 50
FFFCD2CA 0000000053 	public code _CopyScreenToVirtualScreen:
	      	tgt  
FFFCD2D0 0000003A70 		      	push 	xlr
FFFCD2D5 0000003B70 		      	push 	bp
FFFCD2DA CD390E8009 		      	ld   	xlr,#IOFocusc_83
FFFCD2E0 000000FFCF 
FFFCD2E5 00000EFF30 		      	mov  	bp,sp
FFFCD2EA FFFD8FFF04 		      	sub  	sp,sp,#_CopyScreenToVirtualScreenSTKSIZE_
FFFCD2F0 0000000B70 		      	push 	r11
FFFCD2F5 0000000C70 		      	push 	r12
FFFCD2FA 0000000D70 		      	push 	r13
                        		      	;    	     int *p, *q;
                        		      	;    	     j = IOFocusNdx;
FFFCD300 3081A2C086 		      	ldd  	r11,_IOFocusNdx
FFFCD305 00000001C2 
                        		      	;    	     p = j->pVidMem;
FFFCD30A 0065434B86 		      	ldd  	r13,1620[r11]
                        		      	;    	     q = j->pVirtVidMem;
FFFCD310 0065E30B86 		      	ldd  	r12,1630[r11]
                        		      	;    	     nn = j->VideoRows * j->VideoCols;
FFFCD315 0066810B82 		      	ldw  	r4,1640[r11]
FFFCD31A 0066A14B82 		      	ldw  	r5,1642[r11]
FFFCD320 1100314402 		      	mulu 	r3,r4,r5
	      	std  	r3,-40[bp]
FFFCD325 FFFD80FB93 
                        		      	;    	     for (; nn >= 0; nn--)
                        	IOFocusc_86:
FFFCD32A FFFD80FB86 		      	ldd  	r3,-40[bp]
FFFCD330 003A000358 		      	blt  	r3,#0,IOFocusc_87
                        		      	;    	         q[nn] = p[nn];
FFFCD335 FFFD813B86 		      	ldd  	r4,-40[bp]
FFFCD33A 0000A0C411 		      	mulu 	r3,r4,#10
FFFCD340 FFFD817B86 		      	ldd  	r5,-40[bp]
FFFCD345 0000A10511 		      	mulu 	r4,r5,#10
FFFCD34A 0000510DA6 		      	ldd  	r5,[r13+r4]
FFFCD350 000050CCB3 		      	std  	r5,[r12+r3]
                        	IOFocusc_88:
FFFCD355 FFFD80FB86 		      	ldd  	r3,-40[bp]
FFFCD35A FFFFF0C304 		      	sub  	r3,r3,#1
FFFCD360 FFFD80FB93 		      	std  	r3,-40[bp]
FFFCD365 FFC5C00046 		      	bra  	IOFocusc_86
                        	IOFocusc_87:
                        	IOFocusc_89:
FFFCD36A 0000000D71 		      	pop  	r13
FFFCD370 0000000C71 		      	pop  	r12
FFFCD375 0000000B71 		      	pop  	r11
FFFCD37A 00000FFB30 		      	mov  	sp,bp
FFFCD380 0000003B71 		      	pop  	bp
FFFCD385 0000003A71 		      	pop  	xlr
FFFCD38A 0000000AEF 		      	ret  	#10
                        	IOFocusc_83:
FFFCD390 0000ADFB86 		      	ldd  	lr,10[bp]
FFFCD395 00014DFB93 		      	std  	lr,20[bp]
FFFCD39A FFD0C00046 		      	bra  	IOFocusc_89
                        	endpublic
                        	
                        	_CopyScreenToVirtualScreenSTKSIZE_ EQU 40
                        	    code
                        	    align   2                        	
                        	VideoBIOS_FuncTable:
FFFCD3A0       0000       	    dw      0            ; 0x00
FFFCD3A2       0000       	    dw      0
FFFCD3A4       D4B5       	    dw      VBSetCursorPos ; 0x02
FFFCD3A6       D4EA       	    dw      VBGetCursorPos ; 0x03
FFFCD3A8       0000       	    dw      0
FFFCD3AA       0000       	    dw      0
FFFCD3AC       5FC5       	    dw      _VBScrollUp    ; 0x06
FFFCD3AE       0000       	    dw      0
FFFCD3B0       0000       	    dw      0
FFFCD3B2       D450       	    dw      DispCharAttr ; 0x09
FFFCD3B4       0000       	    dw      0
FFFCD3B6       062D       	    dw      SetBkColor   ; 0x0B
FFFCD3B8       062E       	    dw      SetPixel     ; 0x0C
FFFCD3BA       062F       	    dw      GetPixel     ; 0x0D
FFFCD3BC       D4FA       	    dw      VBDisplayChar  ; 0x0E
FFFCD3BE       0000       	    dw      0
FFFCD3C0       0000       	    dw      0
FFFCD3C2       0000       	    dw      0
FFFCD3C4       0000       	    dw      0
FFFCD3C6       0000       	    dw      0
FFFCD3C8       0631       	    dw      VBDisplayString  ; 0x14
FFFCD3CA       D6A0       	    dw      PRTNUM         ; 0x15
FFFCD3CC       0633       	    dw      DisplayStringCRLF_    ; 0x16
FFFCD3CE       0634       	    dw      DisplayWord    ; 0x17
FFFCD3D0       0635       	    dw      DisplayHalf    ; 0x18
FFFCD3D2       0636       	    dw      DisplayCharHex ; 0x19
FFFCD3D4       0637       	    dw      DisplayByte    ; 0x1A
FFFCD3D6       0638       	    dw      VBDisplayString16  ; 0x1B
FFFCD3D8       0000       	    dw      0
FFFCD3DA       0000       	    dw      0
FFFCD3DC       0000       	    dw      0
FFFCD3DE       0000       	    dw      0
FFFCD3E0       D520       	    dw      VBAsciiToScreen    ; 0x20
FFFCD3E2       D7A0       	    dw      VBScreenToAscii    ; 0x21
FFFCD3E4       D545       	    dw      VBSetCurrAttr      ; 0x22
FFFCD3E6       D56A       	    dw      VBGetCurrAttr      ; 0x23
                        	    
                        	    
                        	                    
FFFCD3E8 0000000000 	    align   1
FFFCD3ED     000000     
                        	
                        	
                        	;------------------------------------------------------------------------------
                        	;------------------------------------------------------------------------------
                        	
                        	VideoBIOSCall:
FFFCD3F0 324E08C65F 	    bgtu    r6,#MAX_VIDEO_BIOS_CALL,.0003
FFFCD3F5 6FC92FC009 	    ldi     sp,#_VideoStack+0x7E
FFFCD3FA 00000001C3 
FFFCD400 0000000B70 		push	r11
                        		lwu		r11,VideoBIOS_FuncTable[r6]
FFFCD405 323E000B46 		beq		r11,r0,.0005
FFFCD40A 0000000C70 		push	r12
                        	.0001:
FFFCD410 4003010C0F 		csrrs	r12,#12,#4			; Lock video semaphore
FFFCD415 FFFB000C47 		bne		r12,r0,.0001
FFFCD41A 0000000C71 		pop		r12
FFFCD420 C000000B50 	    call    (VideoBIOSCall & 0xFFFF0000)[r11]
FFFCD425 000000FFCF 
FFFCD42A 0000000B71 		pop		r11
FFFCD430 00000000E4 	    iret	#2
                        	.0003:
FFFCD435 FFFFFFFF30 		mov		r1,#E_BadFuncno
FFFCD43A 00000000E4 	    iret
                        	.0005:
FFFCD440 0000000B71 		pop		r11
FFFCD445 FFFFFFFF30 		mov		r1,#E_Unsupported
FFFCD44A 00000000E4 	    iret
                        	
                        	;------------------------------------------------------------------------------
                        	; Display a character with a specific attribute.
                        	;------------------------------------------------------------------------------
                        	
                        	DispCharAttr:
FFFCD450 0000000053 		tgt
FFFCD455 0000000370 	    push    r3
FFFCD45A 0000000470 	    push    r4
FFFCD460 0000000570 	    push    r5
FFFCD465 0000010130 	    mov     r4,r1
FFFCD46A C72F000050 	    call    _GetJCBPtr
FFFCD470 000000FFCF 
FFFCD475 0000014130 	    mov     r5,r1
FFFCD47A CD4A00C520 	    lh      r3,JCB_NormAttr[r5]
FFFCD480 000000FFCF 
FFFCD485 0000000370 	    push    r3
                        	    sh      r2,JCB_NormAttr[r5]
FFFCD48A 0000004430 	    mov     r1,r4
FFFCD490 0064B00050 	    call    OutChar
FFFCD495 00000000C0 
FFFCD49A 0000000371 	    pop     r3
                        	    sh      r3,JCB_NormAttr[r5]    ; restore normal attribute
FFFCD4A0 0000000571 	    pop     r5
FFFCD4A5 0000000471 	    pop     r4
FFFCD4AA 0000000371 	    pop     r3
FFFCD4B0 0000000AEF 	    ret

                        	VBSetCursorPos:
FFFCD4B5 0000000053 		tgt
FFFCD4BA 0000001270 	    push    r18
FFFCD4C0 0000001370 	    push    r19
FFFCD4C5 0000048130 		mov		r18,r1
FFFCD4CA 000004C230 		mov		r19,r2
FFFCD4D0 C54F500050 	    call    _SetCursorPos
FFFCD4D5 000000FFCF 
FFFCD4DA 0000001371 		pop		r19
FFFCD4E0 0000001271 		pop		r18
FFFCD4E5 0000000AEF 	    ret

                        	VBGetCursorPos:
FFFCD4EA 0000000053 		tgt
FFFCD4F0 C55F500040 	    jmp   _GetCursorPos

FFFCD4F5 000000FFCF 
                        	VBDisplayChar:
FFFCD4FA 0000000053 		tgt
FFFCD500 0000001270 	    push    r18
FFFCD505 0000048130 		mov		r18,r1
FFFCD50A C6A9500050 	    call    _DBGDisplayChar
FFFCD510 000000FFCF 
FFFCD515 0000001271 		pop		r18
FFFCD51A 0000000AEF 	    ret

                        	VBAsciiToScreen:
FFFCD520 0000000053 		tgt
FFFCD525 0000001270 		push	r18
FFFCD52A 0000048130 		mov		r18,r1
FFFCD530 C572500050 	    call    _AsciiToScreen
FFFCD535 000000FFCF 
FFFCD53A 0000001271 		pop		r18
FFFCD540 0000000AEF 	    ret

                        	VBSetCurrAttr:
FFFCD545 0000000053 		tgt
FFFCD54A 0000001270 	    push    r18
FFFCD550 0000048130 		mov		r18,r1
FFFCD555 C53C000050 	    call    _SetCurrAttr
FFFCD55A 000000FFCF 
FFFCD560 0000001271 		pop		r18
FFFCD565 0000000AEF 	    ret

                        	VBGetCurrAttr:
FFFCD56A 0000000053 		tgt
FFFCD570 7DF5C00046 	    bra     _GetCurrAttr
                        	
                        	;------------------------------------------------------------------------------
                        	; Display the word in r1
                        	;------------------------------------------------------------------------------
                        	
                        	_DisplayTetra:
FFFCD575 0000000053 		tgt
FFFCD57A 4400140102 		rol	    r1,r1,#16
FFFCD580 CD5A000050 		call	_DisplayWyde
FFFCD585 000000FFCF 
FFFCD58A 4400140102 		rol	    r1,r1,#16
FFFCD590 CD5A000050 		call	_DisplayWyde
FFFCD595 000000FFCF 
FFFCD59A 0000000AEF 		ret

                        	;------------------------------------------------------------------------------
                        	; Display the char in r1
                        	;------------------------------------------------------------------------------
                        	
                        	_DisplayWyde:
FFFCD5A0 0000000053 		tgt
FFFCD5A5 4500120102 		ror		r1,r1,#8
FFFCD5AA CD5CA00050 		call	_DisplayByte
FFFCD5B0 000000FFCF 
FFFCD5B5 4400120102 		rol		r1,r1,#8
FFFCD5BA CD5CA00050 		call	_DisplayByte
FFFCD5C0 000000FFCF 
FFFCD5C5 0000000AEF 		ret

                        	;------------------------------------------------------------------------------
                        	; Display the byte in r1
                        	;------------------------------------------------------------------------------
                        	
                        	_DisplayByte:
FFFCD5CA 0000000053 		tgt
FFFCD5D0 4500110102 		ror		r1,r1,#4
FFFCD5D5 CD5F500050 		call	_DisplayNybble
FFFCD5DA 000000FFCF 
FFFCD5E0 4400110102 		rol		r1,r1,#4
FFFCD5E5 CD5F500050 		call	_DisplayNybble
FFFCD5EA 000000FFCF 
FFFCD5F0 0000000AEF 		ret
 
                        	;------------------------------------------------------------------------------
                        	; Display nybble in r1
                        	;------------------------------------------------------------------------------
                        	
                        	_DisplayNybble:
FFFCD5F5 0000000053 		tgt
FFFCD5FA 0000000170 		push	r1
FFFCD600 0000000270 		push    r2
FFFCD605 0000F04108 		and		r1,r1,#$0F
FFFCD60A 0003004104 		addi	r1,r1,#'0'
FFFCD610 000A0E415E 		bleu	r1,#'9',.0001
FFFCD615 0000704104 		addi	r1,r1,#7
                        	.0001:
FFFCD61A CD4FA00050 		call	VBDisplayChar
FFFCD620 000000FFCF 
FFFCD625 0000000271 		pop     r2
FFFCD62A 0000000171 		pop		r1
FFFCD630 0000000AEF 		ret

                        	;------------------------------------------------------------------------------
                        	; Display a string pointer to string in r1 using 16 bit characters.
                        	;------------------------------------------------------------------------------
                        	
                        	DisplayString16:
FFFCD635 0000000053 		tgt
FFFCD63A 0000000170 		push	r1
FFFCD640 0000000270 		push    r2
FFFCD645 0003708009 		ldi     r2,#55
                        		sh      r2,LEDS
FFFCD64A 0000008130 		mov		r2,r1
                        	.dm2:
                        		lwu		r1,[r2]
FFFCD650 0000208204 		add		r2,r2,#2	; increment text pointer
FFFCD655 2FFF000146 		beq		r1,r0,.dm1
FFFCD65A 000FF04108 		and     r1,r1,#$FF
FFFCD660 CD4FA00050 		call	VBDisplayChar
FFFCD665 000000FFCF 
FFFCD66A 0003804009 		ldi     r1,#56
                        		sh      r1,LEDS
FFFCD670 FFE0C00046 		bra		.dm2
                        	.dm1:
FFFCD675 0000000271 		pop		r2
FFFCD67A 0000000171 	    pop     r1
FFFCD680 0000000AEF 		ret

                        	DispCharQ:
FFFCD685 0000000053 		tgt
FFFCD68A C572500050 		call	_AsciiToScreen
FFFCD690 000000FFCF 
                        		sh		r1,[r3]
FFFCD695 000010C304 		add		r3,r3,#1
FFFCD69A 0000000AEF 	    ret

                        	;------------------------------------------------------------------------------
                        	; 'PRTNUM' prints the 32 bit number in r1, leading blanks are added if
                        	; needed to pad the number of spaces to the number in r2.
                        	; However, if the number of digits is larger than the no. in
                        	; r2, all digits are printed anyway. Negative sign is also
                        	; printed and counted in, positive sign is not.
                        	;
                        	; r1 = number to print
                        	; r2 = number of digits
                        	; Register Usage
                        	;	r5 = number of padding spaces
                        	;------------------------------------------------------------------------------
                        	PRTNUM:
FFFCD6A0 0000000053 		tgt
FFFCD6A5 0000000370 		push	r3
FFFCD6AA 0000000570 		push	r5
FFFCD6B0 0000000670 		push	r6
FFFCD6B5 0000000770 		push	r7
FFFCD6BA 008421C009 		ldi		r7,#NUMWKA	; r7 = pointer to numeric work area
FFFCD6C0 00000000CC 
FFFCD6C5 0000018130 		mov		r6,r1		; save number for later
FFFCD6CA 0000014230 		mov		r5,r2		; r5 = min number of chars
FFFCD6D0 0010000149 		bge		r1,r0,PN2	; is it negative? if not
FFFCD6D5 0700104002 		sub	    r1,r0,r1	; else make it positive
	subi    r5,r5,#1	; one less for width count
FFFCD6DA FFFFF14504 
                        	PN2:
                        	;	ldi		r3,#10
                        	PN1:
FFFCD6E0 0000A0811B 		mod		r2,r1,#10	; r2 = r1 mod 10
FFFCD6E5 0000A04118 		div		r1,r1,#10	; r1 /= 10 divide by 10
FFFCD6EA 0003008204 		add		r2,r2,#'0'	; convert remainder to ascii
                        		sh		r2,[r7]		; and store in buffer
FFFCD6F0 000011C704 		addi    r7,r7,#1
FFFCD6F5 FFFFF14504 		subi    r5,r5,#1	; decrement width
FFFCD6FA FFE6000147 		bne		r1,r0,PN1
                        	PN6:
FFFCD700 003A00054A 		ble		r5,r0,PN4		; test pad count, skip padding if not needed
                        	PN3:
FFFCD705 0000000570 		push	r5
FFFCD70A 0000000670 		push	r6
FFFCD710 0000000770 		push	r7
FFFCD715 0065E00050 		call    DisplaySpace	; display the required leading spaces
FFFCD71A 00000000C0 
FFFCD720 0000000771 		pop		r7
FFFCD725 0000000671 		pop		r6
FFFCD72A 0000000571 		pop		r5
FFFCD730 FFFFF14504 		subi    r5,r5,#1
FFFCD735 FFD0000547 		bne		r5,r0,PN3
                        	PN4:
FFFCD73A 0020000649 		bge		r6,r0,PN5		; is number negative?
FFFCD740 0002D04009 		ldi		r1,#'-'			; if so, display the sign
FFFCD745 0000000770 		push    r7
FFFCD74A 32F0103F50 		call	OutChar[pc]
FFFCD750 FFFFFF00C0 
FFFCD755 0000000771 		pop     r7
                        	PN5:
FFFCD75A FFFFF1C704 	    subi    r7,r7,#1
FFFCD760 0000004720 		lh		r1,[r7]		; now unstack the digits and display
FFFCD765 0000000770 		push    r7
FFFCD76A 32EE103F50 		call	OutChar[pc]
FFFCD770 FFFFFF00C0 
FFFCD775 0000000771 		pop     r7
FFFCD77A FFE010875B 		bgt		r7,#NUMWKA,PN5
FFFCD780 00000C00C8 
                        	PNRET:
FFFCD785 0000000771 		pop		r7
FFFCD78A 0000000671 		pop		r6
FFFCD790 0000000571 		pop		r5
FFFCD795 0000000371 		pop		r3
FFFCD79A 0000000AEF 		ret

                        	;------------------------------------------------------------------------------
                        	; Returns:
                        	; r1 = pointer to screen from JCB. This may be either the real screen or
                        	;      the virtual screen buffer.
                        	;------------------------------------------------------------------------------
                        	
                        	
                        	
                        	;------------------------------------------------------------------------------
                        	; Display a character on-screen.
                        	;------------------------------------------------------------------------------
                        	
                        	;------------------------------------------------------------------------------
                        	; Convert screen display character to ascii.
                        	;------------------------------------------------------------------------------
                        	
                        	VBScreenToAscii:
FFFCD7A0 0000000053 		tgt
FFFCD7A5 0000001270 		push	r18
FFFCD7AA 0000048130 		mov		r18,r1
FFFCD7B0 C57D000050 	    call    _ScreenToAscii
FFFCD7B5 000000FFCF 
FFFCD7BA 0000001271 		pop		r18
FFFCD7C0 0000000AEF 		ret

                        	CursorOff:
FFFCD7C5 0000000053 		tgt
FFFCD7CA 0000000AEF 		ret
CursorOn:
FFFCD7D0 0000000053 		tgt
FFFCD7D5 0000000AEF 		ret

                        	;------------------------------------------------------------------------------
                        	;------------------------------------------------------------------------------
                        	
                        	VBScrollUp:
                        	    ; Compiler temporaries have to be saved. These are regs 3-11 which the
                        	    ; compiled code might use.
FFFCD7DA 0000000053 		tgt
FFFCD7E0 0000000170 		push	r1
FFFCD7E5 0000000270 	    push    r2
FFFCD7EA 0000000370 	    push    r3
FFFCD7F0 0000000470 	    push    r4          ; r4 is used by BlankLine
FFFCD7F5 0000000570 	    push    r5
FFFCD7FA 0000000670 		push	r6
FFFCD800 0000000770 		push    r7
FFFCD805 C56CA00050 		call    _GetTextRows
FFFCD80A 000000FFCF 
FFFCD810 0000008130 		mov     r2,r1
FFFCD815 C567000050 		call    _GetTextCols
FFFCD81A 000000FFCF 
FFFCD820 4000704102 		shl     r7,r1,#1
FFFCD825 FFFFF08204 		subi	r2,r2,#1
FFFCD82A 1100608102 		mulu	r6,r1,r2
	push    r6
FFFCD830 0000000670 
FFFCD835 0000000770 		push    r7
FFFCD83A C531000050 		call    _GetScreenLocation
FFFCD840 000000FFCF 
FFFCD845 0000000771 		pop     r7
FFFCD84A 0000000671 		pop     r6
FFFCD850 040021C102 		add     r2,r1,r7
	ld		r3,#0
FFFCD855 000000C009 
                        	.0001:
FFFCD85A 000050C240 		lh	    r5,[r2+r3]
                        		sh	    r5,[r1+r3]
FFFCD860 000020C304 		add		r3,r3,#2
FFFCD865 FFFFF18604 		sub		r6,r6,#1
FFFCD86A 2DFC000647 		bne	    r6,r0,.0001
FFFCD870 C56CA00050 		call    _GetTextRows
FFFCD875 000000FFCF 
FFFCD87A FFFFF04104 		sub		r1,r1,#1
FFFCD880 0000000170 		push    r1
FFFCD885 C5DD500050 		call	_BlankLine
FFFCD88A 000000FFCF 
FFFCD890 00002FFF04 		add		sp,sp,#2
FFFCD895 0000000771 		pop     r7
FFFCD89A 0000000671 		pop		r6
FFFCD8A0 0000000571 		pop		r5
FFFCD8A5 0000000471 		pop     r4
FFFCD8AA 0000000371 	    pop     r3
FFFCD8B0 0000000271 	    pop     r2
FFFCD8B5 0000000171 	    pop     r1
FFFCD8BA 0000000AEF 		ret
	ret
//.include "c:\cores4\DSD\DSD9\trunk\software\bootrom\source\TinyBasicDSD\DSD9.s"
FFFCD8C0 0000000AEF 
                        	
                        	;----------------------------------------------------------------------------
                        	;----------------------------------------------------------------------------
                        	
                        		.code
FFFCD8C5 0000000000 		align	1
FFFCD8CA 0000000000 
                        	
                        	DBGHomeCursor:
FFFCD8D0 0000000053 		tgt
FFFCD8D5 0000001270 		push	r18
FFFCD8DA 0000001370 		push	r19
FFFCD8E0 0000048030 		mov		r18,r0
FFFCD8E5 000004C030 		mov		r19,r0
FFFCD8EA 0001603F50 		call	DBGSetCursorPos[pc]
FFFCD8F0 0000001371 		pop		r19
FFFCD8F5 0000001271 		pop		r18
FFFCD8FA 0000000AEF 		ret

                        	DBGSetCursorPos:
FFFCD900 0000000053 		tgt
FFFCD905 0023448091 		stw		r18,DBGCursorX
FFFCD90A 00000000CC 
FFFCD910 002384C091 		stw		r19,DBGCursorY
FFFCD915 00000000CC 
FFFCD91A 0000001370 		push	r19
FFFCD920 000544D311 		mulu	r19,r19,#84
FFFCD925 0401349302 		add		r19,r19,r18
	stt		r19,$FFDA002C
FFFCD92A A002C4C094 
FFFCD930 000000FFCD 
FFFCD935 0000001371 		pop		r19
FFFCD93A 0000000AEF 		ret

                        	DBGPutchar:
FFFCD940 0000000053 		tgt
FFFCD945 0000000270 		push	r2
FFFCD94A 0000000370 		push	r3
FFFCD950 C572500050 		call	_AsciiToScreen
FFFCD955 000000FFCF 
FFFCD95A 7FC0004109 		or		r1,r1,#%000010000_111111111_0000000000
FFFCD960 00000000C8 
FFFCD965 0023408083 		ldwu	r2,DBGCursorX
FFFCD96A 00000000CC 
FFFCD970 002380C083 		ldwu	r3,DBGCursorY
FFFCD975 00000000CC 
FFFCD97A 4000208202 		shl		r2,r2,#2
FFFCD980 001500C311 		mulu	r3,r3,#84*4
FFFCD985 0400308302 		add		r3,r3,r2
	stt		r1,TEXTSCR[r3]
FFFCD98A 0000004394 
FFFCD990 000000FFCD 
FFFCD995 0023408083 		ldwu	r2,DBGCursorX
FFFCD99A 00000000CC 
FFFCD9A0 0000108204 		add		r2,r2,#1
FFFCD9A5 005515025C 		bltu	r2,#84,.j1
FFFCD9AA 0000008030 		mov		r2,r0
FFFCD9B0 0023400091 		stw		r0,DBGCursorX
FFFCD9B5 00000000CC 
FFFCD9BA 002380C083 		ldwu	r3,DBGCursorY
FFFCD9C0 00000000CC 
FFFCD9C5 000010C304 		add		r3,r3,#1
FFFCD9CA 002380C091 		stw		r3,DBGCursorY
FFFCD9D0 00000000CC 
                        	.j2:
FFFCD9D5 000540C311 		mulu	r3,r3,#84
FFFCD9DA 0400308302 		add		r3,r3,r2
	stt		r3,$FFDA002C
FFFCD9E0 A002C0C094 
FFFCD9E5 000000FFCD 
FFFCD9EA 0000000371 		pop		r3
FFFCD9F0 0000000271 		pop		r2
FFFCD9F5 0000000AEF 		ret
.j1:
FFFCD9FA 0023408091 		stw		r2,DBGCursorX
FFFCDA00 00000000CC 
FFFCDA05 002380C083 		ldwu	r3,DBGCursorY
FFFCDA0A 00000000CC 
FFFCDA10 FFC5C00046 		bra		.j2
                        	
                        	DBGPrtstr:
FFFCDA15 0000000053 		tgt
FFFCDA1A 0000001270 		push	r18
FFFCDA20 0000005230 		mov		r1,r18
                        	.j2:
FFFCDA25 0000048183 		ldwu	r18,[r1]
FFFCDA2A 0020001246 		beq		r18,r0,.j1
FFFCDA30 0000000170 		push	r1
FFFCDA35 FFF0B03F50 		call	DBGPutchar[pc]
FFFCDA3A 0000000171 		pop		r1
FFFCDA40 0000204104 		add		r1,r1,#2
FFFCDA45 FFE0C00046 		bra		.j2
                        	.j1:
FFFCDA4A 0000001271 		pop		r18
FFFCDA50 0000000AEF 		ret

                        	;----------------------------------------------------------------------------
                        	;----------------------------------------------------------------------------
                        	
                        	msgHello:
FFFCDA55 6C00650048 		dw	"Hello World!",0
FFFCDA5A 006F006C00 
FFFCDA60 006F005700 
FFFCDA65 64006C0072 
FFFCDA6A 0000002100 
                        			
                        	;----------------------------------------------------------------------------
                        	;----------------------------------------------------------------------------
FFFCDA6F         		align	1
                        	
                        	init_lifegame:
FFFCDA70 3000014009 		ldi		r5,#$FFD30000
FFFCDA75 000000FFCD 
                        		; first clear out the environment
FFFCDA7A 0000008030 		mov		r2,r0
FFFCDA80 000000C030 		mov		r3,r0
                        	.life1:
FFFCDA85 00080085B4 		stt		r0,[r5+r2*4]
FFFCDA8A 0000108204 		add		r2,r2,#1
FFFCDA90 FFF504025C 		bltu	r2,#16,.life1
                        	.life2:
FFFCDA95 000400C594 		stt		r3,64[r5]			; set the row to load
FFFCDA9A 0000110009 		ldi		r4,#1
FFFCDAA0 0004410594 		stt		r4,68[r5]			; pulse load bit
FFFCDAA5 000010C304 		add		r3,r3,#1
FFFCDAAA FFEB00035C 		bltu	r3,#256,.life2
FFFCDAB0 00000000C1 
                        		; now add some random data
                        	.life3:
FFFCDAB5 F30A003F50 		call	gen_rand[pc]
FFFCDABA 000000C130 		mov		r3,r1,#$FF
FFFCDAC0 F309503F50 		call	gen_rand[pc]
FFFCDAC5 0000008130 		mov		r2,r1
FFFCDACA F308B03F50 		call	gen_rand[pc]
FFFCDAD0 0000F04108 		and		r1,r1,#$F
FFFCDAD5 000400C594 		stt		r3,64[r5]			; set the row (random)
                        		; zero out all the row
FFFCDADA 0000018030 		mov		r6,r0
                        	.life4:
FFFCDAE0 00080185B4 		stt		r0,[r5+r6*4]
FFFCDAE5 0000118604 		add		r6,r6,#1
FFFCDAEA FFF604065C 		bltu	r6,#16,.life4
FFFCDAF0 00082045B4 		stt		r2,[r5+r1*4]		; set data word within row (random)
FFFCDAF5 0000108009 		ldi		r2,#1
FFFCDAFA 0004408594 		stt		r2,68[r5]			; pulse row load bit
FFFCDB00 0000110404 		add		r4,r4,#1
FFFCDB05 FFB005045C 		bltu	r4,#20,.life3
FFFCDB0A 0000608009 		ldi		r2,#6
FFFCDB10 0004408594 		stt		r2,68[r5]			; turn on display and calculation
FFFCDB15 0004408594 		stt		r2,68[r5]			; turn on display and calculation
FFFCDB1A 0000000AEF 		ret

                        	;----------------------------------------------------------------------------
                        	;----------------------------------------------------------------------------
                        	
                        	citable:
FFFCDB20   00000000   	    dh_htbl
                        	;{+                                                                             
                        	;	org		$FFFFFFF4
                        	;	jmp		cold_start[pc]
                        	;	org		$FFFFFFF8
                        	;	jmp		irq_routine[pc]
                        	;+}
                        	
                        	
                        		rodata
                        		align	16                        	
                        		align	8                        	
                        	BIOSMain_1:
FFFCDB30 D184697B47 		dt	0x84697B47,0xB54442D1,0x4000921F
FFFCDB35 921FB54442 
FFFCDB3A       4000       
                        		align	1                        	
                        	BIOSMain_76:	; PC History:
FFFCDB3C 2000430050 		dw	80,67,32,72,105,115,116,111
FFFCDB41 0069004800 
FFFCDB46 6F00740073 
FFFCDB4B         
FFFCDB4C 3A00790072 		dw	114,121,58,13,10,0
FFFCDB51 000A000D00 
FFFCDB56       0000       
                        	BIOSMain_75:	; Instruction Bus Error:
FFFCDB58 49000A000D 		dw	13,10,73,110,115,116,114,117
FFFCDB5D 0073006E00 
FFFCDB62 7500720074 
FFFCDB67         
FFFCDB68 6900740063 		dw	99,116,105,111,110,32,66,117
FFFCDB6D 006E006F00 
FFFCDB72 7500420020 
FFFCDB77         
FFFCDB78 4500200073 		dw	115,32,69,114,114,111,114,58
FFFCDB7D 0072007200 
FFFCDB82 3A0072006F 
FFFCDB87         
FFFCDB88 00000A000D 		dw	13,10,0
FFFCDB8D         
                        	BIOSMain_49:	; Databus error: 
FFFCDB8E 44000A000D 		dw	13,10,68,97,116,97,98,117
FFFCDB93 0074006100 
FFFCDB98 7500620061 
FFFCDB9D         
FFFCDB9E 6500200073 		dw	115,32,101,114,114,111,114,58
FFFCDBA3 0072007200 
FFFCDBA8 3A0072006F 
FFFCDBAD         
FFFCDBAE   00000020 		dw	32,0
                        	BIOSMain_33:	; PC History:
FFFCDBB2 50000A000D 		dw	13,10,80,67,32,72,105,115
FFFCDBB7 0020004300 
FFFCDBBC 7300690048 
FFFCDBC1         
FFFCDBC2 72006F0074 		dw	116,111,114,121,58,13,10,0
FFFCDBC7 003A007900 
FFFCDBCC 00000A000D 
FFFCDBD1         
                        	BIOSMain_3:	;   Menu  up = ramtest  left = float test
FFFCDBD2 4D00200020 		dw	32,32,77,101,110,117,13,10
FFFCDBD7 006E006500 
FFFCDBDC 0A000D0075 
FFFCDBE1         
FFFCDBE2 7500200020 		dw	32,32,117,112,32,61,32,114
FFFCDBE7 0020007000 
FFFCDBEC 720020003D 
FFFCDBF1         
FFFCDBF2 74006D0061 		dw	97,109,116,101,115,116,13,10
FFFCDBF7 0073006500 
FFFCDBFC 0A000D0074 
FFFCDC01         
FFFCDC02 6C00200020 		dw	32,32,108,101,102,116,32,61
FFFCDC07 0066006500 
FFFCDC0C 3D00200074 
FFFCDC11         
FFFCDC12 6C00660020 		dw	32,102,108,111,97,116,32,116
FFFCDC17 0061006F00 
FFFCDC1C 7400200074 
FFFCDC21         
FFFCDC22 7400730065 		dw	101,115,116,13,10,0
FFFCDC27 000A000D00 
FFFCDC2C       0000       
                        	BIOSMain_2:	;   DSD9 Bios Started
FFFCDC2E 4400200020 		dw	32,32,68,83,68,57,32,66
FFFCDC33 0044005300 
FFFCDC38 4200200039 
FFFCDC3D         
FFFCDC3E 73006F0069 		dw	105,111,115,32,83,116,97,114
FFFCDC43 0053002000 
FFFCDC48 7200610074 
FFFCDC4D         
FFFCDC4E 6400650074 		dw	116,101,100,13,10,0
FFFCDC53 000A000D00 
FFFCDC58       0000       
                        	;	global	_BIOSMain
                        	;	global	_BTNCIRQHandler
                        		extern	_DBGHomeCursor
	extern	_ramtest
	extern	_DBGClearScreen
	extern	_DBGDisplayString
	extern	_putch
	extern	_DBGAttr
;	global	_DBERout
                        	;	global	_IBERout
                        		extern	_printf
	extern	_FloatTest
	extern	_prtflt
	extern	_puthex
	extern	_puthex
	rodata
FFFCDC5A 0000000000 		align	1
                        	
                        		align	8                        	
                        	FloatTest_64:
FFFCDC60 0000000000 		dt	0x00000000,0x00000000,0xBFFF0000
FFFCDC65 0000000000 
FFFCDC6A       BFFF       
                        	FloatTest_63:
FFFCDC6C 0000000000 		dt	0x00000000,0x00000000,0x80000000
FFFCDC71 0000000000 
FFFCDC76       8000       
                        	FloatTest_61:
FFFCDC78 0000000000 		dt	0x00000000,0x00000000,0x40039000
FFFCDC7D 9000000000 
FFFCDC82       4003       
                        	FloatTest_60:
FFFCDC84 0000000000 		dt	0x00000000,0x00000000,0x40072C00
FFFCDC89 2C00000000 
FFFCDC8E       4007       
                        	FloatTest_57:
FFFCDC90 0000000000 		dt	0x00000000,0x00000000,0x40024000
FFFCDC95 4000000000 
FFFCDC9A       4002       
                        	FloatTest_54:
FFFCDC9C 8997CE8731 		dt	0x97CE8731,0x86C4FA89,0x404B7875
FFFCDCA1 787586C4FA 
FFFCDCA6       404B       
                        	FloatTest_52:
FFFCDCA8 1CFFFFA2FD 		dt	0xFFFFA2FD,0x493BC71C,0xC0309438
FFFCDCAD 9438493BC7 
FFFCDCB2       C030       
                        	FloatTest_51:
FFFCDCB4 1CFFFFA2FD 		dt	0xFFFFA2FD,0x493BC71C,0x40309438
FFFCDCB9 9438493BC7 
FFFCDCBE       4030       
                        	FloatTest_49:
FFFCDCC0 53F39D1B2E 		dt	0xF39D1B2E,0x71C71C53,0x40120F44
FFFCDCC5 0F4471C71C 
FFFCDCCA       4012       
                        	FloatTest_47:
FFFCDCCC FFFFFF6E7B 		dt	0xFFFF6E7B,0x081E7FFF,0x402E476B
FFFCDCD1 476B081E7F 
FFFCDCD6       402E       
                        	FloatTest_44:
FFFCDCD8 08C6781EF5 		dt	0xC6781EF5,0x7E3DF208,0x40132D68
FFFCDCDD 2D687E3DF2 
FFFCDCE2       4013       
                        	FloatTest_40:
FFFCDCE4 0000000000 		dt	0x00000000,0x00000000,0x40045000
FFFCDCE9 5000000000 
FFFCDCEE       4004       
                        	FloatTest_38:
FFFCDCF0 0000000000 		dt	0x00000000,0x00000000,0x00000000
FFFCDCF5 0000000000 
FFFCDCFA       0000       
                        	FloatTest_33:
FFFCDCFC D184697B47 		dt	0x84697B47,0xB54442D1,0x4000921F
FFFCDD01 921FB54442 
FFFCDD06       4000       
                        	FloatTest_24:
FFFCDD08 0000000000 		dt	0x00000000,0x00000000,0x400F0000
FFFCDD0D 0000000000 
FFFCDD12       400F       
                        	FloatTest_23:
FFFCDD14 0000000000 		dt	0x00000000,0x00000000,0x3FFF0000
FFFCDD19 0000000000 
FFFCDD1E       3FFF       
                        	FloatTest_21:
FFFCDD20 3A02000000 		dt	0x02000000,0xFFEE8E3A,0x40373FFF
FFFCDD25 3FFFFFEE8E 
FFFCDD2A       4037       
                        		align	1                        	
                        	FloatTest_65:	; Signed zero fail.
FFFCDD2C 53000A000D 		dw	13,10,83,105,103,110,101,100
FFFCDD31 0067006900 
FFFCDD36 640065006E 
FFFCDD3B         
FFFCDD3C 65007A0020 		dw	32,122,101,114,111,32,102,97
FFFCDD41 006F007200 
FFFCDD46 6100660020 
FFFCDD4B         
FFFCDD4C 2E006C0069 		dw	105,108,46,0
FFFCDD51     000000     
                        	FloatTest_62:
FFFCDD54 00000A000D 		dw	13,10,0
FFFCDD59         
                        	FloatTest_59:	; 300.0/25.0=
FFFCDD5A 33000A000D 		dw	13,10,51,48,48,46,48,47
FFFCDD60 2E00300030 
FFFCDD65 002F003000 
FFFCDD6A 2E00350032 		dw	50,53,46,48,61,0
FFFCDD70 00003D0030 
FFFCDD75         
                        	FloatTest_58:	; 10.0*10.0=
FFFCDD76 31000A000D 		dw	13,10,49,48,46,48,42,49
FFFCDD7B 002E003000 
FFFCDD80 31002A0030 
FFFCDD85         
FFFCDD86 30002E0030 		dw	48,46,48,61,0
FFFCDD8B 0000003D00 
                        	FloatTest_56:	; 10.0+10.0=
FFFCDD90 31000A000D 		dw	13,10,49,48,46,48,43,49
FFFCDD95 002E003000 
FFFCDD9A 31002B0030 
FFFCDDA0 30002E0030 		dw	48,46,48,61,0
FFFCDDA5 0000003D00 
                        	FloatTest_55:	;   
FFFCDDAA 0000200020 		dw	32,32,0
                        	FloatTest_53:	; 1.11111111111111e+23=
FFFCDDB0 31000A000D 		dw	13,10,49,46,49,49,49,49
FFFCDDB5 0031002E00 
FFFCDDBA 3100310031 
FFFCDDC0 3100310031 		dw	49,49,49,49,49,49,49,49
FFFCDDC5 0031003100 
FFFCDDCA 3100310031 
FFFCDDD0 6500310031 		dw	49,49,101,43,50,51,61,0
FFFCDDD5 0032002B00 
FFFCDDDA 00003D0033 
                        	FloatTest_50:	; -8.8888888888889e14=
FFFCDDE0 2D000A000D 		dw	13,10,45,56,46,56,56,56
FFFCDDE5 002E003800 
FFFCDDEA 3800380038 
FFFCDDF0 3800380038 		dw	56,56,56,56,56,56,56,56
FFFCDDF5 0038003800 
FFFCDDFA 3800380038 
FFFCDE00 6500390038 		dw	56,57,101,49,52,61,0
FFFCDE05 0034003100 
FFFCDE0A   0000003D   
                        	FloatTest_48:	; 555555.5555555=
FFFCDE0E 35000A000D 		dw	13,10,53,53,53,53,53,53
FFFCDE13 0035003500 
FFFCDE18 3500350035 
FFFCDE1D         
FFFCDE1E 350035002E 		dw	46,53,53,53,53,53,53,53
FFFCDE23 0035003500 
FFFCDE28 3500350035 
FFFCDE2D         
FFFCDE2E   0000003D 		dw	61,0
                        	FloatTest_46:	; 1.8e14=
FFFCDE32 31000A000D 		dw	13,10,49,46,56,101,49,52
FFFCDE37 0038002E00 
FFFCDE3C 3400310065 
FFFCDE41         
FFFCDE42   0000003D 		dw	61,0
                        	FloatTest_45:	;   
FFFCDE46 0000200020 		dw	32,32,0
FFFCDE4B         
                        	FloatTest_43:	; 1234567.8901234=
FFFCDE4C 31000A000D 		dw	13,10,49,50,51,52,53,54
FFFCDE51 0033003200 
FFFCDE56 3600350034 
FFFCDE5B         
FFFCDE5C 38002E0037 		dw	55,46,56,57,48,49,50,51
FFFCDE61 0030003900 
FFFCDE66 3300320031 
FFFCDE6B         
FFFCDE6C 00003D0034 		dw	52,61,0
FFFCDE71         
                        	FloatTest_42:	; 12345. => int 
FFFCDE72 31000A000D 		dw	13,10,49,50,51,52,53,46
FFFCDE77 0033003200 
FFFCDE7C 2E00350034 
FFFCDE81         
FFFCDE82 3E003D0020 		dw	32,61,62,32,105,110,116,32
FFFCDE87 0069002000 
FFFCDE8C 200074006E 
FFFCDE91         
FFFCDE92       0000 		dw	0
                        	FloatTest_41:	; 12345 => float 
FFFCDE94 31000A000D 		dw	13,10,49,50,51,52,53,32
FFFCDE99 0033003200 
FFFCDE9E 2000350034 
FFFCDEA3         
FFFCDEA4 20003E003D 		dw	61,62,32,102,108,111,97,116
FFFCDEA9 006C006600 
FFFCDEAE 740061006F 
FFFCDEB3         
FFFCDEB4   00000020 		dw	32,0
                        	FloatTest_39:	; 42.0=
FFFCDEB8 34000A000D 		dw	13,10,52,50,46,48,61,0
FFFCDEBD 002E003200 
FFFCDEC2 00003D0030 
FFFCDEC7         
                        	FloatTest_37:	; 0.0=
FFFCDEC8 30000A000D 		dw	13,10,48,46,48,61,0
FFFCDECD 0030002E00 
FFFCDED2   0000003D   
                        	FloatTest_36:	; Testing prtflt
FFFCDED6 7300650054 		dw	84,101,115,116,105,110,103,32
FFFCDEDB 0069007400 
FFFCDEE0 200067006E 
FFFCDEE5         
FFFCDEE6 7400720070 		dw	112,114,116,102,108,116,0
FFFCDEEB 006C006600 
FFFCDEF0   00000074   
                        	FloatTest_35:	;   PI is 
FFFCDEF4 5000200020 		dw	32,32,80,73,32,105,115,32
FFFCDEF9 0020004900 
FFFCDEFE 2000730069 
FFFCDF03         
FFFCDF04       0000 		dw	0
                        	FloatTest_34:	;   Float Test
FFFCDF06 4600200020 		dw	32,32,70,108,111,97,116,32
FFFCDF0B 006F006C00 
FFFCDF10 2000740061 
FFFCDF15         
FFFCDF16 7300650054 		dw	84,101,115,116,13,10,0
FFFCDF1B 000D007400 
FFFCDF20   0000000A   
                        	FloatTest_28:	; IEEE-754 result: 90071992254740996.0 xdbl
FFFCDF24 49000A000D 		dw	13,10,73,69,69,69,45,55
FFFCDF29 0045004500 
FFFCDF2E 37002D0045 
FFFCDF33         
FFFCDF34 2000340035 		dw	53,52,32,114,101,115,117,108
FFFCDF39 0065007200 
FFFCDF3E 6C00750073 
FFFCDF43         
FFFCDF44 20003A0074 		dw	116,58,32,57,48,48,55,49
FFFCDF49 0030003900 
FFFCDF4E 3100370030 
FFFCDF53         
FFFCDF54 3200390039 		dw	57,57,50,50,53,52,55,52
FFFCDF59 0035003200 
FFFCDF5E 3400370034 
FFFCDF63         
FFFCDF64 3900390030 		dw	48,57,57,54,46,48,32,120
FFFCDF69 002E003600 
FFFCDF6E 7800200030 
FFFCDF73         
FFFCDF74 6C00620064 		dw	100,98,108,13,10,0
FFFCDF79 000A000D00 
FFFCDF7E       0000       
                        	FloatTest_27:	; IEEE-754 result: 90071992254740994.0 dbl
FFFCDF80 49000A000D 		dw	13,10,73,69,69,69,45,55
FFFCDF85 0045004500 
FFFCDF8A 37002D0045 
FFFCDF90 2000340035 		dw	53,52,32,114,101,115,117,108
FFFCDF95 0065007200 
FFFCDF9A 6C00750073 
FFFCDFA0 20003A0074 		dw	116,58,32,57,48,48,55,49
FFFCDFA5 0030003900 
FFFCDFAA 3100370030 
FFFCDFB0 3200390039 		dw	57,57,50,50,53,52,55,52
FFFCDFB5 0035003200 
FFFCDFBA 3400370034 
FFFCDFC0 3900390030 		dw	48,57,57,52,46,48,32,100
FFFCDFC5 002E003400 
FFFCDFCA 6400200030 
FFFCDFD0 0D006C0062 		dw	98,108,13,10,0
FFFCDFD5 0000000A00 
                        	FloatTest_26:	; x+y= 
FFFCDFDA 78000A000D 		dw	13,10,120,43,121,61,32,0
FFFCDFE0 3D0079002B 
FFFCDFE5 0000002000 
                        	FloatTest_25:	; y= 
FFFCDFEA 79000A000D 		dw	13,10,121,61,32,0
FFFCDFF0 000020003D 
FFFCDFF5         
                        	FloatTest_22:	; x= 
FFFCDFF6 20003D0078 		dw	120,61,32,0
FFFCDFFB     000000     
                        	FloatTest_15:
FFFCDFFE 00000A000D 		dw	13,10,0
FFFCE003         
                        	FloatTest_14:	;  = 
FFFCE004 20003D0020 		dw	32,61,32,0
FFFCE009     000000     
                        	FloatTest_13:	;  * 
FFFCE00C 20002A0020 		dw	32,42,32,0
FFFCE011     000000     
                        	FloatTest_7:
FFFCE014 00000A000D 		dw	13,10,0
FFFCE019         
                        	FloatTest_6:	;  = 
FFFCE01A 20003D0020 		dw	32,61,32,0
FFFCE020       0000       
                        	FloatTest_5:	;  - 
FFFCE022 20002D0020 		dw	32,45,32,0
FFFCE027     000000     
                        	FloatTest_4:
FFFCE02A 00000A000D 		dw	13,10,0
                        	FloatTest_3:	;  = 
FFFCE030 20003D0020 		dw	32,61,32,0
FFFCE035     000000     
                        	FloatTest_2:	;  + 
FFFCE038 20002B0020 		dw	32,43,32,0
FFFCE03D     000000     
                        		extern	_TestMul
	extern	_DBGHomeCursor
	extern	_TestAddsub
	extern	_log10q
	extern	_log10q
	extern	_DBGClearScreen
	extern	_DBGDisplayString
;	global	_FloatTest
                        		extern	_prtflt
	extern	_prtflt
	extern	_prtflt
	extern	_prtflt
	rodata
                        		align	16                        	
                        		align	8                        	
                        		align	1                        	
                        	ramtest_52:	;   RAM Test
FFFCE040 5200200020 		dw	32,32,82,65,77,32,84,101
FFFCE045 004D004100 
FFFCE04A 6500540020 
FFFCE050 0D00740073 		dw	115,116,13,10,0
FFFCE055 0000000A00 
                        		extern	_DBGHideCursor
	extern	_puthexnum
;	global	_ramtest
                        		extern	_DBGDisplayString
	extern	_putch
	extern	_dumpaddr
	extern	_puthex
	extern	_puthex
	rodata
FFFCE05A 0000000000 		align	1
                        	
                        		align	8                        	
                        		align	1                        	
                        		extern	_putnum
	extern	_putstr
	extern	_putstr
;	global	_getchar
                        		extern	_putstr2
	extern	_isdigit
	extern	_puthexnum
	extern	_KeybdGetBufferedCharNoWait
	extern	_putstrW
	extern	_DBGDisplayChar
	extern	_putch
	extern	_LEDS
;	global	_getcharNoWait
                        	;	global	_out_fh
                        		extern	_printf
	extern	_prtflt
	extern	_prtflt
	rodata
                        		align	16                        	
                        		align	8                        	
                        		align	1                        	
                        		extern	_isalpha
	extern	_isspace
	extern	_isdigit
	extern	_isgraph
	extern	_isalnum
	extern	_iscntrl
	extern	_islower
	extern	_ispunct
	extern	_isupper
	extern	_isprint
	extern	_tolower
	extern	_toupper
	extern	_isxdigit
	extern	_isxdigit
	rodata
                        		align	16                        	
                        		align	8                        	
                        		align	1                        	
                        		extern	_strcpy
	extern	_memsetT
	extern	_memcpyW
	extern	_memsetW
	extern	_memmove
	extern	_strncmp
	extern	_strncpy
	extern	_memmoveW
	extern	_memchr
	extern	_memcpy
	extern	_memset
	extern	_strchr
	extern	_strlen
	extern	_strlen
	rodata
                        		align	16                        	
                        		align	8                        	
                        		align	1                        	
                        		extern	_in32u
	extern	_in16u
	extern	_out32
	extern	_out16
	extern	_in8
;	global	_getCPU
                        		extern	_in32
	extern	_in16
	extern	_in8u
	extern	_out8
	extern	_out8
	rodata
                        		align	16                        	
                        		align	8                        	
                        	prtflt_23:
FFFCE060 0000000000 		dt	0x00000000,0x00000000,0x40024000
FFFCE065 4000000000 
FFFCE06A       4002       
                        	prtflt_22:
FFFCE06C 0000000000 		dt	0x00000000,0x00000000,0x4012E848
FFFCE071 E848000000 
FFFCE076       4012       
                        	prtflt_21:
FFFCE078 0000000000 		dt	0x00000000,0x00000000,0x3FFF0000
FFFCE07D 0000000000 
FFFCE082       3FFF       
                        	prtflt_20:
FFFCE084 0000000000 		dt	0x00000000,0x00000000,0x00000000
FFFCE089 0000000000 
FFFCE08E       0000       
                        		align	1                        	
                        		extern	_putstr
	extern	_putstrW
	extern	_sprtflt
	extern	_prtflt
	extern	_prtflt
	rodata
                        		align	16                        	
                        		align	8                        	
                        		align	1                        	
                        		extern	_LockSemaphore
	extern	_LockSemaphore
	rodata
                        		align	16                        	
                        		align	8                        	
                        		align	1                        	
                        		extern	_UnlockSemaphore
	extern	_UnlockSemaphore
	rodata
                        		align	16                        	
                        		align	8                        	
                        		align	1                        	
                        	console_13:	; bad video regno: %d
FFFCE090 6400610062 		dw	98,97,100,32,118,105,100,101
FFFCE095 0076002000 
FFFCE09A 6500640069 
FFFCE0A0 720020006F 		dw	111,32,114,101,103,110,111,58
FFFCE0A5 0067006500 
FFFCE0AA 3A006F006E 
FFFCE0B0 6400250020 		dw	32,37,100,0
FFFCE0B5     000000     
                        	;	global	_GetScreenLocation
                        		extern	_outb
	extern	_outc
	extern	_outh
	extern	_IOFocusNdx
	extern	_DumpTaskList
	extern	_DBGHideCursor
	extern	_SetCursorCol
;	global	_VBScrollUp
                        		extern	_outw
;	global	_GetCursorPos
                        	;	global	_DBGHomeCursor
                        		extern	_SetCursorPos
	extern	_memsetT
	extern	_memsetT
;	global	_DBGUpdateCursorPos
                        	;	global	_DBGCRLF
                        	;	global	_DBGScrollUp
                        		extern	_SetVBA
;	global	_HomeCursor
                        		extern	_AsciiToScreen
	extern	_ScreenToAscii
;	global	_CalcScreenLocation
                        		extern	_chkTCB
	extern	_UnlockSemaphore
;	global	_UpdateCursorPos
                        	;	global	_DBGClearScreen
                        		extern	_DBGDisplayString
	extern	_GetVecno
	extern	_DBGDisplayChar
;	global	_DBGIncrementCursorPos
                        		extern	_GetJCBPtr
;	global	_CRLF
                        		extern	_getCPU
	extern	_LEDS
;	global	_DBGIncrementCursorRow
                        		extern	_LockSemaphore
	extern	_ScrollUp
	extern	_DBGBlankLine
	extern	_set_vector
	extern	_DBGDisplayStringCRLF
;	global	_ClearScreen
                        		extern	_FocusSwitcher
	extern	_DisplayString
	extern	_DisplayChar
;	global	_IncrementCursorPos
                        	;	global	_GetTextCols
                        	;	global	_GetCurrAttr
                        	;	global	_IncrementCursorRow
                        		extern	_SetCurrAttr
;	global	_ClearBmpScreen
                        		extern	_DBGAttr
	extern	_DBGCursorCol
;	global	_GetTextRows
                        		extern	_BlankLine
	extern	_DisplayStringCRLF
	extern	_DBGCursorRow
	extern	_RemoveFromTimeoutList
	extern	_SetBound50
	extern	_SetBound51
	extern	_SetBound48
	extern	_SetBound49
	extern	_InsertIntoTimeoutList
	extern	_RemoveFromReadyList
	extern	_printf
	extern	_InsertIntoReadyList
	extern	_InsertIntoReadyList
	rodata
FFFCE0B8 0000000000 		align	1
FFFCE0BD     000000     
                        	
                        		align	8                        	
                        		align	1                        	
                        		extern	_in32u
	extern	_in16u
	extern	_out32
	extern	_out16
	extern	_in8
;	global	_getCPU
                        		extern	_in32
	extern	_in16
	extern	_set_vector
	extern	_interrupt_table
;	global	_InitPIC
                        		extern	_in8u
	extern	_out8
	extern	_out8
	rodata
                        		align	2                        	
                        	FMTKc_32:	; _startQ
FFFCE0C0 0000000000 		dw	0,0,0,1,0,0,0,2
FFFCE0C5 0000000100 
FFFCE0CA 0200000000 
FFFCE0D0 0000000000 		dw	0,0,0,3,0,1,0,4
FFFCE0D5 0000000300 
FFFCE0DA 0400000001 
FFFCE0E0 0000000000 		dw	0,0,0,5,0,0,0,6
FFFCE0E5 0000000500 
FFFCE0EA 0600000000 
FFFCE0F0 0000010000 		dw	0,1,0,7,0,0,0,0
FFFCE0F5 0000000700 
FFFCE0FA 0000000000 
FFFCE100 0000000000 		fill.b	32,0x00
FFFCE105 0000000000 
FFFCE10A 0000000000 
FFFCE110 0000000000 
FFFCE115 0000000000 
FFFCE11A 0000000000 
                        		rodata
                        		align	16                        	
                        		align	8                        	
                        		align	1                        	
                        	FMTKc_135:	; IdleTask: CTRL-C pressed.
FFFCE120 6C00640049 		dw	73,100,108,101,84,97,115,107
FFFCE125 0054006500 
FFFCE12A 6B00730061 
FFFCE130 430020003A 		dw	58,32,67,84,82,76,45,67
FFFCE135 0052005400 
FFFCE13A 43002D004C 
FFFCE140 7200700020 		dw	32,112,114,101,115,115,101,100
FFFCE145 0073006500 
FFFCE14A 6400650073 
FFFCE150 0A000D002E 		dw	46,13,10,0
FFFCE155     000000     
                        	FMTKc_35:	; No entries in ready queue.
FFFCE158 20006F004E 		dw	78,111,32,101,110,116,114,105
FFFCE15D 006E006500 
FFFCE162 6900720074 
FFFCE167         
FFFCE168 2000730065 		dw	101,115,32,105,110,32,114,101
FFFCE16D 006E006900 
FFFCE172 6500720020 
FFFCE177         
FFFCE178 7900640061 		dw	97,100,121,32,113,117,101,117
FFFCE17D 0071002000 
FFFCE182 7500650075 
FFFCE187         
FFFCE188 00002E0065 		dw	101,46,0
FFFCE18D         
                        		extern	_jcbs
;	global	_GetTick
                        		extern	_tcbs
;	global	_FMTK_IRQDispatch
                        		extern	_nMsgBlk
	extern	_SetR1
	extern	_FMTK_KillTask
	extern	_PopTimeoutList
	extern	_putstr
	extern	_FMTK_SetTaskPriority
	extern	_outb
	extern	_IOFocusTbl
	extern	_outc
;	global	_FMTK_ExitTask
                        		extern	_outh
	extern	_irq_stack
	extern	_IOFocusNdx
	extern	_DumpTaskList
	extern	_RestoreContext
	extern	_outw
	extern	_SetSP
	extern	_fmtk_irq_stack
;	global	_GetRunningTCB
                        	;	global	_FMTK_IRQDispatch2
                        		extern	_fmtk_sys_stack
	extern	_message
	extern	_SetRunningTCB
	extern	_mailbox
	extern	_FMTK_Inited
;	global	_AckTimerIRQ
                        		extern	_hFocusSwitchMbx
	extern	_missed_ticks
	extern	_SetVBA
	extern	_panic
	extern	_panic
	extern	_chkTCB
	extern	_UnlockSemaphore
;	global	_GetRunningTCBPtr
                        	;	global	_IdleTask
                        		extern	_shell
	extern	_GetVecno
;	global	_FMTK_SchedulerIRQ
                        		extern	_KillTask
	extern	_SevenSeg
;	global	_GetJCBPtr
                        		extern	_video_bufs
	extern	_getCPU
	extern	_LEDS
	extern	_hasUltraHighPriorityTasks
	extern	_LockSemaphore
	extern	_iof_switch
	extern	_FMTK_StartTask
	extern	_FMTK_StartTask
	extern	_kbd_sema
	extern	_nMailbox
	extern	_FMTK_FreeMbx
	extern	_set_vector
;	global	_FMTK_FuncTbl
                        		extern	_iof_sema
;	global	_FMTKInitialize
                        		extern	_sys_stacks
	extern	_FocusSwitcher
	extern	_gfx_demo
	extern	_BIOS_RespMbx
;	global	_DisplayIRQLive
                        		extern	_BIOS1_sema
	extern	_sys_sema
	extern	_readyQ
;	global	_freeJCB
                        	;	global	_SaveContext
                        		extern	_sysstack
	extern	_freeTCB
	extern	_RequestIOFocus
	extern	_TimeoutList
	extern	_RemoveFromTimeoutList
	extern	_SetBound50
	extern	_stacks
	extern	_freeMSG
	extern	_freeMBX
	extern	_SetBound51
	extern	_FMTK_Sleep
;	global	_GetCauseCode
                        		extern	_SetBound48
	extern	_SetBound49
	extern	_InsertIntoTimeoutList
;	global	_FMTK_SystemCall
                        		extern	_RemoveFromReadyList
;	global	_sp_tmp
                        		extern	_printf
	extern	_bios_stacks
	extern	_InsertIntoReadyList
	extern	_InsertIntoReadyList
	rodata
FFFCE18E       0000 		align	1
                        	
                        		align	8                        	
                        		align	1                        	
                        		extern	_jcbs
	extern	_FMTK_AllocMbx
	extern	_tcbs
	extern	_nMsgBlk
	extern	_outb
	extern	_IOFocusTbl
	extern	_outc
	extern	_outh
	extern	_irq_stack
	extern	_IOFocusNdx
	extern	_DumpTaskList
	extern	_outw
	extern	_fmtk_irq_stack
	extern	_fmtk_sys_stack
	extern	_message
	extern	_mailbox
	extern	_FMTK_Inited
	extern	_SetMbxMsgQueStrategy
	extern	_hFocusSwitchMbx
	extern	_missed_ticks
	extern	_SetVBA
	extern	_CheckMsg
	extern	_chkTCB
	extern	_UnlockSemaphore
	extern	_GetRunningTCBPtr
	extern	_GetVecno
	extern	_GetJCBPtr
	extern	_video_bufs
	extern	_getCPU
	extern	_LEDS
	extern	_hasUltraHighPriorityTasks
	extern	_LockSemaphore
	extern	_iof_switch
	extern	_kbd_sema
	extern	_nMailbox
	extern	_FMTK_FreeMbx
	extern	_FMTK_PeekMsg
	extern	_set_vector
	extern	_FMTK_SendMsg
	extern	_iof_sema
	extern	_sys_stacks
	extern	_FocusSwitcher
	extern	_BIOS_RespMbx
	extern	_FMTK_WaitMsg
	extern	_FMTK_PostMsg
	extern	_BIOS1_sema
	extern	_sys_sema
	extern	_readyQ
	extern	_sysstack
	extern	_freeTCB
	extern	_TimeoutList
	extern	_RemoveFromTimeoutList
	extern	_RemoveFromTimeoutList
	extern	_SetBound50
	extern	_stacks
	extern	_freeMSG
	extern	_freeMBX
	extern	_SetBound51
	extern	_SetBound48
	extern	_SetBound49
	extern	_InsertIntoTimeoutList
	extern	_InsertIntoTimeoutList
	extern	_RemoveFromReadyList
	extern	_RemoveFromReadyList
	extern	_bios_stacks
	extern	_FMTK_CheckMsg
	extern	_InsertIntoReadyList
	extern	_InsertIntoReadyList
	extern	_InsertIntoReadyList
	rodata
                        		align	16                        	
                        		align	8                        	
                        		align	1                        	
                        	TCB_58:	; %3d %3d  %02X  %04X %04X %04X %08X %08X
FFFCE190 6400330025 		dw	37,51,100,32,37,51,100,32
FFFCE195 0025002000 
FFFCE19A 2000640033 
FFFCE1A0 3000250020 		dw	32,37,48,50,88,32,32,37
FFFCE1A5 0058003200 
FFFCE1AA 2500200020 
FFFCE1B0 5800340030 		dw	48,52,88,32,37,48,52,88
FFFCE1B5 0025002000 
FFFCE1BA 5800340030 
FFFCE1C0 3000250020 		dw	32,37,48,52,88,32,37,48
FFFCE1C5 0058003400 
FFFCE1CA 3000250020 
FFFCE1D0 2000580038 		dw	56,88,32,37,48,56,88,13
FFFCE1D5 0030002500 
FFFCE1DA 0D00580038 
FFFCE1E0   0000000A 		dw	10,0
                        	TCB_57:	; Waiting tasks
FFFCE1E4 6900610057 		dw	87,97,105,116,105,110,103,32
FFFCE1E9 0069007400 
FFFCE1EE 200067006E 
FFFCE1F3         
FFFCE1F4 7300610074 		dw	116,97,115,107,115,13,10,0
FFFCE1F9 0073006B00 
FFFCE1FE 00000A000D 
FFFCE203         
                        	TCB_55:	; %3d %3d  %02X  %04X %04X %04X %08X %08X
FFFCE204 6400330025 		dw	37,51,100,32,37,51,100,32
FFFCE209 0025002000 
FFFCE20E 2000640033 
FFFCE213         
FFFCE214 3000250020 		dw	32,37,48,50,88,32,32,37
FFFCE219 0058003200 
FFFCE21E 2500200020 
FFFCE223         
FFFCE224 5800340030 		dw	48,52,88,32,37,48,52,88
FFFCE229 0025002000 
FFFCE22E 5800340030 
FFFCE233         
FFFCE234 3000250020 		dw	32,37,48,52,88,32,37,48
FFFCE239 0058003400 
FFFCE23E 3000250020 
FFFCE243         
FFFCE244 2000580038 		dw	56,88,32,37,48,56,88,13
FFFCE249 0030002500 
FFFCE24E 0D00580038 
FFFCE253         
FFFCE254   0000000A 		dw	10,0
                        	TCB_54:	; CPU Pri Stat Task Prev Next Timeout
FFFCE258 5500500043 		dw	67,80,85,32,80,114,105,32
FFFCE25D 0050002000 
FFFCE262 2000690072 
FFFCE267         
FFFCE268 6100740053 		dw	83,116,97,116,32,84,97,115
FFFCE26D 0020007400 
FFFCE272 7300610054 
FFFCE277         
FFFCE278 500020006B 		dw	107,32,80,114,101,118,32,78
FFFCE27D 0065007200 
FFFCE282 4E00200076 
FFFCE287         
FFFCE288 7400780065 		dw	101,120,116,32,84,105,109,101
FFFCE28D 0054002000 
FFFCE292 65006D0069 
FFFCE297         
FFFCE298 740075006F 		dw	111,117,116,13,10,0
FFFCE29D 000A000D00 
FFFCE2A2       0000       
                        	;	global	_tcbs
                        	;	global	_PopTimeoutList
                        		extern	_outb
	extern	_outc
	extern	_outh
;	global	_DumpTaskList
                        		extern	_outw
;	global	_GetRunningTCB
                        		extern	_SetRunningTCB
	extern	_SetVBA
	extern	_chkTCB
	extern	_chkTCB
	extern	_UnlockSemaphore
;	global	_GetRunningTCBPtr
                        		extern	_GetVecno
	extern	_GetJCBPtr
	extern	_getCPU
	extern	_LEDS
	extern	_hasUltraHighPriorityTasks
	extern	_LockSemaphore
	extern	_getcharNoWait
	extern	_set_vector
	extern	_FocusSwitcher
;	global	_readyQ
                        	;	global	_freeTCB
                        	;	global	_TimeoutList
                        		extern	_RemoveFromTimeoutList
	extern	_RemoveFromTimeoutList
	extern	_prtdbl
	extern	_SetBound50
	extern	_SetBound51
	extern	_SetBound48
	extern	_SetBound49
	extern	_InsertIntoTimeoutList
	extern	_InsertIntoTimeoutList
	extern	_RemoveFromReadyList
	extern	_RemoveFromReadyList
	extern	_printf
	extern	_printf
	extern	_InsertIntoReadyList
	extern	_InsertIntoReadyList
	extern	_InsertIntoReadyList
	rodata
FFFCE2A4 0000000000 		align	1
FFFCE2A9 0000000000 
FFFCE2AE       0000       
                        	
                        		align	8                        	
                        		align	1                        	
                        		extern	_jcbs
	extern	_FMTK_AllocMbx
	extern	_outb
	extern	_IOFocusTbl
	extern	_outc
	extern	_outh
	extern	_IOFocusNdx
	extern	_DumpTaskList
	extern	_outw
;	global	_hFocusSwitchMbx
                        		extern	_SetVBA
;	global	_CopyScreenToVirtualScreen
                        	;	global	_CopyVirtualScreenToScreen
                        	;	global	_SwitchIOFocus
                        		extern	_chkTCB
	extern	_UnlockSemaphore
	extern	_GetVecno
	extern	_GetJCBPtr
	extern	_getCPU
	extern	_LEDS
	extern	_LockSemaphore
	extern	_set_vector
	extern	_SetVideoReg
	extern	_iof_sema
	extern	_ForceReleaseIOFocus
	extern	_ForceReleaseIOFocus
;	global	_FocusSwitcher
                        		extern	_FMTK_WaitMsg
;	global	_ReleaseIOFocus
                        		extern	_RequestIOFocus
	extern	_RequestIOFocus
	extern	_RemoveFromTimeoutList
	extern	_ForceIOFocus
	extern	_SetBound50
	extern	_SetBound51
	extern	_SetBound48
	extern	_SetBound49
	extern	_InsertIntoTimeoutList
	extern	_RemoveFromReadyList
	extern	_InsertIntoReadyList
	extern	_InsertIntoReadyList
;------------------------------------------------------------------------------
                        	; Video BIOS
                        	; Video Exception #410
                        	;
                        	; Function in R6
                        	; 0x02 = Set Cursor Position	r1 = row, r2 = col 
                        	; 0x03 = Get Cursor position	returns r1 = row, r2 = col
                        	; 0x06 = Scroll screen up
                        	; 0x09 = Display character+attribute, r1=char, r2=attrib, r3=#times
                        	; 0x0A = Display character at cursor position, r1 = char, r2 = # times
                        	; 0x0B = Set background color, r1 = color
                        	; 0x0C = Display Pixel r1 = x, r2 = y, r3 = color
                        	; 0x0D = Get pixel  r1 = x, r2 = y
                        	; 0x0E = Teletype output, r1 = char
                        	; 0x14 = Display String	r1 = pointer to string
                        	; 0x15 = Display number r1 = number, r2 = # digits
                        	; 0x16 = Display String + CRLF   r1 = pointer to string
                        	; 0x17 = Display Word r1 as hex = word
                        	; 0x18 = Display Half word as hex r1 = half word
                        	; 0x19 = Display Charr char in hex r1 = char
                        	; 0x1A = Display Byte in hex r1 = byte
                        	; 0x1B = Display String -wide characters r1=pointer to string
                        	; 0x1C = Display hexidecimal number, r1 = number, r2 = # of digits
                        	; 0x20 = Convert ascii to screen
                        	; 0x21 = Convert screen to ascii
                        	; 0x22 = Set normal attribute
                        	; 0x23 = Get normal attribute
                        	;------------------------------------------------------------------------------
                        	
                        	MAX_VIDEO_BIOS_CALL = 0x23
                        	TCB_BIOS_Stack      EQU   $280
                        	
                        	
                        		rodata
                        		align 8                        	
                        	begin_init_data:
                        			data
                        			org		$01000000
                        		data
                        		align	8                        	
                        		align	8                        	
                        		align	8                        	
                        		data
                        		align	8                        	
                        		data
                        		align	8                        	
                        		align	8                        	
                        		data
                        		align	8                        	
                        		align	8                        	
                        		align	8                        	
                        		align	8                        	
                        		data
                        		align	8                        	
1000000       0000 		fill.b	2,0x00
1000002 0000000000 		align	
1000007         
                        	
1000008 0000000000 		fill.b	6,0x00
100000D         
                        		data
                        		align	2                        	
                        	stdio_14:	; _numwka
100000E 0000000000 		fill.b	400,0x00
1000013 0000000000 
1000018 0000000000 
100001D 0000000000 
1000022 0000000000 
1000027 0000000000 
100002C 0000000000 
1000031 0000000000 
1000036 0000000000 
100003B 0000000000 
1000040 0000000000 
1000045 0000000000 
100004A 0000000000 
1000050 0000000000 
1000055 0000000000 
100005A 0000000000 
1000060 0000000000 
1000065 0000000000 
100006A 0000000000 
1000070 0000000000 
1000075 0000000000 
100007A 0000000000 
1000080 0000000000 
1000085 0000000000 
100008A 0000000000 
1000090 0000000000 
1000095 0000000000 
100009A 0000000000 
10000A0 0000000000 
10000A5 0000000000 
10000AA 0000000000 
10000B0 0000000000 
10000B5 0000000000 
10000BA 0000000000 
10000C0 0000000000 
10000C5 0000000000 
10000CA 0000000000 
10000D0 0000000000 
10000D5 0000000000 
10000DA 0000000000 
10000E0 0000000000 
10000E5 0000000000 
10000EA 0000000000 
10000F0 0000000000 
10000F5 0000000000 
10000FA 0000000000 
1000100 0000000000 
1000105 0000000000 
100010A 0000000000 
1000110 0000000000 
1000115 0000000000 
100011A 0000000000 
1000120 0000000000 
1000125 0000000000 
100012A 0000000000 
1000130 0000000000 
1000135 0000000000 
100013A 0000000000 
1000140 0000000000 
1000145 0000000000 
100014A 0000000000 
1000150 0000000000 
1000155 0000000000 
100015A 0000000000 
1000160 0000000000 
1000165 0000000000 
100016A 0000000000 
1000170 0000000000 
1000175 0000000000 
100017A 0000000000 
1000180 0000000000 
1000185 0000000000 
100018A 0000000000 
1000190 0000000000 
1000195 0000000000 
100019A   00000000   
                        		data
100019E       0000 		align	
                        	
                        		data
                        		align	8                        	
                        		data
                        		align	2                        	
                        	log10q_0:	; _P
                        	log10q_0:	; _P
                        		data
                        		align	8                        	
                        		align	8                        	
10001A0 0000000000 		fill.b	46,0x00
10001A5 0000000000 
10001AA 0000000000 
10001B0 0000000000 
10001B5 0000000000 
10001BA 0000000000 
10001C0 0000000000 
10001C5 0000000000 
10001CA   00000000   
10001CE       0000 		align	
                        	
                        		align	8                        	
                        		align	8                        	
10001D0 0000000000 		fill.b	1920,0x00
10001D5 0000000000 
10001DA 0000000000 
10001E0 0000000000 
10001E5 0000000000 
10001EA 0000000000 
10001F0 0000000000 
10001F5 0000000000 
10001FA 0000000000 
1000200 0000000000 
1000205 0000000000 
100020A 0000000000 
1000210 0000000000 
1000215 0000000000 
100021A 0000000000 
1000220 0000000000 
1000225 0000000000 
100022A 0000000000 
1000230 0000000000 
1000235 0000000000 
100023A 0000000000 
1000240 0000000000 
1000245 0000000000 
100024A 0000000000 
1000250 0000000000 
1000255 0000000000 
100025A 0000000000 
1000260 0000000000 
1000265 0000000000 
100026A 0000000000 
1000270 0000000000 
1000275 0000000000 
100027A 0000000000 
1000280 0000000000 
1000285 0000000000 
100028A 0000000000 
1000290 0000000000 
1000295 0000000000 
100029A 0000000000 
10002A0 0000000000 
10002A5 0000000000 
10002AA 0000000000 
10002B0 0000000000 
10002B5 0000000000 
10002BA 0000000000 
10002C0 0000000000 
10002C5 0000000000 
10002CA 0000000000 
10002D0 0000000000 
10002D5 0000000000 
10002DA 0000000000 
10002E0 0000000000 
10002E5 0000000000 
10002EA 0000000000 
10002F0 0000000000 
10002F5 0000000000 
10002FA 0000000000 
1000300 0000000000 
1000305 0000000000 
100030A 0000000000 
1000310 0000000000 
1000315 0000000000 
100031A 0000000000 
1000320 0000000000 
1000325 0000000000 
100032A 0000000000 
1000330 0000000000 
1000335 0000000000 
100033A 0000000000 
1000340 0000000000 
1000345 0000000000 
100034A 0000000000 
1000350 0000000000 
1000355 0000000000 
100035A 0000000000 
1000360 0000000000 
1000365 0000000000 
100036A 0000000000 
1000370 0000000000 
1000375 0000000000 
100037A 0000000000 
1000380 0000000000 
1000385 0000000000 
100038A 0000000000 
1000390 0000000000 
1000395 0000000000 
100039A 0000000000 
10003A0 0000000000 
10003A5 0000000000 
10003AA 0000000000 
10003B0 0000000000 
10003B5 0000000000 
10003BA 0000000000 
10003C0 0000000000 
10003C5 0000000000 
10003CA 0000000000 
10003D0 0000000000 
10003D5 0000000000 
10003DA 0000000000 
10003E0 0000000000 
10003E5 0000000000 
10003EA 0000000000 
10003F0 0000000000 
10003F5 0000000000 
10003FA 0000000000 
1000400 0000000000 
1000405 0000000000 
100040A 0000000000 
1000410 0000000000 
1000415 0000000000 
100041A 0000000000 
1000420 0000000000 
1000425 0000000000 
100042A 0000000000 
1000430 0000000000 
1000435 0000000000 
100043A 0000000000 
1000440 0000000000 
1000445 0000000000 
100044A 0000000000 
1000450 0000000000 
1000455 0000000000 
100045A 0000000000 
1000460 0000000000 
1000465 0000000000 
100046A 0000000000 
1000470 0000000000 
1000475 0000000000 
100047A 0000000000 
1000480 0000000000 
1000485 0000000000 
100048A 0000000000 
1000490 0000000000 
1000495 0000000000 
100049A 0000000000 
10004A0 0000000000 
10004A5 0000000000 
10004AA 0000000000 
10004B0 0000000000 
10004B5 0000000000 
10004BA 0000000000 
10004C0 0000000000 
10004C5 0000000000 
10004CA 0000000000 
10004D0 0000000000 
10004D5 0000000000 
10004DA 0000000000 
10004E0 0000000000 
10004E5 0000000000 
10004EA 0000000000 
10004F0 0000000000 
10004F5 0000000000 
10004FA 0000000000 
1000500 0000000000 
1000505 0000000000 
100050A 0000000000 
1000510 0000000000 
1000515 0000000000 
100051A 0000000000 
1000520 0000000000 
1000525 0000000000 
100052A 0000000000 
1000530 0000000000 
1000535 0000000000 
100053A 0000000000 
1000540 0000000000 
1000545 0000000000 
100054A 0000000000 
1000550 0000000000 
1000555 0000000000 
100055A 0000000000 
1000560 0000000000 
1000565 0000000000 
100056A 0000000000 
1000570 0000000000 
1000575 0000000000 
100057A 0000000000 
1000580 0000000000 
1000585 0000000000 
100058A 0000000000 
1000590 0000000000 
1000595 0000000000 
100059A 0000000000 
10005A0 0000000000 
10005A5 0000000000 
10005AA 0000000000 
10005B0 0000000000 
10005B5 0000000000 
10005BA 0000000000 
10005C0 0000000000 
10005C5 0000000000 
10005CA 0000000000 
10005D0 0000000000 
10005D5 0000000000 
10005DA 0000000000 
10005E0 0000000000 
10005E5 0000000000 
10005EA 0000000000 
10005F0 0000000000 
10005F5 0000000000 
10005FA 0000000000 
1000600 0000000000 
1000605 0000000000 
100060A 0000000000 
1000610 0000000000 
1000615 0000000000 
100061A 0000000000 
1000620 0000000000 
1000625 0000000000 
100062A 0000000000 
1000630 0000000000 
1000635 0000000000 
100063A 0000000000 
1000640 0000000000 
1000645 0000000000 
100064A 0000000000 
1000650 0000000000 
1000655 0000000000 
100065A 0000000000 
1000660 0000000000 
1000665 0000000000 
100066A 0000000000 
1000670 0000000000 
1000675 0000000000 
100067A 0000000000 
1000680 0000000000 
1000685 0000000000 
100068A 0000000000 
1000690 0000000000 
1000695 0000000000 
100069A 0000000000 
10006A0 0000000000 
10006A5 0000000000 
10006AA 0000000000 
10006B0 0000000000 
10006B5 0000000000 
10006BA 0000000000 
10006C0 0000000000 
10006C5 0000000000 
10006CA 0000000000 
10006D0 0000000000 
10006D5 0000000000 
10006DA 0000000000 
10006E0 0000000000 
10006E5 0000000000 
10006EA 0000000000 
10006F0 0000000000 
10006F5 0000000000 
10006FA 0000000000 
1000700 0000000000 
1000705 0000000000 
100070A 0000000000 
1000710 0000000000 
1000715 0000000000 
100071A 0000000000 
1000720 0000000000 
1000725 0000000000 
100072A 0000000000 
1000730 0000000000 
1000735 0000000000 
100073A 0000000000 
1000740 0000000000 
1000745 0000000000 
100074A 0000000000 
1000750 0000000000 
1000755 0000000000 
100075A 0000000000 
1000760 0000000000 
1000765 0000000000 
100076A 0000000000 
1000770 0000000000 
1000775 0000000000 
100077A 0000000000 
1000780 0000000000 
1000785 0000000000 
100078A 0000000000 
1000790 0000000000 
1000795 0000000000 
100079A 0000000000 
10007A0 0000000000 
10007A5 0000000000 
10007AA 0000000000 
10007B0 0000000000 
10007B5 0000000000 
10007BA 0000000000 
10007C0 0000000000 
10007C5 0000000000 
10007CA 0000000000 
10007D0 0000000000 
10007D5 0000000000 
10007DA 0000000000 
10007E0 0000000000 
10007E5 0000000000 
10007EA 0000000000 
10007F0 0000000000 
10007F5 0000000000 
10007FA 0000000000 
1000800 0000000000 
1000805 0000000000 
100080A 0000000000 
1000810 0000000000 
1000815 0000000000 
100081A 0000000000 
1000820 0000000000 
1000825 0000000000 
100082A 0000000000 
1000830 0000000000 
1000835 0000000000 
100083A 0000000000 
1000840 0000000000 
1000845 0000000000 
100084A 0000000000 
1000850 0000000000 
1000855 0000000000 
100085A 0000000000 
1000860 0000000000 
1000865 0000000000 
100086A 0000000000 
1000870 0000000000 
1000875 0000000000 
100087A 0000000000 
1000880 0000000000 
1000885 0000000000 
100088A 0000000000 
1000890 0000000000 
1000895 0000000000 
100089A 0000000000 
10008A0 0000000000 
10008A5 0000000000 
10008AA 0000000000 
10008B0 0000000000 
10008B5 0000000000 
10008BA 0000000000 
10008C0 0000000000 
10008C5 0000000000 
10008CA 0000000000 
10008D0 0000000000 
10008D5 0000000000 
10008DA 0000000000 
10008E0 0000000000 
10008E5 0000000000 
10008EA 0000000000 
10008F0 0000000000 
10008F5 0000000000 
10008FA 0000000000 
1000900 0000000000 
1000905 0000000000 
100090A 0000000000 
1000910 0000000000 
1000915 0000000000 
100091A 0000000000 
1000920 0000000000 
1000925 0000000000 
100092A 0000000000 
1000930 0000000000 
1000935 0000000000 
100093A 0000000000 
1000940 0000000000 
1000945 0000000000 
100094A 0000000000 
                        		align	8                        	
                        		align	8                        	
                        		align	8                        	
                        		align	8                        	
                        		align	8                        	
1000950 0000000000 		fill.b	6,0x00
1000955         
                        		data
1000956       0000 		align	
                        	
                        		align	8                        	
1000958 0000000000 		fill.b	46,0x00
100095D 0000000000 
1000962 0000000000 
1000967 0000000000 
100096C 0000000000 
1000971 0000000000 
1000976 0000000000 
100097B 0000000000 
1000980 0000000000 
1000985         
1000986       0000 		align	
                        	
                        		align	8                        	
                        		align	8                        	
1000988 0000000000 		fill.b	1920,0x00
100098D 0000000000 
1000992 0000000000 
1000997 0000000000 
100099C 0000000000 
10009A1 0000000000 
10009A6 0000000000 
10009AB 0000000000 
10009B0 0000000000 
10009B5 0000000000 
10009BA 0000000000 
10009C0 0000000000 
10009C5 0000000000 
10009CA 0000000000 
10009D0 0000000000 
10009D5 0000000000 
10009DA 0000000000 
10009E0 0000000000 
10009E5 0000000000 
10009EA 0000000000 
10009F0 0000000000 
10009F5 0000000000 
10009FA 0000000000 
1000A00 0000000000 
1000A05 0000000000 
1000A0A 0000000000 
1000A10 0000000000 
1000A15 0000000000 
1000A1A 0000000000 
1000A20 0000000000 
1000A25 0000000000 
1000A2A 0000000000 
1000A30 0000000000 
1000A35 0000000000 
1000A3A 0000000000 
1000A40 0000000000 
1000A45 0000000000 
1000A4A 0000000000 
1000A50 0000000000 
1000A55 0000000000 
1000A5A 0000000000 
1000A60 0000000000 
1000A65 0000000000 
1000A6A 0000000000 
1000A70 0000000000 
1000A75 0000000000 
1000A7A 0000000000 
1000A80 0000000000 
1000A85 0000000000 
1000A8A 0000000000 
1000A90 0000000000 
1000A95 0000000000 
1000A9A 0000000000 
1000AA0 0000000000 
1000AA5 0000000000 
1000AAA 0000000000 
1000AB0 0000000000 
1000AB5 0000000000 
1000ABA 0000000000 
1000AC0 0000000000 
1000AC5 0000000000 
1000ACA 0000000000 
1000AD0 0000000000 
1000AD5 0000000000 
1000ADA 0000000000 
1000AE0 0000000000 
1000AE5 0000000000 
1000AEA 0000000000 
1000AF0 0000000000 
1000AF5 0000000000 
1000AFA 0000000000 
1000B00 0000000000 
1000B05 0000000000 
1000B0A 0000000000 
1000B10 0000000000 
1000B15 0000000000 
1000B1A 0000000000 
1000B20 0000000000 
1000B25 0000000000 
1000B2A 0000000000 
1000B30 0000000000 
1000B35 0000000000 
1000B3A 0000000000 
1000B40 0000000000 
1000B45 0000000000 
1000B4A 0000000000 
1000B50 0000000000 
1000B55 0000000000 
1000B5A 0000000000 
1000B60 0000000000 
1000B65 0000000000 
1000B6A 0000000000 
1000B70 0000000000 
1000B75 0000000000 
1000B7A 0000000000 
1000B80 0000000000 
1000B85 0000000000 
1000B8A 0000000000 
1000B90 0000000000 
1000B95 0000000000 
1000B9A 0000000000 
1000BA0 0000000000 
1000BA5 0000000000 
1000BAA 0000000000 
1000BB0 0000000000 
1000BB5 0000000000 
1000BBA 0000000000 
1000BC0 0000000000 
1000BC5 0000000000 
1000BCA 0000000000 
1000BD0 0000000000 
1000BD5 0000000000 
1000BDA 0000000000 
1000BE0 0000000000 
1000BE5 0000000000 
1000BEA 0000000000 
1000BF0 0000000000 
1000BF5 0000000000 
1000BFA 0000000000 
1000C00 0000000000 
1000C05 0000000000 
1000C0A 0000000000 
1000C10 0000000000 
1000C15 0000000000 
1000C1A 0000000000 
1000C20 0000000000 
1000C25 0000000000 
1000C2A 0000000000 
1000C30 0000000000 
1000C35 0000000000 
1000C3A 0000000000 
1000C40 0000000000 
1000C45 0000000000 
1000C4A 0000000000 
1000C50 0000000000 
1000C55 0000000000 
1000C5A 0000000000 
1000C60 0000000000 
1000C65 0000000000 
1000C6A 0000000000 
1000C70 0000000000 
1000C75 0000000000 
1000C7A 0000000000 
1000C80 0000000000 
1000C85 0000000000 
1000C8A 0000000000 
1000C90 0000000000 
1000C95 0000000000 
1000C9A 0000000000 
1000CA0 0000000000 
1000CA5 0000000000 
1000CAA 0000000000 
1000CB0 0000000000 
1000CB5 0000000000 
1000CBA 0000000000 
1000CC0 0000000000 
1000CC5 0000000000 
1000CCA 0000000000 
1000CD0 0000000000 
1000CD5 0000000000 
1000CDA 0000000000 
1000CE0 0000000000 
1000CE5 0000000000 
1000CEA 0000000000 
1000CF0 0000000000 
1000CF5 0000000000 
1000CFA 0000000000 
1000D00 0000000000 
1000D05 0000000000 
1000D0A 0000000000 
1000D10 0000000000 
1000D15 0000000000 
1000D1A 0000000000 
1000D20 0000000000 
1000D25 0000000000 
1000D2A 0000000000 
1000D30 0000000000 
1000D35 0000000000 
1000D3A 0000000000 
1000D40 0000000000 
1000D45 0000000000 
1000D4A 0000000000 
1000D50 0000000000 
1000D55 0000000000 
1000D5A 0000000000 
1000D60 0000000000 
1000D65 0000000000 
1000D6A 0000000000 
1000D70 0000000000 
1000D75 0000000000 
1000D7A 0000000000 
1000D80 0000000000 
1000D85 0000000000 
1000D8A 0000000000 
1000D90 0000000000 
1000D95 0000000000 
1000D9A 0000000000 
1000DA0 0000000000 
1000DA5 0000000000 
1000DAA 0000000000 
1000DB0 0000000000 
1000DB5 0000000000 
1000DBA 0000000000 
1000DC0 0000000000 
1000DC5 0000000000 
1000DCA 0000000000 
1000DD0 0000000000 
1000DD5 0000000000 
1000DDA 0000000000 
1000DE0 0000000000 
1000DE5 0000000000 
1000DEA 0000000000 
1000DF0 0000000000 
1000DF5 0000000000 
1000DFA 0000000000 
1000E00 0000000000 
1000E05 0000000000 
1000E0A 0000000000 
1000E10 0000000000 
1000E15 0000000000 
1000E1A 0000000000 
1000E20 0000000000 
1000E25 0000000000 
1000E2A 0000000000 
1000E30 0000000000 
1000E35 0000000000 
1000E3A 0000000000 
1000E40 0000000000 
1000E45 0000000000 
1000E4A 0000000000 
1000E50 0000000000 
1000E55 0000000000 
1000E5A 0000000000 
1000E60 0000000000 
1000E65 0000000000 
1000E6A 0000000000 
1000E70 0000000000 
1000E75 0000000000 
1000E7A 0000000000 
1000E80 0000000000 
1000E85 0000000000 
1000E8A 0000000000 
1000E90 0000000000 
1000E95 0000000000 
1000E9A 0000000000 
1000EA0 0000000000 
1000EA5 0000000000 
1000EAA 0000000000 
1000EB0 0000000000 
1000EB5 0000000000 
1000EBA 0000000000 
1000EC0 0000000000 
1000EC5 0000000000 
1000ECA 0000000000 
1000ED0 0000000000 
1000ED5 0000000000 
1000EDA 0000000000 
1000EE0 0000000000 
1000EE5 0000000000 
1000EEA 0000000000 
1000EF0 0000000000 
1000EF5 0000000000 
1000EFA 0000000000 
1000F00 0000000000 
1000F05 0000000000 
1000F0A 0000000000 
1000F10 0000000000 
1000F15 0000000000 
1000F1A 0000000000 
1000F20 0000000000 
1000F25 0000000000 
1000F2A 0000000000 
1000F30 0000000000 
1000F35 0000000000 
1000F3A 0000000000 
1000F40 0000000000 
1000F45 0000000000 
1000F4A 0000000000 
1000F50 0000000000 
1000F55 0000000000 
1000F5A 0000000000 
1000F60 0000000000 
1000F65 0000000000 
1000F6A 0000000000 
1000F70 0000000000 
1000F75 0000000000 
1000F7A 0000000000 
1000F80 0000000000 
1000F85 0000000000 
1000F8A 0000000000 
1000F90 0000000000 
1000F95 0000000000 
1000F9A 0000000000 
1000FA0 0000000000 
1000FA5 0000000000 
1000FAA 0000000000 
1000FB0 0000000000 
1000FB5 0000000000 
1000FBA 0000000000 
1000FC0 0000000000 
1000FC5 0000000000 
1000FCA 0000000000 
1000FD0 0000000000 
1000FD5 0000000000 
1000FDA 0000000000 
1000FE0 0000000000 
1000FE5 0000000000 
1000FEA 0000000000 
1000FF0 0000000000 
1000FF5 0000000000 
1000FFA 0000000000 
1001000 0000000000 
1001005 0000000000 
100100A 0000000000 
1001010 0000000000 
1001015 0000000000 
100101A 0000000000 
1001020 0000000000 
1001025 0000000000 
100102A 0000000000 
1001030 0000000000 
1001035 0000000000 
100103A 0000000000 
1001040 0000000000 
1001045 0000000000 
100104A 0000000000 
1001050 0000000000 
1001055 0000000000 
100105A 0000000000 
1001060 0000000000 
1001065 0000000000 
100106A 0000000000 
1001070 0000000000 
1001075 0000000000 
100107A 0000000000 
1001080 0000000000 
1001085 0000000000 
100108A 0000000000 
1001090 0000000000 
1001095 0000000000 
100109A 0000000000 
10010A0 0000000000 
10010A5 0000000000 
10010AA 0000000000 
10010B0 0000000000 
10010B5 0000000000 
10010BA 0000000000 
10010C0 0000000000 
10010C5 0000000000 
10010CA 0000000000 
10010D0 0000000000 
10010D5 0000000000 
10010DA 0000000000 
10010E0 0000000000 
10010E5 0000000000 
10010EA 0000000000 
10010F0 0000000000 
10010F5 0000000000 
10010FA 0000000000 
1001100 0000000000 
1001105     000000     
                        		align	8                        	
                        		align	8                        	
                        		align	8                        	
                        		align	8                        	
                        		align	8                        	
1001108 0000000000 		fill.b	6,0x00
100110D         
                        		data
100110E       0000 		align	
                        	
1001110 0000000000 		fill.b	1878,0x00
1001115 0000000000 
100111A 0000000000 
1001120 0000000000 
1001125 0000000000 
100112A 0000000000 
1001130 0000000000 
1001135 0000000000 
100113A 0000000000 
1001140 0000000000 
1001145 0000000000 
100114A 0000000000 
1001150 0000000000 
1001155 0000000000 
100115A 0000000000 
1001160 0000000000 
1001165 0000000000 
100116A 0000000000 
1001170 0000000000 
1001175 0000000000 
100117A 0000000000 
1001180 0000000000 
1001185 0000000000 
100118A 0000000000 
1001190 0000000000 
1001195 0000000000 
100119A 0000000000 
10011A0 0000000000 
10011A5 0000000000 
10011AA 0000000000 
10011B0 0000000000 
10011B5 0000000000 
10011BA 0000000000 
10011C0 0000000000 
10011C5 0000000000 
10011CA 0000000000 
10011D0 0000000000 
10011D5 0000000000 
10011DA 0000000000 
10011E0 0000000000 
10011E5 0000000000 
10011EA 0000000000 
10011F0 0000000000 
10011F5 0000000000 
10011FA 0000000000 
1001200 0000000000 
1001205 0000000000 
100120A 0000000000 
1001210 0000000000 
1001215 0000000000 
100121A 0000000000 
1001220 0000000000 
1001225 0000000000 
100122A 0000000000 
1001230 0000000000 
1001235 0000000000 
100123A 0000000000 
1001240 0000000000 
1001245 0000000000 
100124A 0000000000 
1001250 0000000000 
1001255 0000000000 
100125A 0000000000 
1001260 0000000000 
1001265 0000000000 
100126A 0000000000 
1001270 0000000000 
1001275 0000000000 
100127A 0000000000 
1001280 0000000000 
1001285 0000000000 
100128A 0000000000 
1001290 0000000000 
1001295 0000000000 
100129A 0000000000 
10012A0 0000000000 
10012A5 0000000000 
10012AA 0000000000 
10012B0 0000000000 
10012B5 0000000000 
10012BA 0000000000 
10012C0 0000000000 
10012C5 0000000000 
10012CA 0000000000 
10012D0 0000000000 
10012D5 0000000000 
10012DA 0000000000 
10012E0 0000000000 
10012E5 0000000000 
10012EA 0000000000 
10012F0 0000000000 
10012F5 0000000000 
10012FA 0000000000 
1001300 0000000000 
1001305 0000000000 
100130A 0000000000 
1001310 0000000000 
1001315 0000000000 
100131A 0000000000 
1001320 0000000000 
1001325 0000000000 
100132A 0000000000 
1001330 0000000000 
1001335 0000000000 
100133A 0000000000 
1001340 0000000000 
1001345 0000000000 
100134A 0000000000 
1001350 0000000000 
1001355 0000000000 
100135A 0000000000 
1001360 0000000000 
1001365 0000000000 
100136A 0000000000 
1001370 0000000000 
1001375 0000000000 
100137A 0000000000 
1001380 0000000000 
1001385 0000000000 
100138A 0000000000 
1001390 0000000000 
1001395 0000000000 
100139A 0000000000 
10013A0 0000000000 
10013A5 0000000000 
10013AA 0000000000 
10013B0 0000000000 
10013B5 0000000000 
10013BA 0000000000 
10013C0 0000000000 
10013C5 0000000000 
10013CA 0000000000 
10013D0 0000000000 
10013D5 0000000000 
10013DA 0000000000 
10013E0 0000000000 
10013E5 0000000000 
10013EA 0000000000 
10013F0 0000000000 
10013F5 0000000000 
10013FA 0000000000 
1001400 0000000000 
1001405 0000000000 
100140A 0000000000 
1001410 0000000000 
1001415 0000000000 
100141A 0000000000 
1001420 0000000000 
1001425 0000000000 
100142A 0000000000 
1001430 0000000000 
1001435 0000000000 
100143A 0000000000 
1001440 0000000000 
1001445 0000000000 
100144A 0000000000 
1001450 0000000000 
1001455 0000000000 
100145A 0000000000 
1001460 0000000000 
1001465 0000000000 
100146A 0000000000 
1001470 0000000000 
1001475 0000000000 
100147A 0000000000 
1001480 0000000000 
1001485 0000000000 
100148A 0000000000 
1001490 0000000000 
1001495 0000000000 
100149A 0000000000 
10014A0 0000000000 
10014A5 0000000000 
10014AA 0000000000 
10014B0 0000000000 
10014B5 0000000000 
10014BA 0000000000 
10014C0 0000000000 
10014C5 0000000000 
10014CA 0000000000 
10014D0 0000000000 
10014D5 0000000000 
10014DA 0000000000 
10014E0 0000000000 
10014E5 0000000000 
10014EA 0000000000 
10014F0 0000000000 
10014F5 0000000000 
10014FA 0000000000 
1001500 0000000000 
1001505 0000000000 
100150A 0000000000 
1001510 0000000000 
1001515 0000000000 
100151A 0000000000 
1001520 0000000000 
1001525 0000000000 
100152A 0000000000 
1001530 0000000000 
1001535 0000000000 
100153A 0000000000 
1001540 0000000000 
1001545 0000000000 
100154A 0000000000 
1001550 0000000000 
1001555 0000000000 
100155A 0000000000 
1001560 0000000000 
1001565 0000000000 
100156A 0000000000 
1001570 0000000000 
1001575 0000000000 
100157A 0000000000 
1001580 0000000000 
1001585 0000000000 
100158A 0000000000 
1001590 0000000000 
1001595 0000000000 
100159A 0000000000 
10015A0 0000000000 
10015A5 0000000000 
10015AA 0000000000 
10015B0 0000000000 
10015B5 0000000000 
10015BA 0000000000 
10015C0 0000000000 
10015C5 0000000000 
10015CA 0000000000 
10015D0 0000000000 
10015D5 0000000000 
10015DA 0000000000 
10015E0 0000000000 
10015E5 0000000000 
10015EA 0000000000 
10015F0 0000000000 
10015F5 0000000000 
10015FA 0000000000 
1001600 0000000000 
1001605 0000000000 
100160A 0000000000 
1001610 0000000000 
1001615 0000000000 
100161A 0000000000 
1001620 0000000000 
1001625 0000000000 
100162A 0000000000 
1001630 0000000000 
1001635 0000000000 
100163A 0000000000 
1001640 0000000000 
1001645 0000000000 
100164A 0000000000 
1001650 0000000000 
1001655 0000000000 
100165A 0000000000 
1001660 0000000000 
1001665 0000000000 
100166A 0000000000 
1001670 0000000000 
1001675 0000000000 
100167A 0000000000 
1001680 0000000000 
1001685 0000000000 
100168A 0000000000 
1001690 0000000000 
1001695 0000000000 
100169A 0000000000 
10016A0 0000000000 
10016A5 0000000000 
10016AA 0000000000 
10016B0 0000000000 
10016B5 0000000000 
10016BA 0000000000 
10016C0 0000000000 
10016C5 0000000000 
10016CA 0000000000 
10016D0 0000000000 
10016D5 0000000000 
10016DA 0000000000 
10016E0 0000000000 
10016E5 0000000000 
10016EA 0000000000 
10016F0 0000000000 
10016F5 0000000000 
10016FA 0000000000 
1001700 0000000000 
1001705 0000000000 
100170A 0000000000 
1001710 0000000000 
1001715 0000000000 
100171A 0000000000 
1001720 0000000000 
1001725 0000000000 
100172A 0000000000 
1001730 0000000000 
1001735 0000000000 
100173A 0000000000 
1001740 0000000000 
1001745 0000000000 
100174A 0000000000 
1001750 0000000000 
1001755 0000000000 
100175A 0000000000 
1001760 0000000000 
1001765 0000000000 
100176A 0000000000 
1001770 0000000000 
1001775 0000000000 
100177A 0000000000 
1001780 0000000000 
1001785 0000000000 
100178A 0000000000 
1001790 0000000000 
1001795 0000000000 
100179A 0000000000 
10017A0 0000000000 
10017A5 0000000000 
10017AA 0000000000 
10017B0 0000000000 
10017B5 0000000000 
10017BA 0000000000 
10017C0 0000000000 
10017C5 0000000000 
10017CA 0000000000 
10017D0 0000000000 
10017D5 0000000000 
10017DA 0000000000 
10017E0 0000000000 
10017E5 0000000000 
10017EA 0000000000 
10017F0 0000000000 
10017F5 0000000000 
10017FA 0000000000 
1001800 0000000000 
1001805 0000000000 
100180A 0000000000 
1001810 0000000000 
1001815 0000000000 
100181A 0000000000 
1001820 0000000000 
1001825 0000000000 
100182A 0000000000 
1001830 0000000000 
1001835 0000000000 
100183A 0000000000 
1001840 0000000000 
1001845 0000000000 
100184A 0000000000 
1001850 0000000000 
1001855 0000000000 
100185A 0000000000 
1001860 0000000000 
1001865         
                        		data
1001866       0000 		align	
                        	
1001868   00000000 		fill.b	4,0x00
                        		data
100186C   00000000 		align	
                        	
1001870 0000000000 		fill.b	60,0x00
1001875 0000000000 
100187A 0000000000 
1001880 0000000000 
1001885 0000000000 
100188A 0000000000 
1001890 0000000000 
1001895 0000000000 
100189A 0000000000 
10018A0 0000000000 
10018A5 0000000000 
10018AA       0000       
                        		data
10018AC   00000000 		align	
                        	
10018B0 0000000000 		fill.b	8,0x00
10018B5     000000     
                        		data
                        		align	8                        	
10018B8   00000000 		fill.b	4,0x00
                        		data
10018BC   00000000 		align	
                        	
10018C0 0000000000 		fill.b	8,0x00
10018C5     000000     
                        		data
                        		align	2                        	
                        	FMTKc_33:	; _startQNdx
10018C8       0000 		fill.b	2,0x00
                        		data
                        		align	2                        	
                        	FMTKc_134:	; _ex
10018CA 0000000000 		dd	0
10018D0   00000000   
                        		data
10018D4   00000000 		align	
                        	
                        		data
                        		align	8                        	
                        		data
                        		align	8                        	
                        		align	8                        	
10018D8 0000000000 		fill.b	46,0x00
10018DD 0000000000 
10018E2 0000000000 
10018E7 0000000000 
10018EC 0000000000 
10018F1 0000000000 
10018F6 0000000000 
10018FB 0000000000 
1001900 0000000000 
1001905         
1001906       0000 		align	
                        	
                        		align	8                        	
                        		align	8                        	
1001908 0000000000 		fill.b	1920,0x00
100190D 0000000000 
1001912 0000000000 
1001917 0000000000 
100191C 0000000000 
1001921 0000000000 
1001926 0000000000 
100192B 0000000000 
1001930 0000000000 
1001935 0000000000 
100193A 0000000000 
1001940 0000000000 
1001945 0000000000 
100194A 0000000000 
1001950 0000000000 
1001955 0000000000 
100195A 0000000000 
1001960 0000000000 
1001965 0000000000 
100196A 0000000000 
1001970 0000000000 
1001975 0000000000 
100197A 0000000000 
1001980 0000000000 
1001985 0000000000 
100198A 0000000000 
1001990 0000000000 
1001995 0000000000 
100199A 0000000000 
10019A0 0000000000 
10019A5 0000000000 
10019AA 0000000000 
10019B0 0000000000 
10019B5 0000000000 
10019BA 0000000000 
10019C0 0000000000 
10019C5 0000000000 
10019CA 0000000000 
10019D0 0000000000 
10019D5 0000000000 
10019DA 0000000000 
10019E0 0000000000 
10019E5 0000000000 
10019EA 0000000000 
10019F0 0000000000 
10019F5 0000000000 
10019FA 0000000000 
1001A00 0000000000 
1001A05 0000000000 
1001A0A 0000000000 
1001A10 0000000000 
1001A15 0000000000 
1001A1A 0000000000 
1001A20 0000000000 
1001A25 0000000000 
1001A2A 0000000000 
1001A30 0000000000 
1001A35 0000000000 
1001A3A 0000000000 
1001A40 0000000000 
1001A45 0000000000 
1001A4A 0000000000 
1001A50 0000000000 
1001A55 0000000000 
1001A5A 0000000000 
1001A60 0000000000 
1001A65 0000000000 
1001A6A 0000000000 
1001A70 0000000000 
1001A75 0000000000 
1001A7A 0000000000 
1001A80 0000000000 
1001A85 0000000000 
1001A8A 0000000000 
1001A90 0000000000 
1001A95 0000000000 
1001A9A 0000000000 
1001AA0 0000000000 
1001AA5 0000000000 
1001AAA 0000000000 
1001AB0 0000000000 
1001AB5 0000000000 
1001ABA 0000000000 
1001AC0 0000000000 
1001AC5 0000000000 
1001ACA 0000000000 
1001AD0 0000000000 
1001AD5 0000000000 
1001ADA 0000000000 
1001AE0 0000000000 
1001AE5 0000000000 
1001AEA 0000000000 
1001AF0 0000000000 
1001AF5 0000000000 
1001AFA 0000000000 
1001B00 0000000000 
1001B05 0000000000 
1001B0A 0000000000 
1001B10 0000000000 
1001B15 0000000000 
1001B1A 0000000000 
1001B20 0000000000 
1001B25 0000000000 
1001B2A 0000000000 
1001B30 0000000000 
1001B35 0000000000 
1001B3A 0000000000 
1001B40 0000000000 
1001B45 0000000000 
1001B4A 0000000000 
1001B50 0000000000 
1001B55 0000000000 
1001B5A 0000000000 
1001B60 0000000000 
1001B65 0000000000 
1001B6A 0000000000 
1001B70 0000000000 
1001B75 0000000000 
1001B7A 0000000000 
1001B80 0000000000 
1001B85 0000000000 
1001B8A 0000000000 
1001B90 0000000000 
1001B95 0000000000 
1001B9A 0000000000 
1001BA0 0000000000 
1001BA5 0000000000 
1001BAA 0000000000 
1001BB0 0000000000 
1001BB5 0000000000 
1001BBA 0000000000 
1001BC0 0000000000 
1001BC5 0000000000 
1001BCA 0000000000 
1001BD0 0000000000 
1001BD5 0000000000 
1001BDA 0000000000 
1001BE0 0000000000 
1001BE5 0000000000 
1001BEA 0000000000 
1001BF0 0000000000 
1001BF5 0000000000 
1001BFA 0000000000 
1001C00 0000000000 
1001C05 0000000000 
1001C0A 0000000000 
1001C10 0000000000 
1001C15 0000000000 
1001C1A 0000000000 
1001C20 0000000000 
1001C25 0000000000 
1001C2A 0000000000 
1001C30 0000000000 
1001C35 0000000000 
1001C3A 0000000000 
1001C40 0000000000 
1001C45 0000000000 
1001C4A 0000000000 
1001C50 0000000000 
1001C55 0000000000 
1001C5A 0000000000 
1001C60 0000000000 
1001C65 0000000000 
1001C6A 0000000000 
1001C70 0000000000 
1001C75 0000000000 
1001C7A 0000000000 
1001C80 0000000000 
1001C85 0000000000 
1001C8A 0000000000 
1001C90 0000000000 
1001C95 0000000000 
1001C9A 0000000000 
1001CA0 0000000000 
1001CA5 0000000000 
1001CAA 0000000000 
1001CB0 0000000000 
1001CB5 0000000000 
1001CBA 0000000000 
1001CC0 0000000000 
1001CC5 0000000000 
1001CCA 0000000000 
1001CD0 0000000000 
1001CD5 0000000000 
1001CDA 0000000000 
1001CE0 0000000000 
1001CE5 0000000000 
1001CEA 0000000000 
1001CF0 0000000000 
1001CF5 0000000000 
1001CFA 0000000000 
1001D00 0000000000 
1001D05 0000000000 
1001D0A 0000000000 
1001D10 0000000000 
1001D15 0000000000 
1001D1A 0000000000 
1001D20 0000000000 
1001D25 0000000000 
1001D2A 0000000000 
1001D30 0000000000 
1001D35 0000000000 
1001D3A 0000000000 
1001D40 0000000000 
1001D45 0000000000 
1001D4A 0000000000 
1001D50 0000000000 
1001D55 0000000000 
1001D5A 0000000000 
1001D60 0000000000 
1001D65 0000000000 
1001D6A 0000000000 
1001D70 0000000000 
1001D75 0000000000 
1001D7A 0000000000 
1001D80 0000000000 
1001D85 0000000000 
1001D8A 0000000000 
1001D90 0000000000 
1001D95 0000000000 
1001D9A 0000000000 
1001DA0 0000000000 
1001DA5 0000000000 
1001DAA 0000000000 
1001DB0 0000000000 
1001DB5 0000000000 
1001DBA 0000000000 
1001DC0 0000000000 
1001DC5 0000000000 
1001DCA 0000000000 
1001DD0 0000000000 
1001DD5 0000000000 
1001DDA 0000000000 
1001DE0 0000000000 
1001DE5 0000000000 
1001DEA 0000000000 
1001DF0 0000000000 
1001DF5 0000000000 
1001DFA 0000000000 
1001E00 0000000000 
1001E05 0000000000 
1001E0A 0000000000 
1001E10 0000000000 
1001E15 0000000000 
1001E1A 0000000000 
1001E20 0000000000 
1001E25 0000000000 
1001E2A 0000000000 
1001E30 0000000000 
1001E35 0000000000 
1001E3A 0000000000 
1001E40 0000000000 
1001E45 0000000000 
1001E4A 0000000000 
1001E50 0000000000 
1001E55 0000000000 
1001E5A 0000000000 
1001E60 0000000000 
1001E65 0000000000 
1001E6A 0000000000 
1001E70 0000000000 
1001E75 0000000000 
1001E7A 0000000000 
1001E80 0000000000 
1001E85 0000000000 
1001E8A 0000000000 
1001E90 0000000000 
1001E95 0000000000 
1001E9A 0000000000 
1001EA0 0000000000 
1001EA5 0000000000 
1001EAA 0000000000 
1001EB0 0000000000 
1001EB5 0000000000 
1001EBA 0000000000 
1001EC0 0000000000 
1001EC5 0000000000 
1001ECA 0000000000 
1001ED0 0000000000 
1001ED5 0000000000 
1001EDA 0000000000 
1001EE0 0000000000 
1001EE5 0000000000 
1001EEA 0000000000 
1001EF0 0000000000 
1001EF5 0000000000 
1001EFA 0000000000 
1001F00 0000000000 
1001F05 0000000000 
1001F0A 0000000000 
1001F10 0000000000 
1001F15 0000000000 
1001F1A 0000000000 
1001F20 0000000000 
1001F25 0000000000 
1001F2A 0000000000 
1001F30 0000000000 
1001F35 0000000000 
1001F3A 0000000000 
1001F40 0000000000 
1001F45 0000000000 
1001F4A 0000000000 
1001F50 0000000000 
1001F55 0000000000 
1001F5A 0000000000 
1001F60 0000000000 
1001F65 0000000000 
1001F6A 0000000000 
1001F70 0000000000 
1001F75 0000000000 
1001F7A 0000000000 
1001F80 0000000000 
1001F85 0000000000 
1001F8A 0000000000 
1001F90 0000000000 
1001F95 0000000000 
1001F9A 0000000000 
1001FA0 0000000000 
1001FA5 0000000000 
1001FAA 0000000000 
1001FB0 0000000000 
1001FB5 0000000000 
1001FBA 0000000000 
1001FC0 0000000000 
1001FC5 0000000000 
1001FCA 0000000000 
1001FD0 0000000000 
1001FD5 0000000000 
1001FDA 0000000000 
1001FE0 0000000000 
1001FE5 0000000000 
1001FEA 0000000000 
1001FF0 0000000000 
1001FF5 0000000000 
1001FFA 0000000000 
1002000 0000000000 
1002005 0000000000 
100200A 0000000000 
1002010 0000000000 
1002015 0000000000 
100201A 0000000000 
1002020 0000000000 
1002025 0000000000 
100202A 0000000000 
1002030 0000000000 
1002035 0000000000 
100203A 0000000000 
1002040 0000000000 
1002045 0000000000 
100204A 0000000000 
1002050 0000000000 
1002055 0000000000 
100205A 0000000000 
1002060 0000000000 
1002065 0000000000 
100206A 0000000000 
1002070 0000000000 
1002075 0000000000 
100207A 0000000000 
1002080 0000000000 
1002085     000000     
                        		align	8                        	
                        		align	8                        	
                        		align	8                        	
                        		align	8                        	
                        		align	8                        	
1002088 0000000000 		fill.b	6,0x00
100208D         
                        		data
100208E       0000 		align	
                        	
                        		data
                        		align	8                        	
                        		align	8                        	
1002090 0000000000 		fill.b	46,0x00
1002095 0000000000 
100209A 0000000000 
10020A0 0000000000 
10020A5 0000000000 
10020AA 0000000000 
10020B0 0000000000 
10020B5 0000000000 
10020BA   00000000   
10020BE       0000 		align	
                        	
                        		align	8                        	
                        		align	8                        	
10020C0 0000000000 		fill.b	1920,0x00
10020C5 0000000000 
10020CA 0000000000 
10020D0 0000000000 
10020D5 0000000000 
10020DA 0000000000 
10020E0 0000000000 
10020E5 0000000000 
10020EA 0000000000 
10020F0 0000000000 
10020F5 0000000000 
10020FA 0000000000 
1002100 0000000000 
1002105 0000000000 
100210A 0000000000 
1002110 0000000000 
1002115 0000000000 
100211A 0000000000 
1002120 0000000000 
1002125 0000000000 
100212A 0000000000 
1002130 0000000000 
1002135 0000000000 
100213A 0000000000 
1002140 0000000000 
1002145 0000000000 
100214A 0000000000 
1002150 0000000000 
1002155 0000000000 
100215A 0000000000 
1002160 0000000000 
1002165 0000000000 
100216A 0000000000 
1002170 0000000000 
1002175 0000000000 
100217A 0000000000 
1002180 0000000000 
1002185 0000000000 
100218A 0000000000 
1002190 0000000000 
1002195 0000000000 
100219A 0000000000 
10021A0 0000000000 
10021A5 0000000000 
10021AA 0000000000 
10021B0 0000000000 
10021B5 0000000000 
10021BA 0000000000 
10021C0 0000000000 
10021C5 0000000000 
10021CA 0000000000 
10021D0 0000000000 
10021D5 0000000000 
10021DA 0000000000 
10021E0 0000000000 
10021E5 0000000000 
10021EA 0000000000 
10021F0 0000000000 
10021F5 0000000000 
10021FA 0000000000 
1002200 0000000000 
1002205 0000000000 
100220A 0000000000 
1002210 0000000000 
1002215 0000000000 
100221A 0000000000 
1002220 0000000000 
1002225 0000000000 
100222A 0000000000 
1002230 0000000000 
1002235 0000000000 
100223A 0000000000 
1002240 0000000000 
1002245 0000000000 
100224A 0000000000 
1002250 0000000000 
1002255 0000000000 
100225A 0000000000 
1002260 0000000000 
1002265 0000000000 
100226A 0000000000 
1002270 0000000000 
1002275 0000000000 
100227A 0000000000 
1002280 0000000000 
1002285 0000000000 
100228A 0000000000 
1002290 0000000000 
1002295 0000000000 
100229A 0000000000 
10022A0 0000000000 
10022A5 0000000000 
10022AA 0000000000 
10022B0 0000000000 
10022B5 0000000000 
10022BA 0000000000 
10022C0 0000000000 
10022C5 0000000000 
10022CA 0000000000 
10022D0 0000000000 
10022D5 0000000000 
10022DA 0000000000 
10022E0 0000000000 
10022E5 0000000000 
10022EA 0000000000 
10022F0 0000000000 
10022F5 0000000000 
10022FA 0000000000 
1002300 0000000000 
1002305 0000000000 
100230A 0000000000 
1002310 0000000000 
1002315 0000000000 
100231A 0000000000 
1002320 0000000000 
1002325 0000000000 
100232A 0000000000 
1002330 0000000000 
1002335 0000000000 
100233A 0000000000 
1002340 0000000000 
1002345 0000000000 
100234A 0000000000 
1002350 0000000000 
1002355 0000000000 
100235A 0000000000 
1002360 0000000000 
1002365 0000000000 
100236A 0000000000 
1002370 0000000000 
1002375 0000000000 
100237A 0000000000 
1002380 0000000000 
1002385 0000000000 
100238A 0000000000 
1002390 0000000000 
1002395 0000000000 
100239A 0000000000 
10023A0 0000000000 
10023A5 0000000000 
10023AA 0000000000 
10023B0 0000000000 
10023B5 0000000000 
10023BA 0000000000 
10023C0 0000000000 
10023C5 0000000000 
10023CA 0000000000 
10023D0 0000000000 
10023D5 0000000000 
10023DA 0000000000 
10023E0 0000000000 
10023E5 0000000000 
10023EA 0000000000 
10023F0 0000000000 
10023F5 0000000000 
10023FA 0000000000 
1002400 0000000000 
1002405 0000000000 
100240A 0000000000 
1002410 0000000000 
1002415 0000000000 
100241A 0000000000 
1002420 0000000000 
1002425 0000000000 
100242A 0000000000 
1002430 0000000000 
1002435 0000000000 
100243A 0000000000 
1002440 0000000000 
1002445 0000000000 
100244A 0000000000 
1002450 0000000000 
1002455 0000000000 
100245A 0000000000 
1002460 0000000000 
1002465 0000000000 
100246A 0000000000 
1002470 0000000000 
1002475 0000000000 
100247A 0000000000 
1002480 0000000000 
1002485 0000000000 
100248A 0000000000 
1002490 0000000000 
1002495 0000000000 
100249A 0000000000 
10024A0 0000000000 
10024A5 0000000000 
10024AA 0000000000 
10024B0 0000000000 
10024B5 0000000000 
10024BA 0000000000 
10024C0 0000000000 
10024C5 0000000000 
10024CA 0000000000 
10024D0 0000000000 
10024D5 0000000000 
10024DA 0000000000 
10024E0 0000000000 
10024E5 0000000000 
10024EA 0000000000 
10024F0 0000000000 
10024F5 0000000000 
10024FA 0000000000 
1002500 0000000000 
1002505 0000000000 
100250A 0000000000 
1002510 0000000000 
1002515 0000000000 
100251A 0000000000 
1002520 0000000000 
1002525 0000000000 
100252A 0000000000 
1002530 0000000000 
1002535 0000000000 
100253A 0000000000 
1002540 0000000000 
1002545 0000000000 
100254A 0000000000 
1002550 0000000000 
1002555 0000000000 
100255A 0000000000 
1002560 0000000000 
1002565 0000000000 
100256A 0000000000 
1002570 0000000000 
1002575 0000000000 
100257A 0000000000 
1002580 0000000000 
1002585 0000000000 
100258A 0000000000 
1002590 0000000000 
1002595 0000000000 
100259A 0000000000 
10025A0 0000000000 
10025A5 0000000000 
10025AA 0000000000 
10025B0 0000000000 
10025B5 0000000000 
10025BA 0000000000 
10025C0 0000000000 
10025C5 0000000000 
10025CA 0000000000 
10025D0 0000000000 
10025D5 0000000000 
10025DA 0000000000 
10025E0 0000000000 
10025E5 0000000000 
10025EA 0000000000 
10025F0 0000000000 
10025F5 0000000000 
10025FA 0000000000 
1002600 0000000000 
1002605 0000000000 
100260A 0000000000 
1002610 0000000000 
1002615 0000000000 
100261A 0000000000 
1002620 0000000000 
1002625 0000000000 
100262A 0000000000 
1002630 0000000000 
1002635 0000000000 
100263A 0000000000 
1002640 0000000000 
1002645 0000000000 
100264A 0000000000 
1002650 0000000000 
1002655 0000000000 
100265A 0000000000 
1002660 0000000000 
1002665 0000000000 
100266A 0000000000 
1002670 0000000000 
1002675 0000000000 
100267A 0000000000 
1002680 0000000000 
1002685 0000000000 
100268A 0000000000 
1002690 0000000000 
1002695 0000000000 
100269A 0000000000 
10026A0 0000000000 
10026A5 0000000000 
10026AA 0000000000 
10026B0 0000000000 
10026B5 0000000000 
10026BA 0000000000 
10026C0 0000000000 
10026C5 0000000000 
10026CA 0000000000 
10026D0 0000000000 
10026D5 0000000000 
10026DA 0000000000 
10026E0 0000000000 
10026E5 0000000000 
10026EA 0000000000 
10026F0 0000000000 
10026F5 0000000000 
10026FA 0000000000 
1002700 0000000000 
1002705 0000000000 
100270A 0000000000 
1002710 0000000000 
1002715 0000000000 
100271A 0000000000 
1002720 0000000000 
1002725 0000000000 
100272A 0000000000 
1002730 0000000000 
1002735 0000000000 
100273A 0000000000 
1002740 0000000000 
1002745 0000000000 
100274A 0000000000 
1002750 0000000000 
1002755 0000000000 
100275A 0000000000 
1002760 0000000000 
1002765 0000000000 
100276A 0000000000 
1002770 0000000000 
1002775 0000000000 
100277A 0000000000 
1002780 0000000000 
1002785 0000000000 
100278A 0000000000 
1002790 0000000000 
1002795 0000000000 
100279A 0000000000 
10027A0 0000000000 
10027A5 0000000000 
10027AA 0000000000 
10027B0 0000000000 
10027B5 0000000000 
10027BA 0000000000 
10027C0 0000000000 
10027C5 0000000000 
10027CA 0000000000 
10027D0 0000000000 
10027D5 0000000000 
10027DA 0000000000 
10027E0 0000000000 
10027E5 0000000000 
10027EA 0000000000 
10027F0 0000000000 
10027F5 0000000000 
10027FA 0000000000 
1002800 0000000000 
1002805 0000000000 
100280A 0000000000 
1002810 0000000000 
1002815 0000000000 
100281A 0000000000 
1002820 0000000000 
1002825 0000000000 
100282A 0000000000 
1002830 0000000000 
1002835 0000000000 
100283A 0000000000 
                        		align	8                        	
                        		align	8                        	
                        		align	8                        	
                        		align	8                        	
                        		align	8                        	
1002840 0000000000 		fill.b	6,0x00
1002845         
                        		data
1002846       0000 		align	
                        	
1002848 0000000000 		fill.b	874,0x00
100284D 0000000000 
1002852 0000000000 
1002857 0000000000 
100285C 0000000000 
1002861 0000000000 
1002866 0000000000 
100286B 0000000000 
1002870 0000000000 
1002875 0000000000 
100287A 0000000000 
1002880 0000000000 
1002885 0000000000 
100288A 0000000000 
1002890 0000000000 
1002895 0000000000 
100289A 0000000000 
10028A0 0000000000 
10028A5 0000000000 
10028AA 0000000000 
10028B0 0000000000 
10028B5 0000000000 
10028BA 0000000000 
10028C0 0000000000 
10028C5 0000000000 
10028CA 0000000000 
10028D0 0000000000 
10028D5 0000000000 
10028DA 0000000000 
10028E0 0000000000 
10028E5 0000000000 
10028EA 0000000000 
10028F0 0000000000 
10028F5 0000000000 
10028FA 0000000000 
1002900 0000000000 
1002905 0000000000 
100290A 0000000000 
1002910 0000000000 
1002915 0000000000 
100291A 0000000000 
1002920 0000000000 
1002925 0000000000 
100292A 0000000000 
1002930 0000000000 
1002935 0000000000 
100293A 0000000000 
1002940 0000000000 
1002945 0000000000 
100294A 0000000000 
1002950 0000000000 
1002955 0000000000 
100295A 0000000000 
1002960 0000000000 
1002965 0000000000 
100296A 0000000000 
1002970 0000000000 
1002975 0000000000 
100297A 0000000000 
1002980 0000000000 
1002985 0000000000 
100298A 0000000000 
1002990 0000000000 
1002995 0000000000 
100299A 0000000000 
10029A0 0000000000 
10029A5 0000000000 
10029AA 0000000000 
10029B0 0000000000 
10029B5 0000000000 
10029BA 0000000000 
10029C0 0000000000 
10029C5 0000000000 
10029CA 0000000000 
10029D0 0000000000 
10029D5 0000000000 
10029DA 0000000000 
10029E0 0000000000 
10029E5 0000000000 
10029EA 0000000000 
10029F0 0000000000 
10029F5 0000000000 
10029FA 0000000000 
1002A00 0000000000 
1002A05 0000000000 
1002A0A 0000000000 
1002A10 0000000000 
1002A15 0000000000 
1002A1A 0000000000 
1002A20 0000000000 
1002A25 0000000000 
1002A2A 0000000000 
1002A30 0000000000 
1002A35 0000000000 
1002A3A 0000000000 
1002A40 0000000000 
1002A45 0000000000 
1002A4A 0000000000 
1002A50 0000000000 
1002A55 0000000000 
1002A5A 0000000000 
1002A60 0000000000 
1002A65 0000000000 
1002A6A 0000000000 
1002A70 0000000000 
1002A75 0000000000 
1002A7A 0000000000 
1002A80 0000000000 
1002A85 0000000000 
1002A8A 0000000000 
1002A90 0000000000 
1002A95 0000000000 
1002A9A 0000000000 
1002AA0 0000000000 
1002AA5 0000000000 
1002AAA 0000000000 
1002AB0 0000000000 
1002AB5 0000000000 
1002ABA 0000000000 
1002AC0 0000000000 
1002AC5 0000000000 
1002ACA 0000000000 
1002AD0 0000000000 
1002AD5 0000000000 
1002ADA 0000000000 
1002AE0 0000000000 
1002AE5 0000000000 
1002AEA 0000000000 
1002AF0 0000000000 
1002AF5 0000000000 
1002AFA 0000000000 
1002B00 0000000000 
1002B05 0000000000 
1002B0A 0000000000 
1002B10 0000000000 
1002B15 0000000000 
1002B1A 0000000000 
1002B20 0000000000 
1002B25 0000000000 
1002B2A 0000000000 
1002B30 0000000000 
1002B35 0000000000 
1002B3A 0000000000 
1002B40 0000000000 
1002B45 0000000000 
1002B4A 0000000000 
1002B50 0000000000 
1002B55 0000000000 
1002B5A 0000000000 
1002B60 0000000000 
1002B65 0000000000 
1002B6A 0000000000 
1002B70 0000000000 
1002B75 0000000000 
1002B7A 0000000000 
1002B80 0000000000 
1002B85 0000000000 
1002B8A 0000000000 
1002B90 0000000000 
1002B95 0000000000 
1002B9A 0000000000 
1002BA0 0000000000 
1002BA5 0000000000 
1002BAA 0000000000 
1002BB0       0000       
                        		data
1002BB2 0000000000 		align	
1002BB7         
                        	
                        		data
                        		align	8                        	
                        		align	8                        	
1002BB8 0000000000 		fill.b	46,0x00
1002BBD 0000000000 
1002BC2 0000000000 
1002BC7 0000000000 
1002BCC 0000000000 
1002BD1 0000000000 
1002BD6 0000000000 
1002BDB 0000000000 
1002BE0 0000000000 
1002BE5         
1002BE6       0000 		align	
                        	
                        		align	8                        	
                        		align	8                        	
1002BE8 0000000000 		fill.b	1920,0x00
1002BED 0000000000 
1002BF2 0000000000 
1002BF7 0000000000 
1002BFC 0000000000 
1002C01 0000000000 
1002C06 0000000000 
1002C0B 0000000000 
1002C10 0000000000 
1002C15 0000000000 
1002C1A 0000000000 
1002C20 0000000000 
1002C25 0000000000 
1002C2A 0000000000 
1002C30 0000000000 
1002C35 0000000000 
1002C3A 0000000000 
1002C40 0000000000 
1002C45 0000000000 
1002C4A 0000000000 
1002C50 0000000000 
1002C55 0000000000 
1002C5A 0000000000 
1002C60 0000000000 
1002C65 0000000000 
1002C6A 0000000000 
1002C70 0000000000 
1002C75 0000000000 
1002C7A 0000000000 
1002C80 0000000000 
1002C85 0000000000 
1002C8A 0000000000 
1002C90 0000000000 
1002C95 0000000000 
1002C9A 0000000000 
1002CA0 0000000000 
1002CA5 0000000000 
1002CAA 0000000000 
1002CB0 0000000000 
1002CB5 0000000000 
1002CBA 0000000000 
1002CC0 0000000000 
1002CC5 0000000000 
1002CCA 0000000000 
1002CD0 0000000000 
1002CD5 0000000000 
1002CDA 0000000000 
1002CE0 0000000000 
1002CE5 0000000000 
1002CEA 0000000000 
1002CF0 0000000000 
1002CF5 0000000000 
1002CFA 0000000000 
1002D00 0000000000 
1002D05 0000000000 
1002D0A 0000000000 
1002D10 0000000000 
1002D15 0000000000 
1002D1A 0000000000 
1002D20 0000000000 
1002D25 0000000000 
1002D2A 0000000000 
1002D30 0000000000 
1002D35 0000000000 
1002D3A 0000000000 
1002D40 0000000000 
1002D45 0000000000 
1002D4A 0000000000 
1002D50 0000000000 
1002D55 0000000000 
1002D5A 0000000000 
1002D60 0000000000 
1002D65 0000000000 
1002D6A 0000000000 
1002D70 0000000000 
1002D75 0000000000 
1002D7A 0000000000 
1002D80 0000000000 
1002D85 0000000000 
1002D8A 0000000000 
1002D90 0000000000 
1002D95 0000000000 
1002D9A 0000000000 
1002DA0 0000000000 
1002DA5 0000000000 
1002DAA 0000000000 
1002DB0 0000000000 
1002DB5 0000000000 
1002DBA 0000000000 
1002DC0 0000000000 
1002DC5 0000000000 
1002DCA 0000000000 
1002DD0 0000000000 
1002DD5 0000000000 
1002DDA 0000000000 
1002DE0 0000000000 
1002DE5 0000000000 
1002DEA 0000000000 
1002DF0 0000000000 
1002DF5 0000000000 
1002DFA 0000000000 
1002E00 0000000000 
1002E05 0000000000 
1002E0A 0000000000 
1002E10 0000000000 
1002E15 0000000000 
1002E1A 0000000000 
1002E20 0000000000 
1002E25 0000000000 
1002E2A 0000000000 
1002E30 0000000000 
1002E35 0000000000 
1002E3A 0000000000 
1002E40 0000000000 
1002E45 0000000000 
1002E4A 0000000000 
1002E50 0000000000 
1002E55 0000000000 
1002E5A 0000000000 
1002E60 0000000000 
1002E65 0000000000 
1002E6A 0000000000 
1002E70 0000000000 
1002E75 0000000000 
1002E7A 0000000000 
1002E80 0000000000 
1002E85 0000000000 
1002E8A 0000000000 
1002E90 0000000000 
1002E95 0000000000 
1002E9A 0000000000 
1002EA0 0000000000 
1002EA5 0000000000 
1002EAA 0000000000 
1002EB0 0000000000 
1002EB5 0000000000 
1002EBA 0000000000 
1002EC0 0000000000 
1002EC5 0000000000 
1002ECA 0000000000 
1002ED0 0000000000 
1002ED5 0000000000 
1002EDA 0000000000 
1002EE0 0000000000 
1002EE5 0000000000 
1002EEA 0000000000 
1002EF0 0000000000 
1002EF5 0000000000 
1002EFA 0000000000 
1002F00 0000000000 
1002F05 0000000000 
1002F0A 0000000000 
1002F10 0000000000 
1002F15 0000000000 
1002F1A 0000000000 
1002F20 0000000000 
1002F25 0000000000 
1002F2A 0000000000 
1002F30 0000000000 
1002F35 0000000000 
1002F3A 0000000000 
1002F40 0000000000 
1002F45 0000000000 
1002F4A 0000000000 
1002F50 0000000000 
1002F55 0000000000 
1002F5A 0000000000 
1002F60 0000000000 
1002F65 0000000000 
1002F6A 0000000000 
1002F70 0000000000 
1002F75 0000000000 
1002F7A 0000000000 
1002F80 0000000000 
1002F85 0000000000 
1002F8A 0000000000 
1002F90 0000000000 
1002F95 0000000000 
1002F9A 0000000000 
1002FA0 0000000000 
1002FA5 0000000000 
1002FAA 0000000000 
1002FB0 0000000000 
1002FB5 0000000000 
1002FBA 0000000000 
1002FC0 0000000000 
1002FC5 0000000000 
1002FCA 0000000000 
1002FD0 0000000000 
1002FD5 0000000000 
1002FDA 0000000000 
1002FE0 0000000000 
1002FE5 0000000000 
1002FEA 0000000000 
1002FF0 0000000000 
1002FF5 0000000000 
1002FFA 0000000000 
1003000 0000000000 
1003005 0000000000 
100300A 0000000000 
1003010 0000000000 
1003015 0000000000 
100301A 0000000000 
1003020 0000000000 
1003025 0000000000 
100302A 0000000000 
1003030 0000000000 
1003035 0000000000 
100303A 0000000000 
1003040 0000000000 
1003045 0000000000 
100304A 0000000000 
1003050 0000000000 
1003055 0000000000 
100305A 0000000000 
1003060 0000000000 
1003065 0000000000 
100306A 0000000000 
1003070 0000000000 
1003075 0000000000 
100307A 0000000000 
1003080 0000000000 
1003085 0000000000 
100308A 0000000000 
1003090 0000000000 
1003095 0000000000 
100309A 0000000000 
10030A0 0000000000 
10030A5 0000000000 
10030AA 0000000000 
10030B0 0000000000 
10030B5 0000000000 
10030BA 0000000000 
10030C0 0000000000 
10030C5 0000000000 
10030CA 0000000000 
10030D0 0000000000 
10030D5 0000000000 
10030DA 0000000000 
10030E0 0000000000 
10030E5 0000000000 
10030EA 0000000000 
10030F0 0000000000 
10030F5 0000000000 
10030FA 0000000000 
1003100 0000000000 
1003105 0000000000 
100310A 0000000000 
1003110 0000000000 
1003115 0000000000 
100311A 0000000000 
1003120 0000000000 
1003125 0000000000 
100312A 0000000000 
1003130 0000000000 
1003135 0000000000 
100313A 0000000000 
1003140 0000000000 
1003145 0000000000 
100314A 0000000000 
1003150 0000000000 
1003155 0000000000 
100315A 0000000000 
1003160 0000000000 
1003165 0000000000 
100316A 0000000000 
1003170 0000000000 
1003175 0000000000 
100317A 0000000000 
1003180 0000000000 
1003185 0000000000 
100318A 0000000000 
1003190 0000000000 
1003195 0000000000 
100319A 0000000000 
10031A0 0000000000 
10031A5 0000000000 
10031AA 0000000000 
10031B0 0000000000 
10031B5 0000000000 
10031BA 0000000000 
10031C0 0000000000 
10031C5 0000000000 
10031CA 0000000000 
10031D0 0000000000 
10031D5 0000000000 
10031DA 0000000000 
10031E0 0000000000 
10031E5 0000000000 
10031EA 0000000000 
10031F0 0000000000 
10031F5 0000000000 
10031FA 0000000000 
1003200 0000000000 
1003205 0000000000 
100320A 0000000000 
1003210 0000000000 
1003215 0000000000 
100321A 0000000000 
1003220 0000000000 
1003225 0000000000 
100322A 0000000000 
1003230 0000000000 
1003235 0000000000 
100323A 0000000000 
1003240 0000000000 
1003245 0000000000 
100324A 0000000000 
1003250 0000000000 
1003255 0000000000 
100325A 0000000000 
1003260 0000000000 
1003265 0000000000 
100326A 0000000000 
1003270 0000000000 
1003275 0000000000 
100327A 0000000000 
1003280 0000000000 
1003285 0000000000 
100328A 0000000000 
1003290 0000000000 
1003295 0000000000 
100329A 0000000000 
10032A0 0000000000 
10032A5 0000000000 
10032AA 0000000000 
10032B0 0000000000 
10032B5 0000000000 
10032BA 0000000000 
10032C0 0000000000 
10032C5 0000000000 
10032CA 0000000000 
10032D0 0000000000 
10032D5 0000000000 
10032DA 0000000000 
10032E0 0000000000 
10032E5 0000000000 
10032EA 0000000000 
10032F0 0000000000 
10032F5 0000000000 
10032FA 0000000000 
1003300 0000000000 
1003305 0000000000 
100330A 0000000000 
1003310 0000000000 
1003315 0000000000 
100331A 0000000000 
1003320 0000000000 
1003325 0000000000 
100332A 0000000000 
1003330 0000000000 
1003335 0000000000 
100333A 0000000000 
1003340 0000000000 
1003345 0000000000 
100334A 0000000000 
1003350 0000000000 
1003355 0000000000 
100335A 0000000000 
1003360 0000000000 
1003365     000000     
                        		align	8                        	
                        		align	8                        	
                        		align	8                        	
                        		align	8                        	
                        		align	8                        	
1003368 0000000000 		fill.b	6,0x00
100336D         
                        		data
                        		align	2                        	
                        	endpublic
                        	
FFFCE2B2 0000000000 		data
FFFCE2B7 0000000000 
FFFCE2BC 0000000000 
FFFCE2C1 0000000000 
FFFCE2C6 0000000000 
FFFCE2CB 0000000000 
FFFCE2D0 0000000000 
FFFCE2D5 0000000000 
FFFCE2DA 0000000000 
FFFCE2E0 0000000000 
FFFCE2E5 0000000000 
FFFCE2EA 0000000000 
FFFCE2F0 0000000000 
FFFCE2F5 0000000000 
FFFCE2FA 0000000000 
FFFCE300 0000000000 
FFFCE305 0000000000 
FFFCE30A 0000000000 
FFFCE310 0000000000 
FFFCE315 0000000000 
FFFCE31A 0000000000 
FFFCE320 0000000000 
FFFCE325 0000000000 
FFFCE32A 0000000000 
FFFCE330 0000000000 
FFFCE335 0000000000 
FFFCE33A 0000000000 
FFFCE340 0000000000 
FFFCE345 0000000000 
FFFCE34A 0000000000 
FFFCE350 0000000000 
FFFCE355 0000000000 
FFFCE35A 0000000000 
FFFCE360 0000000000 
FFFCE365 0000000000 
FFFCE36A 0000000000 
FFFCE370 0000000000 
FFFCE375 0000000000 
FFFCE37A 0000000000 
FFFCE380 0000000000 
FFFCE385 0000000000 
FFFCE38A 0000000000 
FFFCE390 0000000000 
FFFCE395 0000000000 
FFFCE39A 0000000000 
FFFCE3A0 0000000000 
FFFCE3A5 0000000000 
FFFCE3AA 0000000000 
FFFCE3B0 0000000000 
FFFCE3B5 0000000000 
FFFCE3BA 0000000000 
FFFCE3C0 0000000000 
FFFCE3C5 0000000000 
FFFCE3CA 0000000000 
FFFCE3D0 0000000000 
FFFCE3D5 0000000000 
FFFCE3DA 0000000000 
FFFCE3E0 0000000000 
FFFCE3E5 0000000000 
FFFCE3EA 0000000000 
FFFCE3F0 0000000000 
FFFCE3F5 0000000000 
FFFCE3FA 0000000000 
FFFCE400 0000000000 
FFFCE405 0000000000 
FFFCE40A 0000000000 
FFFCE410 0000000000 
FFFCE415 0000000000 
FFFCE41A 0000000000 
FFFCE420 0000000000 
FFFCE425 0000000000 
FFFCE42A 0000000000 
FFFCE430 0000000000 
FFFCE435 0000000000 
FFFCE43A 0000000000 
FFFCE440 0000000000 
FFFCE445 0000000000 
FFFCE44A 0000000000 
FFFCE450 0000000000 
FFFCE455 0000000000 
FFFCE45A 0000000000 
FFFCE460 0000000000 
FFFCE465 0000000000 
FFFCE46A 0000000000 
FFFCE470 0000000000 
FFFCE475 0000000000 
FFFCE47A 0000000000 
FFFCE480 0000000000 
FFFCE485 0000000000 
FFFCE48A 0000000000 
FFFCE490 0000000000 
FFFCE495 0000000000 
FFFCE49A 0000000000 
FFFCE4A0 0000000000 
FFFCE4A5 0000000000 
FFFCE4AA 0000000000 
FFFCE4B0 0000000000 
FFFCE4B5 0000000000 
FFFCE4BA 0000000000 
FFFCE4C0 0000000000 
FFFCE4C5 0000000000 
FFFCE4CA 0000000000 
FFFCE4D0 0000000000 
FFFCE4D5 0000000000 
FFFCE4DA 0000000000 
FFFCE4E0 0000000000 
FFFCE4E5 0000000000 
FFFCE4EA 0000000000 
FFFCE4F0 0000000000 
FFFCE4F5 0000000000 
FFFCE4FA 0000000000 
FFFCE500 0000000000 
FFFCE505 0000000000 
FFFCE50A 0000000000 
FFFCE510 0000000000 
FFFCE515 0000000000 
FFFCE51A 0000000000 
FFFCE520 0000000000 
FFFCE525 0000000000 
FFFCE52A 0000000000 
FFFCE530 0000000000 
FFFCE535 0000000000 
FFFCE53A 0000000000 
FFFCE540 0000000000 
FFFCE545 0000000000 
FFFCE54A 0000000000 
FFFCE550 0000000000 
FFFCE555 0000000000 
FFFCE55A 0000000000 
FFFCE560 0000000000 
FFFCE565 0000000000 
FFFCE56A 0000000000 
FFFCE570 0000000000 
FFFCE575 0000000000 
FFFCE57A 0000000000 
FFFCE580 0000000000 
FFFCE585 0000000000 
FFFCE58A 0000000000 
FFFCE590 0000000000 
FFFCE595 0000000000 
FFFCE59A 0000000000 
FFFCE5A0 0000000000 
FFFCE5A5 0000000000 
FFFCE5AA 0000000000 
FFFCE5B0 0000000000 
FFFCE5B5 0000000000 
FFFCE5BA 0000000000 
FFFCE5C0 0000000000 
FFFCE5C5 0000000000 
FFFCE5CA 0000000000 
FFFCE5D0 0000000000 
FFFCE5D5 0000000000 
FFFCE5DA 0000000000 
FFFCE5E0 0000000000 
FFFCE5E5 0000000000 
FFFCE5EA 0000000000 
FFFCE5F0 0000000000 
FFFCE5F5 0000000000 
FFFCE5FA 0000000000 
FFFCE600 0000000000 
FFFCE605 0000000000 
FFFCE60A 0000000000 
FFFCE610 0000000000 
FFFCE615 0000000000 
FFFCE61A 0000000000 
FFFCE620 0000000000 
FFFCE625 0000000000 
FFFCE62A 0000000000 
FFFCE630 0000000000 
FFFCE635 0000000000 
FFFCE63A 0000000000 
FFFCE640 0000000000 
FFFCE645 0000000000 
FFFCE64A 0000000000 
FFFCE650 0000000000 
FFFCE655 0000000000 
FFFCE65A 0000000000 
FFFCE660 0000000000 
FFFCE665 0000000000 
FFFCE66A 0000000000 
FFFCE670 0000000000 
FFFCE675 0000000000 
FFFCE67A 0000000000 
FFFCE680 0000000000 
FFFCE685 0000000000 
FFFCE68A 0000000000 
FFFCE690 0000000000 
FFFCE695 0000000000 
FFFCE69A 0000000000 
FFFCE6A0 0000000000 
FFFCE6A5 0000000000 
FFFCE6AA 0000000000 
FFFCE6B0 0000000000 
FFFCE6B5 0000000000 
FFFCE6BA 0000000000 
FFFCE6C0 0000000000 
FFFCE6C5 0000000000 
FFFCE6CA 0000000000 
FFFCE6D0 0000000000 
FFFCE6D5 0000000000 
FFFCE6DA 0000000000 
FFFCE6E0 0000000000 
FFFCE6E5 0000000000 
FFFCE6EA 0000000000 
FFFCE6F0 0000000000 
FFFCE6F5 0000000000 
FFFCE6FA 0000000000 
FFFCE700 0000000000 
FFFCE705 0000000000 
FFFCE70A 0000000000 
FFFCE710 0000000000 
FFFCE715 0000000000 
FFFCE71A 0000000000 
FFFCE720 0000000000 
FFFCE725 0000000000 
FFFCE72A 0000000000 
FFFCE730 0000000000 
FFFCE735 0000000000 
FFFCE73A 0000000000 
FFFCE740 0000000000 
FFFCE745 0000000000 
FFFCE74A 0000000000 
FFFCE750 0000000000 
FFFCE755 0000000000 
FFFCE75A 0000000000 
FFFCE760 0000000000 
FFFCE765 0000000000 
FFFCE76A 0000000000 
FFFCE770 0000000000 
FFFCE775 0000000000 
FFFCE77A 0000000000 
FFFCE780 0000000000 
FFFCE785 0000000000 
FFFCE78A 0000000000 
FFFCE790 0000000000 
FFFCE795 0000000000 
FFFCE79A 0000000000 
FFFCE7A0 0000000000 
FFFCE7A5 0000000000 
FFFCE7AA 0000000000 
FFFCE7B0 0000000000 
FFFCE7B5 0000000000 
FFFCE7BA 0000000000 
FFFCE7C0 0000000000 
FFFCE7C5 0000000000 
FFFCE7CA 0000000000 
FFFCE7D0 0000000000 
FFFCE7D5 0000000000 
FFFCE7DA 0000000000 
FFFCE7E0 0000000000 
FFFCE7E5 0000000000 
FFFCE7EA 0000000000 
FFFCE7F0 0000000000 
FFFCE7F5 0000000000 
FFFCE7FA 0000000000 
FFFCE800 0000000000 
FFFCE805 0000000000 
FFFCE80A 0000000000 
FFFCE810 0000000000 
FFFCE815 0000000000 
FFFCE81A 0000000000 
FFFCE820 0000000000 
FFFCE825 0000000000 
FFFCE82A 0000000000 
FFFCE830 0000000000 
FFFCE835 0000000000 
FFFCE83A 0000000000 
FFFCE840 0000000000 
FFFCE845 0000000000 
FFFCE84A 0000000000 
FFFCE850 0000000000 
FFFCE855 0000000000 
FFFCE85A 0000000000 
FFFCE860 0000000000 
FFFCE865 0000000000 
FFFCE86A 0000000000 
FFFCE870 0000000000 
FFFCE875 0000000000 
FFFCE87A 0000000000 
FFFCE880 0000000000 
FFFCE885 0000000000 
FFFCE88A 0000000000 
FFFCE890 0000000000 
FFFCE895 0000000000 
FFFCE89A 0000000000 
FFFCE8A0 0000000000 
FFFCE8A5 0000000000 
FFFCE8AA 0000000000 
FFFCE8B0 0000000000 
FFFCE8B5 0000000000 
FFFCE8BA 0000000000 
FFFCE8C0 0000000000 
FFFCE8C5 0000000000 
FFFCE8CA 0000000000 
FFFCE8D0 0000000000 
FFFCE8D5 0000000000 
FFFCE8DA 0000000000 
FFFCE8E0 0000000000 
FFFCE8E5 0000000000 
FFFCE8EA 0000000000 
FFFCE8F0 0000000000 
FFFCE8F5 0000000000 
FFFCE8FA 0000000000 
FFFCE900 0000000000 
FFFCE905 0000000000 
FFFCE90A 0000000000 
FFFCE910 0000000000 
FFFCE915 0000000000 
FFFCE91A 0000000000 
FFFCE920 0000000000 
FFFCE925 0000000000 
FFFCE92A 0000000000 
FFFCE930 0000000000 
FFFCE935 0000000000 
FFFCE93A 0000000000 
FFFCE940 0000000000 
FFFCE945 0000000000 
FFFCE94A 0000000000 
FFFCE950 0000000000 
FFFCE955 0000000000 
FFFCE95A 0000000000 
FFFCE960 0000000000 
FFFCE965 0000000000 
FFFCE96A 0000000000 
FFFCE970 0000000000 
FFFCE975 0000000000 
FFFCE97A 0000000000 
FFFCE980 0000000000 
FFFCE985 0000000000 
FFFCE98A 0000000000 
FFFCE990 0000000000 
FFFCE995 0000000000 
FFFCE99A 0000000000 
FFFCE9A0 0000000000 
FFFCE9A5 0000000000 
FFFCE9AA 0000000000 
FFFCE9B0 0000000000 
FFFCE9B5 0000000000 
FFFCE9BA 0000000000 
FFFCE9C0 0000000000 
FFFCE9C5 0000000000 
FFFCE9CA 0000000000 
FFFCE9D0 0000000000 
FFFCE9D5 0000000000 
FFFCE9DA 0000000000 
FFFCE9E0 0000000000 
FFFCE9E5 0000000000 
FFFCE9EA 0000000000 
FFFCE9F0 0000000000 
FFFCE9F5 0000000000 
FFFCE9FA 0000000000 
FFFCEA00 0000000000 
FFFCEA05 0000000000 
FFFCEA0A 0000000000 
FFFCEA10 0000000000 
FFFCEA15 0000000000 
FFFCEA1A 0000000000 
FFFCEA20 0000000000 
FFFCEA25 0000000000 
FFFCEA2A 0000000000 
FFFCEA30 0000000000 
FFFCEA35 0000000000 
FFFCEA3A 0000000000 
FFFCEA40 0000000000 
FFFCEA45 0000000000 
FFFCEA4A 0000000000 
FFFCEA50 0000000000 
FFFCEA55 0000000000 
FFFCEA5A 0000000000 
FFFCEA60 0000000000 
FFFCEA65 0000000000 
FFFCEA6A 0000000000 
FFFCEA70 0000000000 
FFFCEA75 0000000000 
FFFCEA7A 0000000000 
FFFCEA80 0000000000 
FFFCEA85 0000000000 
FFFCEA8A 0000000000 
FFFCEA90 0000000000 
FFFCEA95 0000000000 
FFFCEA9A 0000000000 
FFFCEAA0 0000000000 
FFFCEAA5 0000000000 
FFFCEAAA 0000000000 
FFFCEAB0 0000000000 
FFFCEAB5 0000000000 
FFFCEABA 0000000000 
FFFCEAC0 0000000000 
FFFCEAC5 0000000000 
FFFCEACA 0000000000 
FFFCEAD0 0000000000 
FFFCEAD5 0000000000 
FFFCEADA 0000000000 
FFFCEAE0 0000000000 
FFFCEAE5 0000000000 
FFFCEAEA 0000000000 
FFFCEAF0 0000000000 
FFFCEAF5 0000000000 
FFFCEAFA 0000000000 
FFFCEB00 0000000000 
FFFCEB05 0000000000 
FFFCEB0A 0000000000 
FFFCEB10 0000000000 
FFFCEB15 0000000000 
FFFCEB1A 0000000000 
FFFCEB20 0000000000 
FFFCEB25 0000000000 
FFFCEB2A 0000000000 
FFFCEB30 0000000000 
FFFCEB35 0000000000 
FFFCEB3A 0000000000 
FFFCEB40 0000000000 
FFFCEB45 0000000000 
FFFCEB4A 0000000000 
FFFCEB50 0000000000 
FFFCEB55 0000000000 
FFFCEB5A 0000000000 
FFFCEB60 0000000000 
FFFCEB65 0000000000 
FFFCEB6A 0000000000 
FFFCEB70 0000000000 
FFFCEB75 0000000000 
FFFCEB7A 0000000000 
FFFCEB80 0000000000 
FFFCEB85 0000000000 
FFFCEB8A 0000000000 
FFFCEB90 0000000000 
FFFCEB95 0000000000 
FFFCEB9A 0000000000 
FFFCEBA0 0000000000 
FFFCEBA5 0000000000 
FFFCEBAA 0000000000 
FFFCEBB0 0000000000 
FFFCEBB5 0000000000 
FFFCEBBA 0000000000 
FFFCEBC0 0000000000 
FFFCEBC5 0000000000 
FFFCEBCA 0000000000 
FFFCEBD0 0000000000 
FFFCEBD5 0000000000 
FFFCEBDA 0000000000 
FFFCEBE0 0000000000 
FFFCEBE5 0000000000 
FFFCEBEA 0000000000 
FFFCEBF0 0000000000 
FFFCEBF5 0000000000 
FFFCEBFA 0000000000 
FFFCEC00 0000000000 
FFFCEC05 0000000000 
FFFCEC0A 0000000000 
FFFCEC10 0000000000 
FFFCEC15 0000000000 
FFFCEC1A 0000000000 
FFFCEC20 0000000000 
FFFCEC25 0000000000 
FFFCEC2A 0000000000 
FFFCEC30 0000000000 
FFFCEC35 0000000000 
FFFCEC3A 0000000000 
FFFCEC40 0000000000 
FFFCEC45 0000000000 
FFFCEC4A 0000000000 
FFFCEC50 0000000000 
FFFCEC55 0000000000 
FFFCEC5A 0000000000 
FFFCEC60 0000000000 
FFFCEC65 0000000000 
FFFCEC6A 0000000000 
FFFCEC70 0000000000 
FFFCEC75 0000000000 
FFFCEC7A 0000000000 
FFFCEC80 0000000000 
FFFCEC85 0000000000 
FFFCEC8A 0000000000 
FFFCEC90 0000000000 
FFFCEC95 0000000000 
FFFCEC9A 0000000000 
FFFCECA0 0000000000 
FFFCECA5 0000000000 
FFFCECAA 0000000000 
FFFCECB0 0000000000 
FFFCECB5 0000000000 
FFFCECBA 0000000000 
FFFCECC0 0000000000 
FFFCECC5 0000000000 
FFFCECCA 0000000000 
FFFCECD0 0000000000 
FFFCECD5 0000000000 
FFFCECDA 0000000000 
FFFCECE0 0000000000 
FFFCECE5 0000000000 
FFFCECEA 0000000000 
FFFCECF0 0000000000 
FFFCECF5 0000000000 
FFFCECFA 0000000000 
FFFCED00 0000000000 
FFFCED05 0000000000 
FFFCED0A 0000000000 
FFFCED10 0000000000 
FFFCED15 0000000000 
FFFCED1A 0000000000 
FFFCED20 0000000000 
FFFCED25 0000000000 
FFFCED2A 0000000000 
FFFCED30 0000000000 
FFFCED35 0000000000 
FFFCED3A 0000000000 
FFFCED40 0000000000 
FFFCED45 0000000000 
FFFCED4A 0000000000 
FFFCED50 0000000000 
FFFCED55 0000000000 
FFFCED5A 0000000000 
FFFCED60 0000000000 
FFFCED65 0000000000 
FFFCED6A 0000000000 
FFFCED70 0000000000 
FFFCED75 0000000000 
FFFCED7A 0000000000 
FFFCED80 0000000000 
FFFCED85 0000000000 
FFFCED8A 0000000000 
FFFCED90 0000000000 
FFFCED95 0000000000 
FFFCED9A 0000000000 
FFFCEDA0 0000000000 
FFFCEDA5 0000000000 
FFFCEDAA 0000000000 
FFFCEDB0 0000000000 
FFFCEDB5 0000000000 
FFFCEDBA 0000000000 
FFFCEDC0 0000000000 
FFFCEDC5 0000000000 
FFFCEDCA 0000000000 
FFFCEDD0 0000000000 
FFFCEDD5 0000000000 
FFFCEDDA 0000000000 
FFFCEDE0 0000000000 
FFFCEDE5 0000000000 
FFFCEDEA 0000000000 
FFFCEDF0 0000000000 
FFFCEDF5 0000000000 
FFFCEDFA 0000000000 
FFFCEE00 0000000000 
FFFCEE05 0000000000 
FFFCEE0A 0000000000 
FFFCEE10 0000000000 
FFFCEE15 0000000000 
FFFCEE1A 0000000000 
FFFCEE20 0000000000 
FFFCEE25 0000000000 
FFFCEE2A 0000000000 
FFFCEE30 0000000000 
FFFCEE35 0000000000 
FFFCEE3A 0000000000 
FFFCEE40 0000000000 
FFFCEE45 0000000000 
FFFCEE4A 0000000000 
FFFCEE50 0000000000 
FFFCEE55 0000000000 
FFFCEE5A 0000000000 
FFFCEE60 0000000000 
FFFCEE65 0000000000 
FFFCEE6A 0000000000 
FFFCEE70 0000000000 
FFFCEE75 0000000000 
FFFCEE7A 0000000000 
FFFCEE80 0000000000 
FFFCEE85 0000000000 
FFFCEE8A 0000000000 
FFFCEE90 0000000000 
FFFCEE95 0000000000 
FFFCEE9A 0000000000 
FFFCEEA0 0000000000 
FFFCEEA5 0000000000 
FFFCEEAA 0000000000 
FFFCEEB0 0000000000 
FFFCEEB5 0000000000 
FFFCEEBA 0000000000 
FFFCEEC0 0000000000 
FFFCEEC5 0000000000 
FFFCEECA 0000000000 
FFFCEED0 0000000000 
FFFCEED5 0000000000 
FFFCEEDA 0000000000 
FFFCEEE0 0000000000 
FFFCEEE5 0000000000 
FFFCEEEA 0000000000 
FFFCEEF0 0000000000 
FFFCEEF5 0000000000 
FFFCEEFA 0000000000 
FFFCEF00 0000000000 
FFFCEF05 0000000000 
FFFCEF0A 0000000000 
FFFCEF10 0000000000 
FFFCEF15 0000000000 
FFFCEF1A 0000000000 
FFFCEF20 0000000000 
FFFCEF25 0000000000 
FFFCEF2A 0000000000 
FFFCEF30 0000000000 
FFFCEF35 0000000000 
FFFCEF3A 0000000000 
FFFCEF40 0000000000 
FFFCEF45 0000000000 
FFFCEF4A 0000000000 
FFFCEF50 0000000000 
FFFCEF55 0000000000 
FFFCEF5A 0000000000 
FFFCEF60 0000000000 
FFFCEF65 0000000000 
FFFCEF6A 0000000000 
FFFCEF70 0000000000 
FFFCEF75 0000000000 
FFFCEF7A 0000000000 
FFFCEF80 0000000000 
FFFCEF85 0000000000 
FFFCEF8A 0000000000 
FFFCEF90 0000000000 
FFFCEF95 0000000000 
FFFCEF9A 0000000000 
FFFCEFA0 0000000000 
FFFCEFA5 0000000000 
FFFCEFAA 0000000000 
FFFCEFB0 0000000000 
FFFCEFB5 0000000000 
FFFCEFBA 0000000000 
FFFCEFC0 0000000000 
FFFCEFC5 0000000000 
FFFCEFCA 0000000000 
FFFCEFD0 0000000000 
FFFCEFD5 0000000000 
FFFCEFDA 0000000000 
FFFCEFE0 0000000000 
FFFCEFE5 0000000000 
FFFCEFEA 0000000000 
FFFCEFF0 0000000000 
FFFCEFF5 0000000000 
FFFCEFFA 0000000000 
FFFCF000 0000000000 
FFFCF005 0000000000 
FFFCF00A 0000000000 
FFFCF010 0000000000 
FFFCF015 0000000000 
FFFCF01A 0000000000 
FFFCF020 0000000000 
FFFCF025 0000000000 
FFFCF02A 0000000000 
FFFCF030 0000000000 
FFFCF035 0000000000 
FFFCF03A 0000000000 
FFFCF040 0000000000 
FFFCF045 0000000000 
FFFCF04A 0000000000 
FFFCF050 0000000000 
FFFCF055 0000000000 
FFFCF05A 0000000000 
FFFCF060 0000000000 
FFFCF065 0000000000 
FFFCF06A 0000000000 
FFFCF070 0000000000 
FFFCF075 0000000000 
FFFCF07A 0000000000 
FFFCF080 0000000000 
FFFCF085 0000000000 
FFFCF08A 0000000000 
FFFCF090 0000000000 
FFFCF095 0000000000 
FFFCF09A 0000000000 
FFFCF0A0 0000000000 
FFFCF0A5 0000000000 
FFFCF0AA 0000000000 
FFFCF0B0 0000000000 
FFFCF0B5 0000000000 
FFFCF0BA 0000000000 
FFFCF0C0 0000000000 
FFFCF0C5 0000000000 
FFFCF0CA 0000000000 
FFFCF0D0 0000000000 
FFFCF0D5 0000000000 
FFFCF0DA 0000000000 
FFFCF0E0 0000000000 
FFFCF0E5 0000000000 
FFFCF0EA 0000000000 
FFFCF0F0 0000000000 
FFFCF0F5 0000000000 
FFFCF0FA 0000000000 
FFFCF100 0000000000 
FFFCF105 0000000000 
FFFCF10A 0000000000 
FFFCF110 0000000000 
FFFCF115 0000000000 
FFFCF11A 0000000000 
FFFCF120 0000000000 
FFFCF125 0000000000 
FFFCF12A 0000000000 
FFFCF130 0000000000 
FFFCF135 0000000000 
FFFCF13A 0000000000 
FFFCF140 0000000000 
FFFCF145 0000000000 
FFFCF14A 0000000000 
FFFCF150 0000000000 
FFFCF155 0000000000 
FFFCF15A 0000000000 
FFFCF160 0000000000 
FFFCF165 0000000000 
FFFCF16A 0000000000 
FFFCF170 0000000000 
FFFCF175 0000000000 
FFFCF17A 0000000000 
FFFCF180 0000000000 
FFFCF185 0000000000 
FFFCF18A 0000000000 
FFFCF190 0000000000 
FFFCF195 0000000000 
FFFCF19A 0000000000 
FFFCF1A0 0000000000 
FFFCF1A5 0000000000 
FFFCF1AA 0000000000 
FFFCF1B0 0000000000 
FFFCF1B5 0000000000 
FFFCF1BA 0000000000 
FFFCF1C0 0000000000 
FFFCF1C5 0000000000 
FFFCF1CA 0000000000 
FFFCF1D0 0000000000 
FFFCF1D5 0000000000 
FFFCF1DA 0000000000 
FFFCF1E0 0000000000 
FFFCF1E5 0000000000 
FFFCF1EA 0000000000 
FFFCF1F0 0000000000 
FFFCF1F5 0000000000 
FFFCF1FA 0000000000 
FFFCF200 0000000000 
FFFCF205 0000000000 
FFFCF20A 0000000000 
FFFCF210 0000000000 
FFFCF215 0000000000 
FFFCF21A 0000000000 
FFFCF220 0000000000 
FFFCF225 0000000000 
FFFCF22A 0000000000 
FFFCF230 0000000000 
FFFCF235 0000000000 
FFFCF23A 0000000000 
FFFCF240 0000000000 
FFFCF245 0000000000 
FFFCF24A 0000000000 
FFFCF250 0000000000 
FFFCF255 0000000000 
FFFCF25A 0000000000 
FFFCF260 0000000000 
FFFCF265 0000000000 
FFFCF26A 0000000000 
FFFCF270 0000000000 
FFFCF275 0000000000 
FFFCF27A 0000000000 
FFFCF280 0000000000 
FFFCF285 0000000000 
FFFCF28A 0000000000 
FFFCF290 0000000000 
FFFCF295 0000000000 
FFFCF29A 0000000000 
FFFCF2A0 0000000000 
FFFCF2A5 0000000000 
FFFCF2AA 0000000000 
FFFCF2B0 0000000000 
FFFCF2B5 0000000000 
FFFCF2BA 0000000000 
FFFCF2C0 0000000000 
FFFCF2C5 0000000000 
FFFCF2CA 0000000000 
FFFCF2D0 0000000000 
FFFCF2D5 0000000000 
FFFCF2DA 0000000000 
FFFCF2E0 0000000000 
FFFCF2E5 0000000000 
FFFCF2EA 0000000000 
FFFCF2F0 0000000000 
FFFCF2F5 0000000000 
FFFCF2FA 0000000000 
FFFCF300 0000000000 
FFFCF305 0000000000 
FFFCF30A 0000000000 
FFFCF310 0000000000 
FFFCF315 0000000000 
FFFCF31A 0000000000 
FFFCF320 0000000000 
FFFCF325 0000000000 
FFFCF32A 0000000000 
FFFCF330 0000000000 
FFFCF335 0000000000 
FFFCF33A 0000000000 
FFFCF340 0000000000 
FFFCF345 0000000000 
FFFCF34A 0000000000 
FFFCF350 0000000000 
FFFCF355 0000000000 
FFFCF35A 0000000000 
FFFCF360 0000000000 
FFFCF365 0000000000 
FFFCF36A 0000000000 
FFFCF370 0000000000 
FFFCF375 0000000000 
FFFCF37A 0000000000 
FFFCF380 0000000000 
FFFCF385 0000000000 
FFFCF38A 0000000000 
FFFCF390 0000000000 
FFFCF395 0000000000 
FFFCF39A 0000000000 
FFFCF3A0 0000000000 
FFFCF3A5 0000000000 
FFFCF3AA 0000000000 
FFFCF3B0 0000000000 
FFFCF3B5 0000000000 
FFFCF3BA 0000000000 
FFFCF3C0 0000000000 
FFFCF3C5 0000000000 
FFFCF3CA 0000000000 
FFFCF3D0 0000000000 
FFFCF3D5 0000000000 
FFFCF3DA 0000000000 
FFFCF3E0 0000000000 
FFFCF3E5 0000000000 
FFFCF3EA 0000000000 
FFFCF3F0 0000000000 
FFFCF3F5 0000000000 
FFFCF3FA 0000000000 
FFFCF400 0000000000 
FFFCF405 0000000000 
FFFCF40A 0000000000 
FFFCF410 0000000000 
FFFCF415 0000000000 
FFFCF41A 0000000000 
FFFCF420 0000000000 
FFFCF425 0000000000 
FFFCF42A 0000000000 
FFFCF430 0000000000 
FFFCF435 0000000000 
FFFCF43A 0000000000 
FFFCF440 0000000000 
FFFCF445 0000000000 
FFFCF44A 0000000000 
FFFCF450 0000000000 
FFFCF455 0000000000 
FFFCF45A 0000000000 
FFFCF460 0000000000 
FFFCF465 0000000000 
FFFCF46A 0000000000 
FFFCF470 0000000000 
FFFCF475 0000000000 
FFFCF47A 0000000000 
FFFCF480 0000000000 
FFFCF485 0000000000 
FFFCF48A 0000000000 
FFFCF490 0000000000 
FFFCF495 0000000000 
FFFCF49A 0000000000 
FFFCF4A0 0000000000 
FFFCF4A5 0000000000 
FFFCF4AA 0000000000 
FFFCF4B0 0000000000 
FFFCF4B5 0000000000 
FFFCF4BA 0000000000 
FFFCF4C0 0000000000 
FFFCF4C5 0000000000 
FFFCF4CA 0000000000 
FFFCF4D0 0000000000 
FFFCF4D5 0000000000 
FFFCF4DA 0000000000 
FFFCF4E0 0000000000 
FFFCF4E5 0000000000 
FFFCF4EA 0000000000 
FFFCF4F0 0000000000 
FFFCF4F5 0000000000 
FFFCF4FA 0000000000 
FFFCF500 0000000000 
FFFCF505 0000000000 
FFFCF50A 0000000000 
FFFCF510 0000000000 
FFFCF515 0000000000 
FFFCF51A 0000000000 
FFFCF520 0000000000 
FFFCF525 0000000000 
FFFCF52A 0000000000 
FFFCF530 0000000000 
FFFCF535 0000000000 
FFFCF53A 0000000000 
FFFCF540 0000000000 
FFFCF545 0000000000 
FFFCF54A 0000000000 
FFFCF550 0000000000 
FFFCF555 0000000000 
FFFCF55A 0000000000 
FFFCF560 0000000000 
FFFCF565 0000000000 
FFFCF56A 0000000000 
FFFCF570 0000000000 
FFFCF575 0000000000 
FFFCF57A 0000000000 
FFFCF580 0000000000 
FFFCF585 0000000000 
FFFCF58A 0000000000 
FFFCF590 0000000000 
FFFCF595 0000000000 
FFFCF59A 0000000000 
FFFCF5A0 0000000000 
FFFCF5A5 0000000000 
FFFCF5AA 0000000000 
FFFCF5B0 0000000000 
FFFCF5B5 0000000000 
FFFCF5BA 0000000000 
FFFCF5C0 0000000000 
FFFCF5C5 0000000000 
FFFCF5CA 0000000000 
FFFCF5D0 0000000000 
FFFCF5D5 0000000000 
FFFCF5DA 0000000000 
FFFCF5E0 0000000000 
FFFCF5E5 0000000000 
FFFCF5EA 0000000000 
FFFCF5F0 0000000000 
FFFCF5F5 0000000000 
FFFCF5FA 0000000000 
FFFCF600 0000000000 
FFFCF605 0000000000 
FFFCF60A 0000000000 
FFFCF610 0000000000 
FFFCF615 0000000000 
FFFCF61A 0000000000 
FFFCF620 0000000000 
FFFCF625 0000000000 
FFFCF62A 0000000000 
FFFCF630 0000000000 
FFFCF635 0000000000 
FFFCF63A 0000000000 
FFFCF640 0000000000 
FFFCF645 0000000000 
FFFCF64A 0000000000 
FFFCF650 0000000000 
FFFCF655 0000000000 
FFFCF65A 0000000000 
FFFCF660 0000000000 
FFFCF665 0000000000 
FFFCF66A 0000000000 
FFFCF670 0000000000 
FFFCF675 0000000000 
FFFCF67A 0000000000 
FFFCF680 0000000000 
FFFCF685 0000000000 
FFFCF68A 0000000000 
FFFCF690 0000000000 
FFFCF695 0000000000 
FFFCF69A 0000000000 
FFFCF6A0 0000000000 
FFFCF6A5 0000000000 
FFFCF6AA 0000000000 
FFFCF6B0 0000000000 
FFFCF6B5 0000000000 
FFFCF6BA 0000000000 
FFFCF6C0 0000000000 
FFFCF6C5 0000000000 
FFFCF6CA 0000000000 
FFFCF6D0 0000000000 
FFFCF6D5 0000000000 
FFFCF6DA 0000000000 
FFFCF6E0 0000000000 
FFFCF6E5 0000000000 
FFFCF6EA 0000000000 
FFFCF6F0 0000000000 
FFFCF6F5 0000000000 
FFFCF6FA 0000000000 
FFFCF700 0000000000 
FFFCF705 0000000000 
FFFCF70A 0000000000 
FFFCF710 0000000000 
FFFCF715 0000000000 
FFFCF71A 0000000000 
FFFCF720 0000000000 
FFFCF725 0000000000 
FFFCF72A 0000000000 
FFFCF730 0000000000 
FFFCF735 0000000000 
FFFCF73A 0000000000 
FFFCF740 0000000000 
FFFCF745 0000000000 
FFFCF74A 0000000000 
FFFCF750 0000000000 
FFFCF755 0000000000 
FFFCF75A 0000000000 
FFFCF760 0000000000 
FFFCF765 0000000000 
FFFCF76A 0000000000 
FFFCF770 0000000000 
FFFCF775 0000000000 
FFFCF77A 0000000000 
FFFCF780 0000000000 
FFFCF785 0000000000 
FFFCF78A 0000000000 
FFFCF790 0000000000 
FFFCF795 0000000000 
FFFCF79A 0000000000 
FFFCF7A0 0000000000 
FFFCF7A5 0000000000 
FFFCF7AA 0000000000 
FFFCF7B0 0000000000 
FFFCF7B5 0000000000 
FFFCF7BA 0000000000 
FFFCF7C0 0000000000 
FFFCF7C5 0000000000 
FFFCF7CA 0000000000 
FFFCF7D0 0000000000 
FFFCF7D5 0000000000 
FFFCF7DA 0000000000 
FFFCF7E0 0000000000 
FFFCF7E5 0000000000 
FFFCF7EA 0000000000 
FFFCF7F0 0000000000 
FFFCF7F5 0000000000 
FFFCF7FA 0000000000 
FFFCF800 0000000000 
FFFCF805 0000000000 
FFFCF80A 0000000000 
FFFCF810 0000000000 
FFFCF815 0000000000 
FFFCF81A 0000000000 
FFFCF820 0000000000 
FFFCF825 0000000000 
FFFCF82A 0000000000 
FFFCF830 0000000000 
FFFCF835 0000000000 
FFFCF83A 0000000000 
FFFCF840 0000000000 
FFFCF845 0000000000 
FFFCF84A 0000000000 
FFFCF850 0000000000 
FFFCF855 0000000000 
FFFCF85A 0000000000 
FFFCF860 0000000000 
FFFCF865 0000000000 
FFFCF86A 0000000000 
FFFCF870 0000000000 
FFFCF875 0000000000 
FFFCF87A 0000000000 
FFFCF880 0000000000 
FFFCF885 0000000000 
FFFCF88A 0000000000 
FFFCF890 0000000000 
FFFCF895 0000000000 
FFFCF89A 0000000000 
FFFCF8A0 0000000000 
FFFCF8A5 0000000000 
FFFCF8AA 0000000000 
FFFCF8B0 0000000000 
FFFCF8B5 0000000000 
FFFCF8BA 0000000000 
FFFCF8C0 0000000000 
FFFCF8C5 0000000000 
FFFCF8CA 0000000000 
FFFCF8D0 0000000000 
FFFCF8D5 0000000000 
FFFCF8DA 0000000000 
FFFCF8E0 0000000000 
FFFCF8E5 0000000000 
FFFCF8EA 0000000000 
FFFCF8F0 0000000000 
FFFCF8F5 0000000000 
FFFCF8FA 0000000000 
FFFCF900 0000000000 
FFFCF905 0000000000 
FFFCF90A 0000000000 
FFFCF910 0000000000 
FFFCF915 0000000000 
FFFCF91A 0000000000 
FFFCF920 0000000000 
FFFCF925 0000000000 
FFFCF92A 0000000000 
FFFCF930 0000000000 
FFFCF935 0000000000 
FFFCF93A 0000000000 
FFFCF940 0000000000 
FFFCF945 0000000000 
FFFCF94A 0000000000 
FFFCF950 0000000000 
FFFCF955 0000000000 
FFFCF95A 0000000000 
FFFCF960 0000000000 
FFFCF965 0000000000 
FFFCF96A 0000000000 
FFFCF970 0000000000 
FFFCF975 0000000000 
FFFCF97A 0000000000 
FFFCF980 0000000000 
FFFCF985 0000000000 
FFFCF98A 0000000000 
FFFCF990 0000000000 
FFFCF995 0000000000 
FFFCF99A 0000000000 
FFFCF9A0 0000000000 
FFFCF9A5 0000000000 
FFFCF9AA 0000000000 
FFFCF9B0 0000000000 
FFFCF9B5 0000000000 
FFFCF9BA 0000000000 
FFFCF9C0 0000000000 
FFFCF9C5 0000000000 
FFFCF9CA 0000000000 
FFFCF9D0 0000000000 
FFFCF9D5 0000000000 
FFFCF9DA 0000000000 
FFFCF9E0 0000000000 
FFFCF9E5 0000000000 
FFFCF9EA 0000000000 
FFFCF9F0 0000000000 
FFFCF9F5 0000000000 
FFFCF9FA 0000000000 
FFFCFA00 0000000000 
FFFCFA05 0000000000 
FFFCFA0A 0000000000 
FFFCFA10 0000000000 
FFFCFA15 0000000000 
FFFCFA1A 0000000000 
FFFCFA20 0000000000 
FFFCFA25 0000000000 
FFFCFA2A 0000000000 
FFFCFA30 0000000000 
FFFCFA35 0000000000 
FFFCFA3A 0000000000 
FFFCFA40 0000000000 
FFFCFA45 0000000000 
FFFCFA4A 0000000000 
FFFCFA50 0000000000 
FFFCFA55 0000000000 
FFFCFA5A 0000000000 
FFFCFA60 0000000000 
FFFCFA65 0000000000 
FFFCFA6A 0000000000 
FFFCFA70 0000000000 
FFFCFA75 0000000000 
FFFCFA7A 0000000000 
FFFCFA80 0000000000 
FFFCFA85 0000000000 
FFFCFA8A 0000000000 
FFFCFA90 0000000000 
FFFCFA95 0000000000 
FFFCFA9A 0000000000 
FFFCFAA0 0000000000 
FFFCFAA5 0000000000 
FFFCFAAA 0000000000 
FFFCFAB0 0000000000 
FFFCFAB5 0000000000 
FFFCFABA 0000000000 
FFFCFAC0 0000000000 
FFFCFAC5 0000000000 
FFFCFACA 0000000000 
FFFCFAD0 0000000000 
FFFCFAD5 0000000000 
FFFCFADA 0000000000 
FFFCFAE0 0000000000 
FFFCFAE5 0000000000 
FFFCFAEA 0000000000 
FFFCFAF0 0000000000 
FFFCFAF5 0000000000 
FFFCFAFA 0000000000 
FFFCFB00 0000000000 
FFFCFB05 0000000000 
FFFCFB0A 0000000000 
FFFCFB10 0000000000 
FFFCFB15 0000000000 
FFFCFB1A 0000000000 
FFFCFB20 0000000000 
FFFCFB25 0000000000 
FFFCFB2A 0000000000 
FFFCFB30 0000000000 
FFFCFB35 0000000000 
FFFCFB3A 0000000000 
FFFCFB40 0000000000 
FFFCFB45 0000000000 
FFFCFB4A 0000000000 
FFFCFB50 0000000000 
FFFCFB55 0000000000 
FFFCFB5A 0000000000 
FFFCFB60 0000000000 
FFFCFB65 0000000000 
FFFCFB6A 0000000000 
FFFCFB70 0000000000 
FFFCFB75 0000000000 
FFFCFB7A 0000000000 
FFFCFB80 0000000000 
FFFCFB85 0000000000 
FFFCFB8A 0000000000 
FFFCFB90 0000000000 
FFFCFB95 0000000000 
FFFCFB9A 0000000000 
FFFCFBA0 0000000000 
FFFCFBA5 0000000000 
FFFCFBAA 0000000000 
FFFCFBB0 0000000000 
FFFCFBB5 0000000000 
FFFCFBBA 0000000000 
FFFCFBC0 0000000000 
FFFCFBC5 0000000000 
FFFCFBCA 0000000000 
FFFCFBD0 0000000000 
FFFCFBD5 0000000000 
FFFCFBDA 0000000000 
FFFCFBE0 0000000000 
FFFCFBE5 0000000000 
FFFCFBEA 0000000000 
FFFCFBF0 0000000000 
FFFCFBF5 0000000000 
FFFCFBFA 0000000000 
FFFCFC00 0000000000 
FFFCFC05 0000000000 
FFFCFC0A 0000000000 
FFFCFC10 0000000000 
FFFCFC15 0000000000 
FFFCFC1A 0000000000 
FFFCFC20 0000000000 
FFFCFC25 0000000000 
FFFCFC2A 0000000000 
FFFCFC30 0000000000 
FFFCFC35 0000000000 
FFFCFC3A 0000000000 
FFFCFC40 0000000000 
FFFCFC45 0000000000 
FFFCFC4A 0000000000 
FFFCFC50 0000000000 
FFFCFC55 0000000000 
FFFCFC5A 0000000000 
FFFCFC60 0000000000 
FFFCFC65 0000000000 
FFFCFC6A 0000000000 
FFFCFC70 0000000000 
FFFCFC75 0000000000 
FFFCFC7A 0000000000 
FFFCFC80 0000000000 
FFFCFC85 0000000000 
FFFCFC8A 0000000000 
FFFCFC90 0000000000 
FFFCFC95 0000000000 
FFFCFC9A 0000000000 
FFFCFCA0 0000000000 
FFFCFCA5 0000000000 
FFFCFCAA 0000000000 
FFFCFCB0 0000000000 
FFFCFCB5 0000000000 
FFFCFCBA 0000000000 
FFFCFCC0 0000000000 
FFFCFCC5 0000000000 
FFFCFCCA 0000000000 
FFFCFCD0 0000000000 
FFFCFCD5 0000000000 
FFFCFCDA 0000000000 
FFFCFCE0 0000000000 
FFFCFCE5 0000000000 
FFFCFCEA 0000000000 
FFFCFCF0 0000000000 
FFFCFCF5 0000000000 
FFFCFCFA 0000000000 
FFFCFD00 0000000000 
FFFCFD05 0000000000 
FFFCFD0A 0000000000 
FFFCFD10 0000000000 
FFFCFD15 0000000000 
FFFCFD1A 0000000000 
FFFCFD20 0000000000 
FFFCFD25 0000000000 
FFFCFD2A 0000000000 
FFFCFD30 0000000000 
FFFCFD35 0000000000 
FFFCFD3A 0000000000 
FFFCFD40 0000000000 
FFFCFD45 0000000000 
FFFCFD4A 0000000000 
FFFCFD50 0000000000 
FFFCFD55 0000000000 
FFFCFD5A 0000000000 
FFFCFD60 0000000000 
FFFCFD65 0000000000 
FFFCFD6A 0000000000 
FFFCFD70 0000000000 
FFFCFD75 0000000000 
FFFCFD7A 0000000000 
FFFCFD80 0000000000 
FFFCFD85 0000000000 
FFFCFD8A 0000000000 
FFFCFD90 0000000000 
FFFCFD95 0000000000 
FFFCFD9A 0000000000 
FFFCFDA0 0000000000 
FFFCFDA5 0000000000 
FFFCFDAA 0000000000 
FFFCFDB0 0000000000 
FFFCFDB5 0000000000 
FFFCFDBA 0000000000 
FFFCFDC0 0000000000 
FFFCFDC5 0000000000 
FFFCFDCA 0000000000 
FFFCFDD0 0000000000 
FFFCFDD5 0000000000 
FFFCFDDA 0000000000 
FFFCFDE0 0000000000 
FFFCFDE5 0000000000 
FFFCFDEA 0000000000 
FFFCFDF0 0000000000 
FFFCFDF5 0000000000 
FFFCFDFA 0000000000 
FFFCFE00 0000000000 
FFFCFE05 0000000000 
FFFCFE0A 0000000000 
FFFCFE10 0000000000 
FFFCFE15 0000000000 
FFFCFE1A 0000000000 
FFFCFE20 0000000000 
FFFCFE25 0000000000 
FFFCFE2A 0000000000 
FFFCFE30 0000000000 
FFFCFE35 0000000000 
FFFCFE3A 0000000000 
FFFCFE40 0000000000 
FFFCFE45 0000000000 
FFFCFE4A 0000000000 
FFFCFE50 0000000000 
FFFCFE55 0000000000 
FFFCFE5A 0000000000 
FFFCFE60 0000000000 
FFFCFE65 0000000000 
FFFCFE6A 0000000000 
FFFCFE70 0000000000 
FFFCFE75 0000000000 
FFFCFE7A 0000000000 
FFFCFE80 0000000000 
FFFCFE85 0000000000 
FFFCFE8A 0000000000 
FFFCFE90 0000000000 
FFFCFE95 0000000000 
FFFCFE9A 0000000000 
FFFCFEA0 0000000000 
FFFCFEA5 0000000000 
FFFCFEAA 0000000000 
FFFCFEB0 0000000000 
FFFCFEB5 0000000000 
FFFCFEBA 0000000000 
FFFCFEC0 0000000000 
FFFCFEC5 0000000000 
FFFCFECA 0000000000 
FFFCFED0 0000000000 
FFFCFED5 0000000000 
FFFCFEDA 0000000000 
FFFCFEE0 0000000000 
FFFCFEE5 0000000000 
FFFCFEEA 0000000000 
FFFCFEF0 0000000000 
FFFCFEF5 0000000000 
FFFCFEFA 0000000000 
FFFCFF00 0000000000 
FFFCFF05 0000000000 
FFFCFF0A 0000000000 
FFFCFF10 0000000000 
FFFCFF15 0000000000 
FFFCFF1A 0000000000 
FFFCFF20 0000000000 
FFFCFF25 0000000000 
FFFCFF2A 0000000000 
FFFCFF30 0000000000 
FFFCFF35 0000000000 
FFFCFF3A 0000000000 
FFFCFF40 0000000000 
FFFCFF45 0000000000 
FFFCFF4A 0000000000 
FFFCFF50 0000000000 
FFFCFF55 0000000000 
FFFCFF5A 0000000000 
FFFCFF60 0000000000 
FFFCFF65 0000000000 
FFFCFF6A 0000000000 
FFFCFF70 0000000000 
FFFCFF75 0000000000 
FFFCFF7A 0000000000 
FFFCFF80 0000000000 
FFFCFF85 0000000000 
FFFCFF8A 0000000000 
FFFCFF90 0000000000 
FFFCFF95 0000000000 
FFFCFF9A 0000000000 
FFFCFFA0 0000000000 
FFFCFFA5 0000000000 
FFFCFFAA 0000000000 
FFFCFFB0 0000000000 
FFFCFFB5 0000000000 
FFFCFFBA 0000000000 
FFFCFFC0 0000000000 
FFFCFFC5 0000000000 
FFFCFFCA 0000000000 
FFFCFFD0 0000000000 
FFFCFFD5 0000000000 
FFFCFFDA 0000000000 
FFFCFFE0 0000000000 
FFFCFFE5 0000000000 
FFFCFFEA 0000000000 
FFFCFFF0 0000000000 
FFFCFFF5 0000000000 
FFFCFFFA 0000000000 
FFFD0000 0000000000 
FFFD0005 0000000000 
FFFD000A 0000000000 
FFFD0010 0000000000 
FFFD0015 0000000000 
FFFD001A 0000000000 
FFFD0020 0000000000 
FFFD0025 0000000000 
FFFD002A 0000000000 
FFFD0030 0000000000 
FFFD0035 0000000000 
FFFD003A 0000000000 
FFFD0040 0000000000 
FFFD0045 0000000000 
FFFD004A 0000000000 
FFFD0050 0000000000 
FFFD0055 0000000000 
FFFD005A 0000000000 
FFFD0060 0000000000 
FFFD0065 0000000000 
FFFD006A 0000000000 
FFFD0070 0000000000 
FFFD0075 0000000000 
FFFD007A 0000000000 
FFFD0080 0000000000 
FFFD0085 0000000000 
FFFD008A 0000000000 
FFFD0090 0000000000 
FFFD0095 0000000000 
FFFD009A 0000000000 
FFFD00A0 0000000000 
FFFD00A5 0000000000 
FFFD00AA 0000000000 
FFFD00B0 0000000000 
FFFD00B5 0000000000 
FFFD00BA 0000000000 
FFFD00C0 0000000000 
FFFD00C5 0000000000 
FFFD00CA 0000000000 
FFFD00D0 0000000000 
FFFD00D5 0000000000 
FFFD00DA 0000000000 
FFFD00E0 0000000000 
FFFD00E5 0000000000 
FFFD00EA 0000000000 
FFFD00F0 0000000000 
FFFD00F5 0000000000 
FFFD00FA 0000000000 
FFFD0100 0000000000 
FFFD0105 0000000000 
FFFD010A 0000000000 
FFFD0110 0000000000 
FFFD0115 0000000000 
FFFD011A 0000000000 
FFFD0120 0000000000 
FFFD0125 0000000000 
FFFD012A 0000000000 
FFFD0130 0000000000 
FFFD0135 0000000000 
FFFD013A 0000000000 
FFFD0140 0000000000 
FFFD0145 0000000000 
FFFD014A 0000000000 
FFFD0150 0000000000 
FFFD0155 0000000000 
FFFD015A 0000000000 
FFFD0160 0000000000 
FFFD0165 0000000000 
FFFD016A 0000000000 
FFFD0170 0000000000 
FFFD0175 0000000000 
FFFD017A 0000000000 
FFFD0180 0000000000 
FFFD0185 0000000000 
FFFD018A 0000000000 
FFFD0190 0000000000 
FFFD0195 0000000000 
FFFD019A 0000000000 
FFFD01A0 0000000000 
FFFD01A5 0000000000 
FFFD01AA 0000000000 
FFFD01B0 0000000000 
FFFD01B5 0000000000 
FFFD01BA 0000000000 
FFFD01C0 0000000000 
FFFD01C5 0000000000 
FFFD01CA 0000000000 
FFFD01D0 0000000000 
FFFD01D5 0000000000 
FFFD01DA 0000000000 
FFFD01E0 0000000000 
FFFD01E5 0000000000 
FFFD01EA 0000000000 
FFFD01F0 0000000000 
FFFD01F5 0000000000 
FFFD01FA 0000000000 
FFFD0200 0000000000 
FFFD0205 0000000000 
FFFD020A 0000000000 
FFFD0210 0000000000 
FFFD0215 0000000000 
FFFD021A 0000000000 
FFFD0220 0000000000 
FFFD0225 0000000000 
FFFD022A 0000000000 
FFFD0230 0000000000 
FFFD0235 0000000000 
FFFD023A 0000000000 
FFFD0240 0000000000 
FFFD0245 0000000000 
FFFD024A 0000000000 
FFFD0250 0000000000 
FFFD0255 0000000000 
FFFD025A 0000000000 
FFFD0260 0000000000 
FFFD0265 0000000000 
FFFD026A 0000000000 
FFFD0270 0000000000 
FFFD0275 0000000000 
FFFD027A 0000000000 
FFFD0280 0000000000 
FFFD0285 0000000000 
FFFD028A 0000000000 
FFFD0290 0000000000 
FFFD0295 0000000000 
FFFD029A 0000000000 
FFFD02A0 0000000000 
FFFD02A5 0000000000 
FFFD02AA 0000000000 
FFFD02B0 0000000000 
FFFD02B5 0000000000 
FFFD02BA 0000000000 
FFFD02C0 0000000000 
FFFD02C5 0000000000 
FFFD02CA 0000000000 
FFFD02D0 0000000000 
FFFD02D5 0000000000 
FFFD02DA 0000000000 
FFFD02E0 0000000000 
FFFD02E5 0000000000 
FFFD02EA 0000000000 
FFFD02F0 0000000000 
FFFD02F5 0000000000 
FFFD02FA 0000000000 
FFFD0300 0000000000 
FFFD0305 0000000000 
FFFD030A 0000000000 
FFFD0310 0000000000 
FFFD0315 0000000000 
FFFD031A 0000000000 
FFFD0320 0000000000 
FFFD0325 0000000000 
FFFD032A 0000000000 
FFFD0330 0000000000 
FFFD0335 0000000000 
FFFD033A 0000000000 
FFFD0340 0000000000 
FFFD0345 0000000000 
FFFD034A 0000000000 
FFFD0350 0000000000 
FFFD0355 0000000000 
FFFD035A 0000000000 
FFFD0360 0000000000 
FFFD0365 0000000000 
FFFD036A 0000000000 
FFFD0370 0000000000 
FFFD0375 0000000000 
FFFD037A 0000000000 
FFFD0380 0000000000 
FFFD0385 0000000000 
FFFD038A 0000000000 
FFFD0390 0000000000 
FFFD0395 0000000000 
FFFD039A 0000000000 
FFFD03A0 0000000000 
FFFD03A5 0000000000 
FFFD03AA 0000000000 
FFFD03B0 0000000000 
FFFD03B5 0000000000 
FFFD03BA 0000000000 
FFFD03C0 0000000000 
FFFD03C5 0000000000 
FFFD03CA 0000000000 
FFFD03D0 0000000000 
FFFD03D5 0000000000 
FFFD03DA 0000000000 
FFFD03E0 0000000000 
FFFD03E5 0000000000 
FFFD03EA 0000000000 
FFFD03F0 0000000000 
FFFD03F5 0000000000 
FFFD03FA 0000000000 
FFFD0400 0000000000 
FFFD0405 0000000000 
FFFD040A 0000000000 
FFFD0410 0000000000 
FFFD0415 0000000000 
FFFD041A 0000000000 
FFFD0420 0000000000 
FFFD0425 0000000000 
FFFD042A 0000000000 
FFFD0430 0000000000 
FFFD0435 0000000000 
FFFD043A 0000000000 
FFFD0440 0000000000 
FFFD0445 0000000000 
FFFD044A 0000000000 
FFFD0450 0000000000 
FFFD0455 0000000000 
FFFD045A 0000000000 
FFFD0460 0000000000 
FFFD0465 0000000000 
FFFD046A 0000000000 
FFFD0470 0000000000 
FFFD0475 0000000000 
FFFD047A 0000000000 
FFFD0480 0000000000 
FFFD0485 0000000000 
FFFD048A 0000000000 
FFFD0490 0000000000 
FFFD0495 0000000000 
FFFD049A 0000000000 
FFFD04A0 0000000000 
FFFD04A5 0000000000 
FFFD04AA 0000000000 
FFFD04B0 0000000000 
FFFD04B5 0000000000 
FFFD04BA 0000000000 
FFFD04C0 0000000000 
FFFD04C5 0000000000 
FFFD04CA 0000000000 
FFFD04D0 0000000000 
FFFD04D5 0000000000 
FFFD04DA 0000000000 
FFFD04E0 0000000000 
FFFD04E5 0000000000 
FFFD04EA 0000000000 
FFFD04F0 0000000000 
FFFD04F5 0000000000 
FFFD04FA 0000000000 
FFFD0500 0000000000 
FFFD0505 0000000000 
FFFD050A 0000000000 
FFFD0510 0000000000 
FFFD0515 0000000000 
FFFD051A 0000000000 
FFFD0520 0000000000 
FFFD0525 0000000000 
FFFD052A 0000000000 
FFFD0530 0000000000 
FFFD0535 0000000000 
FFFD053A 0000000000 
FFFD0540 0000000000 
FFFD0545 0000000000 
FFFD054A 0000000000 
FFFD0550 0000000000 
FFFD0555 0000000000 
FFFD055A 0000000000 
FFFD0560 0000000000 
FFFD0565 0000000000 
FFFD056A 0000000000 
FFFD0570 0000000000 
FFFD0575 0000000000 
FFFD057A 0000000000 
FFFD0580 0000000000 
FFFD0585 0000000000 
FFFD058A 0000000000 
FFFD0590 0000000000 
FFFD0595 0000000000 
FFFD059A 0000000000 
FFFD05A0 0000000000 
FFFD05A5 0000000000 
FFFD05AA 0000000000 
FFFD05B0 0000000000 
FFFD05B5 0000000000 
FFFD05BA 0000000000 
FFFD05C0 0000000000 
FFFD05C5 0000000000 
FFFD05CA 0000000000 
FFFD05D0 0000000000 
FFFD05D5 0000000000 
FFFD05DA 0000000000 
FFFD05E0 0000000000 
FFFD05E5 0000000000 
FFFD05EA 0000000000 
FFFD05F0 0000000000 
FFFD05F5 0000000000 
FFFD05FA 0000000000 
FFFD0600 0000000000 
FFFD0605 0000000000 
FFFD060A 0000000000 
FFFD0610 0000000000 
FFFD0615 0000000000 
FFFD061A 0000000000 
FFFD0620 0000000000 
FFFD0625 0000000000 
FFFD062A 0000000000 
FFFD0630 0000000000 
FFFD0635 0000000000 
FFFD063A 0000000000 
FFFD0640 0000000000 
FFFD0645 0000000000 
FFFD064A 0000000000 
FFFD0650 0000000000 
FFFD0655 0000000000 
FFFD065A 0000000000 
FFFD0660 0000000000 
FFFD0665 0000000000 
FFFD066A 0000000000 
FFFD0670 0000000000 
FFFD0675 0000000000 
FFFD067A 0000000000 
FFFD0680 0000000000 
FFFD0685 0000000000 
FFFD068A 0000000000 
FFFD0690 0000000000 
FFFD0695 0000000000 
FFFD069A 0000000000 
FFFD06A0 0000000000 
FFFD06A5 0000000000 
FFFD06AA 0000000000 
FFFD06B0 0000000000 
FFFD06B5 0000000000 
FFFD06BA 0000000000 
FFFD06C0 0000000000 
FFFD06C5 0000000000 
FFFD06CA 0000000000 
FFFD06D0 0000000000 
FFFD06D5 0000000000 
FFFD06DA 0000000000 
FFFD06E0 0000000000 
FFFD06E5 0000000000 
FFFD06EA 0000000000 
FFFD06F0 0000000000 
FFFD06F5 0000000000 
FFFD06FA 0000000000 
FFFD0700 0000000000 
FFFD0705 0000000000 
FFFD070A 0000000000 
FFFD0710 0000000000 
FFFD0715 0000000000 
FFFD071A 0000000000 
FFFD0720 0000000000 
FFFD0725 0000000000 
FFFD072A 0000000000 
FFFD0730 0000000000 
FFFD0735 0000000000 
FFFD073A 0000000000 
FFFD0740 0000000000 
FFFD0745 0000000000 
FFFD074A 0000000000 
FFFD0750 0000000000 
FFFD0755 0000000000 
FFFD075A 0000000000 
FFFD0760 0000000000 
FFFD0765 0000000000 
FFFD076A 0000000000 
FFFD0770 0000000000 
FFFD0775 0000000000 
FFFD077A 0000000000 
FFFD0780 0000000000 
FFFD0785 0000000000 
FFFD078A 0000000000 
FFFD0790 0000000000 
FFFD0795 0000000000 
FFFD079A 0000000000 
FFFD07A0 0000000000 
FFFD07A5 0000000000 
FFFD07AA 0000000000 
FFFD07B0 0000000000 
FFFD07B5 0000000000 
FFFD07BA 0000000000 
FFFD07C0 0000000000 
FFFD07C5 0000000000 
FFFD07CA 0000000000 
FFFD07D0 0000000000 
FFFD07D5 0000000000 
FFFD07DA 0000000000 
FFFD07E0 0000000000 
FFFD07E5 0000000000 
FFFD07EA 0000000000 
FFFD07F0 0000000000 
FFFD07F5 0000000000 
FFFD07FA 0000000000 
FFFD0800 0000000000 
FFFD0805 0000000000 
FFFD080A 0000000000 
FFFD0810 0000000000 
FFFD0815 0000000000 
FFFD081A 0000000000 
FFFD0820 0000000000 
FFFD0825 0000000000 
FFFD082A 0000000000 
FFFD0830 0000000000 
FFFD0835 0000000000 
FFFD083A 0000000000 
FFFD0840 0000000000 
FFFD0845 0000000000 
FFFD084A 0000000000 
FFFD0850 0000000000 
FFFD0855 0000000000 
FFFD085A 0000000000 
FFFD0860 0000000000 
FFFD0865 0000000000 
FFFD086A 0000000000 
FFFD0870 0000000000 
FFFD0875 0000000000 
FFFD087A 0000000000 
FFFD0880 0000000000 
FFFD0885 0000000000 
FFFD088A 0000000000 
FFFD0890 0000000000 
FFFD0895 0000000000 
FFFD089A 0000000000 
FFFD08A0 0000000000 
FFFD08A5 0000000000 
FFFD08AA 0000000000 
FFFD08B0 0000000000 
FFFD08B5 0000000000 
FFFD08BA 0000000000 
FFFD08C0 0000000000 
FFFD08C5 0000000000 
FFFD08CA 0000000000 
FFFD08D0 0000000000 
FFFD08D5 0000000000 
FFFD08DA 0000000000 
FFFD08E0 0000000000 
FFFD08E5 0000000000 
FFFD08EA 0000000000 
FFFD08F0 0000000000 
FFFD08F5 0000000000 
FFFD08FA 0000000000 
FFFD0900 0000000000 
FFFD0905 0000000000 
FFFD090A 0000000000 
FFFD0910 0000000000 
FFFD0915 0000000000 
FFFD091A 0000000000 
FFFD0920 0000000000 
FFFD0925 0000000000 
FFFD092A 0000000000 
FFFD0930 0000000000 
FFFD0935 0000000000 
FFFD093A 0000000000 
FFFD0940 0000000000 
FFFD0945 0000000000 
FFFD094A 0000000000 
FFFD0950 0000000000 
FFFD0955 0000000000 
FFFD095A 0000000000 
FFFD0960 0000000000 
FFFD0965 0000000000 
FFFD096A 0000000000 
FFFD0970 0000000000 
FFFD0975 0000000000 
FFFD097A 0000000000 
FFFD0980 0000000000 
FFFD0985 0000000000 
FFFD098A 0000000000 
FFFD0990 0000000000 
FFFD0995 0000000000 
FFFD099A 0000000000 
FFFD09A0 0000000000 
FFFD09A5 0000000000 
FFFD09AA 0000000000 
FFFD09B0 0000000000 
FFFD09B5 0000000000 
FFFD09BA 0000000000 
FFFD09C0 0000000000 
FFFD09C5 0000000000 
FFFD09CA 0000000000 
FFFD09D0 0000000000 
FFFD09D5 0000000000 
FFFD09DA 0000000000 
FFFD09E0 0000000000 
FFFD09E5 0000000000 
FFFD09EA 0000000000 
FFFD09F0 0000000000 
FFFD09F5 0000000000 
FFFD09FA 0000000000 
FFFD0A00 0000000000 
FFFD0A05 0000000000 
FFFD0A0A 0000000000 
FFFD0A10 0000000000 
FFFD0A15 0000000000 
FFFD0A1A 0000000000 
FFFD0A20 0000000000 
FFFD0A25 0000000000 
FFFD0A2A 0000000000 
FFFD0A30 0000000000 
FFFD0A35 0000000000 
FFFD0A3A 0000000000 
FFFD0A40 0000000000 
FFFD0A45 0000000000 
FFFD0A4A 0000000000 
FFFD0A50 0000000000 
FFFD0A55 0000000000 
FFFD0A5A 0000000000 
FFFD0A60 0000000000 
FFFD0A65 0000000000 
FFFD0A6A 0000000000 
FFFD0A70 0000000000 
FFFD0A75 0000000000 
FFFD0A7A 0000000000 
FFFD0A80 0000000000 
FFFD0A85 0000000000 
FFFD0A8A 0000000000 
FFFD0A90 0000000000 
FFFD0A95 0000000000 
FFFD0A9A 0000000000 
FFFD0AA0 0000000000 
FFFD0AA5 0000000000 
FFFD0AAA 0000000000 
FFFD0AB0 0000000000 
FFFD0AB5 0000000000 
FFFD0ABA 0000000000 
FFFD0AC0 0000000000 
FFFD0AC5 0000000000 
FFFD0ACA 0000000000 
FFFD0AD0 0000000000 
FFFD0AD5 0000000000 
FFFD0ADA 0000000000 
FFFD0AE0 0000000000 
FFFD0AE5 0000000000 
FFFD0AEA 0000000000 
FFFD0AF0 0000000000 
FFFD0AF5 0000000000 
FFFD0AFA 0000000000 
FFFD0B00 0000000000 
FFFD0B05 0000000000 
FFFD0B0A 0000000000 
FFFD0B10 0000000000 
FFFD0B15 0000000000 
FFFD0B1A 0000000000 
FFFD0B20 0000000000 
FFFD0B25 0000000000 
FFFD0B2A 0000000000 
FFFD0B30 0000000000 
FFFD0B35 0000000000 
FFFD0B3A 0000000000 
FFFD0B40 0000000000 
FFFD0B45 0000000000 
FFFD0B4A 0000000000 
FFFD0B50 0000000000 
FFFD0B55 0000000000 
FFFD0B5A 0000000000 
FFFD0B60 0000000000 
FFFD0B65 0000000000 
FFFD0B6A 0000000000 
FFFD0B70 0000000000 
FFFD0B75 0000000000 
FFFD0B7A 0000000000 
FFFD0B80 0000000000 
FFFD0B85 0000000000 
FFFD0B8A 0000000000 
FFFD0B90 0000000000 
FFFD0B95 0000000000 
FFFD0B9A 0000000000 
FFFD0BA0 0000000000 
FFFD0BA5 0000000000 
FFFD0BAA 0000000000 
FFFD0BB0 0000000000 
FFFD0BB5 0000000000 
FFFD0BBA 0000000000 
FFFD0BC0 0000000000 
FFFD0BC5 0000000000 
FFFD0BCA 0000000000 
FFFD0BD0 0000000000 
FFFD0BD5 0000000000 
FFFD0BDA 0000000000 
FFFD0BE0 0000000000 
FFFD0BE5 0000000000 
FFFD0BEA 0000000000 
FFFD0BF0 0000000000 
FFFD0BF5 0000000000 
FFFD0BFA 0000000000 
FFFD0C00 0000000000 
FFFD0C05 0000000000 
FFFD0C0A 0000000000 
FFFD0C10 0000000000 
FFFD0C15 0000000000 
FFFD0C1A 0000000000 
FFFD0C20 0000000000 
FFFD0C25 0000000000 
FFFD0C2A 0000000000 
FFFD0C30 0000000000 
FFFD0C35 0000000000 
FFFD0C3A 0000000000 
FFFD0C40 0000000000 
FFFD0C45 0000000000 
FFFD0C4A 0000000000 
FFFD0C50 0000000000 
FFFD0C55 0000000000 
FFFD0C5A 0000000000 
FFFD0C60 0000000000 
FFFD0C65 0000000000 
FFFD0C6A 0000000000 
FFFD0C70 0000000000 
FFFD0C75 0000000000 
FFFD0C7A 0000000000 
FFFD0C80 0000000000 
FFFD0C85 0000000000 
FFFD0C8A 0000000000 
FFFD0C90 0000000000 
FFFD0C95 0000000000 
FFFD0C9A 0000000000 
FFFD0CA0 0000000000 
FFFD0CA5 0000000000 
FFFD0CAA 0000000000 
FFFD0CB0 0000000000 
FFFD0CB5 0000000000 
FFFD0CBA 0000000000 
FFFD0CC0 0000000000 
FFFD0CC5 0000000000 
FFFD0CCA 0000000000 
FFFD0CD0 0000000000 
FFFD0CD5 0000000000 
FFFD0CDA 0000000000 
FFFD0CE0 0000000000 
FFFD0CE5 0000000000 
FFFD0CEA 0000000000 
FFFD0CF0 0000000000 
FFFD0CF5 0000000000 
FFFD0CFA 0000000000 
FFFD0D00 0000000000 
FFFD0D05 0000000000 
FFFD0D0A 0000000000 
FFFD0D10 0000000000 
FFFD0D15 0000000000 
FFFD0D1A 0000000000 
FFFD0D20 0000000000 
FFFD0D25 0000000000 
FFFD0D2A 0000000000 
FFFD0D30 0000000000 
FFFD0D35 0000000000 
FFFD0D3A 0000000000 
FFFD0D40 0000000000 
FFFD0D45 0000000000 
FFFD0D4A 0000000000 
FFFD0D50 0000000000 
FFFD0D55 0000000000 
FFFD0D5A 0000000000 
FFFD0D60 0000000000 
FFFD0D65 0000000000 
FFFD0D6A 0000000000 
FFFD0D70 0000000000 
FFFD0D75 0000000000 
FFFD0D7A 0000000000 
FFFD0D80 0000000000 
FFFD0D85 0000000000 
FFFD0D8A 0000000000 
FFFD0D90 0000000000 
FFFD0D95 0000000000 
FFFD0D9A 0000000000 
FFFD0DA0 0000000000 
FFFD0DA5 0000000000 
FFFD0DAA 0000000000 
FFFD0DB0 0000000000 
FFFD0DB5 0000000000 
FFFD0DBA 0000000000 
FFFD0DC0 0000000000 
FFFD0DC5 0000000000 
FFFD0DCA 0000000000 
FFFD0DD0 0000000000 
FFFD0DD5 0000000000 
FFFD0DDA 0000000000 
FFFD0DE0 0000000000 
FFFD0DE5 0000000000 
FFFD0DEA 0000000000 
FFFD0DF0 0000000000 
FFFD0DF5 0000000000 
FFFD0DFA 0000000000 
FFFD0E00 0000000000 
FFFD0E05 0000000000 
FFFD0E0A 0000000000 
FFFD0E10 0000000000 
FFFD0E15 0000000000 
FFFD0E1A 0000000000 
FFFD0E20 0000000000 
FFFD0E25 0000000000 
FFFD0E2A 0000000000 
FFFD0E30 0000000000 
FFFD0E35 0000000000 
FFFD0E3A 0000000000 
FFFD0E40 0000000000 
FFFD0E45 0000000000 
FFFD0E4A 0000000000 
FFFD0E50 0000000000 
FFFD0E55 0000000000 
FFFD0E5A 0000000000 
FFFD0E60 0000000000 
FFFD0E65 0000000000 
FFFD0E6A 0000000000 
FFFD0E70 0000000000 
FFFD0E75 0000000000 
FFFD0E7A 0000000000 
FFFD0E80 0000000000 
FFFD0E85 0000000000 
FFFD0E8A 0000000000 
FFFD0E90 0000000000 
FFFD0E95 0000000000 
FFFD0E9A   00000000   
                        		align	2                        	
                        	IOFocusc_0:
100336E   		db	1
                        	
FFFCE2B2 0000000000 		align 
FFFCE2B7         
                        	
                        	end_init_data:
FFFCE2B8 0000000000 			data
FFFCE2BD 0000000000 
FFFCE2C2 0000000000 
FFFCE2C7 0000000000 
FFFCE2CC 0000000000 
FFFCE2D1 0000000000 
FFFCE2D6 0000000000 
FFFCE2DB 0000000000 
FFFCE2E0 0000000000 
FFFCE2E5 0000000000 
FFFCE2EA 0000000000 
FFFCE2F0 0000000000 
FFFCE2F5 0000000000 
FFFCE2FA 0000000000 
FFFCE300 0000000000 
FFFCE305 0000000000 
FFFCE30A 0000000000 
FFFCE310 0000000000 
FFFCE315 0000000000 
FFFCE31A 0000000000 
FFFCE320 0000000000 
FFFCE325 0000000000 
FFFCE32A 0000000000 
FFFCE330 0000000000 
FFFCE335 0000000000 
FFFCE33A 0000000000 
FFFCE340 0000000000 
FFFCE345 0000000000 
FFFCE34A 0000000000 
FFFCE350 0000000000 
FFFCE355 0000000000 
FFFCE35A 0000000000 
FFFCE360 0000000000 
FFFCE365 0000000000 
FFFCE36A 0000000000 
FFFCE370 0000000000 
FFFCE375 0000000000 
FFFCE37A 0000000000 
FFFCE380 0000000000 
FFFCE385 0000000000 
FFFCE38A 0000000000 
FFFCE390 0000000000 
FFFCE395 0000000000 
FFFCE39A 0000000000 
FFFCE3A0 0000000000 
FFFCE3A5 0000000000 
FFFCE3AA 0000000000 
FFFCE3B0 0000000000 
FFFCE3B5 0000000000 
FFFCE3BA 0000000000 
FFFCE3C0 0000000000 
FFFCE3C5 0000000000 
FFFCE3CA 0000000000 
FFFCE3D0 0000000000 
FFFCE3D5 0000000000 
FFFCE3DA 0000000000 
FFFCE3E0 0000000000 
FFFCE3E5 0000000000 
FFFCE3EA 0000000000 
FFFCE3F0 0000000000 
FFFCE3F5 0000000000 
FFFCE3FA 0000000000 
FFFCE400 0000000000 
FFFCE405 0000000000 
FFFCE40A 0000000000 
FFFCE410 0000000000 
FFFCE415 0000000000 
FFFCE41A 0000000000 
FFFCE420 0000000000 
FFFCE425 0000000000 
FFFCE42A 0000000000 
FFFCE430 0000000000 
FFFCE435 0000000000 
FFFCE43A 0000000000 
FFFCE440 0000000000 
FFFCE445 0000000000 
FFFCE44A 0000000000 
FFFCE450 0000000000 
FFFCE455 0000000000 
FFFCE45A 0000000000 
FFFCE460 0000000000 
FFFCE465 0000000000 
FFFCE46A 0000000000 
FFFCE470 0000000000 
FFFCE475 0000000000 
FFFCE47A 0000000000 
FFFCE480 0000000000 
FFFCE485 0000000000 
FFFCE48A 0000000000 
FFFCE490 0000000000 
FFFCE495 0000000000 
FFFCE49A 0000000000 
FFFCE4A0 0000000000 
FFFCE4A5 0000000000 
FFFCE4AA 0000000000 
FFFCE4B0 0000000000 
FFFCE4B5 0000000000 
FFFCE4BA 0000000000 
FFFCE4C0 0000000000 
FFFCE4C5 0000000000 
FFFCE4CA 0000000000 
FFFCE4D0 0000000000 
FFFCE4D5 0000000000 
FFFCE4DA 0000000000 
FFFCE4E0 0000000000 
FFFCE4E5 0000000000 
FFFCE4EA 0000000000 
FFFCE4F0 0000000000 
FFFCE4F5 0000000000 
FFFCE4FA 0000000000 
FFFCE500 0000000000 
FFFCE505 0000000000 
FFFCE50A 0000000000 
FFFCE510 0000000000 
FFFCE515 0000000000 
FFFCE51A 0000000000 
FFFCE520 0000000000 
FFFCE525 0000000000 
FFFCE52A 0000000000 
FFFCE530 0000000000 
FFFCE535 0000000000 
FFFCE53A 0000000000 
FFFCE540 0000000000 
FFFCE545 0000000000 
FFFCE54A 0000000000 
FFFCE550 0000000000 
FFFCE555 0000000000 
FFFCE55A 0000000000 
FFFCE560 0000000000 
FFFCE565 0000000000 
FFFCE56A 0000000000 
FFFCE570 0000000000 
FFFCE575 0000000000 
FFFCE57A 0000000000 
FFFCE580 0000000000 
FFFCE585 0000000000 
FFFCE58A 0000000000 
FFFCE590 0000000000 
FFFCE595 0000000000 
FFFCE59A 0000000000 
FFFCE5A0 0000000000 
FFFCE5A5 0000000000 
FFFCE5AA 0000000000 
FFFCE5B0 0000000000 
FFFCE5B5 0000000000 
FFFCE5BA 0000000000 
FFFCE5C0 0000000000 
FFFCE5C5 0000000000 
FFFCE5CA 0000000000 
FFFCE5D0 0000000000 
FFFCE5D5 0000000000 
FFFCE5DA 0000000000 
FFFCE5E0 0000000000 
FFFCE5E5 0000000000 
FFFCE5EA 0000000000 
FFFCE5F0 0000000000 
FFFCE5F5 0000000000 
FFFCE5FA 0000000000 
FFFCE600 0000000000 
FFFCE605 0000000000 
FFFCE60A 0000000000 
FFFCE610 0000000000 
FFFCE615 0000000000 
FFFCE61A 0000000000 
FFFCE620 0000000000 
FFFCE625 0000000000 
FFFCE62A 0000000000 
FFFCE630 0000000000 
FFFCE635 0000000000 
FFFCE63A 0000000000 
FFFCE640 0000000000 
FFFCE645 0000000000 
FFFCE64A 0000000000 
FFFCE650 0000000000 
FFFCE655 0000000000 
FFFCE65A 0000000000 
FFFCE660 0000000000 
FFFCE665 0000000000 
FFFCE66A 0000000000 
FFFCE670 0000000000 
FFFCE675 0000000000 
FFFCE67A 0000000000 
FFFCE680 0000000000 
FFFCE685 0000000000 
FFFCE68A 0000000000 
FFFCE690 0000000000 
FFFCE695 0000000000 
FFFCE69A 0000000000 
FFFCE6A0 0000000000 
FFFCE6A5 0000000000 
FFFCE6AA 0000000000 
FFFCE6B0 0000000000 
FFFCE6B5 0000000000 
FFFCE6BA 0000000000 
FFFCE6C0 0000000000 
FFFCE6C5 0000000000 
FFFCE6CA 0000000000 
FFFCE6D0 0000000000 
FFFCE6D5 0000000000 
FFFCE6DA 0000000000 
FFFCE6E0 0000000000 
FFFCE6E5 0000000000 
FFFCE6EA 0000000000 
FFFCE6F0 0000000000 
FFFCE6F5 0000000000 
FFFCE6FA 0000000000 
FFFCE700 0000000000 
FFFCE705 0000000000 
FFFCE70A 0000000000 
FFFCE710 0000000000 
FFFCE715 0000000000 
FFFCE71A 0000000000 
FFFCE720 0000000000 
FFFCE725 0000000000 
FFFCE72A 0000000000 
FFFCE730 0000000000 
FFFCE735 0000000000 
FFFCE73A 0000000000 
FFFCE740 0000000000 
FFFCE745 0000000000 
FFFCE74A 0000000000 
FFFCE750 0000000000 
FFFCE755 0000000000 
FFFCE75A 0000000000 
FFFCE760 0000000000 
FFFCE765 0000000000 
FFFCE76A 0000000000 
FFFCE770 0000000000 
FFFCE775 0000000000 
FFFCE77A 0000000000 
FFFCE780 0000000000 
FFFCE785 0000000000 
FFFCE78A 0000000000 
FFFCE790 0000000000 
FFFCE795 0000000000 
FFFCE79A 0000000000 
FFFCE7A0 0000000000 
FFFCE7A5 0000000000 
FFFCE7AA 0000000000 
FFFCE7B0 0000000000 
FFFCE7B5 0000000000 
FFFCE7BA 0000000000 
FFFCE7C0 0000000000 
FFFCE7C5 0000000000 
FFFCE7CA 0000000000 
FFFCE7D0 0000000000 
FFFCE7D5 0000000000 
FFFCE7DA 0000000000 
FFFCE7E0 0000000000 
FFFCE7E5 0000000000 
FFFCE7EA 0000000000 
FFFCE7F0 0000000000 
FFFCE7F5 0000000000 
FFFCE7FA 0000000000 
FFFCE800 0000000000 
FFFCE805 0000000000 
FFFCE80A 0000000000 
FFFCE810 0000000000 
FFFCE815 0000000000 
FFFCE81A 0000000000 
FFFCE820 0000000000 
FFFCE825 0000000000 
FFFCE82A 0000000000 
FFFCE830 0000000000 
FFFCE835 0000000000 
FFFCE83A 0000000000 
FFFCE840 0000000000 
FFFCE845 0000000000 
FFFCE84A 0000000000 
FFFCE850 0000000000 
FFFCE855 0000000000 
FFFCE85A 0000000000 
FFFCE860 0000000000 
FFFCE865 0000000000 
FFFCE86A 0000000000 
FFFCE870 0000000000 
FFFCE875 0000000000 
FFFCE87A 0000000000 
FFFCE880 0000000000 
FFFCE885 0000000000 
FFFCE88A 0000000000 
FFFCE890 0000000000 
FFFCE895 0000000000 
FFFCE89A 0000000000 
FFFCE8A0 0000000000 
FFFCE8A5 0000000000 
FFFCE8AA 0000000000 
FFFCE8B0 0000000000 
FFFCE8B5 0000000000 
FFFCE8BA 0000000000 
FFFCE8C0 0000000000 
FFFCE8C5 0000000000 
FFFCE8CA 0000000000 
FFFCE8D0 0000000000 
FFFCE8D5 0000000000 
FFFCE8DA 0000000000 
FFFCE8E0 0000000000 
FFFCE8E5 0000000000 
FFFCE8EA 0000000000 
FFFCE8F0 0000000000 
FFFCE8F5 0000000000 
FFFCE8FA 0000000000 
FFFCE900 0000000000 
FFFCE905 0000000000 
FFFCE90A 0000000000 
FFFCE910 0000000000 
FFFCE915 0000000000 
FFFCE91A 0000000000 
FFFCE920 0000000000 
FFFCE925 0000000000 
FFFCE92A 0000000000 
FFFCE930 0000000000 
FFFCE935 0000000000 
FFFCE93A 0000000000 
FFFCE940 0000000000 
FFFCE945 0000000000 
FFFCE94A 0000000000 
FFFCE950 0000000000 
FFFCE955 0000000000 
FFFCE95A 0000000000 
FFFCE960 0000000000 
FFFCE965 0000000000 
FFFCE96A 0000000000 
FFFCE970 0000000000 
FFFCE975 0000000000 
FFFCE97A 0000000000 
FFFCE980 0000000000 
FFFCE985 0000000000 
FFFCE98A 0000000000 
FFFCE990 0000000000 
FFFCE995 0000000000 
FFFCE99A 0000000000 
FFFCE9A0 0000000000 
FFFCE9A5 0000000000 
FFFCE9AA 0000000000 
FFFCE9B0 0000000000 
FFFCE9B5 0000000000 
FFFCE9BA 0000000000 
FFFCE9C0 0000000000 
FFFCE9C5 0000000000 
FFFCE9CA 0000000000 
FFFCE9D0 0000000000 
FFFCE9D5 0000000000 
FFFCE9DA 0000000000 
FFFCE9E0 0000000000 
FFFCE9E5 0000000000 
FFFCE9EA 0000000000 
FFFCE9F0 0000000000 
FFFCE9F5 0000000000 
FFFCE9FA 0000000000 
FFFCEA00 0000000000 
FFFCEA05 0000000000 
FFFCEA0A 0000000000 
FFFCEA10 0000000000 
FFFCEA15 0000000000 
FFFCEA1A 0000000000 
FFFCEA20 0000000000 
FFFCEA25 0000000000 
FFFCEA2A 0000000000 
FFFCEA30 0000000000 
FFFCEA35 0000000000 
FFFCEA3A 0000000000 
FFFCEA40 0000000000 
FFFCEA45 0000000000 
FFFCEA4A 0000000000 
FFFCEA50 0000000000 
FFFCEA55 0000000000 
FFFCEA5A 0000000000 
FFFCEA60 0000000000 
FFFCEA65 0000000000 
FFFCEA6A 0000000000 
FFFCEA70 0000000000 
FFFCEA75 0000000000 
FFFCEA7A 0000000000 
FFFCEA80 0000000000 
FFFCEA85 0000000000 
FFFCEA8A 0000000000 
FFFCEA90 0000000000 
FFFCEA95 0000000000 
FFFCEA9A 0000000000 
FFFCEAA0 0000000000 
FFFCEAA5 0000000000 
FFFCEAAA 0000000000 
FFFCEAB0 0000000000 
FFFCEAB5 0000000000 
FFFCEABA 0000000000 
FFFCEAC0 0000000000 
FFFCEAC5 0000000000 
FFFCEACA 0000000000 
FFFCEAD0 0000000000 
FFFCEAD5 0000000000 
FFFCEADA 0000000000 
FFFCEAE0 0000000000 
FFFCEAE5 0000000000 
FFFCEAEA 0000000000 
FFFCEAF0 0000000000 
FFFCEAF5 0000000000 
FFFCEAFA 0000000000 
FFFCEB00 0000000000 
FFFCEB05 0000000000 
FFFCEB0A 0000000000 
FFFCEB10 0000000000 
FFFCEB15 0000000000 
FFFCEB1A 0000000000 
FFFCEB20 0000000000 
FFFCEB25 0000000000 
FFFCEB2A 0000000000 
FFFCEB30 0000000000 
FFFCEB35 0000000000 
FFFCEB3A 0000000000 
FFFCEB40 0000000000 
FFFCEB45 0000000000 
FFFCEB4A 0000000000 
FFFCEB50 0000000000 
FFFCEB55 0000000000 
FFFCEB5A 0000000000 
FFFCEB60 0000000000 
FFFCEB65 0000000000 
FFFCEB6A 0000000000 
FFFCEB70 0000000000 
FFFCEB75 0000000000 
FFFCEB7A 0000000000 
FFFCEB80 0000000000 
FFFCEB85 0000000000 
FFFCEB8A 0000000000 
FFFCEB90 0000000000 
FFFCEB95 0000000000 
FFFCEB9A 0000000000 
FFFCEBA0 0000000000 
FFFCEBA5 0000000000 
FFFCEBAA 0000000000 
FFFCEBB0 0000000000 
FFFCEBB5 0000000000 
FFFCEBBA 0000000000 
FFFCEBC0 0000000000 
FFFCEBC5 0000000000 
FFFCEBCA 0000000000 
FFFCEBD0 0000000000 
FFFCEBD5 0000000000 
FFFCEBDA 0000000000 
FFFCEBE0 0000000000 
FFFCEBE5 0000000000 
FFFCEBEA 0000000000 
FFFCEBF0 0000000000 
FFFCEBF5 0000000000 
FFFCEBFA 0000000000 
FFFCEC00 0000000000 
FFFCEC05 0000000000 
FFFCEC0A 0000000000 
FFFCEC10 0000000000 
FFFCEC15 0000000000 
FFFCEC1A 0000000000 
FFFCEC20 0000000000 
FFFCEC25 0000000000 
FFFCEC2A 0000000000 
FFFCEC30 0000000000 
FFFCEC35 0000000000 
FFFCEC3A 0000000000 
FFFCEC40 0000000000 
FFFCEC45 0000000000 
FFFCEC4A 0000000000 
FFFCEC50 0000000000 
FFFCEC55 0000000000 
FFFCEC5A 0000000000 
FFFCEC60 0000000000 
FFFCEC65 0000000000 
FFFCEC6A 0000000000 
FFFCEC70 0000000000 
FFFCEC75 0000000000 
FFFCEC7A 0000000000 
FFFCEC80 0000000000 
FFFCEC85 0000000000 
FFFCEC8A 0000000000 
FFFCEC90 0000000000 
FFFCEC95 0000000000 
FFFCEC9A 0000000000 
FFFCECA0 0000000000 
FFFCECA5 0000000000 
FFFCECAA 0000000000 
FFFCECB0 0000000000 
FFFCECB5 0000000000 
FFFCECBA 0000000000 
FFFCECC0 0000000000 
FFFCECC5 0000000000 
FFFCECCA 0000000000 
FFFCECD0 0000000000 
FFFCECD5 0000000000 
FFFCECDA 0000000000 
FFFCECE0 0000000000 
FFFCECE5 0000000000 
FFFCECEA 0000000000 
FFFCECF0 0000000000 
FFFCECF5 0000000000 
FFFCECFA 0000000000 
FFFCED00 0000000000 
FFFCED05 0000000000 
FFFCED0A 0000000000 
FFFCED10 0000000000 
FFFCED15 0000000000 
FFFCED1A 0000000000 
FFFCED20 0000000000 
FFFCED25 0000000000 
FFFCED2A 0000000000 
FFFCED30 0000000000 
FFFCED35 0000000000 
FFFCED3A 0000000000 
FFFCED40 0000000000 
FFFCED45 0000000000 
FFFCED4A 0000000000 
FFFCED50 0000000000 
FFFCED55 0000000000 
FFFCED5A 0000000000 
FFFCED60 0000000000 
FFFCED65 0000000000 
FFFCED6A 0000000000 
FFFCED70 0000000000 
FFFCED75 0000000000 
FFFCED7A 0000000000 
FFFCED80 0000000000 
FFFCED85 0000000000 
FFFCED8A 0000000000 
FFFCED90 0000000000 
FFFCED95 0000000000 
FFFCED9A 0000000000 
FFFCEDA0 0000000000 
FFFCEDA5 0000000000 
FFFCEDAA 0000000000 
FFFCEDB0 0000000000 
FFFCEDB5 0000000000 
FFFCEDBA 0000000000 
FFFCEDC0 0000000000 
FFFCEDC5 0000000000 
FFFCEDCA 0000000000 
FFFCEDD0 0000000000 
FFFCEDD5 0000000000 
FFFCEDDA 0000000000 
FFFCEDE0 0000000000 
FFFCEDE5 0000000000 
FFFCEDEA 0000000000 
FFFCEDF0 0000000000 
FFFCEDF5 0000000000 
FFFCEDFA 0000000000 
FFFCEE00 0000000000 
FFFCEE05 0000000000 
FFFCEE0A 0000000000 
FFFCEE10 0000000000 
FFFCEE15 0000000000 
FFFCEE1A 0000000000 
FFFCEE20 0000000000 
FFFCEE25 0000000000 
FFFCEE2A 0000000000 
FFFCEE30 0000000000 
FFFCEE35 0000000000 
FFFCEE3A 0000000000 
FFFCEE40 0000000000 
FFFCEE45 0000000000 
FFFCEE4A 0000000000 
FFFCEE50 0000000000 
FFFCEE55 0000000000 
FFFCEE5A 0000000000 
FFFCEE60 0000000000 
FFFCEE65 0000000000 
FFFCEE6A 0000000000 
FFFCEE70 0000000000 
FFFCEE75 0000000000 
FFFCEE7A 0000000000 
FFFCEE80 0000000000 
FFFCEE85 0000000000 
FFFCEE8A 0000000000 
FFFCEE90 0000000000 
FFFCEE95 0000000000 
FFFCEE9A 0000000000 
FFFCEEA0 0000000000 
FFFCEEA5 0000000000 
FFFCEEAA 0000000000 
FFFCEEB0 0000000000 
FFFCEEB5 0000000000 
FFFCEEBA 0000000000 
FFFCEEC0 0000000000 
FFFCEEC5 0000000000 
FFFCEECA 0000000000 
FFFCEED0 0000000000 
FFFCEED5 0000000000 
FFFCEEDA 0000000000 
FFFCEEE0 0000000000 
FFFCEEE5 0000000000 
FFFCEEEA 0000000000 
FFFCEEF0 0000000000 
FFFCEEF5 0000000000 
FFFCEEFA 0000000000 
FFFCEF00 0000000000 
FFFCEF05 0000000000 
FFFCEF0A 0000000000 
FFFCEF10 0000000000 
FFFCEF15 0000000000 
FFFCEF1A 0000000000 
FFFCEF20 0000000000 
FFFCEF25 0000000000 
FFFCEF2A 0000000000 
FFFCEF30 0000000000 
FFFCEF35 0000000000 
FFFCEF3A 0000000000 
FFFCEF40 0000000000 
FFFCEF45 0000000000 
FFFCEF4A 0000000000 
FFFCEF50 0000000000 
FFFCEF55 0000000000 
FFFCEF5A 0000000000 
FFFCEF60 0000000000 
FFFCEF65 0000000000 
FFFCEF6A 0000000000 
FFFCEF70 0000000000 
FFFCEF75 0000000000 
FFFCEF7A 0000000000 
FFFCEF80 0000000000 
FFFCEF85 0000000000 
FFFCEF8A 0000000000 
FFFCEF90 0000000000 
FFFCEF95 0000000000 
FFFCEF9A 0000000000 
FFFCEFA0 0000000000 
FFFCEFA5 0000000000 
FFFCEFAA 0000000000 
FFFCEFB0 0000000000 
FFFCEFB5 0000000000 
FFFCEFBA 0000000000 
FFFCEFC0 0000000000 
FFFCEFC5 0000000000 
FFFCEFCA 0000000000 
FFFCEFD0 0000000000 
FFFCEFD5 0000000000 
FFFCEFDA 0000000000 
FFFCEFE0 0000000000 
FFFCEFE5 0000000000 
FFFCEFEA 0000000000 
FFFCEFF0 0000000000 
FFFCEFF5 0000000000 
FFFCEFFA 0000000000 
FFFCF000 0000000000 
FFFCF005 0000000000 
FFFCF00A 0000000000 
FFFCF010 0000000000 
FFFCF015 0000000000 
FFFCF01A 0000000000 
FFFCF020 0000000000 
FFFCF025 0000000000 
FFFCF02A 0000000000 
FFFCF030 0000000000 
FFFCF035 0000000000 
FFFCF03A 0000000000 
FFFCF040 0000000000 
FFFCF045 0000000000 
FFFCF04A 0000000000 
FFFCF050 0000000000 
FFFCF055 0000000000 
FFFCF05A 0000000000 
FFFCF060 0000000000 
FFFCF065 0000000000 
FFFCF06A 0000000000 
FFFCF070 0000000000 
FFFCF075 0000000000 
FFFCF07A 0000000000 
FFFCF080 0000000000 
FFFCF085 0000000000 
FFFCF08A 0000000000 
FFFCF090 0000000000 
FFFCF095 0000000000 
FFFCF09A 0000000000 
FFFCF0A0 0000000000 
FFFCF0A5 0000000000 
FFFCF0AA 0000000000 
FFFCF0B0 0000000000 
FFFCF0B5 0000000000 
FFFCF0BA 0000000000 
FFFCF0C0 0000000000 
FFFCF0C5 0000000000 
FFFCF0CA 0000000000 
FFFCF0D0 0000000000 
FFFCF0D5 0000000000 
FFFCF0DA 0000000000 
FFFCF0E0 0000000000 
FFFCF0E5 0000000000 
FFFCF0EA 0000000000 
FFFCF0F0 0000000000 
FFFCF0F5 0000000000 
FFFCF0FA 0000000000 
FFFCF100 0000000000 
FFFCF105 0000000000 
FFFCF10A 0000000000 
FFFCF110 0000000000 
FFFCF115 0000000000 
FFFCF11A 0000000000 
FFFCF120 0000000000 
FFFCF125 0000000000 
FFFCF12A 0000000000 
FFFCF130 0000000000 
FFFCF135 0000000000 
FFFCF13A 0000000000 
FFFCF140 0000000000 
FFFCF145 0000000000 
FFFCF14A 0000000000 
FFFCF150 0000000000 
FFFCF155 0000000000 
FFFCF15A 0000000000 
FFFCF160 0000000000 
FFFCF165 0000000000 
FFFCF16A 0000000000 
FFFCF170 0000000000 
FFFCF175 0000000000 
FFFCF17A 0000000000 
FFFCF180 0000000000 
FFFCF185 0000000000 
FFFCF18A 0000000000 
FFFCF190 0000000000 
FFFCF195 0000000000 
FFFCF19A 0000000000 
FFFCF1A0 0000000000 
FFFCF1A5 0000000000 
FFFCF1AA 0000000000 
FFFCF1B0 0000000000 
FFFCF1B5 0000000000 
FFFCF1BA 0000000000 
FFFCF1C0 0000000000 
FFFCF1C5 0000000000 
FFFCF1CA 0000000000 
FFFCF1D0 0000000000 
FFFCF1D5 0000000000 
FFFCF1DA 0000000000 
FFFCF1E0 0000000000 
FFFCF1E5 0000000000 
FFFCF1EA 0000000000 
FFFCF1F0 0000000000 
FFFCF1F5 0000000000 
FFFCF1FA 0000000000 
FFFCF200 0000000000 
FFFCF205 0000000000 
FFFCF20A 0000000000 
FFFCF210 0000000000 
FFFCF215 0000000000 
FFFCF21A 0000000000 
FFFCF220 0000000000 
FFFCF225 0000000000 
FFFCF22A 0000000000 
FFFCF230 0000000000 
FFFCF235 0000000000 
FFFCF23A 0000000000 
FFFCF240 0000000000 
FFFCF245 0000000000 
FFFCF24A 0000000000 
FFFCF250 0000000000 
FFFCF255 0000000000 
FFFCF25A 0000000000 
FFFCF260 0000000000 
FFFCF265 0000000000 
FFFCF26A 0000000000 
FFFCF270 0000000000 
FFFCF275 0000000000 
FFFCF27A 0000000000 
FFFCF280 0000000000 
FFFCF285 0000000000 
FFFCF28A 0000000000 
FFFCF290 0000000000 
FFFCF295 0000000000 
FFFCF29A 0000000000 
FFFCF2A0 0000000000 
FFFCF2A5 0000000000 
FFFCF2AA 0000000000 
FFFCF2B0 0000000000 
FFFCF2B5 0000000000 
FFFCF2BA 0000000000 
FFFCF2C0 0000000000 
FFFCF2C5 0000000000 
FFFCF2CA 0000000000 
FFFCF2D0 0000000000 
FFFCF2D5 0000000000 
FFFCF2DA 0000000000 
FFFCF2E0 0000000000 
FFFCF2E5 0000000000 
FFFCF2EA 0000000000 
FFFCF2F0 0000000000 
FFFCF2F5 0000000000 
FFFCF2FA 0000000000 
FFFCF300 0000000000 
FFFCF305 0000000000 
FFFCF30A 0000000000 
FFFCF310 0000000000 
FFFCF315 0000000000 
FFFCF31A 0000000000 
FFFCF320 0000000000 
FFFCF325 0000000000 
FFFCF32A 0000000000 
FFFCF330 0000000000 
FFFCF335 0000000000 
FFFCF33A 0000000000 
FFFCF340 0000000000 
FFFCF345 0000000000 
FFFCF34A 0000000000 
FFFCF350 0000000000 
FFFCF355 0000000000 
FFFCF35A 0000000000 
FFFCF360 0000000000 
FFFCF365 0000000000 
FFFCF36A 0000000000 
FFFCF370 0000000000 
FFFCF375 0000000000 
FFFCF37A 0000000000 
FFFCF380 0000000000 
FFFCF385 0000000000 
FFFCF38A 0000000000 
FFFCF390 0000000000 
FFFCF395 0000000000 
FFFCF39A 0000000000 
FFFCF3A0 0000000000 
FFFCF3A5 0000000000 
FFFCF3AA 0000000000 
FFFCF3B0 0000000000 
FFFCF3B5 0000000000 
FFFCF3BA 0000000000 
FFFCF3C0 0000000000 
FFFCF3C5 0000000000 
FFFCF3CA 0000000000 
FFFCF3D0 0000000000 
FFFCF3D5 0000000000 
FFFCF3DA 0000000000 
FFFCF3E0 0000000000 
FFFCF3E5 0000000000 
FFFCF3EA 0000000000 
FFFCF3F0 0000000000 
FFFCF3F5 0000000000 
FFFCF3FA 0000000000 
FFFCF400 0000000000 
FFFCF405 0000000000 
FFFCF40A 0000000000 
FFFCF410 0000000000 
FFFCF415 0000000000 
FFFCF41A 0000000000 
FFFCF420 0000000000 
FFFCF425 0000000000 
FFFCF42A 0000000000 
FFFCF430 0000000000 
FFFCF435 0000000000 
FFFCF43A 0000000000 
FFFCF440 0000000000 
FFFCF445 0000000000 
FFFCF44A 0000000000 
FFFCF450 0000000000 
FFFCF455 0000000000 
FFFCF45A 0000000000 
FFFCF460 0000000000 
FFFCF465 0000000000 
FFFCF46A 0000000000 
FFFCF470 0000000000 
FFFCF475 0000000000 
FFFCF47A 0000000000 
FFFCF480 0000000000 
FFFCF485 0000000000 
FFFCF48A 0000000000 
FFFCF490 0000000000 
FFFCF495 0000000000 
FFFCF49A 0000000000 
FFFCF4A0 0000000000 
FFFCF4A5 0000000000 
FFFCF4AA 0000000000 
FFFCF4B0 0000000000 
FFFCF4B5 0000000000 
FFFCF4BA 0000000000 
FFFCF4C0 0000000000 
FFFCF4C5 0000000000 
FFFCF4CA 0000000000 
FFFCF4D0 0000000000 
FFFCF4D5 0000000000 
FFFCF4DA 0000000000 
FFFCF4E0 0000000000 
FFFCF4E5 0000000000 
FFFCF4EA 0000000000 
FFFCF4F0 0000000000 
FFFCF4F5 0000000000 
FFFCF4FA 0000000000 
FFFCF500 0000000000 
FFFCF505 0000000000 
FFFCF50A 0000000000 
FFFCF510 0000000000 
FFFCF515 0000000000 
FFFCF51A 0000000000 
FFFCF520 0000000000 
FFFCF525 0000000000 
FFFCF52A 0000000000 
FFFCF530 0000000000 
FFFCF535 0000000000 
FFFCF53A 0000000000 
FFFCF540 0000000000 
FFFCF545 0000000000 
FFFCF54A 0000000000 
FFFCF550 0000000000 
FFFCF555 0000000000 
FFFCF55A 0000000000 
FFFCF560 0000000000 
FFFCF565 0000000000 
FFFCF56A 0000000000 
FFFCF570 0000000000 
FFFCF575 0000000000 
FFFCF57A 0000000000 
FFFCF580 0000000000 
FFFCF585 0000000000 
FFFCF58A 0000000000 
FFFCF590 0000000000 
FFFCF595 0000000000 
FFFCF59A 0000000000 
FFFCF5A0 0000000000 
FFFCF5A5 0000000000 
FFFCF5AA 0000000000 
FFFCF5B0 0000000000 
FFFCF5B5 0000000000 
FFFCF5BA 0000000000 
FFFCF5C0 0000000000 
FFFCF5C5 0000000000 
FFFCF5CA 0000000000 
FFFCF5D0 0000000000 
FFFCF5D5 0000000000 
FFFCF5DA 0000000000 
FFFCF5E0 0000000000 
FFFCF5E5 0000000000 
FFFCF5EA 0000000000 
FFFCF5F0 0000000000 
FFFCF5F5 0000000000 
FFFCF5FA 0000000000 
FFFCF600 0000000000 
FFFCF605 0000000000 
FFFCF60A 0000000000 
FFFCF610 0000000000 
FFFCF615 0000000000 
FFFCF61A 0000000000 
FFFCF620 0000000000 
FFFCF625 0000000000 
FFFCF62A 0000000000 
FFFCF630 0000000000 
FFFCF635 0000000000 
FFFCF63A 0000000000 
FFFCF640 0000000000 
FFFCF645 0000000000 
FFFCF64A 0000000000 
FFFCF650 0000000000 
FFFCF655 0000000000 
FFFCF65A 0000000000 
FFFCF660 0000000000 
FFFCF665 0000000000 
FFFCF66A 0000000000 
FFFCF670 0000000000 
FFFCF675 0000000000 
FFFCF67A 0000000000 
FFFCF680 0000000000 
FFFCF685 0000000000 
FFFCF68A 0000000000 
FFFCF690 0000000000 
FFFCF695 0000000000 
FFFCF69A 0000000000 
FFFCF6A0 0000000000 
FFFCF6A5 0000000000 
FFFCF6AA 0000000000 
FFFCF6B0 0000000000 
FFFCF6B5 0000000000 
FFFCF6BA 0000000000 
FFFCF6C0 0000000000 
FFFCF6C5 0000000000 
FFFCF6CA 0000000000 
FFFCF6D0 0000000000 
FFFCF6D5 0000000000 
FFFCF6DA 0000000000 
FFFCF6E0 0000000000 
FFFCF6E5 0000000000 
FFFCF6EA 0000000000 
FFFCF6F0 0000000000 
FFFCF6F5 0000000000 
FFFCF6FA 0000000000 
FFFCF700 0000000000 
FFFCF705 0000000000 
FFFCF70A 0000000000 
FFFCF710 0000000000 
FFFCF715 0000000000 
FFFCF71A 0000000000 
FFFCF720 0000000000 
FFFCF725 0000000000 
FFFCF72A 0000000000 
FFFCF730 0000000000 
FFFCF735 0000000000 
FFFCF73A 0000000000 
FFFCF740 0000000000 
FFFCF745 0000000000 
FFFCF74A 0000000000 
FFFCF750 0000000000 
FFFCF755 0000000000 
FFFCF75A 0000000000 
FFFCF760 0000000000 
FFFCF765 0000000000 
FFFCF76A 0000000000 
FFFCF770 0000000000 
FFFCF775 0000000000 
FFFCF77A 0000000000 
FFFCF780 0000000000 
FFFCF785 0000000000 
FFFCF78A 0000000000 
FFFCF790 0000000000 
FFFCF795 0000000000 
FFFCF79A 0000000000 
FFFCF7A0 0000000000 
FFFCF7A5 0000000000 
FFFCF7AA 0000000000 
FFFCF7B0 0000000000 
FFFCF7B5 0000000000 
FFFCF7BA 0000000000 
FFFCF7C0 0000000000 
FFFCF7C5 0000000000 
FFFCF7CA 0000000000 
FFFCF7D0 0000000000 
FFFCF7D5 0000000000 
FFFCF7DA 0000000000 
FFFCF7E0 0000000000 
FFFCF7E5 0000000000 
FFFCF7EA 0000000000 
FFFCF7F0 0000000000 
FFFCF7F5 0000000000 
FFFCF7FA 0000000000 
FFFCF800 0000000000 
FFFCF805 0000000000 
FFFCF80A 0000000000 
FFFCF810 0000000000 
FFFCF815 0000000000 
FFFCF81A 0000000000 
FFFCF820 0000000000 
FFFCF825 0000000000 
FFFCF82A 0000000000 
FFFCF830 0000000000 
FFFCF835 0000000000 
FFFCF83A 0000000000 
FFFCF840 0000000000 
FFFCF845 0000000000 
FFFCF84A 0000000000 
FFFCF850 0000000000 
FFFCF855 0000000000 
FFFCF85A 0000000000 
FFFCF860 0000000000 
FFFCF865 0000000000 
FFFCF86A 0000000000 
FFFCF870 0000000000 
FFFCF875 0000000000 
FFFCF87A 0000000000 
FFFCF880 0000000000 
FFFCF885 0000000000 
FFFCF88A 0000000000 
FFFCF890 0000000000 
FFFCF895 0000000000 
FFFCF89A 0000000000 
FFFCF8A0 0000000000 
FFFCF8A5 0000000000 
FFFCF8AA 0000000000 
FFFCF8B0 0000000000 
FFFCF8B5 0000000000 
FFFCF8BA 0000000000 
FFFCF8C0 0000000000 
FFFCF8C5 0000000000 
FFFCF8CA 0000000000 
FFFCF8D0 0000000000 
FFFCF8D5 0000000000 
FFFCF8DA 0000000000 
FFFCF8E0 0000000000 
FFFCF8E5 0000000000 
FFFCF8EA 0000000000 
FFFCF8F0 0000000000 
FFFCF8F5 0000000000 
FFFCF8FA 0000000000 
FFFCF900 0000000000 
FFFCF905 0000000000 
FFFCF90A 0000000000 
FFFCF910 0000000000 
FFFCF915 0000000000 
FFFCF91A 0000000000 
FFFCF920 0000000000 
FFFCF925 0000000000 
FFFCF92A 0000000000 
FFFCF930 0000000000 
FFFCF935 0000000000 
FFFCF93A 0000000000 
FFFCF940 0000000000 
FFFCF945 0000000000 
FFFCF94A 0000000000 
FFFCF950 0000000000 
FFFCF955 0000000000 
FFFCF95A 0000000000 
FFFCF960 0000000000 
FFFCF965 0000000000 
FFFCF96A 0000000000 
FFFCF970 0000000000 
FFFCF975 0000000000 
FFFCF97A 0000000000 
FFFCF980 0000000000 
FFFCF985 0000000000 
FFFCF98A 0000000000 
FFFCF990 0000000000 
FFFCF995 0000000000 
FFFCF99A 0000000000 
FFFCF9A0 0000000000 
FFFCF9A5 0000000000 
FFFCF9AA 0000000000 
FFFCF9B0 0000000000 
FFFCF9B5 0000000000 
FFFCF9BA 0000000000 
FFFCF9C0 0000000000 
FFFCF9C5 0000000000 
FFFCF9CA 0000000000 
FFFCF9D0 0000000000 
FFFCF9D5 0000000000 
FFFCF9DA 0000000000 
FFFCF9E0 0000000000 
FFFCF9E5 0000000000 
FFFCF9EA 0000000000 
FFFCF9F0 0000000000 
FFFCF9F5 0000000000 
FFFCF9FA 0000000000 
FFFCFA00 0000000000 
FFFCFA05 0000000000 
FFFCFA0A 0000000000 
FFFCFA10 0000000000 
FFFCFA15 0000000000 
FFFCFA1A 0000000000 
FFFCFA20 0000000000 
FFFCFA25 0000000000 
FFFCFA2A 0000000000 
FFFCFA30 0000000000 
FFFCFA35 0000000000 
FFFCFA3A 0000000000 
FFFCFA40 0000000000 
FFFCFA45 0000000000 
FFFCFA4A 0000000000 
FFFCFA50 0000000000 
FFFCFA55 0000000000 
FFFCFA5A 0000000000 
FFFCFA60 0000000000 
FFFCFA65 0000000000 
FFFCFA6A 0000000000 
FFFCFA70 0000000000 
FFFCFA75 0000000000 
FFFCFA7A 0000000000 
FFFCFA80 0000000000 
FFFCFA85 0000000000 
FFFCFA8A 0000000000 
FFFCFA90 0000000000 
FFFCFA95 0000000000 
FFFCFA9A 0000000000 
FFFCFAA0 0000000000 
FFFCFAA5 0000000000 
FFFCFAAA 0000000000 
FFFCFAB0 0000000000 
FFFCFAB5 0000000000 
FFFCFABA 0000000000 
FFFCFAC0 0000000000 
FFFCFAC5 0000000000 
FFFCFACA 0000000000 
FFFCFAD0 0000000000 
FFFCFAD5 0000000000 
FFFCFADA 0000000000 
FFFCFAE0 0000000000 
FFFCFAE5 0000000000 
FFFCFAEA 0000000000 
FFFCFAF0 0000000000 
FFFCFAF5 0000000000 
FFFCFAFA 0000000000 
FFFCFB00 0000000000 
FFFCFB05 0000000000 
FFFCFB0A 0000000000 
FFFCFB10 0000000000 
FFFCFB15 0000000000 
FFFCFB1A 0000000000 
FFFCFB20 0000000000 
FFFCFB25 0000000000 
FFFCFB2A 0000000000 
FFFCFB30 0000000000 
FFFCFB35 0000000000 
FFFCFB3A 0000000000 
FFFCFB40 0000000000 
FFFCFB45 0000000000 
FFFCFB4A 0000000000 
FFFCFB50 0000000000 
FFFCFB55 0000000000 
FFFCFB5A 0000000000 
FFFCFB60 0000000000 
FFFCFB65 0000000000 
FFFCFB6A 0000000000 
FFFCFB70 0000000000 
FFFCFB75 0000000000 
FFFCFB7A 0000000000 
FFFCFB80 0000000000 
FFFCFB85 0000000000 
FFFCFB8A 0000000000 
FFFCFB90 0000000000 
FFFCFB95 0000000000 
FFFCFB9A 0000000000 
FFFCFBA0 0000000000 
FFFCFBA5 0000000000 
FFFCFBAA 0000000000 
FFFCFBB0 0000000000 
FFFCFBB5 0000000000 
FFFCFBBA 0000000000 
FFFCFBC0 0000000000 
FFFCFBC5 0000000000 
FFFCFBCA 0000000000 
FFFCFBD0 0000000000 
FFFCFBD5 0000000000 
FFFCFBDA 0000000000 
FFFCFBE0 0000000000 
FFFCFBE5 0000000000 
FFFCFBEA 0000000000 
FFFCFBF0 0000000000 
FFFCFBF5 0000000000 
FFFCFBFA 0000000000 
FFFCFC00 0000000000 
FFFCFC05 0000000000 
FFFCFC0A 0000000000 
FFFCFC10 0000000000 
FFFCFC15 0000000000 
FFFCFC1A 0000000000 
FFFCFC20 0000000000 
FFFCFC25 0000000000 
FFFCFC2A 0000000000 
FFFCFC30 0000000000 
FFFCFC35 0000000000 
FFFCFC3A 0000000000 
FFFCFC40 0000000000 
FFFCFC45 0000000000 
FFFCFC4A 0000000000 
FFFCFC50 0000000000 
FFFCFC55 0000000000 
FFFCFC5A 0000000000 
FFFCFC60 0000000000 
FFFCFC65 0000000000 
FFFCFC6A 0000000000 
FFFCFC70 0000000000 
FFFCFC75 0000000000 
FFFCFC7A 0000000000 
FFFCFC80 0000000000 
FFFCFC85 0000000000 
FFFCFC8A 0000000000 
FFFCFC90 0000000000 
FFFCFC95 0000000000 
FFFCFC9A 0000000000 
FFFCFCA0 0000000000 
FFFCFCA5 0000000000 
FFFCFCAA 0000000000 
FFFCFCB0 0000000000 
FFFCFCB5 0000000000 
FFFCFCBA 0000000000 
FFFCFCC0 0000000000 
FFFCFCC5 0000000000 
FFFCFCCA 0000000000 
FFFCFCD0 0000000000 
FFFCFCD5 0000000000 
FFFCFCDA 0000000000 
FFFCFCE0 0000000000 
FFFCFCE5 0000000000 
FFFCFCEA 0000000000 
FFFCFCF0 0000000000 
FFFCFCF5 0000000000 
FFFCFCFA 0000000000 
FFFCFD00 0000000000 
FFFCFD05 0000000000 
FFFCFD0A 0000000000 
FFFCFD10 0000000000 
FFFCFD15 0000000000 
FFFCFD1A 0000000000 
FFFCFD20 0000000000 
FFFCFD25 0000000000 
FFFCFD2A 0000000000 
FFFCFD30 0000000000 
FFFCFD35 0000000000 
FFFCFD3A 0000000000 
FFFCFD40 0000000000 
FFFCFD45 0000000000 
FFFCFD4A 0000000000 
FFFCFD50 0000000000 
FFFCFD55 0000000000 
FFFCFD5A 0000000000 
FFFCFD60 0000000000 
FFFCFD65 0000000000 
FFFCFD6A 0000000000 
FFFCFD70 0000000000 
FFFCFD75 0000000000 
FFFCFD7A 0000000000 
FFFCFD80 0000000000 
FFFCFD85 0000000000 
FFFCFD8A 0000000000 
FFFCFD90 0000000000 
FFFCFD95 0000000000 
FFFCFD9A 0000000000 
FFFCFDA0 0000000000 
FFFCFDA5 0000000000 
FFFCFDAA 0000000000 
FFFCFDB0 0000000000 
FFFCFDB5 0000000000 
FFFCFDBA 0000000000 
FFFCFDC0 0000000000 
FFFCFDC5 0000000000 
FFFCFDCA 0000000000 
FFFCFDD0 0000000000 
FFFCFDD5 0000000000 
FFFCFDDA 0000000000 
FFFCFDE0 0000000000 
FFFCFDE5 0000000000 
FFFCFDEA 0000000000 
FFFCFDF0 0000000000 
FFFCFDF5 0000000000 
FFFCFDFA 0000000000 
FFFCFE00 0000000000 
FFFCFE05 0000000000 
FFFCFE0A 0000000000 
FFFCFE10 0000000000 
FFFCFE15 0000000000 
FFFCFE1A 0000000000 
FFFCFE20 0000000000 
FFFCFE25 0000000000 
FFFCFE2A 0000000000 
FFFCFE30 0000000000 
FFFCFE35 0000000000 
FFFCFE3A 0000000000 
FFFCFE40 0000000000 
FFFCFE45 0000000000 
FFFCFE4A 0000000000 
FFFCFE50 0000000000 
FFFCFE55 0000000000 
FFFCFE5A 0000000000 
FFFCFE60 0000000000 
FFFCFE65 0000000000 
FFFCFE6A 0000000000 
FFFCFE70 0000000000 
FFFCFE75 0000000000 
FFFCFE7A 0000000000 
FFFCFE80 0000000000 
FFFCFE85 0000000000 
FFFCFE8A 0000000000 
FFFCFE90 0000000000 
FFFCFE95 0000000000 
FFFCFE9A 0000000000 
FFFCFEA0 0000000000 
FFFCFEA5 0000000000 
FFFCFEAA 0000000000 
FFFCFEB0 0000000000 
FFFCFEB5 0000000000 
FFFCFEBA 0000000000 
FFFCFEC0 0000000000 
FFFCFEC5 0000000000 
FFFCFECA 0000000000 
FFFCFED0 0000000000 
FFFCFED5 0000000000 
FFFCFEDA 0000000000 
FFFCFEE0 0000000000 
FFFCFEE5 0000000000 
FFFCFEEA 0000000000 
FFFCFEF0 0000000000 
FFFCFEF5 0000000000 
FFFCFEFA 0000000000 
FFFCFF00 0000000000 
FFFCFF05 0000000000 
FFFCFF0A 0000000000 
FFFCFF10 0000000000 
FFFCFF15 0000000000 
FFFCFF1A 0000000000 
FFFCFF20 0000000000 
FFFCFF25 0000000000 
FFFCFF2A 0000000000 
FFFCFF30 0000000000 
FFFCFF35 0000000000 
FFFCFF3A 0000000000 
FFFCFF40 0000000000 
FFFCFF45 0000000000 
FFFCFF4A 0000000000 
FFFCFF50 0000000000 
FFFCFF55 0000000000 
FFFCFF5A 0000000000 
FFFCFF60 0000000000 
FFFCFF65 0000000000 
FFFCFF6A 0000000000 
FFFCFF70 0000000000 
FFFCFF75 0000000000 
FFFCFF7A 0000000000 
FFFCFF80 0000000000 
FFFCFF85 0000000000 
FFFCFF8A 0000000000 
FFFCFF90 0000000000 
FFFCFF95 0000000000 
FFFCFF9A 0000000000 
FFFCFFA0 0000000000 
FFFCFFA5 0000000000 
FFFCFFAA 0000000000 
FFFCFFB0 0000000000 
FFFCFFB5 0000000000 
FFFCFFBA 0000000000 
FFFCFFC0 0000000000 
FFFCFFC5 0000000000 
FFFCFFCA 0000000000 
FFFCFFD0 0000000000 
FFFCFFD5 0000000000 
FFFCFFDA 0000000000 
FFFCFFE0 0000000000 
FFFCFFE5 0000000000 
FFFCFFEA 0000000000 
FFFCFFF0 0000000000 
FFFCFFF5 0000000000 
FFFCFFFA 0000000000 
FFFD0000 0000000000 
FFFD0005 0000000000 
FFFD000A 0000000000 
FFFD0010 0000000000 
FFFD0015 0000000000 
FFFD001A 0000000000 
FFFD0020 0000000000 
FFFD0025 0000000000 
FFFD002A 0000000000 
FFFD0030 0000000000 
FFFD0035 0000000000 
FFFD003A 0000000000 
FFFD0040 0000000000 
FFFD0045 0000000000 
FFFD004A 0000000000 
FFFD0050 0000000000 
FFFD0055 0000000000 
FFFD005A 0000000000 
FFFD0060 0000000000 
FFFD0065 0000000000 
FFFD006A 0000000000 
FFFD0070 0000000000 
FFFD0075 0000000000 
FFFD007A 0000000000 
FFFD0080 0000000000 
FFFD0085 0000000000 
FFFD008A 0000000000 
FFFD0090 0000000000 
FFFD0095 0000000000 
FFFD009A 0000000000 
FFFD00A0 0000000000 
FFFD00A5 0000000000 
FFFD00AA 0000000000 
FFFD00B0 0000000000 
FFFD00B5 0000000000 
FFFD00BA 0000000000 
FFFD00C0 0000000000 
FFFD00C5 0000000000 
FFFD00CA 0000000000 
FFFD00D0 0000000000 
FFFD00D5 0000000000 
FFFD00DA 0000000000 
FFFD00E0 0000000000 
FFFD00E5 0000000000 
FFFD00EA 0000000000 
FFFD00F0 0000000000 
FFFD00F5 0000000000 
FFFD00FA 0000000000 
FFFD0100 0000000000 
FFFD0105 0000000000 
FFFD010A 0000000000 
FFFD0110 0000000000 
FFFD0115 0000000000 
FFFD011A 0000000000 
FFFD0120 0000000000 
FFFD0125 0000000000 
FFFD012A 0000000000 
FFFD0130 0000000000 
FFFD0135 0000000000 
FFFD013A 0000000000 
FFFD0140 0000000000 
FFFD0145 0000000000 
FFFD014A 0000000000 
FFFD0150 0000000000 
FFFD0155 0000000000 
FFFD015A 0000000000 
FFFD0160 0000000000 
FFFD0165 0000000000 
FFFD016A 0000000000 
FFFD0170 0000000000 
FFFD0175 0000000000 
FFFD017A 0000000000 
FFFD0180 0000000000 
FFFD0185 0000000000 
FFFD018A 0000000000 
FFFD0190 0000000000 
FFFD0195 0000000000 
FFFD019A 0000000000 
FFFD01A0 0000000000 
FFFD01A5 0000000000 
FFFD01AA 0000000000 
FFFD01B0 0000000000 
FFFD01B5 0000000000 
FFFD01BA 0000000000 
FFFD01C0 0000000000 
FFFD01C5 0000000000 
FFFD01CA 0000000000 
FFFD01D0 0000000000 
FFFD01D5 0000000000 
FFFD01DA 0000000000 
FFFD01E0 0000000000 
FFFD01E5 0000000000 
FFFD01EA 0000000000 
FFFD01F0 0000000000 
FFFD01F5 0000000000 
FFFD01FA 0000000000 
FFFD0200 0000000000 
FFFD0205 0000000000 
FFFD020A 0000000000 
FFFD0210 0000000000 
FFFD0215 0000000000 
FFFD021A 0000000000 
FFFD0220 0000000000 
FFFD0225 0000000000 
FFFD022A 0000000000 
FFFD0230 0000000000 
FFFD0235 0000000000 
FFFD023A 0000000000 
FFFD0240 0000000000 
FFFD0245 0000000000 
FFFD024A 0000000000 
FFFD0250 0000000000 
FFFD0255 0000000000 
FFFD025A 0000000000 
FFFD0260 0000000000 
FFFD0265 0000000000 
FFFD026A 0000000000 
FFFD0270 0000000000 
FFFD0275 0000000000 
FFFD027A 0000000000 
FFFD0280 0000000000 
FFFD0285 0000000000 
FFFD028A 0000000000 
FFFD0290 0000000000 
FFFD0295 0000000000 
FFFD029A 0000000000 
FFFD02A0 0000000000 
FFFD02A5 0000000000 
FFFD02AA 0000000000 
FFFD02B0 0000000000 
FFFD02B5 0000000000 
FFFD02BA 0000000000 
FFFD02C0 0000000000 
FFFD02C5 0000000000 
FFFD02CA 0000000000 
FFFD02D0 0000000000 
FFFD02D5 0000000000 
FFFD02DA 0000000000 
FFFD02E0 0000000000 
FFFD02E5 0000000000 
FFFD02EA 0000000000 
FFFD02F0 0000000000 
FFFD02F5 0000000000 
FFFD02FA 0000000000 
FFFD0300 0000000000 
FFFD0305 0000000000 
FFFD030A 0000000000 
FFFD0310 0000000000 
FFFD0315 0000000000 
FFFD031A 0000000000 
FFFD0320 0000000000 
FFFD0325 0000000000 
FFFD032A 0000000000 
FFFD0330 0000000000 
FFFD0335 0000000000 
FFFD033A 0000000000 
FFFD0340 0000000000 
FFFD0345 0000000000 
FFFD034A 0000000000 
FFFD0350 0000000000 
FFFD0355 0000000000 
FFFD035A 0000000000 
FFFD0360 0000000000 
FFFD0365 0000000000 
FFFD036A 0000000000 
FFFD0370 0000000000 
FFFD0375 0000000000 
FFFD037A 0000000000 
FFFD0380 0000000000 
FFFD0385 0000000000 
FFFD038A 0000000000 
FFFD0390 0000000000 
FFFD0395 0000000000 
FFFD039A 0000000000 
FFFD03A0 0000000000 
FFFD03A5 0000000000 
FFFD03AA 0000000000 
FFFD03B0 0000000000 
FFFD03B5 0000000000 
FFFD03BA 0000000000 
FFFD03C0 0000000000 
FFFD03C5 0000000000 
FFFD03CA 0000000000 
FFFD03D0 0000000000 
FFFD03D5 0000000000 
FFFD03DA 0000000000 
FFFD03E0 0000000000 
FFFD03E5 0000000000 
FFFD03EA 0000000000 
FFFD03F0 0000000000 
FFFD03F5 0000000000 
FFFD03FA 0000000000 
FFFD0400 0000000000 
FFFD0405 0000000000 
FFFD040A 0000000000 
FFFD0410 0000000000 
FFFD0415 0000000000 
FFFD041A 0000000000 
FFFD0420 0000000000 
FFFD0425 0000000000 
FFFD042A 0000000000 
FFFD0430 0000000000 
FFFD0435 0000000000 
FFFD043A 0000000000 
FFFD0440 0000000000 
FFFD0445 0000000000 
FFFD044A 0000000000 
FFFD0450 0000000000 
FFFD0455 0000000000 
FFFD045A 0000000000 
FFFD0460 0000000000 
FFFD0465 0000000000 
FFFD046A 0000000000 
FFFD0470 0000000000 
FFFD0475 0000000000 
FFFD047A 0000000000 
FFFD0480 0000000000 
FFFD0485 0000000000 
FFFD048A 0000000000 
FFFD0490 0000000000 
FFFD0495 0000000000 
FFFD049A 0000000000 
FFFD04A0 0000000000 
FFFD04A5 0000000000 
FFFD04AA 0000000000 
FFFD04B0 0000000000 
FFFD04B5 0000000000 
FFFD04BA 0000000000 
FFFD04C0 0000000000 
FFFD04C5 0000000000 
FFFD04CA 0000000000 
FFFD04D0 0000000000 
FFFD04D5 0000000000 
FFFD04DA 0000000000 
FFFD04E0 0000000000 
FFFD04E5 0000000000 
FFFD04EA 0000000000 
FFFD04F0 0000000000 
FFFD04F5 0000000000 
FFFD04FA 0000000000 
FFFD0500 0000000000 
FFFD0505 0000000000 
FFFD050A 0000000000 
FFFD0510 0000000000 
FFFD0515 0000000000 
FFFD051A 0000000000 
FFFD0520 0000000000 
FFFD0525 0000000000 
FFFD052A 0000000000 
FFFD0530 0000000000 
FFFD0535 0000000000 
FFFD053A 0000000000 
FFFD0540 0000000000 
FFFD0545 0000000000 
FFFD054A 0000000000 
FFFD0550 0000000000 
FFFD0555 0000000000 
FFFD055A 0000000000 
FFFD0560 0000000000 
FFFD0565 0000000000 
FFFD056A 0000000000 
FFFD0570 0000000000 
FFFD0575 0000000000 
FFFD057A 0000000000 
FFFD0580 0000000000 
FFFD0585 0000000000 
FFFD058A 0000000000 
FFFD0590 0000000000 
FFFD0595 0000000000 
FFFD059A 0000000000 
FFFD05A0 0000000000 
FFFD05A5 0000000000 
FFFD05AA 0000000000 
FFFD05B0 0000000000 
FFFD05B5 0000000000 
FFFD05BA 0000000000 
FFFD05C0 0000000000 
FFFD05C5 0000000000 
FFFD05CA 0000000000 
FFFD05D0 0000000000 
FFFD05D5 0000000000 
FFFD05DA 0000000000 
FFFD05E0 0000000000 
FFFD05E5 0000000000 
FFFD05EA 0000000000 
FFFD05F0 0000000000 
FFFD05F5 0000000000 
FFFD05FA 0000000000 
FFFD0600 0000000000 
FFFD0605 0000000000 
FFFD060A 0000000000 
FFFD0610 0000000000 
FFFD0615 0000000000 
FFFD061A 0000000000 
FFFD0620 0000000000 
FFFD0625 0000000000 
FFFD062A 0000000000 
FFFD0630 0000000000 
FFFD0635 0000000000 
FFFD063A 0000000000 
FFFD0640 0000000000 
FFFD0645 0000000000 
FFFD064A 0000000000 
FFFD0650 0000000000 
FFFD0655 0000000000 
FFFD065A 0000000000 
FFFD0660 0000000000 
FFFD0665 0000000000 
FFFD066A 0000000000 
FFFD0670 0000000000 
FFFD0675 0000000000 
FFFD067A 0000000000 
FFFD0680 0000000000 
FFFD0685 0000000000 
FFFD068A 0000000000 
FFFD0690 0000000000 
FFFD0695 0000000000 
FFFD069A 0000000000 
FFFD06A0 0000000000 
FFFD06A5 0000000000 
FFFD06AA 0000000000 
FFFD06B0 0000000000 
FFFD06B5 0000000000 
FFFD06BA 0000000000 
FFFD06C0 0000000000 
FFFD06C5 0000000000 
FFFD06CA 0000000000 
FFFD06D0 0000000000 
FFFD06D5 0000000000 
FFFD06DA 0000000000 
FFFD06E0 0000000000 
FFFD06E5 0000000000 
FFFD06EA 0000000000 
FFFD06F0 0000000000 
FFFD06F5 0000000000 
FFFD06FA 0000000000 
FFFD0700 0000000000 
FFFD0705 0000000000 
FFFD070A 0000000000 
FFFD0710 0000000000 
FFFD0715 0000000000 
FFFD071A 0000000000 
FFFD0720 0000000000 
FFFD0725 0000000000 
FFFD072A 0000000000 
FFFD0730 0000000000 
FFFD0735 0000000000 
FFFD073A 0000000000 
FFFD0740 0000000000 
FFFD0745 0000000000 
FFFD074A 0000000000 
FFFD0750 0000000000 
FFFD0755 0000000000 
FFFD075A 0000000000 
FFFD0760 0000000000 
FFFD0765 0000000000 
FFFD076A 0000000000 
FFFD0770 0000000000 
FFFD0775 0000000000 
FFFD077A 0000000000 
FFFD0780 0000000000 
FFFD0785 0000000000 
FFFD078A 0000000000 
FFFD0790 0000000000 
FFFD0795 0000000000 
FFFD079A 0000000000 
FFFD07A0 0000000000 
FFFD07A5 0000000000 
FFFD07AA 0000000000 
FFFD07B0 0000000000 
FFFD07B5 0000000000 
FFFD07BA 0000000000 
FFFD07C0 0000000000 
FFFD07C5 0000000000 
FFFD07CA 0000000000 
FFFD07D0 0000000000 
FFFD07D5 0000000000 
FFFD07DA 0000000000 
FFFD07E0 0000000000 
FFFD07E5 0000000000 
FFFD07EA 0000000000 
FFFD07F0 0000000000 
FFFD07F5 0000000000 
FFFD07FA 0000000000 
FFFD0800 0000000000 
FFFD0805 0000000000 
FFFD080A 0000000000 
FFFD0810 0000000000 
FFFD0815 0000000000 
FFFD081A 0000000000 
FFFD0820 0000000000 
FFFD0825 0000000000 
FFFD082A 0000000000 
FFFD0830 0000000000 
FFFD0835 0000000000 
FFFD083A 0000000000 
FFFD0840 0000000000 
FFFD0845 0000000000 
FFFD084A 0000000000 
FFFD0850 0000000000 
FFFD0855 0000000000 
FFFD085A 0000000000 
FFFD0860 0000000000 
FFFD0865 0000000000 
FFFD086A 0000000000 
FFFD0870 0000000000 
FFFD0875 0000000000 
FFFD087A 0000000000 
FFFD0880 0000000000 
FFFD0885 0000000000 
FFFD088A 0000000000 
FFFD0890 0000000000 
FFFD0895 0000000000 
FFFD089A 0000000000 
FFFD08A0 0000000000 
FFFD08A5 0000000000 
FFFD08AA 0000000000 
FFFD08B0 0000000000 
FFFD08B5 0000000000 
FFFD08BA 0000000000 
FFFD08C0 0000000000 
FFFD08C5 0000000000 
FFFD08CA 0000000000 
FFFD08D0 0000000000 
FFFD08D5 0000000000 
FFFD08DA 0000000000 
FFFD08E0 0000000000 
FFFD08E5 0000000000 
FFFD08EA 0000000000 
FFFD08F0 0000000000 
FFFD08F5 0000000000 
FFFD08FA 0000000000 
FFFD0900 0000000000 
FFFD0905 0000000000 
FFFD090A 0000000000 
FFFD0910 0000000000 
FFFD0915 0000000000 
FFFD091A 0000000000 
FFFD0920 0000000000 
FFFD0925 0000000000 
FFFD092A 0000000000 
FFFD0930 0000000000 
FFFD0935 0000000000 
FFFD093A 0000000000 
FFFD0940 0000000000 
FFFD0945 0000000000 
FFFD094A 0000000000 
FFFD0950 0000000000 
FFFD0955 0000000000 
FFFD095A 0000000000 
FFFD0960 0000000000 
FFFD0965 0000000000 
FFFD096A 0000000000 
FFFD0970 0000000000 
FFFD0975 0000000000 
FFFD097A 0000000000 
FFFD0980 0000000000 
FFFD0985 0000000000 
FFFD098A 0000000000 
FFFD0990 0000000000 
FFFD0995 0000000000 
FFFD099A 0000000000 
FFFD09A0 0000000000 
FFFD09A5 0000000000 
FFFD09AA 0000000000 
FFFD09B0 0000000000 
FFFD09B5 0000000000 
FFFD09BA 0000000000 
FFFD09C0 0000000000 
FFFD09C5 0000000000 
FFFD09CA 0000000000 
FFFD09D0 0000000000 
FFFD09D5 0000000000 
FFFD09DA 0000000000 
FFFD09E0 0000000000 
FFFD09E5 0000000000 
FFFD09EA 0000000000 
FFFD09F0 0000000000 
FFFD09F5 0000000000 
FFFD09FA 0000000000 
FFFD0A00 0000000000 
FFFD0A05 0000000000 
FFFD0A0A 0000000000 
FFFD0A10 0000000000 
FFFD0A15 0000000000 
FFFD0A1A 0000000000 
FFFD0A20 0000000000 
FFFD0A25 0000000000 
FFFD0A2A 0000000000 
FFFD0A30 0000000000 
FFFD0A35 0000000000 
FFFD0A3A 0000000000 
FFFD0A40 0000000000 
FFFD0A45 0000000000 
FFFD0A4A 0000000000 
FFFD0A50 0000000000 
FFFD0A55 0000000000 
FFFD0A5A 0000000000 
FFFD0A60 0000000000 
FFFD0A65 0000000000 
FFFD0A6A 0000000000 
FFFD0A70 0000000000 
FFFD0A75 0000000000 
FFFD0A7A 0000000000 
FFFD0A80 0000000000 
FFFD0A85 0000000000 
FFFD0A8A 0000000000 
FFFD0A90 0000000000 
FFFD0A95 0000000000 
FFFD0A9A 0000000000 
FFFD0AA0 0000000000 
FFFD0AA5 0000000000 
FFFD0AAA 0000000000 
FFFD0AB0 0000000000 
FFFD0AB5 0000000000 
FFFD0ABA 0000000000 
FFFD0AC0 0000000000 
FFFD0AC5 0000000000 
FFFD0ACA 0000000000 
FFFD0AD0 0000000000 
FFFD0AD5 0000000000 
FFFD0ADA 0000000000 
FFFD0AE0 0000000000 
FFFD0AE5 0000000000 
FFFD0AEA 0000000000 
FFFD0AF0 0000000000 
FFFD0AF5 0000000000 
FFFD0AFA 0000000000 
FFFD0B00 0000000000 
FFFD0B05 0000000000 
FFFD0B0A 0000000000 
FFFD0B10 0000000000 
FFFD0B15 0000000000 
FFFD0B1A 0000000000 
FFFD0B20 0000000000 
FFFD0B25 0000000000 
FFFD0B2A 0000000000 
FFFD0B30 0000000000 
FFFD0B35 0000000000 
FFFD0B3A 0000000000 
FFFD0B40 0000000000 
FFFD0B45 0000000000 
FFFD0B4A 0000000000 
FFFD0B50 0000000000 
FFFD0B55 0000000000 
FFFD0B5A 0000000000 
FFFD0B60 0000000000 
FFFD0B65 0000000000 
FFFD0B6A 0000000000 
FFFD0B70 0000000000 
FFFD0B75 0000000000 
FFFD0B7A 0000000000 
FFFD0B80 0000000000 
FFFD0B85 0000000000 
FFFD0B8A 0000000000 
FFFD0B90 0000000000 
FFFD0B95 0000000000 
FFFD0B9A 0000000000 
FFFD0BA0 0000000000 
FFFD0BA5 0000000000 
FFFD0BAA 0000000000 
FFFD0BB0 0000000000 
FFFD0BB5 0000000000 
FFFD0BBA 0000000000 
FFFD0BC0 0000000000 
FFFD0BC5 0000000000 
FFFD0BCA 0000000000 
FFFD0BD0 0000000000 
FFFD0BD5 0000000000 
FFFD0BDA 0000000000 
FFFD0BE0 0000000000 
FFFD0BE5 0000000000 
FFFD0BEA 0000000000 
FFFD0BF0 0000000000 
FFFD0BF5 0000000000 
FFFD0BFA 0000000000 
FFFD0C00 0000000000 
FFFD0C05 0000000000 
FFFD0C0A 0000000000 
FFFD0C10 0000000000 
FFFD0C15 0000000000 
FFFD0C1A 0000000000 
FFFD0C20 0000000000 
FFFD0C25 0000000000 
FFFD0C2A 0000000000 
FFFD0C30 0000000000 
FFFD0C35 0000000000 
FFFD0C3A 0000000000 
FFFD0C40 0000000000 
FFFD0C45 0000000000 
FFFD0C4A 0000000000 
FFFD0C50 0000000000 
FFFD0C55 0000000000 
FFFD0C5A 0000000000 
FFFD0C60 0000000000 
FFFD0C65 0000000000 
FFFD0C6A 0000000000 
FFFD0C70 0000000000 
FFFD0C75 0000000000 
FFFD0C7A 0000000000 
FFFD0C80 0000000000 
FFFD0C85 0000000000 
FFFD0C8A 0000000000 
FFFD0C90 0000000000 
FFFD0C95 0000000000 
FFFD0C9A 0000000000 
FFFD0CA0 0000000000 
FFFD0CA5 0000000000 
FFFD0CAA 0000000000 
FFFD0CB0 0000000000 
FFFD0CB5 0000000000 
FFFD0CBA 0000000000 
FFFD0CC0 0000000000 
FFFD0CC5 0000000000 
FFFD0CCA 0000000000 
FFFD0CD0 0000000000 
FFFD0CD5 0000000000 
FFFD0CDA 0000000000 
FFFD0CE0 0000000000 
FFFD0CE5 0000000000 
FFFD0CEA 0000000000 
FFFD0CF0 0000000000 
FFFD0CF5 0000000000 
FFFD0CFA 0000000000 
FFFD0D00 0000000000 
FFFD0D05 0000000000 
FFFD0D0A 0000000000 
FFFD0D10 0000000000 
FFFD0D15 0000000000 
FFFD0D1A 0000000000 
FFFD0D20 0000000000 
FFFD0D25 0000000000 
FFFD0D2A 0000000000 
FFFD0D30 0000000000 
FFFD0D35 0000000000 
FFFD0D3A 0000000000 
FFFD0D40 0000000000 
FFFD0D45 0000000000 
FFFD0D4A 0000000000 
FFFD0D50 0000000000 
FFFD0D55 0000000000 
FFFD0D5A 0000000000 
FFFD0D60 0000000000 
FFFD0D65 0000000000 
FFFD0D6A 0000000000 
FFFD0D70 0000000000 
FFFD0D75 0000000000 
FFFD0D7A 0000000000 
FFFD0D80 0000000000 
FFFD0D85 0000000000 
FFFD0D8A 0000000000 
FFFD0D90 0000000000 
FFFD0D95 0000000000 
FFFD0D9A 0000000000 
FFFD0DA0 0000000000 
FFFD0DA5 0000000000 
FFFD0DAA 0000000000 
FFFD0DB0 0000000000 
FFFD0DB5 0000000000 
FFFD0DBA 0000000000 
FFFD0DC0 0000000000 
FFFD0DC5 0000000000 
FFFD0DCA 0000000000 
FFFD0DD0 0000000000 
FFFD0DD5 0000000000 
FFFD0DDA 0000000000 
FFFD0DE0 0000000000 
FFFD0DE5 0000000000 
FFFD0DEA 0000000000 
FFFD0DF0 0000000000 
FFFD0DF5 0000000000 
FFFD0DFA 0000000000 
FFFD0E00 0000000000 
FFFD0E05 0000000000 
FFFD0E0A 0000000000 
FFFD0E10 0000000000 
FFFD0E15 0000000000 
FFFD0E1A 0000000000 
FFFD0E20 0000000000 
FFFD0E25 0000000000 
FFFD0E2A 0000000000 
FFFD0E30 0000000000 
FFFD0E35 0000000000 
FFFD0E3A 0000000000 
FFFD0E40 0000000000 
FFFD0E45 0000000000 
FFFD0E4A 0000000000 
FFFD0E50 0000000000 
FFFD0E55 0000000000 
FFFD0E5A 0000000000 
FFFD0E60 0000000000 
FFFD0E65 0000000000 
FFFD0E6A 0000000000 
FFFD0E70 0000000000 
FFFD0E75 0000000000 
FFFD0E7A 0000000000 
FFFD0E80 0000000000 
FFFD0E85 0000000000 
FFFD0E8A 0000000000 
FFFD0E90 0000000000 
FFFD0E95 0000000000 
FFFD0E9A 0100000000 
                        			org		$01000000
                        		data
                        		align	8                        	
                        		align	8                        	
                        		align	8                        	
                        		data
                        		align	8                        	
                        		data
                        		align	8                        	
                        		align	8                        	
                        		data
                        		align	8                        	
                        		align	8                        	
                        		align	8                        	
                        		align	8                        	
                        		data
                        		align	8                        	
1000000       0000 		fill.b	2,0x00
1000002 0000000000 		align	
1000007         
                        	
1000008 0000000000 		fill.b	6,0x00
100000D         
                        		data
                        		align	2                        	
                        	stdio_14:	; _numwka
100000E 0000000000 		fill.b	400,0x00
1000013 0000000000 
1000018 0000000000 
100001D 0000000000 
1000022 0000000000 
1000027 0000000000 
100002C 0000000000 
1000031 0000000000 
1000036 0000000000 
100003B 0000000000 
1000040 0000000000 
1000045 0000000000 
100004A 0000000000 
1000050 0000000000 
1000055 0000000000 
100005A 0000000000 
1000060 0000000000 
1000065 0000000000 
100006A 0000000000 
1000070 0000000000 
1000075 0000000000 
100007A 0000000000 
1000080 0000000000 
1000085 0000000000 
100008A 0000000000 
1000090 0000000000 
1000095 0000000000 
100009A 0000000000 
10000A0 0000000000 
10000A5 0000000000 
10000AA 0000000000 
10000B0 0000000000 
10000B5 0000000000 
10000BA 0000000000 
10000C0 0000000000 
10000C5 0000000000 
10000CA 0000000000 
10000D0 0000000000 
10000D5 0000000000 
10000DA 0000000000 
10000E0 0000000000 
10000E5 0000000000 
10000EA 0000000000 
10000F0 0000000000 
10000F5 0000000000 
10000FA 0000000000 
1000100 0000000000 
1000105 0000000000 
100010A 0000000000 
1000110 0000000000 
1000115 0000000000 
100011A 0000000000 
1000120 0000000000 
1000125 0000000000 
100012A 0000000000 
1000130 0000000000 
1000135 0000000000 
100013A 0000000000 
1000140 0000000000 
1000145 0000000000 
100014A 0000000000 
1000150 0000000000 
1000155 0000000000 
100015A 0000000000 
1000160 0000000000 
1000165 0000000000 
100016A 0000000000 
1000170 0000000000 
1000175 0000000000 
100017A 0000000000 
1000180 0000000000 
1000185 0000000000 
100018A 0000000000 
1000190 0000000000 
1000195 0000000000 
100019A   00000000   
                        		data
100019E       0000 		align	
                        	
                        		data
                        		align	8                        	
                        		data
                        		align	2                        	
                        	log10q_0:	; _P
                        	log10q_0:	; _P
                        		data
                        		align	8                        	
                        		align	8                        	
10001A0 0000000000 		fill.b	46,0x00
10001A5 0000000000 
10001AA 0000000000 
10001B0 0000000000 
10001B5 0000000000 
10001BA 0000000000 
10001C0 0000000000 
10001C5 0000000000 
10001CA   00000000   
10001CE       0000 		align	
                        	
                        		align	8                        	
                        		align	8                        	
10001D0 0000000000 		fill.b	1920,0x00
10001D5 0000000000 
10001DA 0000000000 
10001E0 0000000000 
10001E5 0000000000 
10001EA 0000000000 
10001F0 0000000000 
10001F5 0000000000 
10001FA 0000000000 
1000200 0000000000 
1000205 0000000000 
100020A 0000000000 
1000210 0000000000 
1000215 0000000000 
100021A 0000000000 
1000220 0000000000 
1000225 0000000000 
100022A 0000000000 
1000230 0000000000 
1000235 0000000000 
100023A 0000000000 
1000240 0000000000 
1000245 0000000000 
100024A 0000000000 
1000250 0000000000 
1000255 0000000000 
100025A 0000000000 
1000260 0000000000 
1000265 0000000000 
100026A 0000000000 
1000270 0000000000 
1000275 0000000000 
100027A 0000000000 
1000280 0000000000 
1000285 0000000000 
100028A 0000000000 
1000290 0000000000 
1000295 0000000000 
100029A 0000000000 
10002A0 0000000000 
10002A5 0000000000 
10002AA 0000000000 
10002B0 0000000000 
10002B5 0000000000 
10002BA 0000000000 
10002C0 0000000000 
10002C5 0000000000 
10002CA 0000000000 
10002D0 0000000000 
10002D5 0000000000 
10002DA 0000000000 
10002E0 0000000000 
10002E5 0000000000 
10002EA 0000000000 
10002F0 0000000000 
10002F5 0000000000 
10002FA 0000000000 
1000300 0000000000 
1000305 0000000000 
100030A 0000000000 
1000310 0000000000 
1000315 0000000000 
100031A 0000000000 
1000320 0000000000 
1000325 0000000000 
100032A 0000000000 
1000330 0000000000 
1000335 0000000000 
100033A 0000000000 
1000340 0000000000 
1000345 0000000000 
100034A 0000000000 
1000350 0000000000 
1000355 0000000000 
100035A 0000000000 
1000360 0000000000 
1000365 0000000000 
100036A 0000000000 
1000370 0000000000 
1000375 0000000000 
100037A 0000000000 
1000380 0000000000 
1000385 0000000000 
100038A 0000000000 
1000390 0000000000 
1000395 0000000000 
100039A 0000000000 
10003A0 0000000000 
10003A5 0000000000 
10003AA 0000000000 
10003B0 0000000000 
10003B5 0000000000 
10003BA 0000000000 
10003C0 0000000000 
10003C5 0000000000 
10003CA 0000000000 
10003D0 0000000000 
10003D5 0000000000 
10003DA 0000000000 
10003E0 0000000000 
10003E5 0000000000 
10003EA 0000000000 
10003F0 0000000000 
10003F5 0000000000 
10003FA 0000000000 
1000400 0000000000 
1000405 0000000000 
100040A 0000000000 
1000410 0000000000 
1000415 0000000000 
100041A 0000000000 
1000420 0000000000 
1000425 0000000000 
100042A 0000000000 
1000430 0000000000 
1000435 0000000000 
100043A 0000000000 
1000440 0000000000 
1000445 0000000000 
100044A 0000000000 
1000450 0000000000 
1000455 0000000000 
100045A 0000000000 
1000460 0000000000 
1000465 0000000000 
100046A 0000000000 
1000470 0000000000 
1000475 0000000000 
100047A 0000000000 
1000480 0000000000 
1000485 0000000000 
100048A 0000000000 
1000490 0000000000 
1000495 0000000000 
100049A 0000000000 
10004A0 0000000000 
10004A5 0000000000 
10004AA 0000000000 
10004B0 0000000000 
10004B5 0000000000 
10004BA 0000000000 
10004C0 0000000000 
10004C5 0000000000 
10004CA 0000000000 
10004D0 0000000000 
10004D5 0000000000 
10004DA 0000000000 
10004E0 0000000000 
10004E5 0000000000 
10004EA 0000000000 
10004F0 0000000000 
10004F5 0000000000 
10004FA 0000000000 
1000500 0000000000 
1000505 0000000000 
100050A 0000000000 
1000510 0000000000 
1000515 0000000000 
100051A 0000000000 
1000520 0000000000 
1000525 0000000000 
100052A 0000000000 
1000530 0000000000 
1000535 0000000000 
100053A 0000000000 
1000540 0000000000 
1000545 0000000000 
100054A 0000000000 
1000550 0000000000 
1000555 0000000000 
100055A 0000000000 
1000560 0000000000 
1000565 0000000000 
100056A 0000000000 
1000570 0000000000 
1000575 0000000000 
100057A 0000000000 
1000580 0000000000 
1000585 0000000000 
100058A 0000000000 
1000590 0000000000 
1000595 0000000000 
100059A 0000000000 
10005A0 0000000000 
10005A5 0000000000 
10005AA 0000000000 
10005B0 0000000000 
10005B5 0000000000 
10005BA 0000000000 
10005C0 0000000000 
10005C5 0000000000 
10005CA 0000000000 
10005D0 0000000000 
10005D5 0000000000 
10005DA 0000000000 
10005E0 0000000000 
10005E5 0000000000 
10005EA 0000000000 
10005F0 0000000000 
10005F5 0000000000 
10005FA 0000000000 
1000600 0000000000 
1000605 0000000000 
100060A 0000000000 
1000610 0000000000 
1000615 0000000000 
100061A 0000000000 
1000620 0000000000 
1000625 0000000000 
100062A 0000000000 
1000630 0000000000 
1000635 0000000000 
100063A 0000000000 
1000640 0000000000 
1000645 0000000000 
100064A 0000000000 
1000650 0000000000 
1000655 0000000000 
100065A 0000000000 
1000660 0000000000 
1000665 0000000000 
100066A 0000000000 
1000670 0000000000 
1000675 0000000000 
100067A 0000000000 
1000680 0000000000 
1000685 0000000000 
100068A 0000000000 
1000690 0000000000 
1000695 0000000000 
100069A 0000000000 
10006A0 0000000000 
10006A5 0000000000 
10006AA 0000000000 
10006B0 0000000000 
10006B5 0000000000 
10006BA 0000000000 
10006C0 0000000000 
10006C5 0000000000 
10006CA 0000000000 
10006D0 0000000000 
10006D5 0000000000 
10006DA 0000000000 
10006E0 0000000000 
10006E5 0000000000 
10006EA 0000000000 
10006F0 0000000000 
10006F5 0000000000 
10006FA 0000000000 
1000700 0000000000 
1000705 0000000000 
100070A 0000000000 
1000710 0000000000 
1000715 0000000000 
100071A 0000000000 
1000720 0000000000 
1000725 0000000000 
100072A 0000000000 
1000730 0000000000 
1000735 0000000000 
100073A 0000000000 
1000740 0000000000 
1000745 0000000000 
100074A 0000000000 
1000750 0000000000 
1000755 0000000000 
100075A 0000000000 
1000760 0000000000 
1000765 0000000000 
100076A 0000000000 
1000770 0000000000 
1000775 0000000000 
100077A 0000000000 
1000780 0000000000 
1000785 0000000000 
100078A 0000000000 
1000790 0000000000 
1000795 0000000000 
100079A 0000000000 
10007A0 0000000000 
10007A5 0000000000 
10007AA 0000000000 
10007B0 0000000000 
10007B5 0000000000 
10007BA 0000000000 
10007C0 0000000000 
10007C5 0000000000 
10007CA 0000000000 
10007D0 0000000000 
10007D5 0000000000 
10007DA 0000000000 
10007E0 0000000000 
10007E5 0000000000 
10007EA 0000000000 
10007F0 0000000000 
10007F5 0000000000 
10007FA 0000000000 
1000800 0000000000 
1000805 0000000000 
100080A 0000000000 
1000810 0000000000 
1000815 0000000000 
100081A 0000000000 
1000820 0000000000 
1000825 0000000000 
100082A 0000000000 
1000830 0000000000 
1000835 0000000000 
100083A 0000000000 
1000840 0000000000 
1000845 0000000000 
100084A 0000000000 
1000850 0000000000 
1000855 0000000000 
100085A 0000000000 
1000860 0000000000 
1000865 0000000000 
100086A 0000000000 
1000870 0000000000 
1000875 0000000000 
100087A 0000000000 
1000880 0000000000 
1000885 0000000000 
100088A 0000000000 
1000890 0000000000 
1000895 0000000000 
100089A 0000000000 
10008A0 0000000000 
10008A5 0000000000 
10008AA 0000000000 
10008B0 0000000000 
10008B5 0000000000 
10008BA 0000000000 
10008C0 0000000000 
10008C5 0000000000 
10008CA 0000000000 
10008D0 0000000000 
10008D5 0000000000 
10008DA 0000000000 
10008E0 0000000000 
10008E5 0000000000 
10008EA 0000000000 
10008F0 0000000000 
10008F5 0000000000 
10008FA 0000000000 
1000900 0000000000 
1000905 0000000000 
100090A 0000000000 
1000910 0000000000 
1000915 0000000000 
100091A 0000000000 
1000920 0000000000 
1000925 0000000000 
100092A 0000000000 
1000930 0000000000 
1000935 0000000000 
100093A 0000000000 
1000940 0000000000 
1000945 0000000000 
100094A 0000000000 
                        		align	8                        	
                        		align	8                        	
                        		align	8                        	
                        		align	8                        	
                        		align	8                        	
1000950 0000000000 		fill.b	6,0x00
1000955         
                        		data
1000956       0000 		align	
                        	
                        		align	8                        	
1000958 0000000000 		fill.b	46,0x00
100095D 0000000000 
1000962 0000000000 
1000967 0000000000 
100096C 0000000000 
1000971 0000000000 
1000976 0000000000 
100097B 0000000000 
1000980 0000000000 
1000985         
1000986       0000 		align	
                        	
                        		align	8                        	
                        		align	8                        	
1000988 0000000000 		fill.b	1920,0x00
100098D 0000000000 
1000992 0000000000 
1000997 0000000000 
100099C 0000000000 
10009A1 0000000000 
10009A6 0000000000 
10009AB 0000000000 
10009B0 0000000000 
10009B5 0000000000 
10009BA 0000000000 
10009C0 0000000000 
10009C5 0000000000 
10009CA 0000000000 
10009D0 0000000000 
10009D5 0000000000 
10009DA 0000000000 
10009E0 0000000000 
10009E5 0000000000 
10009EA 0000000000 
10009F0 0000000000 
10009F5 0000000000 
10009FA 0000000000 
1000A00 0000000000 
1000A05 0000000000 
1000A0A 0000000000 
1000A10 0000000000 
1000A15 0000000000 
1000A1A 0000000000 
1000A20 0000000000 
1000A25 0000000000 
1000A2A 0000000000 
1000A30 0000000000 
1000A35 0000000000 
1000A3A 0000000000 
1000A40 0000000000 
1000A45 0000000000 
1000A4A 0000000000 
1000A50 0000000000 
1000A55 0000000000 
1000A5A 0000000000 
1000A60 0000000000 
1000A65 0000000000 
1000A6A 0000000000 
1000A70 0000000000 
1000A75 0000000000 
1000A7A 0000000000 
1000A80 0000000000 
1000A85 0000000000 
1000A8A 0000000000 
1000A90 0000000000 
1000A95 0000000000 
1000A9A 0000000000 
1000AA0 0000000000 
1000AA5 0000000000 
1000AAA 0000000000 
1000AB0 0000000000 
1000AB5 0000000000 
1000ABA 0000000000 
1000AC0 0000000000 
1000AC5 0000000000 
1000ACA 0000000000 
1000AD0 0000000000 
1000AD5 0000000000 
1000ADA 0000000000 
1000AE0 0000000000 
1000AE5 0000000000 
1000AEA 0000000000 
1000AF0 0000000000 
1000AF5 0000000000 
1000AFA 0000000000 
1000B00 0000000000 
1000B05 0000000000 
1000B0A 0000000000 
1000B10 0000000000 
1000B15 0000000000 
1000B1A 0000000000 
1000B20 0000000000 
1000B25 0000000000 
1000B2A 0000000000 
1000B30 0000000000 
1000B35 0000000000 
1000B3A 0000000000 
1000B40 0000000000 
1000B45 0000000000 
1000B4A 0000000000 
1000B50 0000000000 
1000B55 0000000000 
1000B5A 0000000000 
1000B60 0000000000 
1000B65 0000000000 
1000B6A 0000000000 
1000B70 0000000000 
1000B75 0000000000 
1000B7A 0000000000 
1000B80 0000000000 
1000B85 0000000000 
1000B8A 0000000000 
1000B90 0000000000 
1000B95 0000000000 
1000B9A 0000000000 
1000BA0 0000000000 
1000BA5 0000000000 
1000BAA 0000000000 
1000BB0 0000000000 
1000BB5 0000000000 
1000BBA 0000000000 
1000BC0 0000000000 
1000BC5 0000000000 
1000BCA 0000000000 
1000BD0 0000000000 
1000BD5 0000000000 
1000BDA 0000000000 
1000BE0 0000000000 
1000BE5 0000000000 
1000BEA 0000000000 
1000BF0 0000000000 
1000BF5 0000000000 
1000BFA 0000000000 
1000C00 0000000000 
1000C05 0000000000 
1000C0A 0000000000 
1000C10 0000000000 
1000C15 0000000000 
1000C1A 0000000000 
1000C20 0000000000 
1000C25 0000000000 
1000C2A 0000000000 
1000C30 0000000000 
1000C35 0000000000 
1000C3A 0000000000 
1000C40 0000000000 
1000C45 0000000000 
1000C4A 0000000000 
1000C50 0000000000 
1000C55 0000000000 
1000C5A 0000000000 
1000C60 0000000000 
1000C65 0000000000 
1000C6A 0000000000 
1000C70 0000000000 
1000C75 0000000000 
1000C7A 0000000000 
1000C80 0000000000 
1000C85 0000000000 
1000C8A 0000000000 
1000C90 0000000000 
1000C95 0000000000 
1000C9A 0000000000 
1000CA0 0000000000 
1000CA5 0000000000 
1000CAA 0000000000 
1000CB0 0000000000 
1000CB5 0000000000 
1000CBA 0000000000 
1000CC0 0000000000 
1000CC5 0000000000 
1000CCA 0000000000 
1000CD0 0000000000 
1000CD5 0000000000 
1000CDA 0000000000 
1000CE0 0000000000 
1000CE5 0000000000 
1000CEA 0000000000 
1000CF0 0000000000 
1000CF5 0000000000 
1000CFA 0000000000 
1000D00 0000000000 
1000D05 0000000000 
1000D0A 0000000000 
1000D10 0000000000 
1000D15 0000000000 
1000D1A 0000000000 
1000D20 0000000000 
1000D25 0000000000 
1000D2A 0000000000 
1000D30 0000000000 
1000D35 0000000000 
1000D3A 0000000000 
1000D40 0000000000 
1000D45 0000000000 
1000D4A 0000000000 
1000D50 0000000000 
1000D55 0000000000 
1000D5A 0000000000 
1000D60 0000000000 
1000D65 0000000000 
1000D6A 0000000000 
1000D70 0000000000 
1000D75 0000000000 
1000D7A 0000000000 
1000D80 0000000000 
1000D85 0000000000 
1000D8A 0000000000 
1000D90 0000000000 
1000D95 0000000000 
1000D9A 0000000000 
1000DA0 0000000000 
1000DA5 0000000000 
1000DAA 0000000000 
1000DB0 0000000000 
1000DB5 0000000000 
1000DBA 0000000000 
1000DC0 0000000000 
1000DC5 0000000000 
1000DCA 0000000000 
1000DD0 0000000000 
1000DD5 0000000000 
1000DDA 0000000000 
1000DE0 0000000000 
1000DE5 0000000000 
1000DEA 0000000000 
1000DF0 0000000000 
1000DF5 0000000000 
1000DFA 0000000000 
1000E00 0000000000 
1000E05 0000000000 
1000E0A 0000000000 
1000E10 0000000000 
1000E15 0000000000 
1000E1A 0000000000 
1000E20 0000000000 
1000E25 0000000000 
1000E2A 0000000000 
1000E30 0000000000 
1000E35 0000000000 
1000E3A 0000000000 
1000E40 0000000000 
1000E45 0000000000 
1000E4A 0000000000 
1000E50 0000000000 
1000E55 0000000000 
1000E5A 0000000000 
1000E60 0000000000 
1000E65 0000000000 
1000E6A 0000000000 
1000E70 0000000000 
1000E75 0000000000 
1000E7A 0000000000 
1000E80 0000000000 
1000E85 0000000000 
1000E8A 0000000000 
1000E90 0000000000 
1000E95 0000000000 
1000E9A 0000000000 
1000EA0 0000000000 
1000EA5 0000000000 
1000EAA 0000000000 
1000EB0 0000000000 
1000EB5 0000000000 
1000EBA 0000000000 
1000EC0 0000000000 
1000EC5 0000000000 
1000ECA 0000000000 
1000ED0 0000000000 
1000ED5 0000000000 
1000EDA 0000000000 
1000EE0 0000000000 
1000EE5 0000000000 
1000EEA 0000000000 
1000EF0 0000000000 
1000EF5 0000000000 
1000EFA 0000000000 
1000F00 0000000000 
1000F05 0000000000 
1000F0A 0000000000 
1000F10 0000000000 
1000F15 0000000000 
1000F1A 0000000000 
1000F20 0000000000 
1000F25 0000000000 
1000F2A 0000000000 
1000F30 0000000000 
1000F35 0000000000 
1000F3A 0000000000 
1000F40 0000000000 
1000F45 0000000000 
1000F4A 0000000000 
1000F50 0000000000 
1000F55 0000000000 
1000F5A 0000000000 
1000F60 0000000000 
1000F65 0000000000 
1000F6A 0000000000 
1000F70 0000000000 
1000F75 0000000000 
1000F7A 0000000000 
1000F80 0000000000 
1000F85 0000000000 
1000F8A 0000000000 
1000F90 0000000000 
1000F95 0000000000 
1000F9A 0000000000 
1000FA0 0000000000 
1000FA5 0000000000 
1000FAA 0000000000 
1000FB0 0000000000 
1000FB5 0000000000 
1000FBA 0000000000 
1000FC0 0000000000 
1000FC5 0000000000 
1000FCA 0000000000 
1000FD0 0000000000 
1000FD5 0000000000 
1000FDA 0000000000 
1000FE0 0000000000 
1000FE5 0000000000 
1000FEA 0000000000 
1000FF0 0000000000 
1000FF5 0000000000 
1000FFA 0000000000 
1001000 0000000000 
1001005 0000000000 
100100A 0000000000 
1001010 0000000000 
1001015 0000000000 
100101A 0000000000 
1001020 0000000000 
1001025 0000000000 
100102A 0000000000 
1001030 0000000000 
1001035 0000000000 
100103A 0000000000 
1001040 0000000000 
1001045 0000000000 
100104A 0000000000 
1001050 0000000000 
1001055 0000000000 
100105A 0000000000 
1001060 0000000000 
1001065 0000000000 
100106A 0000000000 
1001070 0000000000 
1001075 0000000000 
100107A 0000000000 
1001080 0000000000 
1001085 0000000000 
100108A 0000000000 
1001090 0000000000 
1001095 0000000000 
100109A 0000000000 
10010A0 0000000000 
10010A5 0000000000 
10010AA 0000000000 
10010B0 0000000000 
10010B5 0000000000 
10010BA 0000000000 
10010C0 0000000000 
10010C5 0000000000 
10010CA 0000000000 
10010D0 0000000000 
10010D5 0000000000 
10010DA 0000000000 
10010E0 0000000000 
10010E5 0000000000 
10010EA 0000000000 
10010F0 0000000000 
10010F5 0000000000 
10010FA 0000000000 
1001100 0000000000 
1001105     000000     
                        		align	8                        	
                        		align	8                        	
                        		align	8                        	
                        		align	8                        	
                        		align	8                        	
1001108 0000000000 		fill.b	6,0x00
100110D         
                        		data
100110E       0000 		align	
                        	
1001110 0000000000 		fill.b	1878,0x00
1001115 0000000000 
100111A 0000000000 
1001120 0000000000 
1001125 0000000000 
100112A 0000000000 
1001130 0000000000 
1001135 0000000000 
100113A 0000000000 
1001140 0000000000 
1001145 0000000000 
100114A 0000000000 
1001150 0000000000 
1001155 0000000000 
100115A 0000000000 
1001160 0000000000 
1001165 0000000000 
100116A 0000000000 
1001170 0000000000 
1001175 0000000000 
100117A 0000000000 
1001180 0000000000 
1001185 0000000000 
100118A 0000000000 
1001190 0000000000 
1001195 0000000000 
100119A 0000000000 
10011A0 0000000000 
10011A5 0000000000 
10011AA 0000000000 
10011B0 0000000000 
10011B5 0000000000 
10011BA 0000000000 
10011C0 0000000000 
10011C5 0000000000 
10011CA 0000000000 
10011D0 0000000000 
10011D5 0000000000 
10011DA 0000000000 
10011E0 0000000000 
10011E5 0000000000 
10011EA 0000000000 
10011F0 0000000000 
10011F5 0000000000 
10011FA 0000000000 
1001200 0000000000 
1001205 0000000000 
100120A 0000000000 
1001210 0000000000 
1001215 0000000000 
100121A 0000000000 
1001220 0000000000 
1001225 0000000000 
100122A 0000000000 
1001230 0000000000 
1001235 0000000000 
100123A 0000000000 
1001240 0000000000 
1001245 0000000000 
100124A 0000000000 
1001250 0000000000 
1001255 0000000000 
100125A 0000000000 
1001260 0000000000 
1001265 0000000000 
100126A 0000000000 
1001270 0000000000 
1001275 0000000000 
100127A 0000000000 
1001280 0000000000 
1001285 0000000000 
100128A 0000000000 
1001290 0000000000 
1001295 0000000000 
100129A 0000000000 
10012A0 0000000000 
10012A5 0000000000 
10012AA 0000000000 
10012B0 0000000000 
10012B5 0000000000 
10012BA 0000000000 
10012C0 0000000000 
10012C5 0000000000 
10012CA 0000000000 
10012D0 0000000000 
10012D5 0000000000 
10012DA 0000000000 
10012E0 0000000000 
10012E5 0000000000 
10012EA 0000000000 
10012F0 0000000000 
10012F5 0000000000 
10012FA 0000000000 
1001300 0000000000 
1001305 0000000000 
100130A 0000000000 
1001310 0000000000 
1001315 0000000000 
100131A 0000000000 
1001320 0000000000 
1001325 0000000000 
100132A 0000000000 
1001330 0000000000 
1001335 0000000000 
100133A 0000000000 
1001340 0000000000 
1001345 0000000000 
100134A 0000000000 
1001350 0000000000 
1001355 0000000000 
100135A 0000000000 
1001360 0000000000 
1001365 0000000000 
100136A 0000000000 
1001370 0000000000 
1001375 0000000000 
100137A 0000000000 
1001380 0000000000 
1001385 0000000000 
100138A 0000000000 
1001390 0000000000 
1001395 0000000000 
100139A 0000000000 
10013A0 0000000000 
10013A5 0000000000 
10013AA 0000000000 
10013B0 0000000000 
10013B5 0000000000 
10013BA 0000000000 
10013C0 0000000000 
10013C5 0000000000 
10013CA 0000000000 
10013D0 0000000000 
10013D5 0000000000 
10013DA 0000000000 
10013E0 0000000000 
10013E5 0000000000 
10013EA 0000000000 
10013F0 0000000000 
10013F5 0000000000 
10013FA 0000000000 
1001400 0000000000 
1001405 0000000000 
100140A 0000000000 
1001410 0000000000 
1001415 0000000000 
100141A 0000000000 
1001420 0000000000 
1001425 0000000000 
100142A 0000000000 
1001430 0000000000 
1001435 0000000000 
100143A 0000000000 
1001440 0000000000 
1001445 0000000000 
100144A 0000000000 
1001450 0000000000 
1001455 0000000000 
100145A 0000000000 
1001460 0000000000 
1001465 0000000000 
100146A 0000000000 
1001470 0000000000 
1001475 0000000000 
100147A 0000000000 
1001480 0000000000 
1001485 0000000000 
100148A 0000000000 
1001490 0000000000 
1001495 0000000000 
100149A 0000000000 
10014A0 0000000000 
10014A5 0000000000 
10014AA 0000000000 
10014B0 0000000000 
10014B5 0000000000 
10014BA 0000000000 
10014C0 0000000000 
10014C5 0000000000 
10014CA 0000000000 
10014D0 0000000000 
10014D5 0000000000 
10014DA 0000000000 
10014E0 0000000000 
10014E5 0000000000 
10014EA 0000000000 
10014F0 0000000000 
10014F5 0000000000 
10014FA 0000000000 
1001500 0000000000 
1001505 0000000000 
100150A 0000000000 
1001510 0000000000 
1001515 0000000000 
100151A 0000000000 
1001520 0000000000 
1001525 0000000000 
100152A 0000000000 
1001530 0000000000 
1001535 0000000000 
100153A 0000000000 
1001540 0000000000 
1001545 0000000000 
100154A 0000000000 
1001550 0000000000 
1001555 0000000000 
100155A 0000000000 
1001560 0000000000 
1001565 0000000000 
100156A 0000000000 
1001570 0000000000 
1001575 0000000000 
100157A 0000000000 
1001580 0000000000 
1001585 0000000000 
100158A 0000000000 
1001590 0000000000 
1001595 0000000000 
100159A 0000000000 
10015A0 0000000000 
10015A5 0000000000 
10015AA 0000000000 
10015B0 0000000000 
10015B5 0000000000 
10015BA 0000000000 
10015C0 0000000000 
10015C5 0000000000 
10015CA 0000000000 
10015D0 0000000000 
10015D5 0000000000 
10015DA 0000000000 
10015E0 0000000000 
10015E5 0000000000 
10015EA 0000000000 
10015F0 0000000000 
10015F5 0000000000 
10015FA 0000000000 
1001600 0000000000 
1001605 0000000000 
100160A 0000000000 
1001610 0000000000 
1001615 0000000000 
100161A 0000000000 
1001620 0000000000 
1001625 0000000000 
100162A 0000000000 
1001630 0000000000 
1001635 0000000000 
100163A 0000000000 
1001640 0000000000 
1001645 0000000000 
100164A 0000000000 
1001650 0000000000 
1001655 0000000000 
100165A 0000000000 
1001660 0000000000 
1001665 0000000000 
100166A 0000000000 
1001670 0000000000 
1001675 0000000000 
100167A 0000000000 
1001680 0000000000 
1001685 0000000000 
100168A 0000000000 
1001690 0000000000 
1001695 0000000000 
100169A 0000000000 
10016A0 0000000000 
10016A5 0000000000 
10016AA 0000000000 
10016B0 0000000000 
10016B5 0000000000 
10016BA 0000000000 
10016C0 0000000000 
10016C5 0000000000 
10016CA 0000000000 
10016D0 0000000000 
10016D5 0000000000 
10016DA 0000000000 
10016E0 0000000000 
10016E5 0000000000 
10016EA 0000000000 
10016F0 0000000000 
10016F5 0000000000 
10016FA 0000000000 
1001700 0000000000 
1001705 0000000000 
100170A 0000000000 
1001710 0000000000 
1001715 0000000000 
100171A 0000000000 
1001720 0000000000 
1001725 0000000000 
100172A 0000000000 
1001730 0000000000 
1001735 0000000000 
100173A 0000000000 
1001740 0000000000 
1001745 0000000000 
100174A 0000000000 
1001750 0000000000 
1001755 0000000000 
100175A 0000000000 
1001760 0000000000 
1001765 0000000000 
100176A 0000000000 
1001770 0000000000 
1001775 0000000000 
100177A 0000000000 
1001780 0000000000 
1001785 0000000000 
100178A 0000000000 
1001790 0000000000 
1001795 0000000000 
100179A 0000000000 
10017A0 0000000000 
10017A5 0000000000 
10017AA 0000000000 
10017B0 0000000000 
10017B5 0000000000 
10017BA 0000000000 
10017C0 0000000000 
10017C5 0000000000 
10017CA 0000000000 
10017D0 0000000000 
10017D5 0000000000 
10017DA 0000000000 
10017E0 0000000000 
10017E5 0000000000 
10017EA 0000000000 
10017F0 0000000000 
10017F5 0000000000 
10017FA 0000000000 
1001800 0000000000 
1001805 0000000000 
100180A 0000000000 
1001810 0000000000 
1001815 0000000000 
100181A 0000000000 
1001820 0000000000 
1001825 0000000000 
100182A 0000000000 
1001830 0000000000 
1001835 0000000000 
100183A 0000000000 
1001840 0000000000 
1001845 0000000000 
100184A 0000000000 
1001850 0000000000 
1001855 0000000000 
100185A 0000000000 
1001860 0000000000 
1001865         
                        		data
1001866       0000 		align	
                        	
1001868   00000000 		fill.b	4,0x00
                        		data
100186C   00000000 		align	
                        	
1001870 0000000000 		fill.b	60,0x00
1001875 0000000000 
100187A 0000000000 
1001880 0000000000 
1001885 0000000000 
100188A 0000000000 
1001890 0000000000 
1001895 0000000000 
100189A 0000000000 
10018A0 0000000000 
10018A5 0000000000 
10018AA       0000       
                        		data
10018AC   00000000 		align	
                        	
10018B0 0000000000 		fill.b	8,0x00
10018B5     000000     
                        		data
                        		align	8                        	
10018B8   00000000 		fill.b	4,0x00
                        		data
10018BC   00000000 		align	
                        	
10018C0 0000000000 		fill.b	8,0x00
10018C5     000000     
                        		data
                        		align	2                        	
                        	FMTKc_33:	; _startQNdx
10018C8       0000 		fill.b	2,0x00
                        		data
                        		align	2                        	
                        	FMTKc_134:	; _ex
10018CA 0000000000 		dd	0
10018D0   00000000   
                        		data
10018D4   00000000 		align	
                        	
                        		data
                        		align	8                        	
                        		data
                        		align	8                        	
                        		align	8                        	
10018D8 0000000000 		fill.b	46,0x00
10018DD 0000000000 
10018E2 0000000000 
10018E7 0000000000 
10018EC 0000000000 
10018F1 0000000000 
10018F6 0000000000 
10018FB 0000000000 
1001900 0000000000 
1001905         
1001906       0000 		align	
                        	
                        		align	8                        	
                        		align	8                        	
1001908 0000000000 		fill.b	1920,0x00
100190D 0000000000 
1001912 0000000000 
1001917 0000000000 
100191C 0000000000 
1001921 0000000000 
1001926 0000000000 
100192B 0000000000 
1001930 0000000000 
1001935 0000000000 
100193A 0000000000 
1001940 0000000000 
1001945 0000000000 
100194A 0000000000 
1001950 0000000000 
1001955 0000000000 
100195A 0000000000 
1001960 0000000000 
1001965 0000000000 
100196A 0000000000 
1001970 0000000000 
1001975 0000000000 
100197A 0000000000 
1001980 0000000000 
1001985 0000000000 
100198A 0000000000 
1001990 0000000000 
1001995 0000000000 
100199A 0000000000 
10019A0 0000000000 
10019A5 0000000000 
10019AA 0000000000 
10019B0 0000000000 
10019B5 0000000000 
10019BA 0000000000 
10019C0 0000000000 
10019C5 0000000000 
10019CA 0000000000 
10019D0 0000000000 
10019D5 0000000000 
10019DA 0000000000 
10019E0 0000000000 
10019E5 0000000000 
10019EA 0000000000 
10019F0 0000000000 
10019F5 0000000000 
10019FA 0000000000 
1001A00 0000000000 
1001A05 0000000000 
1001A0A 0000000000 
1001A10 0000000000 
1001A15 0000000000 
1001A1A 0000000000 
1001A20 0000000000 
1001A25 0000000000 
1001A2A 0000000000 
1001A30 0000000000 
1001A35 0000000000 
1001A3A 0000000000 
1001A40 0000000000 
1001A45 0000000000 
1001A4A 0000000000 
1001A50 0000000000 
1001A55 0000000000 
1001A5A 0000000000 
1001A60 0000000000 
1001A65 0000000000 
1001A6A 0000000000 
1001A70 0000000000 
1001A75 0000000000 
1001A7A 0000000000 
1001A80 0000000000 
1001A85 0000000000 
1001A8A 0000000000 
1001A90 0000000000 
1001A95 0000000000 
1001A9A 0000000000 
1001AA0 0000000000 
1001AA5 0000000000 
1001AAA 0000000000 
1001AB0 0000000000 
1001AB5 0000000000 
1001ABA 0000000000 
1001AC0 0000000000 
1001AC5 0000000000 
1001ACA 0000000000 
1001AD0 0000000000 
1001AD5 0000000000 
1001ADA 0000000000 
1001AE0 0000000000 
1001AE5 0000000000 
1001AEA 0000000000 
1001AF0 0000000000 
1001AF5 0000000000 
1001AFA 0000000000 
1001B00 0000000000 
1001B05 0000000000 
1001B0A 0000000000 
1001B10 0000000000 
1001B15 0000000000 
1001B1A 0000000000 
1001B20 0000000000 
1001B25 0000000000 
1001B2A 0000000000 
1001B30 0000000000 
1001B35 0000000000 
1001B3A 0000000000 
1001B40 0000000000 
1001B45 0000000000 
1001B4A 0000000000 
1001B50 0000000000 
1001B55 0000000000 
1001B5A 0000000000 
1001B60 0000000000 
1001B65 0000000000 
1001B6A 0000000000 
1001B70 0000000000 
1001B75 0000000000 
1001B7A 0000000000 
1001B80 0000000000 
1001B85 0000000000 
1001B8A 0000000000 
1001B90 0000000000 
1001B95 0000000000 
1001B9A 0000000000 
1001BA0 0000000000 
1001BA5 0000000000 
1001BAA 0000000000 
1001BB0 0000000000 
1001BB5 0000000000 
1001BBA 0000000000 
1001BC0 0000000000 
1001BC5 0000000000 
1001BCA 0000000000 
1001BD0 0000000000 
1001BD5 0000000000 
1001BDA 0000000000 
1001BE0 0000000000 
1001BE5 0000000000 
1001BEA 0000000000 
1001BF0 0000000000 
1001BF5 0000000000 
1001BFA 0000000000 
1001C00 0000000000 
1001C05 0000000000 
1001C0A 0000000000 
1001C10 0000000000 
1001C15 0000000000 
1001C1A 0000000000 
1001C20 0000000000 
1001C25 0000000000 
1001C2A 0000000000 
1001C30 0000000000 
1001C35 0000000000 
1001C3A 0000000000 
1001C40 0000000000 
1001C45 0000000000 
1001C4A 0000000000 
1001C50 0000000000 
1001C55 0000000000 
1001C5A 0000000000 
1001C60 0000000000 
1001C65 0000000000 
1001C6A 0000000000 
1001C70 0000000000 
1001C75 0000000000 
1001C7A 0000000000 
1001C80 0000000000 
1001C85 0000000000 
1001C8A 0000000000 
1001C90 0000000000 
1001C95 0000000000 
1001C9A 0000000000 
1001CA0 0000000000 
1001CA5 0000000000 
1001CAA 0000000000 
1001CB0 0000000000 
1001CB5 0000000000 
1001CBA 0000000000 
1001CC0 0000000000 
1001CC5 0000000000 
1001CCA 0000000000 
1001CD0 0000000000 
1001CD5 0000000000 
1001CDA 0000000000 
1001CE0 0000000000 
1001CE5 0000000000 
1001CEA 0000000000 
1001CF0 0000000000 
1001CF5 0000000000 
1001CFA 0000000000 
1001D00 0000000000 
1001D05 0000000000 
1001D0A 0000000000 
1001D10 0000000000 
1001D15 0000000000 
1001D1A 0000000000 
1001D20 0000000000 
1001D25 0000000000 
1001D2A 0000000000 
1001D30 0000000000 
1001D35 0000000000 
1001D3A 0000000000 
1001D40 0000000000 
1001D45 0000000000 
1001D4A 0000000000 
1001D50 0000000000 
1001D55 0000000000 
1001D5A 0000000000 
1001D60 0000000000 
1001D65 0000000000 
1001D6A 0000000000 
1001D70 0000000000 
1001D75 0000000000 
1001D7A 0000000000 
1001D80 0000000000 
1001D85 0000000000 
1001D8A 0000000000 
1001D90 0000000000 
1001D95 0000000000 
1001D9A 0000000000 
1001DA0 0000000000 
1001DA5 0000000000 
1001DAA 0000000000 
1001DB0 0000000000 
1001DB5 0000000000 
1001DBA 0000000000 
1001DC0 0000000000 
1001DC5 0000000000 
1001DCA 0000000000 
1001DD0 0000000000 
1001DD5 0000000000 
1001DDA 0000000000 
1001DE0 0000000000 
1001DE5 0000000000 
1001DEA 0000000000 
1001DF0 0000000000 
1001DF5 0000000000 
1001DFA 0000000000 
1001E00 0000000000 
1001E05 0000000000 
1001E0A 0000000000 
1001E10 0000000000 
1001E15 0000000000 
1001E1A 0000000000 
1001E20 0000000000 
1001E25 0000000000 
1001E2A 0000000000 
1001E30 0000000000 
1001E35 0000000000 
1001E3A 0000000000 
1001E40 0000000000 
1001E45 0000000000 
1001E4A 0000000000 
1001E50 0000000000 
1001E55 0000000000 
1001E5A 0000000000 
1001E60 0000000000 
1001E65 0000000000 
1001E6A 0000000000 
1001E70 0000000000 
1001E75 0000000000 
1001E7A 0000000000 
1001E80 0000000000 
1001E85 0000000000 
1001E8A 0000000000 
1001E90 0000000000 
1001E95 0000000000 
1001E9A 0000000000 
1001EA0 0000000000 
1001EA5 0000000000 
1001EAA 0000000000 
1001EB0 0000000000 
1001EB5 0000000000 
1001EBA 0000000000 
1001EC0 0000000000 
1001EC5 0000000000 
1001ECA 0000000000 
1001ED0 0000000000 
1001ED5 0000000000 
1001EDA 0000000000 
1001EE0 0000000000 
1001EE5 0000000000 
1001EEA 0000000000 
1001EF0 0000000000 
1001EF5 0000000000 
1001EFA 0000000000 
1001F00 0000000000 
1001F05 0000000000 
1001F0A 0000000000 
1001F10 0000000000 
1001F15 0000000000 
1001F1A 0000000000 
1001F20 0000000000 
1001F25 0000000000 
1001F2A 0000000000 
1001F30 0000000000 
1001F35 0000000000 
1001F3A 0000000000 
1001F40 0000000000 
1001F45 0000000000 
1001F4A 0000000000 
1001F50 0000000000 
1001F55 0000000000 
1001F5A 0000000000 
1001F60 0000000000 
1001F65 0000000000 
1001F6A 0000000000 
1001F70 0000000000 
1001F75 0000000000 
1001F7A 0000000000 
1001F80 0000000000 
1001F85 0000000000 
1001F8A 0000000000 
1001F90 0000000000 
1001F95 0000000000 
1001F9A 0000000000 
1001FA0 0000000000 
1001FA5 0000000000 
1001FAA 0000000000 
1001FB0 0000000000 
1001FB5 0000000000 
1001FBA 0000000000 
1001FC0 0000000000 
1001FC5 0000000000 
1001FCA 0000000000 
1001FD0 0000000000 
1001FD5 0000000000 
1001FDA 0000000000 
1001FE0 0000000000 
1001FE5 0000000000 
1001FEA 0000000000 
1001FF0 0000000000 
1001FF5 0000000000 
1001FFA 0000000000 
1002000 0000000000 
1002005 0000000000 
100200A 0000000000 
1002010 0000000000 
1002015 0000000000 
100201A 0000000000 
1002020 0000000000 
1002025 0000000000 
100202A 0000000000 
1002030 0000000000 
1002035 0000000000 
100203A 0000000000 
1002040 0000000000 
1002045 0000000000 
100204A 0000000000 
1002050 0000000000 
1002055 0000000000 
100205A 0000000000 
1002060 0000000000 
1002065 0000000000 
100206A 0000000000 
1002070 0000000000 
1002075 0000000000 
100207A 0000000000 
1002080 0000000000 
1002085     000000     
                        		align	8                        	
                        		align	8                        	
                        		align	8                        	
                        		align	8                        	
                        		align	8                        	
1002088 0000000000 		fill.b	6,0x00
100208D         
                        		data
100208E       0000 		align	
                        	
                        		data
                        		align	8                        	
                        		align	8                        	
1002090 0000000000 		fill.b	46,0x00
1002095 0000000000 
100209A 0000000000 
10020A0 0000000000 
10020A5 0000000000 
10020AA 0000000000 
10020B0 0000000000 
10020B5 0000000000 
10020BA   00000000   
10020BE       0000 		align	
                        	
                        		align	8                        	
                        		align	8                        	
10020C0 0000000000 		fill.b	1920,0x00
10020C5 0000000000 
10020CA 0000000000 
10020D0 0000000000 
10020D5 0000000000 
10020DA 0000000000 
10020E0 0000000000 
10020E5 0000000000 
10020EA 0000000000 
10020F0 0000000000 
10020F5 0000000000 
10020FA 0000000000 
1002100 0000000000 
1002105 0000000000 
100210A 0000000000 
1002110 0000000000 
1002115 0000000000 
100211A 0000000000 
1002120 0000000000 
1002125 0000000000 
100212A 0000000000 
1002130 0000000000 
1002135 0000000000 
100213A 0000000000 
1002140 0000000000 
1002145 0000000000 
100214A 0000000000 
1002150 0000000000 
1002155 0000000000 
100215A 0000000000 
1002160 0000000000 
1002165 0000000000 
100216A 0000000000 
1002170 0000000000 
1002175 0000000000 
100217A 0000000000 
1002180 0000000000 
1002185 0000000000 
100218A 0000000000 
1002190 0000000000 
1002195 0000000000 
100219A 0000000000 
10021A0 0000000000 
10021A5 0000000000 
10021AA 0000000000 
10021B0 0000000000 
10021B5 0000000000 
10021BA 0000000000 
10021C0 0000000000 
10021C5 0000000000 
10021CA 0000000000 
10021D0 0000000000 
10021D5 0000000000 
10021DA 0000000000 
10021E0 0000000000 
10021E5 0000000000 
10021EA 0000000000 
10021F0 0000000000 
10021F5 0000000000 
10021FA 0000000000 
1002200 0000000000 
1002205 0000000000 
100220A 0000000000 
1002210 0000000000 
1002215 0000000000 
100221A 0000000000 
1002220 0000000000 
1002225 0000000000 
100222A 0000000000 
1002230 0000000000 
1002235 0000000000 
100223A 0000000000 
1002240 0000000000 
1002245 0000000000 
100224A 0000000000 
1002250 0000000000 
1002255 0000000000 
100225A 0000000000 
1002260 0000000000 
1002265 0000000000 
100226A 0000000000 
1002270 0000000000 
1002275 0000000000 
100227A 0000000000 
1002280 0000000000 
1002285 0000000000 
100228A 0000000000 
1002290 0000000000 
1002295 0000000000 
100229A 0000000000 
10022A0 0000000000 
10022A5 0000000000 
10022AA 0000000000 
10022B0 0000000000 
10022B5 0000000000 
10022BA 0000000000 
10022C0 0000000000 
10022C5 0000000000 
10022CA 0000000000 
10022D0 0000000000 
10022D5 0000000000 
10022DA 0000000000 
10022E0 0000000000 
10022E5 0000000000 
10022EA 0000000000 
10022F0 0000000000 
10022F5 0000000000 
10022FA 0000000000 
1002300 0000000000 
1002305 0000000000 
100230A 0000000000 
1002310 0000000000 
1002315 0000000000 
100231A 0000000000 
1002320 0000000000 
1002325 0000000000 
100232A 0000000000 
1002330 0000000000 
1002335 0000000000 
100233A 0000000000 
1002340 0000000000 
1002345 0000000000 
100234A 0000000000 
1002350 0000000000 
1002355 0000000000 
100235A 0000000000 
1002360 0000000000 
1002365 0000000000 
100236A 0000000000 
1002370 0000000000 
1002375 0000000000 
100237A 0000000000 
1002380 0000000000 
1002385 0000000000 
100238A 0000000000 
1002390 0000000000 
1002395 0000000000 
100239A 0000000000 
10023A0 0000000000 
10023A5 0000000000 
10023AA 0000000000 
10023B0 0000000000 
10023B5 0000000000 
10023BA 0000000000 
10023C0 0000000000 
10023C5 0000000000 
10023CA 0000000000 
10023D0 0000000000 
10023D5 0000000000 
10023DA 0000000000 
10023E0 0000000000 
10023E5 0000000000 
10023EA 0000000000 
10023F0 0000000000 
10023F5 0000000000 
10023FA 0000000000 
1002400 0000000000 
1002405 0000000000 
100240A 0000000000 
1002410 0000000000 
1002415 0000000000 
100241A 0000000000 
1002420 0000000000 
1002425 0000000000 
100242A 0000000000 
1002430 0000000000 
1002435 0000000000 
100243A 0000000000 
1002440 0000000000 
1002445 0000000000 
100244A 0000000000 
1002450 0000000000 
1002455 0000000000 
100245A 0000000000 
1002460 0000000000 
1002465 0000000000 
100246A 0000000000 
1002470 0000000000 
1002475 0000000000 
100247A 0000000000 
1002480 0000000000 
1002485 0000000000 
100248A 0000000000 
1002490 0000000000 
1002495 0000000000 
100249A 0000000000 
10024A0 0000000000 
10024A5 0000000000 
10024AA 0000000000 
10024B0 0000000000 
10024B5 0000000000 
10024BA 0000000000 
10024C0 0000000000 
10024C5 0000000000 
10024CA 0000000000 
10024D0 0000000000 
10024D5 0000000000 
10024DA 0000000000 
10024E0 0000000000 
10024E5 0000000000 
10024EA 0000000000 
10024F0 0000000000 
10024F5 0000000000 
10024FA 0000000000 
1002500 0000000000 
1002505 0000000000 
100250A 0000000000 
1002510 0000000000 
1002515 0000000000 
100251A 0000000000 
1002520 0000000000 
1002525 0000000000 
100252A 0000000000 
1002530 0000000000 
1002535 0000000000 
100253A 0000000000 
1002540 0000000000 
1002545 0000000000 
100254A 0000000000 
1002550 0000000000 
1002555 0000000000 
100255A 0000000000 
1002560 0000000000 
1002565 0000000000 
100256A 0000000000 
1002570 0000000000 
1002575 0000000000 
100257A 0000000000 
1002580 0000000000 
1002585 0000000000 
100258A 0000000000 
1002590 0000000000 
1002595 0000000000 
100259A 0000000000 
10025A0 0000000000 
10025A5 0000000000 
10025AA 0000000000 
10025B0 0000000000 
10025B5 0000000000 
10025BA 0000000000 
10025C0 0000000000 
10025C5 0000000000 
10025CA 0000000000 
10025D0 0000000000 
10025D5 0000000000 
10025DA 0000000000 
10025E0 0000000000 
10025E5 0000000000 
10025EA 0000000000 
10025F0 0000000000 
10025F5 0000000000 
10025FA 0000000000 
1002600 0000000000 
1002605 0000000000 
100260A 0000000000 
1002610 0000000000 
1002615 0000000000 
100261A 0000000000 
1002620 0000000000 
1002625 0000000000 
100262A 0000000000 
1002630 0000000000 
1002635 0000000000 
100263A 0000000000 
1002640 0000000000 
1002645 0000000000 
100264A 0000000000 
1002650 0000000000 
1002655 0000000000 
100265A 0000000000 
1002660 0000000000 
1002665 0000000000 
100266A 0000000000 
1002670 0000000000 
1002675 0000000000 
100267A 0000000000 
1002680 0000000000 
1002685 0000000000 
100268A 0000000000 
1002690 0000000000 
1002695 0000000000 
100269A 0000000000 
10026A0 0000000000 
10026A5 0000000000 
10026AA 0000000000 
10026B0 0000000000 
10026B5 0000000000 
10026BA 0000000000 
10026C0 0000000000 
10026C5 0000000000 
10026CA 0000000000 
10026D0 0000000000 
10026D5 0000000000 
10026DA 0000000000 
10026E0 0000000000 
10026E5 0000000000 
10026EA 0000000000 
10026F0 0000000000 
10026F5 0000000000 
10026FA 0000000000 
1002700 0000000000 
1002705 0000000000 
100270A 0000000000 
1002710 0000000000 
1002715 0000000000 
100271A 0000000000 
1002720 0000000000 
1002725 0000000000 
100272A 0000000000 
1002730 0000000000 
1002735 0000000000 
100273A 0000000000 
1002740 0000000000 
1002745 0000000000 
100274A 0000000000 
1002750 0000000000 
1002755 0000000000 
100275A 0000000000 
1002760 0000000000 
1002765 0000000000 
100276A 0000000000 
1002770 0000000000 
1002775 0000000000 
100277A 0000000000 
1002780 0000000000 
1002785 0000000000 
100278A 0000000000 
1002790 0000000000 
1002795 0000000000 
100279A 0000000000 
10027A0 0000000000 
10027A5 0000000000 
10027AA 0000000000 
10027B0 0000000000 
10027B5 0000000000 
10027BA 0000000000 
10027C0 0000000000 
10027C5 0000000000 
10027CA 0000000000 
10027D0 0000000000 
10027D5 0000000000 
10027DA 0000000000 
10027E0 0000000000 
10027E5 0000000000 
10027EA 0000000000 
10027F0 0000000000 
10027F5 0000000000 
10027FA 0000000000 
1002800 0000000000 
1002805 0000000000 
100280A 0000000000 
1002810 0000000000 
1002815 0000000000 
100281A 0000000000 
1002820 0000000000 
1002825 0000000000 
100282A 0000000000 
1002830 0000000000 
1002835 0000000000 
100283A 0000000000 
                        		align	8                        	
                        		align	8                        	
                        		align	8                        	
                        		align	8                        	
                        		align	8                        	
1002840 0000000000 		fill.b	6,0x00
1002845         
                        		data
1002846       0000 		align	
                        	
1002848 0000000000 		fill.b	874,0x00
100284D 0000000000 
1002852 0000000000 
1002857 0000000000 
100285C 0000000000 
1002861 0000000000 
1002866 0000000000 
100286B 0000000000 
1002870 0000000000 
1002875 0000000000 
100287A 0000000000 
1002880 0000000000 
1002885 0000000000 
100288A 0000000000 
1002890 0000000000 
1002895 0000000000 
100289A 0000000000 
10028A0 0000000000 
10028A5 0000000000 
10028AA 0000000000 
10028B0 0000000000 
10028B5 0000000000 
10028BA 0000000000 
10028C0 0000000000 
10028C5 0000000000 
10028CA 0000000000 
10028D0 0000000000 
10028D5 0000000000 
10028DA 0000000000 
10028E0 0000000000 
10028E5 0000000000 
10028EA 0000000000 
10028F0 0000000000 
10028F5 0000000000 
10028FA 0000000000 
1002900 0000000000 
1002905 0000000000 
100290A 0000000000 
1002910 0000000000 
1002915 0000000000 
100291A 0000000000 
1002920 0000000000 
1002925 0000000000 
100292A 0000000000 
1002930 0000000000 
1002935 0000000000 
100293A 0000000000 
1002940 0000000000 
1002945 0000000000 
100294A 0000000000 
1002950 0000000000 
1002955 0000000000 
100295A 0000000000 
1002960 0000000000 
1002965 0000000000 
100296A 0000000000 
1002970 0000000000 
1002975 0000000000 
100297A 0000000000 
1002980 0000000000 
1002985 0000000000 
100298A 0000000000 
1002990 0000000000 
1002995 0000000000 
100299A 0000000000 
10029A0 0000000000 
10029A5 0000000000 
10029AA 0000000000 
10029B0 0000000000 
10029B5 0000000000 
10029BA 0000000000 
10029C0 0000000000 
10029C5 0000000000 
10029CA 0000000000 
10029D0 0000000000 
10029D5 0000000000 
10029DA 0000000000 
10029E0 0000000000 
10029E5 0000000000 
10029EA 0000000000 
10029F0 0000000000 
10029F5 0000000000 
10029FA 0000000000 
1002A00 0000000000 
1002A05 0000000000 
1002A0A 0000000000 
1002A10 0000000000 
1002A15 0000000000 
1002A1A 0000000000 
1002A20 0000000000 
1002A25 0000000000 
1002A2A 0000000000 
1002A30 0000000000 
1002A35 0000000000 
1002A3A 0000000000 
1002A40 0000000000 
1002A45 0000000000 
1002A4A 0000000000 
1002A50 0000000000 
1002A55 0000000000 
1002A5A 0000000000 
1002A60 0000000000 
1002A65 0000000000 
1002A6A 0000000000 
1002A70 0000000000 
1002A75 0000000000 
1002A7A 0000000000 
1002A80 0000000000 
1002A85 0000000000 
1002A8A 0000000000 
1002A90 0000000000 
1002A95 0000000000 
1002A9A 0000000000 
1002AA0 0000000000 
1002AA5 0000000000 
1002AAA 0000000000 
1002AB0 0000000000 
1002AB5 0000000000 
1002ABA 0000000000 
1002AC0 0000000000 
1002AC5 0000000000 
1002ACA 0000000000 
1002AD0 0000000000 
1002AD5 0000000000 
1002ADA 0000000000 
1002AE0 0000000000 
1002AE5 0000000000 
1002AEA 0000000000 
1002AF0 0000000000 
1002AF5 0000000000 
1002AFA 0000000000 
1002B00 0000000000 
1002B05 0000000000 
1002B0A 0000000000 
1002B10 0000000000 
1002B15 0000000000 
1002B1A 0000000000 
1002B20 0000000000 
1002B25 0000000000 
1002B2A 0000000000 
1002B30 0000000000 
1002B35 0000000000 
1002B3A 0000000000 
1002B40 0000000000 
1002B45 0000000000 
1002B4A 0000000000 
1002B50 0000000000 
1002B55 0000000000 
1002B5A 0000000000 
1002B60 0000000000 
1002B65 0000000000 
1002B6A 0000000000 
1002B70 0000000000 
1002B75 0000000000 
1002B7A 0000000000 
1002B80 0000000000 
1002B85 0000000000 
1002B8A 0000000000 
1002B90 0000000000 
1002B95 0000000000 
1002B9A 0000000000 
1002BA0 0000000000 
1002BA5 0000000000 
1002BAA 0000000000 
1002BB0       0000       
                        		data
1002BB2 0000000000 		align	
1002BB7         
                        	
                        		data
                        		align	8                        	
                        		align	8                        	
1002BB8 0000000000 		fill.b	46,0x00
1002BBD 0000000000 
1002BC2 0000000000 
1002BC7 0000000000 
1002BCC 0000000000 
1002BD1 0000000000 
1002BD6 0000000000 
1002BDB 0000000000 
1002BE0 0000000000 
1002BE5         
1002BE6       0000 		align	
                        	
                        		align	8                        	
                        		align	8                        	
1002BE8 0000000000 		fill.b	1920,0x00
1002BED 0000000000 
1002BF2 0000000000 
1002BF7 0000000000 
1002BFC 0000000000 
1002C01 0000000000 
1002C06 0000000000 
1002C0B 0000000000 
1002C10 0000000000 
1002C15 0000000000 
1002C1A 0000000000 
1002C20 0000000000 
1002C25 0000000000 
1002C2A 0000000000 
1002C30 0000000000 
1002C35 0000000000 
1002C3A 0000000000 
1002C40 0000000000 
1002C45 0000000000 
1002C4A 0000000000 
1002C50 0000000000 
1002C55 0000000000 
1002C5A 0000000000 
1002C60 0000000000 
1002C65 0000000000 
1002C6A 0000000000 
1002C70 0000000000 
1002C75 0000000000 
1002C7A 0000000000 
1002C80 0000000000 
1002C85 0000000000 
1002C8A 0000000000 
1002C90 0000000000 
1002C95 0000000000 
1002C9A 0000000000 
1002CA0 0000000000 
1002CA5 0000000000 
1002CAA 0000000000 
1002CB0 0000000000 
1002CB5 0000000000 
1002CBA 0000000000 
1002CC0 0000000000 
1002CC5 0000000000 
1002CCA 0000000000 
1002CD0 0000000000 
1002CD5 0000000000 
1002CDA 0000000000 
1002CE0 0000000000 
1002CE5 0000000000 
1002CEA 0000000000 
1002CF0 0000000000 
1002CF5 0000000000 
1002CFA 0000000000 
1002D00 0000000000 
1002D05 0000000000 
1002D0A 0000000000 
1002D10 0000000000 
1002D15 0000000000 
1002D1A 0000000000 
1002D20 0000000000 
1002D25 0000000000 
1002D2A 0000000000 
1002D30 0000000000 
1002D35 0000000000 
1002D3A 0000000000 
1002D40 0000000000 
1002D45 0000000000 
1002D4A 0000000000 
1002D50 0000000000 
1002D55 0000000000 
1002D5A 0000000000 
1002D60 0000000000 
1002D65 0000000000 
1002D6A 0000000000 
1002D70 0000000000 
1002D75 0000000000 
1002D7A 0000000000 
1002D80 0000000000 
1002D85 0000000000 
1002D8A 0000000000 
1002D90 0000000000 
1002D95 0000000000 
1002D9A 0000000000 
1002DA0 0000000000 
1002DA5 0000000000 
1002DAA 0000000000 
1002DB0 0000000000 
1002DB5 0000000000 
1002DBA 0000000000 
1002DC0 0000000000 
1002DC5 0000000000 
1002DCA 0000000000 
1002DD0 0000000000 
1002DD5 0000000000 
1002DDA 0000000000 
1002DE0 0000000000 
1002DE5 0000000000 
1002DEA 0000000000 
1002DF0 0000000000 
1002DF5 0000000000 
1002DFA 0000000000 
1002E00 0000000000 
1002E05 0000000000 
1002E0A 0000000000 
1002E10 0000000000 
1002E15 0000000000 
1002E1A 0000000000 
1002E20 0000000000 
1002E25 0000000000 
1002E2A 0000000000 
1002E30 0000000000 
1002E35 0000000000 
1002E3A 0000000000 
1002E40 0000000000 
1002E45 0000000000 
1002E4A 0000000000 
1002E50 0000000000 
1002E55 0000000000 
1002E5A 0000000000 
1002E60 0000000000 
1002E65 0000000000 
1002E6A 0000000000 
1002E70 0000000000 
1002E75 0000000000 
1002E7A 0000000000 
1002E80 0000000000 
1002E85 0000000000 
1002E8A 0000000000 
1002E90 0000000000 
1002E95 0000000000 
1002E9A 0000000000 
1002EA0 0000000000 
1002EA5 0000000000 
1002EAA 0000000000 
1002EB0 0000000000 
1002EB5 0000000000 
1002EBA 0000000000 
1002EC0 0000000000 
1002EC5 0000000000 
1002ECA 0000000000 
1002ED0 0000000000 
1002ED5 0000000000 
1002EDA 0000000000 
1002EE0 0000000000 
1002EE5 0000000000 
1002EEA 0000000000 
1002EF0 0000000000 
1002EF5 0000000000 
1002EFA 0000000000 
1002F00 0000000000 
1002F05 0000000000 
1002F0A 0000000000 
1002F10 0000000000 
1002F15 0000000000 
1002F1A 0000000000 
1002F20 0000000000 
1002F25 0000000000 
1002F2A 0000000000 
1002F30 0000000000 
1002F35 0000000000 
1002F3A 0000000000 
1002F40 0000000000 
1002F45 0000000000 
1002F4A 0000000000 
1002F50 0000000000 
1002F55 0000000000 
1002F5A 0000000000 
1002F60 0000000000 
1002F65 0000000000 
1002F6A 0000000000 
1002F70 0000000000 
1002F75 0000000000 
1002F7A 0000000000 
1002F80 0000000000 
1002F85 0000000000 
1002F8A 0000000000 
1002F90 0000000000 
1002F95 0000000000 
1002F9A 0000000000 
1002FA0 0000000000 
1002FA5 0000000000 
1002FAA 0000000000 
1002FB0 0000000000 
1002FB5 0000000000 
1002FBA 0000000000 
1002FC0 0000000000 
1002FC5 0000000000 
1002FCA 0000000000 
1002FD0 0000000000 
1002FD5 0000000000 
1002FDA 0000000000 
1002FE0 0000000000 
1002FE5 0000000000 
1002FEA 0000000000 
1002FF0 0000000000 
1002FF5 0000000000 
1002FFA 0000000000 
1003000 0000000000 
1003005 0000000000 
100300A 0000000000 
1003010 0000000000 
1003015 0000000000 
100301A 0000000000 
1003020 0000000000 
1003025 0000000000 
100302A 0000000000 
1003030 0000000000 
1003035 0000000000 
100303A 0000000000 
1003040 0000000000 
1003045 0000000000 
100304A 0000000000 
1003050 0000000000 
1003055 0000000000 
100305A 0000000000 
1003060 0000000000 
1003065 0000000000 
100306A 0000000000 
1003070 0000000000 
1003075 0000000000 
100307A 0000000000 
1003080 0000000000 
1003085 0000000000 
100308A 0000000000 
1003090 0000000000 
1003095 0000000000 
100309A 0000000000 
10030A0 0000000000 
10030A5 0000000000 
10030AA 0000000000 
10030B0 0000000000 
10030B5 0000000000 
10030BA 0000000000 
10030C0 0000000000 
10030C5 0000000000 
10030CA 0000000000 
10030D0 0000000000 
10030D5 0000000000 
10030DA 0000000000 
10030E0 0000000000 
10030E5 0000000000 
10030EA 0000000000 
10030F0 0000000000 
10030F5 0000000000 
10030FA 0000000000 
1003100 0000000000 
1003105 0000000000 
100310A 0000000000 
1003110 0000000000 
1003115 0000000000 
100311A 0000000000 
1003120 0000000000 
1003125 0000000000 
100312A 0000000000 
1003130 0000000000 
1003135 0000000000 
100313A 0000000000 
1003140 0000000000 
1003145 0000000000 
100314A 0000000000 
1003150 0000000000 
1003155 0000000000 
100315A 0000000000 
1003160 0000000000 
1003165 0000000000 
100316A 0000000000 
1003170 0000000000 
1003175 0000000000 
100317A 0000000000 
1003180 0000000000 
1003185 0000000000 
100318A 0000000000 
1003190 0000000000 
1003195 0000000000 
100319A 0000000000 
10031A0 0000000000 
10031A5 0000000000 
10031AA 0000000000 
10031B0 0000000000 
10031B5 0000000000 
10031BA 0000000000 
10031C0 0000000000 
10031C5 0000000000 
10031CA 0000000000 
10031D0 0000000000 
10031D5 0000000000 
10031DA 0000000000 
10031E0 0000000000 
10031E5 0000000000 
10031EA 0000000000 
10031F0 0000000000 
10031F5 0000000000 
10031FA 0000000000 
1003200 0000000000 
1003205 0000000000 
100320A 0000000000 
1003210 0000000000 
1003215 0000000000 
100321A 0000000000 
1003220 0000000000 
1003225 0000000000 
100322A 0000000000 
1003230 0000000000 
1003235 0000000000 
100323A 0000000000 
1003240 0000000000 
1003245 0000000000 
100324A 0000000000 
1003250 0000000000 
1003255 0000000000 
100325A 0000000000 
1003260 0000000000 
1003265 0000000000 
100326A 0000000000 
1003270 0000000000 
1003275 0000000000 
100327A 0000000000 
1003280 0000000000 
1003285 0000000000 
100328A 0000000000 
1003290 0000000000 
1003295 0000000000 
100329A 0000000000 
10032A0 0000000000 
10032A5 0000000000 
10032AA 0000000000 
10032B0 0000000000 
10032B5 0000000000 
10032BA 0000000000 
10032C0 0000000000 
10032C5 0000000000 
10032CA 0000000000 
10032D0 0000000000 
10032D5 0000000000 
10032DA 0000000000 
10032E0 0000000000 
10032E5 0000000000 
10032EA 0000000000 
10032F0 0000000000 
10032F5 0000000000 
10032FA 0000000000 
1003300 0000000000 
1003305 0000000000 
100330A 0000000000 
1003310 0000000000 
1003315 0000000000 
100331A 0000000000 
1003320 0000000000 
1003325 0000000000 
100332A 0000000000 
1003330 0000000000 
1003335 0000000000 
100333A 0000000000 
1003340 0000000000 
1003345 0000000000 
100334A 0000000000 
1003350 0000000000 
1003355 0000000000 
100335A 0000000000 
1003360 0000000000 
1003365     000000     
                        		align	8                        	
                        		align	8                        	
                        		align	8                        	
                        		align	8                        	
                        		align	8                        	
1003368 0000000000 		fill.b	6,0x00
100336D         
                        		data
                        		align	2                        	
100336E       FFFF 	public data _hFocusSwitchMbx:
	dw	65535
                        	endpublic
                        	
                        		data
                        		align	2                        	
                        	IOFocusc_0:
1003370   		db	1
1738 symbols
  Symbol Name                              seg     address bits
  BIOSMain_1                               rodata  fffcdb30 32
  BIOSMain_11                                code  fffc0d3a 17
  BIOSMain_12                                code  fffc0d3a 17
  BIOSMain_13                                code  fffc0da5 17
  BIOSMain_14                                code  fffc0d55 17
  BIOSMain_15                                code  fffc0d80 17
  BIOSMain_16                                code  fffc0d55 17
  BIOSMain_17                                code  fffc0d70 17
  BIOSMain_18                                code  fffc0d65 17
  BIOSMain_2                               rodata  fffcdc2e 32
  BIOSMain_20                                code  fffc0d65 17
  BIOSMain_21                                code  fffc0d65 17
  BIOSMain_22                                code  fffc0d80 17
  BIOSMain_23                                code  fffc0d9a 17
  BIOSMain_24                                code  fffc0d90 17
  BIOSMain_26                                code  fffc0d90 17
  BIOSMain_27                                code  fffc0d90 17
  BIOSMain_28                                code  fffc0daa 17
  BIOSMain_3                               rodata  fffcdbd2 32
  BIOSMain_33                              rodata  fffcdbb2 32
  BIOSMain_34                                code  fffc113a 17
  BIOSMain_37                                code  fffc0f6a 17
  BIOSMain_38                                code  fffc0fea 17
  BIOSMain_39                                code  fffc0fd5 17
  BIOSMain_4                                 code  fffc0dc0 17
  BIOSMain_40                                code  fffc0f90 17
  BIOSMain_42                                code  fffc0f90 17
  BIOSMain_43                                code  fffc0f90 17
  BIOSMain_44                                code  fffc0fa5 17
  BIOSMain_46                                code  fffc0fa5 17
  BIOSMain_47                                code  fffc0fa5 17
  BIOSMain_48                                code  fffc0fea 17
  BIOSMain_49                              rodata  fffcdb8e 32
  BIOSMain_50                                code  fffc1535 17
  BIOSMain_53                                code  fffc12da 17
  BIOSMain_55                                code  fffc12da 17
  BIOSMain_56                                code  fffc12da 17
  BIOSMain_57                                code  fffc1325 17
  BIOSMain_59                                code  fffc1325 17
  BIOSMain_60                                code  fffc1325 17
  BIOSMain_61                                code  fffc1360 17
  BIOSMain_62                                code  fffc13e0 17
  BIOSMain_63                                code  fffc13ca 17
  BIOSMain_64                                code  fffc1385 17
  BIOSMain_66                                code  fffc1385 17
  BIOSMain_67                                code  fffc1385 17
  BIOSMain_68                                code  fffc139a 17
  BIOSMain_7                                 code  fffc0d2a 17
  BIOSMain_70                                code  fffc139a 17
  BIOSMain_71                                code  fffc139a 17
  BIOSMain_72                                code  fffc13e0 17
  BIOSMain_73                                code  fffc13e5 17
  BIOSMain_74                                code  fffc13e5 17
  BIOSMain_75                              rodata  fffcdb58 32
  BIOSMain_76                              rodata  fffcdb3c 32
  BIOSMain_77                                code  fffc18c5 17
  BIOSMain_8                                 code  fffc0daa 17
  BIOSMain_80                                code  fffc16f0 17
  BIOSMain_81                                code  fffc1770 17
  BIOSMain_82                                code  fffc175a 17
  BIOSMain_83                                code  fffc1715 17
  BIOSMain_85                                code  fffc1715 17
  BIOSMain_86                                code  fffc1715 17
  BIOSMain_87                                code  fffc172a 17
  BIOSMain_89                                code  fffc172a 17
  BIOSMain_9                                 code  fffc0d3a 17
  BIOSMain_90                                code  fffc172a 17
  BIOSMain_91                                code  fffc1770 17
  BIOSMain_92                                code  fffc1775 17
  BIOSMain_93                                code  fffc1775 17
  BTNCIRQRout                                code  fffc0770 17
 BUTTONS                                   const  ffdc0090 33
  CursorOff                                  code  fffcd7c5 17
  CursorOn                                   code  fffcd7d0 17
  CursorX                                     bss  c00240 32
  CursorY                                     bss  c00244 32
  DBGAttr                                     bss  c0023c 32
  DBGCursorX                                  bss  c00234 32
  DBGCursorY                                  bss  c00238 32
  DBGHomeCursor                              code  fffcd8d0 17
  DBGPrtstr                                  code  fffcda15 17
  DBGPrtstr.j1                               code  fffcda4a 17
  DBGPrtstr.j2                               code  fffcda25 17
  DBGPutchar                                 code  fffcd940 17
  DBGPutchar.j1                              code  fffcd9fa 17
  DBGPutchar.j2                              code  fffcd9d5 17
  DBGSetCursorPos                            code  fffcd900 17
  DispCharAttr                               code  fffcd450 17
  DispCharQ                                  code  fffcd685 17
 DisplayByte                                code  8000000000000637 -858993460
 DisplayCharHex                             code  8000000000000636 -858993460
 DisplayHalf                                code  8000000000000635 -858993460
 DisplaySpace                               code  800000000000065e -858993460
  DisplayString16                            code  fffcd635 17
 DisplayStringCRLF_                         code  8000000000000633 -858993460
 DisplayWord                                code  8000000000000634 -858993460
  E_BadFuncno                                code  fffcd43a 17
  E_BadFuncno.0005                           code  fffcd440 17
 E_Busy                                     code  80000000000003f3 -858993460
  E_Unsupported                              code  fffcd44a 17
  EscState                                    bss  c00258 32
  FMTK_SchedulerIRQ_vec                       bss  c00004 32
  FMTKc_0                                    code  fffc72cd 17
  FMTKc_100                                  code  fffc7d20 17
  FMTKc_101                                  code  fffc7d3a 17
  FMTKc_103                                  code  fffc7d3a 17
  FMTKc_104                                  code  fffc7d35 17
  FMTKc_105                                  code  fffc7da0 17
  FMTKc_107                                  code  fffc7da0 17
  FMTKc_108                                  code  fffc7d9a 17
  FMTKc_109                                  code  fffc7e80 17
  FMTKc_11                                   code  fffc7325 17
  FMTKc_111                                  code  fffc7e80 17
  FMTKc_112                                  code  fffc7e7a 17
  FMTKc_113                                  code  fffc7e95 17
  FMTKc_115                                  code  fffc7e95 17
  FMTKc_116                                  code  fffc7e90 17
  FMTKc_117                                  code  fffc7ed5 17
  FMTKc_119                                  code  fffc7ed5 17
  FMTKc_120                                  code  fffc7ed0 17
  FMTKc_121                                  code  fffc7f9a 17
  FMTKc_123                                  code  fffc7fb5 17
  FMTKc_125                                  code  fffc7fb5 17
  FMTKc_126                                  code  fffc7fb0 17
  FMTKc_127                                  code  fffc7fe0 17
  FMTKc_128                                  code  fffc8030 17
  FMTKc_129                                  code  fffc804a 17
  FMTKc_13                                   code  fffc7325 17
  FMTKc_132                                  code  fffc8035 17
  FMTKc_133                                  code  fffc8095 17
  FMTKc_134                                  data  10018ca 32
  FMTKc_135                                rodata  fffce120 32
  FMTKc_136                                  code  fffc8165 17
  FMTKc_139                                  code  fffc8095 17
  FMTKc_14                                   code  fffc7320 17
  FMTKc_140                                  code  fffc8150 17
  FMTKc_141                                  code  fffc8140 17
  FMTKc_142                                  code  fffc80da 17
  FMTKc_143                                  code  fffc80d5 17
  FMTKc_145                                  code  fffc80da 17
  FMTKc_146                                  code  fffc812a 17
  FMTKc_147                                  code  fffc8140 17
  FMTKc_15                                   code  fffc736a 17
  FMTKc_150                                  code  fffc8140 17
  FMTKc_151                                  code  fffc8150 17
  FMTKc_152                                  code  fffc85d5 17
  FMTKc_155                                  code  fffc85c0 17
  FMTKc_157                                  code  fffc8250 17
  FMTKc_158                                  code  fffc83c5 17
  FMTKc_159                                  code  fffc83b0 17
  FMTKc_16                                   code  fffc73a5 17
  FMTKc_160                                  code  fffc83b0 17
  FMTKc_162                                  code  fffc8435 17
  FMTKc_163                                  code  fffc84ca 17
  FMTKc_164                                  code  fffc84b5 17
  FMTKc_165                                  code  fffc84b5 17
  FMTKc_167                                  code  fffc84d0 17
  FMTKc_168                                  code  fffc8525 17
  FMTKc_169                                  code  fffc8510 17
  FMTKc_170                                  code  fffc8510 17
  FMTKc_172                                  code  fffc85a0 17
  FMTKc_174                                  code  fffc85ba 17
  FMTKc_176                                  code  fffc85ba 17
  FMTKc_177                                  code  fffc85b5 17
  FMTKc_178                                  code  fffc85c0 17
  FMTKc_179                                  code  fffc8640 17
  FMTKc_180                                  code  fffc865a 17
  FMTKc_183                                  code  fffc862a 17
  FMTKc_185                                  code  fffc862a 17
  FMTKc_186                                  code  fffc8625 17
  FMTKc_187                                  code  fffc8645 17
  FMTKc_188                                  code  fffc8c05 17
  FMTKc_19                                   code  fffc73a5 17
  FMTKc_191                                  code  fffc87a5 17
  FMTKc_192                                  code  fffc87d0 17
  FMTKc_193                                  code  fffc879a 17
  FMTKc_195                                  code  fffc879a 17
  FMTKc_196                                  code  fffc8795 17
  FMTKc_197                                  code  fffc87ba 17
  FMTKc_198                                  code  fffc887a 17
  FMTKc_199                                  code  fffc8935 17
  FMTKc_20                                   code  fffc73c5 17
  FMTKc_200                                  code  fffc8920 17
  FMTKc_201                                  code  fffc8920 17
  FMTKc_203                                  code  fffc8a55 17
  FMTKc_205                                  code  fffc8a40 17
  FMTKc_206                                  code  fffc8a4a 17
  FMTKc_207                                  code  fffc8a35 17
  FMTKc_209                                  code  fffc8a35 17
  FMTKc_210                                  code  fffc8a30 17
  FMTKc_211                                  code  fffc8bda 17
  FMTKc_212                                  code  fffc8be5 17
  FMTKc_213                                  code  fffc8bd0 17
  FMTKc_215                                  code  fffc8bd0 17
  FMTKc_216                                  code  fffc8bca 17
  FMTKc_217                                  code  fffc8d65 17
  FMTKc_220                                  code  fffc8d35 17
  FMTKc_221                                  code  fffc8d50 17
  FMTKc_222                                  code  fffc8c9a 17
  FMTKc_224                                  code  fffc8c9a 17
  FMTKc_225                                  code  fffc8c95 17
  FMTKc_226                                  code  fffc8d2a 17
  FMTKc_228                                  code  fffc8d2a 17
  FMTKc_229                                  code  fffc8d25 17
  FMTKc_23                                   code  fffc73c5 17
  FMTKc_230                                  code  fffc8d3a 17
  FMTKc_231                                  code  fffc8ef0 17
  FMTKc_234                                  code  fffc8dc0 17
  FMTKc_236                                  code  fffc8da5 17
  FMTKc_237                                  code  fffc8daa 17
  FMTKc_238                                  code  fffc8ee0 17
  FMTKc_24                                   code  fffc749a 17
  FMTKc_240                                  code  fffc8ea0 17
  FMTKc_241                                  code  fffc8ec0 17
  FMTKc_242                                  code  fffc8eda 17
  FMTKc_244                                  code  fffc8eda 17
  FMTKc_245                                  code  fffc8ed5 17
  FMTKc_246                                  code  fffc9c70 17
  FMTKc_249                                  code  fffc8fc0 17
  FMTKc_251                                  code  fffc8fc0 17
  FMTKc_252                                  code  fffc8fba 17
  FMTKc_253                                  code  fffc8fe0 17
  FMTKc_255                                  code  fffc8fe0 17
  FMTKc_256                                  code  fffc8fda 17
  FMTKc_257                                  code  fffc9000 17
  FMTKc_259                                  code  fffc9000 17
  FMTKc_260                                  code  fffc8ffa 17
  FMTKc_261                                  code  fffc9020 17
  FMTKc_263                                  code  fffc9020 17
  FMTKc_264                                  code  fffc901a 17
  FMTKc_265                                  code  fffc902a 17
  FMTKc_266                                  code  fffc90a5 17
  FMTKc_267                                  code  fffc9090 17
  FMTKc_268                                  code  fffc9060 17
  FMTKc_27                                   code  fffc749a 17
  FMTKc_270                                  code  fffc9060 17
  FMTKc_271                                  code  fffc905a 17
  FMTKc_272                                  code  fffc910a 17
  FMTKc_273                                  code  fffc9485 17
  FMTKc_274                                  code  fffc9470 17
  FMTKc_275                                  code  fffc913a 17
  FMTKc_277                                  code  fffc913a 17
  FMTKc_278                                  code  fffc9135 17
  FMTKc_279                                  code  fffc9175 17
  FMTKc_28                                   code  fffc7575 17
  FMTKc_280                                  code  fffc91d5 17
  FMTKc_281                                  code  fffc91c0 17
  FMTKc_282                                  code  fffc92aa 17
  FMTKc_283                                  code  fffc9330 17
  FMTKc_284                                  code  fffc949a 17
  FMTKc_285                                  code  fffc94f0 17
  FMTKc_286                                  code  fffc94da 17
  FMTKc_287                                  code  fffc94f5 17
  FMTKc_288                                  code  fffc9930 17
  FMTKc_289                                  code  fffc991a 17
  FMTKc_290                                  code  fffc952a 17
  FMTKc_292                                  code  fffc952a 17
  FMTKc_293                                  code  fffc9525 17
  FMTKc_294                                  code  fffc9900 17
  FMTKc_296                                  code  fffc9c5a 17
  FMTKc_3                                    code  fffc72cd 17
  FMTKc_31                                   code  fffc7575 17
  FMTKc_32                                 rodata  fffce0c0 32
  FMTKc_33                                   data  10018c8 32
  FMTKc_35                                 rodata  fffce158 32
  FMTKc_36                                   code  fffc794a 17
  FMTKc_39                                   code  fffc766a 17
  FMTKc_4                                    code  fffc72f0 17
  FMTKc_40                                   code  fffc7900 17
  FMTKc_41                                   code  fffc78ea 17
  FMTKc_42                                   code  fffc78ca 17
  FMTKc_44                                   code  fffc7775 17
  FMTKc_45                                   code  fffc7795 17
  FMTKc_46                                   code  fffc775a 17
  FMTKc_48                                   code  fffc775a 17
  FMTKc_49                                   code  fffc7755 17
  FMTKc_50                                   code  fffc7795 17
  FMTKc_51                                   code  fffc78ca 17
  FMTKc_52                                   code  fffc787a 17
  FMTKc_54                                   code  fffc787a 17
  FMTKc_56                                   code  fffc7865 17
  FMTKc_57                                   code  fffc78ca 17
  FMTKc_58                                   code  fffc7920 17
  FMTKc_60                                   code  fffc7920 17
  FMTKc_61                                   code  fffc791a 17
  FMTKc_62                                   code  fffc7a00 17
  FMTKc_65                                   code  fffc7a00 17
  FMTKc_66                                   code  fffc7fe0 17
  FMTKc_69                                   code  fffc7a3a 17
  FMTKc_7                                    code  fffc72f0 17
  FMTKc_71                                   code  fffc7a3a 17
  FMTKc_72                                   code  fffc7a35 17
  FMTKc_73                                   code  fffc7a5a 17
  FMTKc_75                                   code  fffc7a5a 17
  FMTKc_76                                   code  fffc7a55 17
  FMTKc_77                                   code  fffc7ec5 17
  FMTKc_78                                   code  fffc7a8a 17
  FMTKc_79                                   code  fffc7a75 17
  FMTKc_8                                    code  fffc7385 17
  FMTKc_81                                   code  fffc7a75 17
  FMTKc_82                                   code  fffc7a70 17
  FMTKc_83                                   code  fffc7dca 17
  FMTKc_84                                   code  fffc7ec5 17
  FMTKc_85                                   code  fffc7aa0 17
  FMTKc_87                                   code  fffc7daa 17
  FMTKc_88                                   code  fffc7dc5 17
  FMTKc_89                                   code  fffc7d6a 17
  FMTKc_90                                   code  fffc7d85 17
  FMTKc_91                                   code  fffc7b60 17
  FMTKc_92                                   code  fffc7cc5 17
  FMTKc_93                                   code  fffc7c25 17
  FMTKc_94                                   code  fffc7cc0 17
  FMTKc_95                                   code  fffc7d2a 17
  FMTKc_97                                   code  fffc7d25 17
  FMTKc_99                                   code  fffc7d25 17
  FMTKmsg_1                                  code  fffca070 17
  FMTKmsg_10                                 code  fffc9d45 17
  FMTKmsg_100                                code  fffca6e5 17
  FMTKmsg_101                                code  fffca6e5 17
  FMTKmsg_102                                code  fffca6f0 17
  FMTKmsg_103                                code  fffca715 17
  FMTKmsg_104                                code  fffca7d5 17
  FMTKmsg_105                                code  fffca7d5 17
  FMTKmsg_106                                code  fffca8a5 17
  FMTKmsg_107                                code  fffca800 17
  FMTKmsg_109                                code  fffca875 17
  FMTKmsg_11                                 code  fffc9e30 17
  FMTKmsg_111                                code  fffca93a 17
  FMTKmsg_113                                code  fffca93a 17
  FMTKmsg_114                                code  fffca93a 17
  FMTKmsg_115                                code  fffcaac0 17
  FMTKmsg_118                                code  fffca9ca 17
  FMTKmsg_12                                 code  fffc9e20 17
  FMTKmsg_120                                code  fffca9b0 17
  FMTKmsg_121                                code  fffcaab5 17
  FMTKmsg_123                                code  fffcaa80 17
  FMTKmsg_125                                code  fffcaa70 17
  FMTKmsg_127                                code  fffcaa70 17
  FMTKmsg_128                                code  fffcaa70 17
  FMTKmsg_129                                code  fffcaab0 17
  FMTKmsg_131                                code  fffcaab0 17
  FMTKmsg_132                                code  fffcaab0 17
  FMTKmsg_133                                code  fffcaeda 17
  FMTKmsg_136                                code  fffcad30 17
  FMTKmsg_138                                code  fffcabf5 17
  FMTKmsg_14                                 code  fffc9eaa 17
  FMTKmsg_140                                code  fffcabaa 17
  FMTKmsg_141                                code  fffcabc0 17
  FMTKmsg_143                                code  fffcabc0 17
  FMTKmsg_144                                code  fffcabc0 17
  FMTKmsg_145                                code  fffcabca 17
  FMTKmsg_146                                code  fffcac35 17
  FMTKmsg_148                                code  fffcac10 17
  FMTKmsg_149                                code  fffcac25 17
  FMTKmsg_151                                code  fffcac25 17
  FMTKmsg_152                                code  fffcac25 17
  FMTKmsg_153                                code  fffcad2a 17
  FMTKmsg_155                                code  fffcad2a 17
  FMTKmsg_156                                code  fffcad2a 17
  FMTKmsg_157                                code  fffcad55 17
  FMTKmsg_159                                code  fffcaed0 17
  FMTKmsg_16                                 code  fffc9e90 17
  FMTKmsg_161                                code  fffcae8a 17
  FMTKmsg_163                                code  fffcaeca 17
  FMTKmsg_165                                code  fffcaeca 17
  FMTKmsg_166                                code  fffcaeca 17
  FMTKmsg_167                                code  fffcb300 17
  FMTKmsg_170                                code  fffcb14a 17
  FMTKmsg_172                                code  fffcb010 17
  FMTKmsg_174                                code  fffcafc5 17
  FMTKmsg_175                                code  fffcafda 17
  FMTKmsg_177                                code  fffcafda 17
  FMTKmsg_178                                code  fffcafda 17
  FMTKmsg_179                                code  fffcafe5 17
  FMTKmsg_18                                 code  fffc9eaa 17
  FMTKmsg_180                                code  fffcb050 17
  FMTKmsg_182                                code  fffcb02a 17
  FMTKmsg_183                                code  fffcb040 17
  FMTKmsg_185                                code  fffcb040 17
  FMTKmsg_186                                code  fffcb040 17
  FMTKmsg_187                                code  fffcb145 17
  FMTKmsg_189                                code  fffcb145 17
  FMTKmsg_19                                 code  fffc9f8a 17
  FMTKmsg_190                                code  fffcb145 17
  FMTKmsg_191                                code  fffcb17a 17
  FMTKmsg_193                                code  fffcb2f5 17
  FMTKmsg_195                                code  fffcb2b0 17
  FMTKmsg_197                                code  fffcb2f0 17
  FMTKmsg_199                                code  fffcb2f0 17
  FMTKmsg_20                                 code  fffc9ed0 17
  FMTKmsg_200                                code  fffcb2f0 17
  FMTKmsg_201                                code  fffcb865 17
  FMTKmsg_204                                code  fffcb470 17
  FMTKmsg_206                                code  fffcb440 17
  FMTKmsg_208                                code  fffcb3ea 17
  FMTKmsg_209                                code  fffcb400 17
  FMTKmsg_21                                 code  fffc9f0a 17
  FMTKmsg_211                                code  fffcb400 17
  FMTKmsg_212                                code  fffcb400 17
  FMTKmsg_213                                code  fffcb40a 17
  FMTKmsg_214                                code  fffcb46a 17
  FMTKmsg_216                                code  fffcb46a 17
  FMTKmsg_217                                code  fffcb46a 17
  FMTKmsg_218                                code  fffcb740 17
  FMTKmsg_22                                 code  fffc9f6a 17
  FMTKmsg_220                                code  fffcb4ea 17
  FMTKmsg_222                                code  fffcb4e5 17
  FMTKmsg_224                                code  fffcb4e5 17
  FMTKmsg_225                                code  fffcb4e5 17
  FMTKmsg_226                                code  fffcb635 17
  FMTKmsg_228                                code  fffcb5ba 17
  FMTKmsg_229                                code  fffcb61a 17
  FMTKmsg_230                                code  fffcb630 17
  FMTKmsg_232                                code  fffcb630 17
  FMTKmsg_233                                code  fffcb630 17
  FMTKmsg_234                                code  fffcb6b5 17
  FMTKmsg_236                                code  fffcb6b5 17
  FMTKmsg_238                                code  fffcb6b0 17
  FMTKmsg_24                                 code  fffc9fe5 17
  FMTKmsg_240                                code  fffcb6b0 17
  FMTKmsg_241                                code  fffcb6b0 17
  FMTKmsg_242                                code  fffcb6e0 17
  FMTKmsg_244                                code  fffcb715 17
  FMTKmsg_246                                code  fffcb725 17
  FMTKmsg_248                                code  fffcb735 17
  FMTKmsg_250                                code  fffcb750 17
  FMTKmsg_252                                code  fffcb760 17
  FMTKmsg_254                                code  fffcb770 17
  FMTKmsg_256                                code  fffcb85a 17
  FMTKmsg_258                                code  fffcb855 17
  FMTKmsg_26                                 code  fffc9faa 17
  FMTKmsg_260                                code  fffcb855 17
  FMTKmsg_261                                code  fffcb855 17
  FMTKmsg_262                                code  fffcb8e0 17
  FMTKmsg_265                                code  fffcb8ca 17
  FMTKmsg_266                                code  fffcbb70 17
  FMTKmsg_269                                code  fffcba30 17
  FMTKmsg_271                                code  fffcb9ea 17
  FMTKmsg_273                                code  fffcb9ba 17
  FMTKmsg_275                                code  fffcb9ba 17
  FMTKmsg_276                                code  fffcb9ba 17
  FMTKmsg_277                                code  fffcb9c5 17
  FMTKmsg_278                                code  fffcba10 17
  FMTKmsg_279                                code  fffcba15 17
  FMTKmsg_28                                 code  fffc9faa 17
  FMTKmsg_280                                code  fffcba2a 17
  FMTKmsg_282                                code  fffcba2a 17
  FMTKmsg_283                                code  fffcba2a 17
  FMTKmsg_284                                code  fffcba40 17
  FMTKmsg_286                                code  fffcba50 17
  FMTKmsg_288                                code  fffcba60 17
  FMTKmsg_29                                 code  fffc9faa 17
  FMTKmsg_290                                code  fffcba70 17
  FMTKmsg_292                                code  fffcbb65 17
  FMTKmsg_294                                code  fffcbb65 17
  FMTKmsg_296                                code  fffcbb60 17
  FMTKmsg_298                                code  fffcbb60 17
  FMTKmsg_299                                code  fffcbb60 17
  FMTKmsg_30                                 code  fffc9fb5 17
  FMTKmsg_31                                 code  fffca015 17
  FMTKmsg_32                                 code  fffca02a 17
  FMTKmsg_33                                 code  fffca060 17
  FMTKmsg_35                                 code  fffca060 17
  FMTKmsg_36                                 code  fffca060 17
  FMTKmsg_38                                 code  fffca19a 17
  FMTKmsg_4                                  code  fffca065 17
  FMTKmsg_41                                 code  fffca175 17
  FMTKmsg_43                                 code  fffca175 17
  FMTKmsg_45                                 code  fffca155 17
  FMTKmsg_47                                 code  fffca17a 17
  FMTKmsg_49                                 code  fffca3f0 17
  FMTKmsg_52                                 code  fffca215 17
  FMTKmsg_54                                 code  fffca1f0 17
  FMTKmsg_55                                 code  fffca1f5 17
  FMTKmsg_56                                 code  fffca335 17
  FMTKmsg_58                                 code  fffca280 17
  FMTKmsg_6                                  code  fffc9fe5 17
  FMTKmsg_60                                 code  fffca265 17
  FMTKmsg_62                                 code  fffca265 17
  FMTKmsg_63                                 code  fffca265 17
  FMTKmsg_64                                 code  fffca310 17
  FMTKmsg_65                                 code  fffca31a 17
  FMTKmsg_66                                 code  fffca330 17
  FMTKmsg_68                                 code  fffca330 17
  FMTKmsg_69                                 code  fffca330 17
  FMTKmsg_7                                  code  fffc9d40 17
  FMTKmsg_70                                 code  fffca385 17
  FMTKmsg_72                                 code  fffca5d5 17
  FMTKmsg_75                                 code  fffca470 17
  FMTKmsg_77                                 code  fffca44a 17
  FMTKmsg_78                                 code  fffca53a 17
  FMTKmsg_8                                  code  fffc9d45 17
  FMTKmsg_80                                 code  fffca4e0 17
  FMTKmsg_82                                 code  fffca4ba 17
  FMTKmsg_83                                 code  fffca4d0 17
  FMTKmsg_85                                 code  fffca4d0 17
  FMTKmsg_86                                 code  fffca4d0 17
  FMTKmsg_87                                 code  fffca535 17
  FMTKmsg_89                                 code  fffca535 17
  FMTKmsg_9                                  code  fffc9e35 17
  FMTKmsg_90                                 code  fffca535 17
  FMTKmsg_91                                 code  fffca94a 17
  FMTKmsg_94                                 code  fffca940 17
  FMTKmsg_96                                 code  fffca715 17
  FMTKmsg_98                                 code  fffca6e5 17
  FloatTest_11                               code  fffc1ba5 17
  FloatTest_13                             rodata  fffce00c 32
  FloatTest_14                             rodata  fffce004 32
  FloatTest_15                             rodata  fffcdffe 32
  FloatTest_16                               code  fffc1d55 17
  FloatTest_19                               code  fffc1d40 17
  FloatTest_2                              rodata  fffce038 32
  FloatTest_21                             rodata  fffcdd20 32
  FloatTest_22                             rodata  fffcdff6 32
  FloatTest_23                             rodata  fffcdd14 32
  FloatTest_24                             rodata  fffcdd08 32
  FloatTest_25                             rodata  fffcdfea 32
  FloatTest_26                             rodata  fffcdfda 32
  FloatTest_27                             rodata  fffcdf80 32
  FloatTest_28                             rodata  fffcdf24 32
  FloatTest_29                               code  fffc1f60 17
  FloatTest_3                              rodata  fffce030 32
  FloatTest_32                               code  fffc1f4a 17
  FloatTest_33                             rodata  fffcdcfc 32
  FloatTest_34                             rodata  fffcdf06 32
  FloatTest_35                             rodata  fffcdef4 32
  FloatTest_36                             rodata  fffcded6 32
  FloatTest_37                             rodata  fffcdec8 32
  FloatTest_38                             rodata  fffcdcf0 32
  FloatTest_39                             rodata  fffcdeb8 32
  FloatTest_4                              rodata  fffce02a 32
  FloatTest_40                             rodata  fffcdce4 32
  FloatTest_41                             rodata  fffcde94 32
  FloatTest_42                             rodata  fffcde72 32
  FloatTest_43                             rodata  fffcde4c 32
  FloatTest_44                             rodata  fffcdcd8 32
  FloatTest_45                             rodata  fffcde46 32
  FloatTest_46                             rodata  fffcde32 32
  FloatTest_47                             rodata  fffcdccc 32
  FloatTest_48                             rodata  fffcde0e 32
  FloatTest_49                             rodata  fffcdcc0 32
  FloatTest_5                              rodata  fffce022 32
  FloatTest_50                             rodata  fffcdde0 32
  FloatTest_51                             rodata  fffcdcb4 32
  FloatTest_52                             rodata  fffcdca8 32
  FloatTest_53                             rodata  fffcddb0 32
  FloatTest_54                             rodata  fffcdc9c 32
  FloatTest_55                             rodata  fffcddaa 32
  FloatTest_56                             rodata  fffcdd90 32
  FloatTest_57                             rodata  fffcdc90 32
  FloatTest_58                             rodata  fffcdd76 32
  FloatTest_59                             rodata  fffcdd5a 32
  FloatTest_6                              rodata  fffce01a 32
  FloatTest_60                             rodata  fffcdc84 32
  FloatTest_61                             rodata  fffcdc78 32
  FloatTest_62                             rodata  fffcdd54 32
  FloatTest_63                             rodata  fffcdc6c 32
  FloatTest_64                             rodata  fffcdc60 32
  FloatTest_65                             rodata  fffcdd2c 32
  FloatTest_66                               code  fffc269a 17
  FloatTest_69                               code  fffc1fa0 17
  FloatTest_7                              rodata  fffce014 32
  FloatTest_70                               code  fffc1fba 17
  FloatTest_71                               code  fffc1fb0 17
  FloatTest_73                               code  fffc1fb0 17
  FloatTest_74                               code  fffc1fb0 17
  FloatTest_75                               code  fffc2380 17
  FloatTest_76                               code  fffc239a 17
  FloatTest_77                               code  fffc2390 17
  FloatTest_79                               code  fffc2390 17
  FloatTest_8                                code  fffc1bba 17
  FloatTest_80                               code  fffc2390 17
  FloatTest_81                               code  fffc239a 17
  FloatTest_82                               code  fffc23b5 17
  FloatTest_83                               code  fffc23aa 17
  FloatTest_85                               code  fffc23aa 17
  FloatTest_86                               code  fffc23aa 17
  FloatTest_87                               code  fffc250a 17
  FloatTest_89                               code  fffc2535 17
  FloatTest_91                               code  fffc266a 17
  FloatTest_93                               code  fffc2685 17
  FloatTest_95                               code  fffc2685 17
  FloatTest_96                               code  fffc2685 17
  FloatTest_97                               code  fffc2685 17
 GetPixel                                   code  800000000000062f -858993460
  IOFocusc_0                                 data  1003370 32
  IOFocusc_1                                 code  fffccb2a 17
  IOFocusc_12                                code  fffccc10 17
  IOFocusc_14                                code  fffccbf5 17
  IOFocusc_16                                code  fffccc0a 17
  IOFocusc_18                                code  fffccc0a 17
  IOFocusc_19                                code  fffccc0a 17
  IOFocusc_20                                code  fffccc10 17
  IOFocusc_21                                code  fffccd45 17
  IOFocusc_24                                code  fffccd20 17
  IOFocusc_26                                code  fffccd05 17
  IOFocusc_28                                code  fffccd05 17
  IOFocusc_30                                code  fffccd05 17
  IOFocusc_32                                code  fffccd1a 17
  IOFocusc_34                                code  fffccd1a 17
  IOFocusc_35                                code  fffccd1a 17
  IOFocusc_36                                code  fffccd20 17
  IOFocusc_37                                code  fffccf85 17
  IOFocusc_40                                code  fffccde5 17
  IOFocusc_42                                code  fffccdc5 17
  IOFocusc_43                                code  fffccdc5 17
  IOFocusc_44                                code  fffccf80 17
  IOFocusc_46                                code  fffccf55 17
  IOFocusc_48                                code  fffcceba 17
  IOFocusc_49                                code  fffccf00 17
  IOFocusc_5                                 code  fffccaa0 17
  IOFocusc_50                                code  fffccf7a 17
  IOFocusc_52                                code  fffccf7a 17
  IOFocusc_53                                code  fffccf7a 17
  IOFocusc_54                                code  fffccff0 17
  IOFocusc_57                                code  fffccfda 17
  IOFocusc_58                                code  fffcd1a5 17
  IOFocusc_6                                 code  fffccaa0 17
  IOFocusc_61                                code  fffcd185 17
  IOFocusc_63                                code  fffcd16a 17
  IOFocusc_65                                code  fffcd11a 17
  IOFocusc_67                                code  fffcd16a 17
  IOFocusc_69                                code  fffcd145 17
  IOFocusc_7                                 code  fffccb15 17
  IOFocusc_70                                code  fffcd155 17
  IOFocusc_71                                code  fffcd180 17
  IOFocusc_73                                code  fffcd180 17
  IOFocusc_74                                code  fffcd180 17
  IOFocusc_75                                code  fffcd185 17
  IOFocusc_76                                code  fffcd2ba 17
  IOFocusc_79                                code  fffcd215 17
  IOFocusc_8                                 code  fffccb15 17
  IOFocusc_80                                code  fffcd255 17
  IOFocusc_81                                code  fffcd240 17
  IOFocusc_82                                code  fffcd295 17
  IOFocusc_83                                code  fffcd390 17
  IOFocusc_86                                code  fffcd32a 17
  IOFocusc_87                                code  fffcd36a 17
  IOFocusc_88                                code  fffcd355 17
  IOFocusc_89                                code  fffcd36a 17
  IOFocusc_9                                 code  fffccc2a 17
* JCB_NormAttr                               code  fffcd4a0 17
  KeyState1                                   bss  c00018 32
  KeyState2                                   bss  c0001c 32
  KeybdBuf                                    bss  c00034 32
  KeybdBufSz                                  bss  c00030 32
  KeybdHead                                   bss  c00028 32
  KeybdLEDs                                   bss  c00020 32
  KeybdTail                                   bss  c0002c 32
  KeybdWaitFlag                               bss  c00024 32
* LEDS                                       code  fffcd670 17
  LEDS.dm1                                   code  fffcd675 17
  LEDS.dm2                                   code  fffcd650 17
  LockSemaphore_3                            code  fffc52ba 17
 MAX_VIDEO_BIOS_CALL                       const  000023 7
  Milliseconds                                bss  c00000 32
  NUMWKA                                      bss  c00842 32
  NormAttr                                    bss  c0024c 32
 OutChar                                    code  800000000000064b -858993460
  PIC_0                                      code  fffc719a 17
  PIC_11                                     code  fffc71fa 17
  PIC_13                                     code  fffc71fa 17
  PIC_14                                     code  fffc71fa 17
  PIC_15                                     code  fffc7250 17
  PIC_16                                     code  fffc7285 17
  PIC_17                                     code  fffc7210 17
  PIC_19                                     code  fffc7210 17
  PIC_20                                     code  fffc7210 17
  PIC_21                                     code  fffc7240 17
  PIC_23                                     code  fffc7240 17
  PIC_24                                     code  fffc7240 17
  PIC_25                                     code  fffc727a 17
  PIC_27                                     code  fffc727a 17
  PIC_28                                     code  fffc727a 17
  PIC_29                                     code  fffc7285 17
  PIC_3                                      code  fffc7180 17
  PIC_5                                      code  fffc716a 17
  PIC_6                                      code  fffc718a 17
  PIC_8                                      code  fffc729a 17
 PIC_ES                                    const  ffdc0fd0 33
 PIC_ESR                                   const  ffdc0fd4 33
 PIC_IE                                    const  ffdc0fc4 33
 PIC_IS                                    const  ffdc0fc0 33
  PN1                                        code  fffcd6e0 17
  PN2                                        code  fffcd6e0 17
  PN3                                        code  fffcd705 17
  PN4                                        code  fffcd73a 17
  PN5                                        code  fffcd75a 17
  PN6                                        code  fffcd700 17
  PNRET                                      code  fffcd785 17
  PRTNUM                                     code  fffcd6a0 17
  RandomizeTextScreen                        code  fffc0a25 17
  RandomizeTextScreen.j1                     code  fffc0a45 17
 SEVENSEG                                  const  ffdc0080 33
 SetBkColor                                 code  800000000000062d -858993460
 SetPixel                                   code  800000000000062e -858993460
  SetupMMU                                   code  fffc0af0 17
  SetupMMU.smmu1                             code  fffc0b20 17
  TCB_10                                     code  fffcbc55 17
  TCB_11                                     code  fffcbd1a 17
  TCB_13                                     code  fffcbe35 17
  TCB_15                                     code  fffcc15a 17
  TCB_18                                     code  fffcbfa5 17
  TCB_20                                     code  fffcbf7a 17
  TCB_21                                     code  fffcbf80 17
  TCB_22                                     code  fffcc030 17
  TCB_24                                     code  fffcc0ba 17
  TCB_26                                     code  fffcc325 17
  TCB_29                                     code  fffcc225 17
  TCB_3                                      code  fffcbb9a 17
  TCB_31                                     code  fffcc1fa 17
  TCB_32                                     code  fffcc24a 17
  TCB_33                                     code  fffcc285 17
  TCB_34                                     code  fffcc2da 17
  TCB_36                                     code  fffcc2f0 17
  TCB_37                                     code  fffcc2f5 17
  TCB_38                                     code  fffcc475 17
  TCB_4                                      code  fffcbec0 17
  TCB_41                                     code  fffcc3e0 17
  TCB_43                                     code  fffcc415 17
  TCB_45                                     code  fffcc455 17
  TCB_46                                     code  fffcc59a 17
  TCB_49                                     code  fffcc56a 17
  TCB_51                                     code  fffcc56a 17
  TCB_53                                     code  fffcc580 17
  TCB_54                                   rodata  fffce258 32
  TCB_55                                   rodata  fffce204 32
  TCB_56                                     code  fffcca0a 17
  TCB_57                                   rodata  fffce1e4 32
  TCB_58                                   rodata  fffce190 32
  TCB_59                                     code  fffcca25 17
  TCB_62                                     code  fffcc5f5 17
  TCB_63                                     code  fffcc840 17
  TCB_64                                     code  fffcc82a 17
  TCB_65                                     code  fffcc82a 17
  TCB_67                                     code  fffcc6b5 17
  TCB_68                                     code  fffcc82a 17
  TCB_69                                     code  fffcc7d5 17
  TCB_7                                      code  fffcbc7a 17
  TCB_71                                     code  fffcc7d0 17
  TCB_72                                     code  fffcc805 17
  TCB_74                                     code  fffcc82a 17
  TCB_75                                     code  fffcc895 17
  TCB_76                                     code  fffcca0a 17
  TCB_77                                     code  fffcca05 17
  TCB_79                                     code  fffcca0a 17
  TCB_9                                      code  fffcbc50 17
 TCB_BIOS_Stack                            const  000280 11
 TEXTCOLS                                  const  ffda0000 33
 TEXTCTRL                                  const  ffda0000 33
 TEXTROWS                                  const  ffda0002 33
 TEXTSCR                                   const  ffd00000 33
  Tc1Init                                    code  fffc0a8a 17
  Tc1Init.j1                                 code  fffc0aa5 17
  Tc1InitTab                                 code  fffc0aca 17
  TestFP                                     code  fffc08e5 17
  TestFP.cs5                                 code  fffc0965 17
  Textcols                                    bss  c00260 32
  Textrows                                    bss  c0025c 32
  Uart_foff                                   bss  c0063c 32
  Uart_fon                                    bss  c0063d 32
  Uart_ms                                     bss  c00632 32
  Uart_pad                                    bss  c00641 32
  Uart_rxdtr                                  bss  c0063a 32
  Uart_rxfifo                                 bss  c00642 32
  Uart_rxflow                                 bss  c00638 32
  Uart_rxhead                                 bss  c00634 32
  Uart_rxrts                                  bss  c00639 32
  Uart_rxtail                                 bss  c00636 32
  Uart_rxxon                                  bss  c0063b 32
  Uart_txdtr                                  bss  c0063f 32
  Uart_txrts                                  bss  c0063e 32
  Uart_txxon                                  bss  c00640 32
  Uart_txxonoff                               bss  c00633 32
  UnlockSemaphore_3                          code  fffc52f0 17
  VBAsciiToScreen                            code  fffcd520 17
  VBDisplayChar                              code  fffcd4fa 17
 VBDisplayString                            code  8000000000000631 -858993460
 VBDisplayString16                          code  8000000000000638 -858993460
  VBGetCurrAttr                              code  fffcd56a 17
  VBGetCursorPos                             code  fffcd4ea 17
  VBScreenToAscii                            code  fffcd7a0 17
  VBScrollUp.0001                            code  fffcd85a 17
 VBScrollUpSTKSIZE_                         code  fffcdd50 17
 VBScrollUpSTKSIZE_                         code  fffcd82a 17
  VBSetCurrAttr                              code  fffcd545 17
  VBSetCursorPos                             code  fffcd4b5 17
  VideoBIOSCall                              code  fffcd3f0 17
 VideoBIOSCall.0003                         code  800000000000063e -858993460
* VideoBIOS_FuncTable                        code  fffcd405 17
  VideoPos                                    bss  c00248 32
  Vidptr                                      bss  c00254 32
  Vidregs                                     bss  c00250 32
  WaitForButton                              code  fffc0975 17
  WaitForButton.j1                           code  fffc0980 17
  WaitForButton.j2                           code  fffc09a0 17
 _AckTimerIRQSTKSIZE_                      const  000000 1
  _AsciiToScreen                           rodata  fffc5725 32
 _AsciiToScreenSTKSIZE_                    const  000000 1
  _BIOS1_sema                                 bss  1230856 32
  _BIOSMain                                  code  fffc0c90 -858993460
 _BIOSMainSTKSIZE_                         const  000032 7
  _BIOS_RespMbx                               bss  1230860 32
  _BTNCIRQHandler                            code  fffc0dd0 -858993460
 _BTNCIRQHandlerSTKSIZE_                   const  00000a 5
  _BlankLine                               rodata  fffc5dd5 32
 _BlankLineSTKSIZE_                        const  000032 7
  _CRLF                                      code  fffc692a -858993460
 _CRLFSTKSIZE_                             const  000000 1
  _CalcScreenLocation                        code  fffc5a8a -858993460
 _CalcScreenLocationSTKSIZE_               const  000014 6
  _CheckMem                                  code  fffc2935 17
 _CheckMemSTKSIZE_                         const  000014 6
 _CheckMsg                                rodata  000000 32
  _ClearBmpScreen                            code  fffc5d65 -858993460
 _ClearBmpScreenSTKSIZE_                   const  000000 1
  _ClearScreen                               code  fffc5b65 -858993460
 _ClearScreenSTKSIZE_                      const  000032 7
  _CopyScreenToVirtualScreen                 code  fffcd2ca -858993460
 _CopyScreenToVirtualScreenSTKSIZE_        const  000028 7
  _CopyVirtualScreenToScreen                 code  fffcd1b5 -858993460
 _CopyVirtualScreenToScreenSTKSIZE_        const  000032 7
  _DBERout                                   code  fffc114a -858993460
 _DBERoutSTKSIZE_                          const  00000a 5
  _DBGAttr                                    bss  00141c 32
  _DBGBlankLine                            rodata  fffc5ee5 32
 _DBGBlankLineSTKSIZE_                     const  000028 7
  _DBGCRLF                                   code  fffc6f75 -858993460
 _DBGCRLFSTKSIZE_                          const  000000 1
  _DBGClearScreen                          rodata  fffc5c85 32
 _DBGClearScreenSTKSIZE_                   const  000014 6
  _DBGCursorCol                               bss  001418 32
  _DBGCursorRow                               bss  001414 32
  _DBGDisplayChar                          rodata  fffc6a95 32
 _DBGDisplayCharSTKSIZE_                   const  00001e 6
  _DBGDisplayString                        rodata  fffc6ff5 32
  _DBGDisplayStringCRLF                    rodata  fffc7075 32
 _DBGDisplayStringCRLFSTKSIZE_             const  000000 1
 _DBGDisplayStringSTKSIZE_                 const  000000 1
  _DBGHideCursor                           rodata  fffc70e0 32
 _DBGHideCursorSTKSIZE_                    const  000000 1
  _DBGHomeCursor                           rodata  fffc5a2a 32
 _DBGHomeCursorSTKSIZE_                    const  000000 1
  _DBGIncrementCursorPos                     code  fffc63b5 -858993460
 _DBGIncrementCursorPosSTKSIZE_            const  000000 1
  _DBGIncrementCursorRow                     code  fffc6265 -858993460
 _DBGIncrementCursorRowSTKSIZE_            const  000000 1
  _DBGScrollUp                               code  fffc60ea -858993460
 _DBGScrollUpSTKSIZE_                      const  00001e 6
  _DBGSetVideoReg                            code  fffc54aa 17
 _DBGSetVideoRegSTKSIZE_                   const  000000 1
  _DBGUpdateCursorPos                        code  fffc5905 -858993460
 _DBGUpdateCursorPosSTKSIZE_               const  00000a 5
  _DequeThreadFromMbx                        code  fffca1aa 17
 _DequeThreadFromMbxSTKSIZE_               const  000000 1
  _DequeueMsg                                code  fffca080 17
 _DequeueMsgSTKSIZE_                       const  00000c 5
  _DisplayByte                               code  fffcd5ca 17
  _DisplayChar                             rodata  fffc644a 32
 _DisplayCharSTKSIZE_                      const  00001e 6
  _DisplayIRQLive                            code  fffc72cd -858993460
 _DisplayIRQLiveSTKSIZE_                   const  000000 1
  _DisplayNybble                             code  fffcd5f5 17
  _DisplayNybble.0001                        code  fffcd61a 17
  _DisplayString                           rodata  fffc69aa 32
  _DisplayStringCRLF                       rodata  fffc6a2a 32
 _DisplayStringCRLFSTKSIZE_                const  000000 1
 _DisplayStringSTKSIZE_                    const  000000 1
  _DisplayTetra                              code  fffcd575 17
  _DisplayWyde                               code  fffcd5a0 17
  _DumpTaskList                            rodata  fffcc5aa 32
 _DumpTaskListSTKSIZE_                     const  00002c 7
  _FMTKInitialize                            code  fffc8f00 -858993460
 _FMTKInitializeSTKSIZE_                   const  000014 6
  _FMTK_AllocMbx                           rodata  fffca400 32
 _FMTK_AllocMbxSTKSIZE_                    const  00000a 5
  _FMTK_CheckMsg                           rodata  fffcb8f0 32
 _FMTK_CheckMsgSTKSIZE_                    const  000014 6
  _FMTK_ExitTask                             code  fffc85e5 -858993460
 _FMTK_ExitTaskSTKSIZE_                    const  000000 1
  _FMTK_FreeMbx                            rodata  fffca5e5 32
 _FMTK_FreeMbxSTKSIZE_                     const  00001e 6
  _FMTK_FuncTbl                              code  fffc72b0 -858993460
 _FMTK_FuncTblSTKSIZE_                     const  000000 1
  _FMTK_IRQDispatch                          code  fffc7395 -858993460
  _FMTK_IRQDispatch2                         code  fffc73a5 -858993460
 _FMTK_IRQDispatch2STKSIZE_                const  000000 1
 _FMTK_IRQDispatchSTKSIZE_                 const  000000 1
  _FMTK_Inited                                bss  c01c96 32
  _FMTK_KillTask                           rodata  fffc8180 32
 _FMTK_KillTaskSTKSIZE_                    const  00001e 6
  _FMTK_PeekMsg                            rodata  fffcb875 32
 _FMTK_PeekMsgSTKSIZE_                     const  000000 1
  _FMTK_PostMsg                            rodata  fffcaeea 32
 _FMTK_PostMsgSTKSIZE_                     const  000028 7
  _FMTK_SchedulerIRQ                         code  fffc7a00 -858993460
  _FMTK_SchedulerIRQ.0002                    code  fffc7a15 17
 _FMTK_SchedulerIRQSTKSIZE_                const  00000a 5
  _FMTK_SendMsg                            rodata  fffcaad0 32
 _FMTK_SendMsgSTKSIZE_                     const  00001e 6
  _FMTK_SetTaskPriority                    rodata  fffc8d75 32
 _FMTK_SetTaskPrioritySTKSIZE_             const  00000a 5
  _FMTK_Sleep                              rodata  fffc8c15 32
 _FMTK_SleepSTKSIZE_                       const  000002 3
  _FMTK_StartTask                          rodata  fffc8670 32
 _FMTK_StartTaskSTKSIZE_                   const  00001e 6
  _FMTK_SystemCall                           code  fffc795a -858993460
  _FMTK_SystemCall.0001                      code  fffc79da 17
  _FMTK_SystemCall.0002                      code  fffc798a 17
  _FMTK_SystemCall.bad_callno                code  fffc79f0 17
 _FMTK_SystemCallSTKSIZE_                  const  000000 1
  _FMTK_WaitMsg                            rodata  fffcb310 32
 _FMTK_WaitMsgSTKSIZE_                     const  000028 7
  _FloatTest                               rodata  fffc1f70 32
 _FloatTestSTKSIZE_                        const  00003c 7
  _FocusSwitcher                           rodata  fffcca40 32
 _FocusSwitcherSTKSIZE_                    const  00001e 6
  _ForceIOFocus                            rodata  fffccb3a 32
 _ForceIOFocusSTKSIZE_                     const  000000 1
  _ForceReleaseIOFocus                     rodata  fffcd000 32
 _ForceReleaseIOFocusSTKSIZE_              const  00001e 6
 _GetBadAddrSTKSIZE_                       const  000000 1
 _GetButtonSTKSIZE_                        const  000000 1
 _GetCauseCodeSTKSIZE_                     const  000000 1
  _GetCurrAttr                               code  fffc5365 -858993460
 _GetCurrAttrSTKSIZE_                      const  000000 1
  _GetCursorPos                              code  fffc55f5 -858993460
 _GetCursorPosSTKSIZE_                     const  00000a 5
 _GetEPCSTKSIZE_                           const  000000 1
  _GetJCBPtr                               rodata  fffc72f0 32
 _GetJCBPtrSTKSIZE_                        const  000000 1
 _GetRunningTCBPtr                        rodata  000000 32
 _GetRunningTCBPtrSTKSIZE_                 const  000000 1
 _GetRunningTCBSTKSIZE_                    const  000000 1
  _GetScreenLocation                         code  fffc5310 -858993460
 _GetScreenLocationSTKSIZE_                const  000000 1
  _GetTextCols                               code  fffc5670 -858993460
 _GetTextColsSTKSIZE_                      const  000000 1
  _GetTextRows                               code  fffc56ca -858993460
 _GetTextRowsSTKSIZE_                      const  000000 1
 _GetTickSTKSIZE_                          const  000000 1
 _GetVecno                                rodata  000000 32
  _HomeCursor                                code  fffc599a -858993460
 _HomeCursorSTKSIZE_                       const  00000a 5
  _IBERout                                   code  fffc1545 -858993460
 _IBERoutSTKSIZE_                          const  00000a 5
  _IOFocusNdx                                 bss  123081a 32
  _IOFocusTbl                                 bss  1230824 32
  _IdleTask                                  code  fffc8060 -858993460
 _IdleTaskSTKSIZE_                         const  000014 6
  _IncrementCursorPos                        code  fffc6310 -858993460
 _IncrementCursorPosSTKSIZE_               const  00000a 5
  _IncrementCursorRow                        code  fffc61c5 -858993460
 _IncrementCursorRowSTKSIZE_               const  00000a 5
  _InitPIC                                   code  fffc71aa -858993460
 _InitPICSTKSIZE_                          const  000000 1
  _InsertIntoReadyList                     rodata  fffcbbb0 32
 _InsertIntoReadyListSTKSIZE_              const  00001e 6
  _InsertIntoTimeoutList                   rodata  fffcc16a 32
 _InsertIntoTimeoutListSTKSIZE_            const  00001e 6
  _IsInf80                                   code  fffc4855 17
 _IsInf80STKSIZE_                          const  000028 7
  _IsNan80                                   code  fffc47b0 17
 _IsNan80STKSIZE_                          const  000028 7
 _KeybdGetBufferedCharNoWait              rodata  000000 32
 _KillTask                                rodata  000000 32
 _LEDS                                    rodata  000000 32
 _LEDSSTKSIZE_                             const  000000 1
  _LockSemaphore                           rodata  fffc5240 32
  _LockSemaphore.0001                        code  fffc5260 17
  _LockSemaphore.0002                        code  fffc52aa 17
  _LockSemaphore.0003                        code  fffc5280 17
  _LockSemaphore.0004                        code  fffc52b5 17
  _LockSemaphore.0005                        code  fffc52ba 17
 _LockSemaphoreSTKSIZE_                    const  000000 1
  _NextRdy                                    bss  c00010 32
  _PopTimeoutList                          rodata  fffcc485 32
 _PopTimeoutListSTKSIZE_                   const  00000c 5
  _PrevRdy                                    bss  c00014 32
  _QueueMsg                                  code  fffc9c80 17
 _QueueMsgSTKSIZE_                         const  00001e 6
 _RTGetButtonSTKSIZE_                      const  000000 1
 _ReadPCHISTSTKSIZE_                       const  000000 1
  _ReleaseIOFocus                            code  fffccf95 -858993460
 _ReleaseIOFocusSTKSIZE_                   const  000000 1
  _RemoveFromReadyList                     rodata  fffcbed0 32
 _RemoveFromReadyListSTKSIZE_              const  00000a 5
  _RemoveFromTimeoutList                   rodata  fffcc335 32
 _RemoveFromTimeoutListSTKSIZE_            const  00000a 5
  _RequestIOFocus                          rodata  fffccd55 32
 _RequestIOFocusSTKSIZE_                   const  00001e 6
  _RestoreContext                          rodata  fffc749a 32
 _RestoreContextSTKSIZE_                   const  000000 1
  _Running                                    bss  c00006 32
  _SaveContext                               code  fffc73c5 -858993460
 _SaveContextSTKSIZE_                      const  000000 1
  _ScreenToAscii                           rodata  fffc57d0 32
 _ScreenToAsciiSTKSIZE_                    const  000000 1
 _ScrollUp                                rodata  000000 32
  _SelectTaskToRun                           code  fffc7580 17
 _SelectTaskToRunSTKSIZE_                  const  000034 7
 _SetBound48                              rodata  000000 32
 _SetBound49                              rodata  000000 32
 _SetBound50                              rodata  000000 32
 _SetBound51                              rodata  000000 32
  _SetCurrAttr                             rodata  fffc53c0 32
 _SetCurrAttrSTKSIZE_                      const  000000 1
  _SetCursorCol                            rodata  fffc557a 32
 _SetCursorColSTKSIZE_                     const  00000a 5
  _SetCursorPos                            rodata  fffc54f5 32
 _SetCursorPosSTKSIZE_                     const  00000a 5
  _SetMbxMsgQueStrategy                    rodata  fffca95a 32
 _SetMbxMsgQueStrategySTKSIZE_             const  00000a 5
  _SetMem                                    code  fffc284a 17
 _SetMemSTKSIZE_                           const  00000a 5
 _SetPCHNDXSTKSIZE_                        const  000000 1
 _SetR1                                   rodata  000000 32
 _SetR1STKSIZE_                            const  000000 1
 _SetRunningTCB                           rodata  000000 32
 _SetRunningTCBSTKSIZE_                    const  000000 1
 _SetSP                                   rodata  000000 32
 _SetSPSTKSIZE_                            const  000000 1
 _SetVBA                                  rodata  000000 32
 _SetVBASTKSIZE_                           const  000000 1
  _SetVideoReg                             rodata  fffc5420 32
 _SetVideoRegSTKSIZE_                      const  000000 1
 _SevenSeg                                rodata  000000 32
 _SevenSegSTKSIZE_                         const  000000 1
  _SwitchIOFocus                             code  fffccc3a -858993460
 _SwitchIOFocusSTKSIZE_                    const  000014 6
  _TestAddsub                              rodata  fffc18e0 32
 _TestAddsubSTKSIZE_                       const  00000e 5
  _TestEval                                  code  fffc1d70 17
 _TestEvalSTKSIZE_                         const  000018 6
  _TestMul                                 rodata  fffc1bca 32
 _TestMulSTKSIZE_                          const  000004 4
  _TimeoutList                                bss  136fc02 32
  _TwoSpaces                                 code  fffc26b0 17
 _TwoSpacesSTKSIZE_                        const  000000 1
  _UnlockSemaphore                         rodata  fffc52d0 32
 _UnlockSemaphoreSTKSIZE_                  const  000000 1
  _UpdateCursorPos                           code  fffc5850 -858993460
 _UpdateCursorPosSTKSIZE_                  const  000014 6
  _VBScrollUp                                code  fffc5fc5 -858993460
 _VBScrollUpSTKSIZE_                       const  000028 7
  _VideoStack                                 bss  136fc14 32
  _bios_stacks                                bss  fde000 32
  _chkTCB                                  rodata  fffcbb80 32
 _chkTCBSTKSIZE_                           const  000000 1
  _dumpaddr                                rodata  fffc2770 32
 _dumpaddrSTKSIZE_                         const  000000 1
  _fmtk_irq_stack                             bss  111e000 32
  _fmtk_sys_stack                             bss  111f400 32
  _freeJCB                                    bss  1230814 -858993460
  _freeMBX                                    bss  1230818 32
  _freeMSG                                    bss  1230816 32
  _freeTCB                                    bss  136fc00 32
 _getCPU                                  rodata  000000 32
 _getCPUSTKSIZE_                           const  000000 1
  _getchar                                   code  fffc3495 -858993460
  _getcharNoWait                           rodata  fffc3445 32
 _getcharNoWaitSTKSIZE_                    const  000000 1
 _getcharSTKSIZE_                          const  00000a 5
 _gfx_demo                                rodata  000000 32
  _hFocusSwitchMbx                           data  100336e 32
  _hasUltraHighPriorityTasks                  bss  123086a 32
 _in16                                    rodata  000000 32
 _in16STKSIZE_                             const  000000 1
 _in16u                                   rodata  000000 32
 _in16uSTKSIZE_                            const  000000 1
 _in32                                    rodata  000000 32
 _in32STKSIZE_                             const  000000 1
 _in32u                                   rodata  000000 32
 _in32uSTKSIZE_                            const  000000 1
 _in8                                     rodata  000000 32
 _in8STKSIZE_                              const  000000 1
 _in8u                                    rodata  000000 32
 _in8uSTKSIZE_                             const  000000 1
  _interrupt_table                            bss  000000 32
  _iof_sema                                   bss  001424 32
  _iof_switch                                 bss  123084c 32
  _irq_stack                                  bss  c0088c 32
  _isalnum                                 rodata  fffc3be0 32
 _isalnumSTKSIZE_                          const  000000 1
  _isalpha                                 rodata  fffc3b80 32
 _isalphaSTKSIZE_                          const  000000 1
  _iscntrl                                 rodata  fffc3ffa 32
 _iscntrlSTKSIZE_                          const  000000 1
  _isdigit                                 rodata  fffc3b35 32
 _isdigitSTKSIZE_                          const  000000 1
  _isgraph                                 rodata  fffc3eda 32
 _isgraphSTKSIZE_                          const  000000 1
  _islower                                 rodata  fffc3dc0 32
 _islowerSTKSIZE_                          const  000000 1
  _isprint                                 rodata  fffc3f70 32
 _isprintSTKSIZE_                          const  000000 1
  _ispunct                                 rodata  fffc3e10 32
 _ispunctSTKSIZE_                          const  000000 1
  _isspace                                 rodata  fffc3c55 32
 _isspaceSTKSIZE_                          const  000000 1
  _isupper                                 rodata  fffc3d70 32
 _isupperSTKSIZE_                          const  000000 1
  _isxdigit                                rodata  fffc3ac0 32
 _isxdigitSTKSIZE_                         const  000000 1
  _jcbs                                       bss  c02000 32
 _kbd_sema                                rodata  000000 32
 _log10q                                  rodata  000000 32
  _mailbox                                    bss  1120800 32
  _memchr                                  rodata  fffc434a 32
 _memchrSTKSIZE_                           const  00000a 5
  _memcpy                                  rodata  fffc4070 32
  _memcpy.again                              code  fffc4085 17
  _memcpy.xit                                code  fffc40a0 17
 _memcpySTKSIZE_                           const  000000 1
  _memcpyW                                 rodata  fffc40aa 32
  _memcpyW.again                             code  fffc40ca 17
  _memcpyW.xit                               code  fffc40ea 17
 _memcpyWSTKSIZE_                          const  000000 1
  _memmove                                 rodata  fffc4175 32
 _memmoveSTKSIZE_                          const  00000a 5
  _memmoveW                                rodata  fffc4280 32
 _memmoveWSTKSIZE_                         const  00000a 5
  _memset                                  rodata  fffc40f5 32
  _memset.again                              code  fffc4105 17
  _memset.xit                                code  fffc4115 17
 _memsetSTKSIZE_                           const  000000 1
  _memsetT                                 rodata  fffc414a 32
  _memsetT.again                             code  fffc415a 17
  _memsetT.xit                               code  fffc416a 17
 _memsetTSTKSIZE_                          const  000000 1
  _memsetW                                 rodata  fffc4120 32
  _memsetW.again                             code  fffc4130 17
  _memsetW.xit                               code  fffc4140 17
 _memsetWSTKSIZE_                          const  000000 1
  _message                                    bss  1130800 32
  _missed_ticks                               bss  123086c 32
  _nMailbox                                   bss  123080a 32
  _nMsgBlk                                    bss  1230800 32
 _out16                                   rodata  000000 32
 _out16STKSIZE_                            const  000000 1
 _out32                                   rodata  000000 32
 _out32STKSIZE_                            const  000000 1
 _out8                                    rodata  000000 32
 _out8STKSIZE_                             const  000000 1
  _out_fh                                     bss  c00882 -858993460
 _outb                                    rodata  000000 32
 _outc                                    rodata  000000 32
 _outh                                    rodata  000000 32
 _outw                                    rodata  000000 32
  _panic                                   rodata  fffc7ff0 32
 _panicSTKSIZE_                            const  000000 1
  _printf                                  rodata  fffc3510 32
 _printfSTKSIZE_                           const  000046 8
 _prtdbl                                  rodata  000000 32
  _prtflt                                  rodata  fffc5135 32
 _prtfltSTKSIZE_                           const  0001fe 10
  _putch                                   rodata  fffc2c40 32
 _putchSTKSIZE_                            const  000000 1
  _puthex                                  rodata  fffc2730 32
 _puthexSTKSIZE_                           const  000000 1
  _puthexnum                               rodata  fffc2fea 32
 _puthexnumSTKSIZE_                        const  0000de 9
  _putnum                                  rodata  fffc2d10 32
 _putnumSTKSIZE_                           const  000016 6
  _putstr                                  rodata  fffc32ba 32
  _putstr2                                 rodata  fffc33fa 32
 _putstr2STKSIZE_                          const  000000 1
 _putstrSTKSIZE_                           const  00000a 5
  _putstrW                                 rodata  fffc335a 32
 _putstrWSTKSIZE_                          const  00000a 5
  _ramtest                                 rodata  fffc2aca 32
 _ramtestSTKSIZE_                          const  00000a 5
  _readyQ                                     bss  136fc04 32
  _set_vector                              rodata  fffc7140 32
 _set_vectorSTKSIZE_                       const  000000 1
 _shell                                   rodata  000000 32
  _sp_tmp                                     bss  c01c8c -858993460
  _sprtflt                                 rodata  fffc4900 32
 _sprtfltSTKSIZE_                          const  000072 8
  _stacks                                     bss  c1e000 32
  _strchr                                  rodata  fffc471a 32
 _strchrSTKSIZE_                           const  00000a 5
  _strcpy                                  rodata  fffc4410 32
  _strcpy2                                   code  fffc0c5a 17
  _strcpy2.j1                                code  fffc0c65 17
 _strcpySTKSIZE_                           const  00000a 5
  _strlen                                  rodata  fffc43d5 32
  _strlen.j1                                 code  fffc43ea 17
  _strlen.xit                                code  fffc43fa 17
  _strlen.xit2                               code  fffc440a 17
  _strlen2                                   code  fffc0c30 17
  _strlen2.j1                                code  fffc0c3a 17
  _strlen2.xit                               code  fffc0c4a 17
 _strlenSTKSIZE_                           const  000000 1
  _strncmp                                 rodata  fffc4620 32
 _strncmpSTKSIZE_                          const  000014 6
  _strncpy                                 rodata  fffc4500 32
 _strncpySTKSIZE_                          const  00000a 5
  _sys_sema                                   bss  001420 32
  _sys_stacks                                 bss  e9e000 32
  _sysstack                                   bss  c1b800 32
  _tcbs                                       bss  132fc00 32
  _tolower                                 rodata  fffc3cda 32
 _tolowerSTKSIZE_                          const  000000 1
  _toupper                                 rodata  fffc3d25 32
 _toupperSTKSIZE_                          const  000000 1
  _video_bufs                                 bss  1230876 32
  b48                                        code  fffcbb9a 17
  begin_init_data                          rodata  fffce2b0 32
  citable                                    code  fffcdb20 17
  clearTxtScreen                             code  fffc09da 17
  clearTxtScreen.cts1                        code  fffc0a0a 17
  cold_start                                 code  fffc0140 17
  cold_start.cs1                             code  fffc01c0 17
  cold_start.cs3                             code  fffc0220 17
  cold_start.cs4                             code  fffc024a 17
  cold_start.cs5                             code  fffc0430 17
  console_0                                  code  fffc5355 17
  console_100                                code  fffc5ed5 17
  console_103                                code  fffc5eba 17
  console_104                                code  fffc5fb5 17
  console_107                                code  fffc5fa0 17
  console_108                                code  fffc60da 17
  console_11                                 code  fffc53fa 17
  console_111                                code  fffc6035 17
  console_112                                code  fffc6085 17
  console_113                                code  fffc6070 17
  console_114                                code  fffc60ba 17
  console_115                                code  fffc61b5 17
  console_118                                code  fffc6135 17
  console_119                                code  fffc6180 17
  console_120                                code  fffc616a 17
  console_121                                code  fffc619a 17
  console_122                                code  fffc6255 17
  console_125                                code  fffc623a 17
  console_127                                code  fffc6220 17
  console_128                                code  fffc6300 17
  console_13                               rodata  fffce090 32
  console_131                                code  fffc62d5 17
  console_133                                code  fffc62ba 17
  console_134                                code  fffc63a5 17
  console_137                                code  fffc6385 17
  console_139                                code  fffc636a 17
  console_14                                 code  fffc549a 17
  console_140                                code  fffc643a 17
  console_143                                code  fffc6425 17
  console_145                                code  fffc640a 17
  console_146                                code  fffc691a 17
  console_149                                code  fffc68fa 17
  console_150                                code  fffc64ea 17
  console_151                                code  fffc650a 17
  console_152                                code  fffc651a 17
  console_153                                code  fffc6545 17
  console_154                                code  fffc6565 17
  console_155                                code  fffc6585 17
  console_156                                code  fffc65b0 17
  console_157                                code  fffc65ea 17
  console_158                                code  fffc66f5 17
  console_159                                code  fffc6810 17
  console_160                                code  fffc682a 17
  console_161                                code  fffc689a 17
  console_162                                code  fffc6540 17
  console_164                                code  fffc6560 17
  console_166                                code  fffc6580 17
  console_168                                code  fffc65aa 17
  console_17                                 code  fffc5485 17
  console_170                                code  fffc65ca 17
  console_172                                code  fffc6605 17
  console_173                                code  fffc6675 17
  console_174                                code  fffc6660 17
  console_175                                code  fffc680a 17
  console_177                                code  fffc6720 17
  console_178                                code  fffc6790 17
  console_179                                code  fffc677a 17
  console_180                                code  fffc68fa 17
  console_181                                code  fffc699a 17
  console_184                                code  fffc6985 17
  console_185                                code  fffc6a1a 17
  console_188                                code  fffc69d0 17
  console_189                                code  fffc6a05 17
  console_19                                 code  fffc5450 17
  console_190                                code  fffc6a05 17
  console_191                                code  fffc6a85 17
  console_194                                code  fffc6a70 17
  console_195                                code  fffc6f65 17
  console_198                                code  fffc6f3a 17
  console_199                                code  fffc6b40 17
  console_20                                 code  fffc5470 17
  console_200                                code  fffc6b55 17
  console_201                                code  fffc6b65 17
  console_202                                code  fffc6b90 17
  console_203                                code  fffc6bba 17
  console_204                                code  fffc6be5 17
  console_205                                code  fffc6c10 17
  console_206                                code  fffc6c35 17
  console_207                                code  fffc6d10 17
  console_208                                code  fffc6e05 17
  console_209                                code  fffc6e20 17
  console_210                                code  fffc6e90 17
  console_211                                code  fffc6b8a 17
  console_213                                code  fffc6bb5 17
  console_215                                code  fffc6be0 17
  console_217                                code  fffc6c0a 17
  console_219                                code  fffc6c20 17
  console_221                                code  fffc6c50 17
  console_222                                code  fffc6caa 17
  console_223                                code  fffc6c95 17
  console_224                                code  fffc6e00 17
  console_226                                code  fffc6d45 17
  console_227                                code  fffc6da0 17
  console_228                                code  fffc6d8a 17
  console_229                                code  fffc6f3a 17
  console_230                                code  fffc6fe5 17
  console_233                                code  fffc6fd0 17
  console_234                                code  fffc7065 17
  console_237                                code  fffc701a 17
  console_238                                code  fffc7050 17
  console_239                                code  fffc7050 17
  console_240                                code  fffc70d0 17
  console_243                                code  fffc70ba 17
  console_247                                code  fffc711a 17
  console_248                                code  fffc712a 17
  console_249                                code  fffc712a 17
  console_25                                 code  fffc54e0 17
  console_26                                 code  fffc556a 17
  console_29                                 code  fffc5550 17
  console_3                                  code  fffc5340 17
  console_30                                 code  fffc55e5 17
  console_33                                 code  fffc55ca 17
  console_34                                 code  fffc5660 17
  console_37                                 code  fffc5645 17
  console_38                                 code  fffc56ba 17
  console_4                                  code  fffc53b0 17
  console_41                                 code  fffc56a5 17
  console_42                                 code  fffc5715 17
  console_45                                 code  fffc5700 17
  console_46                                 code  fffc57c0 17
  console_49                                 code  fffc576a 17
  console_51                                 code  fffc5755 17
  console_52                                 code  fffc577a 17
  console_54                                 code  fffc579a 17
  console_56                                 code  fffc57b0 17
  console_58                                 code  fffc5840 17
  console_61                                 code  fffc581a 17
  console_63                                 code  fffc5805 17
  console_64                                 code  fffc582a 17
  console_66                                 code  fffc5835 17
  console_68                                 code  fffc58f5 17
  console_7                                  code  fffc539a 17
  console_71                                 code  fffc58da 17
  console_72                                 code  fffc598a 17
  console_75                                 code  fffc5975 17
  console_76                                 code  fffc5a1a 17
  console_79                                 code  fffc5a00 17
  console_8                                  code  fffc5410 17
  console_80                                 code  fffc5a7a 17
  console_83                                 code  fffc5a65 17
  console_84                                 code  fffc5b55 17
  console_87                                 code  fffc5b3a 17
  console_88                                 code  fffc5c75 17
  console_91                                 code  fffc5c5a 17
  console_92                                 code  fffc5d55 17
  console_95                                 code  fffc5d40 17
  console_96                                 code  fffc5dc5 17
  console_99                                 code  fffc5db0 17
  copy_preinit_data                          code  fffc0450 17
  copy_preinit_data.j1                       code  fffc046a 17
  creg_save                                   bss  c004e8 32
  ctype_100                                  code  fffc4055 17
  ctype_101                                  code  fffc4040 17
  ctype_13                                   code  fffc3b75 17
  ctype_15                                   code  fffc3b60 17
  ctype_19                                   code  fffc3bc0 17
  ctype_21                                   code  fffc3baa 17
  ctype_22                                   code  fffc3bd5 17
  ctype_27                                   code  fffc3c20 17
  ctype_29                                   code  fffc3c0a 17
  ctype_3                                    code  fffc3b00 17
  ctype_30                                   code  fffc3c35 17
  ctype_32                                   code  fffc3c4a 17
  ctype_37                                   code  fffc3c90 17
  ctype_39                                   code  fffc3c7a 17
  ctype_40                                   code  fffc3ca0 17
  ctype_42                                   code  fffc3cb0 17
  ctype_44                                   code  fffc3cc0 17
  ctype_46                                   code  fffc3cd0 17
  ctype_5                                    code  fffc3aea 17
  ctype_51                                   code  fffc3d0a 17
  ctype_53                                   code  fffc3d10 17
  ctype_57                                   code  fffc3d55 17
  ctype_59                                   code  fffc3d5a 17
  ctype_6                                    code  fffc3b15 17
  ctype_63                                   code  fffc3da0 17
  ctype_64                                   code  fffc3da5 17
  ctype_65                                   code  fffc3daa 17
  ctype_69                                   code  fffc3df0 17
  ctype_70                                   code  fffc3df5 17
  ctype_71                                   code  fffc3dfa 17
  ctype_75                                   code  fffc3ed5 17
  ctype_76                                   code  fffc3eb0 17
  ctype_77                                   code  fffc3eca 17
  ctype_78                                   code  fffc3eb5 17
  ctype_79                                   code  fffc3f60 17
  ctype_8                                    code  fffc3b2a 17
  ctype_82                                   code  fffc3f40 17
  ctype_83                                   code  fffc3f45 17
  ctype_84                                   code  fffc3f35 17
  ctype_85                                   code  fffc3f4a 17
  ctype_86                                   code  fffc3fea 17
  ctype_89                                   code  fffc3fca 17
  ctype_90                                   code  fffc3fd0 17
  ctype_91                                   code  fffc3fc0 17
  ctype_94                                   code  fffc3fd5 17
  ctype_98                                   code  fffc4060 17
  ctype_99                                   code  fffc403a 17
  end_init_data                            rodata  fffce2b8 32
 fp3                                        code  8000000000000268 -858993460
  gen_rand                                   code  fffc0b55 17
  hl_irq_routine                             code  fffc0730 17
  init_irqtable                              code  fffc04aa 17
  init_irqtable.j1                           code  fffc04d0 17
  init_lifegame                              code  fffcda70 17
  init_lifegame.life1                        code  fffcda85 17
  init_lifegame.life2                        code  fffcda95 17
  init_lifegame.life3                        code  fffcdab5 17
  init_lifegame.life4                        code  fffcdae0 17
 interrupt_table                            code  80000000000003c8 -858993460
  ipop                                       code  fffc754a 17
  ipush                                      code  fffc73fa 17
  irq30Hz                                    code  fffc0750 17
  irq30Hz.j1                                 code  fffc076a 17
  irq_routine                                code  fffc0730 17
  irq_routine.j1                             code  fffc074a 17
  log10q_0                                   data  10001a0 32
* lwu                                        code  fffcd650 17
  m_w                                         bss  001400 32
  m_z                                         bss  00140a 32
  ml_irq_routine                             code  fffc0730 17
  msgHello                                   code  fffcda55 17
  msgUninitIRQ                               code  fffc06f0 17
  negzero                                    code  fffc0bfa 17
 nmi_rout                                   code  800000000000000f -858993460
  pi                                         code  fffc0c14 17
  pi_val                                     code  fffc0438 17
  preg_save                                   bss  c00628 32
  prtflt_101                                 code  fffc50d5 17
  prtflt_102                                 code  fffc510a 17
  prtflt_103                                 code  fffc5230 17
  prtflt_106                                 code  fffc5165 17
  prtflt_108                                 code  fffc5170 17
  prtflt_110                                 code  fffc521a 17
  prtflt_13                                  code  fffc48ca 17
  prtflt_15                                  code  fffc48aa 17
  prtflt_16                                  code  fffc48b0 17
  prtflt_17                                  code  fffc48f0 17
  prtflt_19                                  code  fffc501a 17
  prtflt_20                                rodata  fffce084 32
  prtflt_21                                rodata  fffce078 32
  prtflt_22                                rodata  fffce06c 32
  prtflt_23                                rodata  fffce060 32
  prtflt_24                                  code  fffc4b30 17
  prtflt_25                                  code  fffc5125 17
  prtflt_28                                  code  fffc4945 17
  prtflt_30                                  code  fffc4930 17
  prtflt_31                                  code  fffc4930 17
  prtflt_32                                  code  fffc4995 17
  prtflt_34                                  code  fffc4a00 17
  prtflt_36                                  code  fffc49c5 17
  prtflt_37                                  code  fffc49d0 17
  prtflt_38                                  code  fffc4a25 17
  prtflt_4                                   code  fffc4825 17
  prtflt_40                                  code  fffc4a65 17
  prtflt_42                                  code  fffc4a90 17
  prtflt_44                                  code  fffc4a70 17
  prtflt_45                                  code  fffc4a90 17
  prtflt_46                                  code  fffc4ada 17
  prtflt_48                                  code  fffc4a9a 17
  prtflt_49                                  code  fffc4aca 17
  prtflt_50                                  code  fffc4b0a 17
  prtflt_51                                  code  fffc4b30 17
  prtflt_52                                  code  fffc4b25 17
  prtflt_53                                  code  fffc4b30 17
  prtflt_54                                  code  fffc4b85 17
  prtflt_56                                  code  fffc4b8a 17
  prtflt_57                                  code  fffc4ca0 17
  prtflt_58                                  code  fffc4c8a 17
  prtflt_59                                  code  fffc4ba5 17
  prtflt_6                                   code  fffc480a 17
  prtflt_60                                  code  fffc4bd0 17
  prtflt_61                                  code  fffc4c20 17
  prtflt_63                                  code  fffc4c75 17
  prtflt_64                                  code  fffc4c85 17
  prtflt_65                                  code  fffc4c85 17
  prtflt_67                                  code  fffc4ca0 17
  prtflt_68                                  code  fffc4cd0 17
  prtflt_69                                  code  fffc4d45 17
  prtflt_7                                   code  fffc484a 17
  prtflt_71                                  code  fffc4d65 17
  prtflt_73                                  code  fffc4dca 17
  prtflt_74                                  code  fffc4df0 17
  prtflt_75                                  code  fffc4df5 17
  prtflt_76                                  code  fffc4e2a 17
  prtflt_77                                  code  fffc4e75 17
  prtflt_79                                  code  fffc4e7a 17
  prtflt_80                                  code  fffc4eaa 17
  prtflt_81                                  code  fffc4ed0 17
  prtflt_82                                  code  fffc4f05 17
  prtflt_83                                  code  fffc4f0a 17
  prtflt_84                                  code  fffc4f3a 17
  prtflt_85                                  code  fffc4f6a 17
  prtflt_86                                  code  fffc4fa0 17
  prtflt_87                                  code  fffc4fa5 17
  prtflt_88                                  code  fffc4fd5 17
  prtflt_89                                  code  fffc50c5 17
  prtflt_91                                  code  fffc50c5 17
  prtflt_93                                  code  fffc5035 17
  prtflt_94                                  code  fffc5090 17
  prtflt_95                                  code  fffc507a 17
  prtflt_96                                  code  fffc5090 17
  prtflt_97                                  code  fffc50c5 17
  prtflt_98                                  code  fffc50b0 17
  prtflt_99                                  code  fffc511a 17
* r1                                         code  fffcd860 17
  r11                                        code  fffcd405 17
* r18                                        code  fffcbb9a 17
* r2                                         code  fffcd6f0 17
 r2.dm1                                     code  8000000000000654 -858993460
* r3                                         code  fffcd860 17
 r3.0001                                    code  8000000000000666 -858993460
* r5                                         code  fffcd860 17
  r6                                         code  fffcd405 17
  r6.0001                                    code  fffcd410 17
  r6.0003                                    code  fffcd435 17
 r6.0005                                    code  8000000000000643 -858993460
  r7                                         code  fffcd6f0 17
  r8                                         code  fffc4c15 17
  ramtest_10                                 code  fffc283a 17
  ramtest_13                                 code  fffc2825 17
  ramtest_15                                 code  fffc2925 17
  ramtest_18                                 code  fffc2880 17
  ramtest_19                                 code  fffc2920 17
  ramtest_2                                  code  fffc2720 17
  ramtest_20                                 code  fffc2915 17
  ramtest_21                                 code  fffc290a 17
  ramtest_23                                 code  fffc290a 17
  ramtest_25                                 code  fffc28ea 17
  ramtest_27                                 code  fffc28ea 17
  ramtest_28                                 code  fffc28ea 17
  ramtest_29                                 code  fffc28f0 17
  ramtest_31                                 code  fffc2aba 17
  ramtest_34                                 code  fffc2970 17
  ramtest_35                                 code  fffc2a80 17
  ramtest_36                                 code  fffc2a75 17
  ramtest_37                                 code  fffc29fa 17
  ramtest_39                                 code  fffc29fa 17
  ramtest_41                                 code  fffc29da 17
  ramtest_43                                 code  fffc29da 17
  ramtest_44                                 code  fffc29da 17
  ramtest_45                                 code  fffc29e0 17
  ramtest_46                                 code  fffc2a30 17
  ramtest_48                                 code  fffc2a65 17
  ramtest_5                                  code  fffc270a 17
  ramtest_50                                 code  fffc2a75 17
  ramtest_52                               rodata  fffce040 32
  ramtest_53                                 code  fffc2c30 17
  ramtest_56                                 code  fffc2c1a 17
  ramtest_9                                  code  fffc275a 17
  rand                                       code  fffc0bc5 17
  reg_save                                    bss  c00268 32
 rxfull                                    const  000001 2
  sf1                                        code  fffc7575 17
  sl_irq_routine                             code  fffc0730 17
  sreg_save                                   bss  c00588 32
  stdio_0                                    code  fffc2cf5 17
  stdio_101                                  code  fffc3470 17
  stdio_102                                  code  fffc34f5 17
  stdio_105                                  code  fffc34ba 17
  stdio_106                                  code  fffc34d5 17
  stdio_107                                  code  fffc34e0 17
  stdio_108                                  code  fffc35ba 17
  stdio_109                                  code  fffc3ab0 17
  stdio_11                                   code  fffc2cda 17
  stdio_112                                  code  fffc3560 17
  stdio_113                                  code  fffc3a8a 17
  stdio_114                                  code  fffc3a75 17
  stdio_115                                  code  fffc3a50 17
  stdio_116                                  code  fffc3a75 17
  stdio_117                                  code  fffc3a4a 17
  stdio_118                                  code  fffc3630 17
  stdio_119                                  code  fffc3650 17
  stdio_12                                   code  fffc2cda 17
  stdio_120                                  code  fffc367a 17
  stdio_121                                  code  fffc36f0 17
  stdio_122                                  code  fffc379a 17
  stdio_123                                  code  fffc3810 17
  stdio_124                                  code  fffc3885 17
  stdio_125                                  code  fffc38ba 17
  stdio_126                                  code  fffc38d5 17
  stdio_127                                  code  fffc397a 17
  stdio_128                                  code  fffc38fa 17
  stdio_129                                  code  fffc3965 17
  stdio_13                                   code  fffc2ce0 17
  stdio_130                                  code  fffc397a 17
  stdio_132                                  code  fffc39b5 17
  stdio_134                                  code  fffc39da 17
  stdio_135                                  code  fffc3a45 17
  stdio_136                                  code  fffc3a8a 17
  stdio_14                                   data  100000e 32
  stdio_15                                   code  fffc2fda 17
  stdio_18                                   code  fffc2d60 17
  stdio_20                                   code  fffc2d60 17
  stdio_21                                   code  fffc2d60 17
  stdio_22                                   code  fffc2d7a 17
  stdio_24                                   code  fffc2d75 17
  stdio_25                                   code  fffc2d9a 17
  stdio_26                                   code  fffc2da5 17
  stdio_27                                   code  fffc2dba 17
  stdio_29                                   code  fffc2dc0 17
  stdio_3                                    code  fffc2c85 17
  stdio_30                                   code  fffc2e75 17
  stdio_31                                   code  fffc2e0a 17
  stdio_33                                   code  fffc2e75 17
  stdio_34                                   code  fffc2ed5 17
  stdio_36                                   code  fffc2ef0 17
  stdio_38                                   code  fffc2ef0 17
  stdio_39                                   code  fffc2ef0 17
  stdio_4                                    code  fffc2ce0 17
  stdio_40                                   code  fffc2ef5 17
  stdio_41                                   code  fffc2f25 17
  stdio_42                                   code  fffc2f1a 17
  stdio_43                                   code  fffc2f40 17
  stdio_45                                   code  fffc2f40 17
  stdio_46                                   code  fffc2f40 17
  stdio_47                                   code  fffc2f45 17
  stdio_48                                   code  fffc2fa0 17
  stdio_49                                   code  fffc2fba 17
  stdio_5                                    code  fffc2ca0 17
  stdio_51                                   code  fffc2fba 17
  stdio_52                                   code  fffc2fba 17
  stdio_53                                   code  fffc2fc0 17
  stdio_54                                   code  fffc32aa 17
  stdio_57                                   code  fffc3030 17
  stdio_59                                   code  fffc302a 17
  stdio_60                                   code  fffc3055 17
  stdio_61                                   code  fffc3060 17
  stdio_62                                   code  fffc3075 17
  stdio_64                                   code  fffc3075 17
  stdio_65                                   code  fffc3170 17
  stdio_66                                   code  fffc30c5 17
  stdio_67                                   code  fffc3145 17
  stdio_68                                   code  fffc310a 17
  stdio_69                                   code  fffc3145 17
  stdio_7                                    code  fffc2ca0 17
  stdio_70                                   code  fffc3170 17
  stdio_71                                   code  fffc31d0 17
  stdio_73                                   code  fffc31d0 17
  stdio_74                                   code  fffc3230 17
  stdio_75                                   code  fffc3205 17
  stdio_76                                   code  fffc3210 17
  stdio_77                                   code  fffc3230 17
  stdio_78                                   code  fffc3290 17
  stdio_79                                   code  fffc3290 17
  stdio_8                                    code  fffc2ca0 17
  stdio_80                                   code  fffc334a 17
  stdio_83                                   code  fffc32e5 17
  stdio_84                                   code  fffc3325 17
  stdio_85                                   code  fffc3315 17
  stdio_86                                   code  fffc3335 17
  stdio_87                                   code  fffc33ea 17
  stdio_9                                    code  fffc2cda 17
  stdio_90                                   code  fffc3385 17
  stdio_91                                   code  fffc33c5 17
  stdio_92                                   code  fffc33b5 17
  stdio_93                                   code  fffc33d5 17
  stdio_97                                   code  fffc3430 17
  stdio_98                                   code  fffc3485 17
  string_20                                  code  fffc4270 17
  string_23                                  code  fffc420a 17
  string_24                                  code  fffc4255 17
  string_25                                  code  fffc41a5 17
  string_26                                  code  fffc4205 17
  string_27                                  code  fffc41f0 17
  string_28                                  code  fffc4210 17
  string_29                                  code  fffc4255 17
  string_30                                  code  fffc424a 17
  string_31                                  code  fffc425a 17
  string_32                                  code  fffc433a 17
  string_35                                  code  fffc42f5 17
  string_36                                  code  fffc4320 17
  string_37                                  code  fffc42b0 17
  string_38                                  code  fffc42f0 17
  string_39                                  code  fffc42da 17
  string_40                                  code  fffc42fa 17
  string_41                                  code  fffc4320 17
  string_42                                  code  fffc4315 17
  string_43                                  code  fffc4325 17
  string_44                                  code  fffc43c5 17
  string_47                                  code  fffc437a 17
  string_48                                  code  fffc43ba 17
  string_49                                  code  fffc43aa 17
  string_50                                  code  fffc43aa 17
  string_52                                  code  fffc4390 17
  string_57                                  code  fffc44f0 17
  string_60                                  code  fffc443a 17
  string_61                                  code  fffc44b5 17
  string_62                                  code  fffc44a0 17
  string_63                                  code  fffc44da 17
  string_64                                  code  fffc4610 17
  string_67                                  code  fffc452a 17
  string_68                                  code  fffc45b5 17
  string_69                                  code  fffc45a0 17
  string_70                                  code  fffc45a0 17
  string_72                                  code  fffc45b5 17
  string_73                                  code  fffc45f5 17
  string_74                                  code  fffc45e0 17
  string_75                                  code  fffc45fa 17
  string_76                                  code  fffc470a 17
  string_79                                  code  fffc4685 17
  string_81                                  code  fffc4665 17
  string_82                                  code  fffc4685 17
  string_83                                  code  fffc4700 17
  string_84                                  code  fffc46ea 17
  string_85                                  code  fffc46ca 17
  string_86                                  code  fffc46ea 17
  string_87                                  code  fffc46b5 17
  string_88                                  code  fffc46c0 17
  string_89                                  code  fffc46ea 17
  string_91                                  code  fffc4795 17
  string_94                                  code  fffc474a 17
  string_95                                  code  fffc478a 17
  string_96                                  code  fffc477a 17
  string_97                                  code  fffc477a 17
  string_99                                  code  fffc4760 17
  ten                                        code  fffc0c04 17
  ul_irq_routine                             code  fffc0730 17
  uninit_interrupt                           code  fffc0580 17
  vba                                         bss  000000 32
  zero                                       code  fffc0bf0 17
0 compressable instructions
The top 1024 are:
Comp  Opcode  Count

number of bytes: 51900
number of instructions: 10380
5.000000 bytes (40 bits) per instruction
