                        	; N4V128Sys bootrom - (C) 2017-2018 Robert Finch, Waterloo
                        	;
                        	; This file is part of N4V128Sys
                        	;
                        	; how to build:
                        	; 1. assemble using "AS64 +gFn .\boottc\boottc.asm"
                        	; 2. copy boot.ve0 to the correct directory if not already there
                        	;
                        	;------------------------------------------------------------------------------
                        	;
                        	; system memory map
                        	;
                        	;
                        	; 00000000 +----------------+
                        	;          |                |
                        	;          |                |
                        	;          |                |
                        	;          |                |
                        	;          :  dram memory   : 512 MB
                        	;          |                |
                        	;          |                |
                        	;          |                |
                        	;          |                |
                        	; 20000000 +----------------+
                        	;          |                |
                        	;          :     unused     :
                        	;          |                |
                        	; FF400000 +----------------+
                        	;          |   scratchpad   | 32 kB
                        	; FF408000 +----------------+
                        	;          |     unused     |
                        	; FFD00000 +----------------+
                        	;          |                |
                        	;          :    I/O area    : 1.0 M
                        	;          |                |
                        	; FFE00000 +----------------+
                        	;          |                |
                        	;          :     unused     :
                        	;          |                |
                        	; FFFC0000 +----------------+
                        	;          |                |
                        	;          :    boot rom    :
                        	;          |                |
                        	; FFFFFFFF +----------------+
                        	;
                        	;
                        	;
                        	E_BadCallno	equ		-4
                        	
                        	LEDS		equ		$FFDC0600
                        	BUTTONS		equ		$FFDC0600
                        	SCRATCHPAD	equ		$FF400000
                        	AVIC		equ		$FFDCC000
                        	TC1			equ		$FFD0DF00
                        	
                        	WHITE		equ		$7FFF
                        	MEDBLUE		equ		$000F
                        	fgcolor		equ		SCRATCHPAD
                        	bkcolor		equ		fgcolor + 4
                        	_randStream	equ		SCRATCHPAD + 16
                        	_DBGCursorCol	equ	_randStream + 8
                        	_DBGCursorRow	equ	_DBGCursorCol + 4
                        	_DBGAttr	equ		_DBGCursorRow + 4
                        	_milliseconds	equ		_DBGAttr + 4
                        	___garbage_list	equ	SCRATCHPAD + 48
                        	__brk_stack	equ	SCRATCHPAD + 2048
                        	
                        	; Help the assembler out by telling it how many bits are required for code
                        	; addresses
                        			code	18 bits
                        			org		$FFFC0000		; start of ROM memory space
FFFC0000 FFC14FE8 			jmp		__BrkHandler	; jump to the exception handler
FFFC0004 00000000 			org		$FFFC0100		; The PC is set here on reset
FFFC0008 00000000 
FFFC000C 00000000 
FFFC0010 00000000 
FFFC0014 00000000 
FFFC0018 00000000 
FFFC001C 00000000 
FFFC0020 00000000 
FFFC0024 00000000 
FFFC0028 00000000 
FFFC002C 00000000 
FFFC0030 00000000 
FFFC0034 00000000 
FFFC0038 00000000 
FFFC003C 00000000 
FFFC0040 00000000 
FFFC0044 00000000 
FFFC0048 00000000 
FFFC004C 00000000 
FFFC0050 00000000 
FFFC0054 00000000 
FFFC0058 00000000 
FFFC005C 00000000 
FFFC0060 00000000 
FFFC0064 00000000 
FFFC0068 00000000 
FFFC006C 00000000 
FFFC0070 00000000 
FFFC0074 00000000 
FFFC0078 00000000 
FFFC007C 00000000 
FFFC0080 00000000 
FFFC0084 00000000 
FFFC0088 00000000 
FFFC008C 00000000 
FFFC0090 00000000 
FFFC0094 00000000 
FFFC0098 00000000 
FFFC009C 00000000 
FFFC00A0 00000000 
FFFC00A4 00000000 
FFFC00A8 00000000 
FFFC00AC 00000000 
FFFC00B0 00000000 
FFFC00B4 00000000 
FFFC00B8 00000000 
FFFC00BC 00000000 
FFFC00C0 00000000 
FFFC00C4 00000000 
FFFC00C8 00000000 
FFFC00CC 00000000 
FFFC00D0 00000000 
FFFC00D4 00000000 
FFFC00D8 00000000 
FFFC00DC 00000000 
FFFC00E0 00000000 
FFFC00E4 00000000 
FFFC00E8 00000000 
FFFC00EC 00000000 
FFFC00F0 00000000 
FFFC00F4 00000000 
FFFC00F8 00000000 
FFFC00FC 00000000 
FFFC0100 FFC020A8 			jmp		start			; Comment out this jump to test i-cache
                        	test_icache:
                        		; This seems stupid but maybe necessary. Writes to r0 always cause it to
                        		; be loaded with the value zero regardless of the value written. Readback
                        		; should then always be a zero. The only case it might not be is at power
                        		; on. At power on the reg should be zero, but let's not assume that and
                        		; write a zero to it.
FFFC0104 00000008 			and		r0,r0,#0		; cannot use LDI which does an or operation
                        			; set trap vector
FFFC0108 00000809 			ldi		r1,#$FFFC0000
FFFC010C FFFC085A 
FFFC0110 4030004E 			csrrw	r0,#$30,r1
FFFC0114 0FF8F809 			ldi		r31,#$FF400FF8	; set stack pointer
FFFC0118 FF40F85A 
FFFC011C C0000002 			sei		#0
                        	
                        		; Seed random number generator
FFFC0120 00003009 			ldi		r6,#$FFDC0000
FFFC0124 FFDC305A 
FFFC0128 0C040194 			sh		r0,$0C04[r6]			; select stream #0
FFFC012C 00000809 			ldi		r1,#$88888888
FFFC0130 8888081A 
FFFC0134 8888085A 
FFFC0138 0C080994 			sh		r1,$0C08[r6]			; set initial m_z
FFFC013C 45670809 			ldi		r1,#$01234567
FFFC0140 0123085A 
FFFC0144 0C0C0994 			sh		r1,$0C0C[r6]			; set initial m_w
                        	.st4:
                        		; Get a random number
FFFC0148 0C04B809 			sh		r0,$FFDC0C04	; set the stream
FFFC014C FFDCB85A 
FFFC0150 5000B802 
FFFC0154 0000001C 			nop						; delay a wee bit
FFFC0158 0C00B809 			lhu		r1,$FFDC0C00	; get a number
FFFC015C FFDCB85A 
FFFC0160 4401B802 
FFFC0164 0C00B809 			sh		r0,$FFDC0C00	; generate next number
FFFC0168 FFDCB85A 
FFFC016C 5000B802 
                        	
                        		; convert to random address
FFFC0170 3E020842 			shl		r1,r1,#2
FFFC0174 1FFC0848 			and		r1,r1,#$1FFC
FFFC0178 1000B809 			add		r1,r1,#$FF401000	; scratchram address
FFFC017C FF40B85A 
FFFC0180 1061B842 
                        			
                        		; Fill an area with test code
FFFC0184 000F1009 			ldi		r2,#15			; number of ops - 1
FFFC0188 01C81809 			ldi		r3,#.st2		; address of test routine copy
FFFC018C FFFC185A 
                        	.st3:
FFFC0190 444410C2 			lhu		r4,[r3+r2*4]	; move from boot rom to
FFFC0194 50441042 			sh		r4,[r1+r2*4]	; scratch ram
FFFC0198 FFBE00A7 			dbnz	r2,.st3
                        		
                        		; Now jump to the test code
FFFC019C 0000185E 			cache	#3,[r1]			; invalidate the cache
FFFC01A0 0000E858 			jal		r29,[r1]
FFFC01A4 000E1009 			ldi		r2,#14			; this is the value that should be returned
FFFC01A8 18611042 			cmp		r1,r1,r2
		bne		r1,r0,.st5
FFFC01AC 00010071 
FFFC01B0 FCB00031 			bra		.st4
                        	
                        		; Display fail code
                        	.st5:
FFFC01B4 00FA0809 			ldi		r1,#$FA
FFFC01B8 0600B809 			sb		r1,$FFDC0600
FFFC01BC FFDCB85A 
FFFC01C0 5401B802 
FFFC01C4 FF700031 			bra		.st5
                        	
                        	; Test code accumulates for 16 instructions, sum should be 14
                        			
                        	.st2:
FFFC01C8 00000809 			ldi		r1,#0
FFFC01CC 00010844 			add		r1,r1,#1		
FFFC01D0 00010844 			add		r1,r1,#1		
FFFC01D4 00010844 			add		r1,r1,#1		
FFFC01D8 00010844 			add		r1,r1,#1		
FFFC01DC 00010844 			add		r1,r1,#1		
FFFC01E0 00010844 			add		r1,r1,#1		
FFFC01E4 00010844 			add		r1,r1,#1		
FFFC01E8 00010844 			add		r1,r1,#1		
FFFC01EC 00010844 			add		r1,r1,#1		
FFFC01F0 00010844 			add		r1,r1,#1		
FFFC01F4 00010844 			add		r1,r1,#1		
FFFC01F8 00010844 			add		r1,r1,#1		
FFFC01FC 00010844 			add		r1,r1,#1		
FFFC0200 00010844 			add		r1,r1,#1		
FFFC0204 0000EFE9 			ret

                        	start:
                        		; This seems stupid but maybe necessary. Writes to r0 always cause it to
                        		; be loaded with the value zero regardless of the value written. Readback
                        		; should then always be a zero. The only case it might not be is at power
                        		; on. At power on the reg should be zero, but let's not assume that and
                        		; write a zero to it.
FFFC0208 00000008 			and		r0,r0,#0		; cannot use LDI which does an or operation
FFFC020C 00B00031 			bra		.st1
                        	.st2:
FFFC0210 00AA1009 			ldi		r2,#$AA
FFFC0214 0600B809 			sb		r2,LEDS			; write to LEDs
FFFC0218 FFDCB85A 
FFFC021C 5402B802 
FFFC0220 FF700031 			bra		.st2
                        	
                        		; First thing to do, LED status indicates core at least hit the reset
                        		; vector.
                        	.st1:
FFFC0224 00FF1009 			ldi		r2,#$FF
FFFC0228 0600B809 			sb		r2,LEDS			; write to LEDs
FFFC022C FFDCB85A 
FFFC0230 5402B802 
                        	
                        			; set trap vector
FFFC0234 00000809 			ldi		r1,#$FFFC0000
FFFC0238 FFFC085A 
FFFC023C 4030004E 			csrrw	r0,#$30,r1
FFFC0240 7FF8F809 			ldi		sp,#_brk_stack+4088
FFFC0244 FF40F85A 
FFFC0248 FFC15899 			call	__SystemInit
                        			
                        			; Enable interrupts
FFFC024C C0000002 			sei		#0
                        			
FFFC0250 00000809 			ldi		r1,#$00000		; turn on SMT use $10000
FFFC0254 8000004E 			csrrs	r0,#0,r1
FFFC0258 00000004 			add		r0,r0,#0		; fetch adjustment ramp
FFFC025C 00000004 			add		r0,r0,#0
FFFC0260 00000004 			add		r0,r0,#0
FFFC0264 00000004 			add		r0,r0,#0
FFFC0268 00000004 			add		r0,r0,#0
FFFC026C 00000004 			add		r0,r0,#0
FFFC0270 00000004 			add		r0,r0,#0
FFFC0274 00000004 			add		r0,r0,#0
FFFC0278 00000004 			add		r0,r0,#0
FFFC027C 00000004 			add		r0,r0,#0
FFFC0280 0044080E 			csrrd	r1,#$044,r0		; which thread is running ?
FFFC0284 66180862 			bfextu	r1,r1,#24,#24	
FFFC0288 FC010071 			bne		r1,r0,.st2
                        	
FFFC028C FFC04099 			call	calltest3
                        	
                        	;		ldi		r1,#16
                        	;		vmov	vl,r1
                        	;		ldi		r1,#$FFFF
                        	;		vmov	vm0,r1
                        	;		sync
                        	;		lv		v1,vec1data
                        	;		lv		v2,vec2data
                        	;		vadd	v3,v1,v2,vm0
                        	
FFFC0290 000F0809 			ldi		r1,#MEDBLUE	
FFFC0294 0004B809 			sh		r1,bkcolor		; set text background color
FFFC0298 FF40B85A 
FFFC029C 5001B802 
FFFC02A0 7FFF0809 			ldi		r1,#WHITE
FFFC02A4 0000B809 			sh		r1,fgcolor		; set foreground color
FFFC02A8 FF40B85A 
FFFC02AC 5001B802 
                        	
FFFC02B0 55550809 		ldi		r1,#$AAAA5555	; pick some data to write
FFFC02B4 AAAA085A 
FFFC02B8 00001809 		ldi		r3,#0
FFFC02BC 02C42009 		ldi		r4,#start1
FFFC02C0 FFFC205A 
                        	start1:
FFFC02C4 3E4C1042 		shr		r2,r1,#12
FFFC02C8 0600B809 		sb		r2,LEDS			; write to LEDs
FFFC02CC FFDCB85A 
FFFC02D0 5402B802 
FFFC02D4 00010844 		add		r1,r1,#1
FFFC02D8 000118C4 		add		r3,r3,#1
FFFC02DC 000A10C6 		cmp		r2,r3,#10	; stop after a few cycles
                        	;	bne		r2,r0,r4
                        	
                        		; Initialize PRNG
FFFC02E0 0010B809 			sw		r0,_randStream
FFFC02E4 FF40B85A 
FFFC02E8 5800B802 
FFFC02EC 00003009 			ldi		r6,#$FFDC0000
FFFC02F0 FFDC305A 
FFFC02F4 0C040194 			sh		r0,$0C04[r6]			; select stream #0
FFFC02F8 00000809 			ldi		r1,#$88888888
FFFC02FC 8888081A 
FFFC0300 8888085A 
FFFC0304 0C080994 			sh		r1,$0C08[r6]			; set initial m_z
FFFC0308 45670809 			ldi		r1,#$01234567
FFFC030C 0123085A 
FFFC0310 0C0C0994 			sh		r1,$0C0C[r6]			; set initial m_w
                        	
FFFC0314 00061009 			ldi		r2,#6
FFFC0318 0600B809 			sb		r2,LEDS			; write to LEDs
FFFC031C FFDCB85A 
FFFC0320 5402B802 
FFFC0324 0AFCB809 			jal		r29,clearTxtScreen
FFFC0328 FFFCB85A 
FFFC032C 0000EDD8 
FFFC0330 00252009 			ldi		r4,#$0025
FFFC0334 0600B809 			sb		r4,LEDS
FFFC0338 FFDCB85A 
FFFC033C 5404B802 
                        	_StartApp:
FFFC0340 FFC17768 			jmp		_BIOSMain
                        	start3:
FFFC0344 FFF00031 			bra		start3
                        	
                        	brkrout:
                        	;		sub		sp,sp,#16
                        	;		sw		r1,[sp]			; save off r1
                        	;		sw		r23,8[sp]		; save off assembler's working reg
FFFC0348 00000004 			add		r0,r0,#0
                        		; Set the interrupt level back to the interrupting level
                        		; to allow nesting higher priority interrupts
FFFC034C 0044080E 			csrrd	r1,#$044,r0
FFFC0350 6AA80862 			bfextu	r1,r1,#40,#42
                        			;sei		r1
FFFC0354 0024B809 			lh		r1,_milliseconds
FFFC0358 FF40B85A 
FFFC035C 4001B802 
FFFC0360 00010844 			add		r1,r1,#1
FFFC0364 0024B809 			sh		r1,_milliseconds
FFFC0368 FF40B85A 
FFFC036C 5001B802 
FFFC0370 00000809 			ldi		r1,#$20000		; sequence number reset bit
FFFC0374 0002085A 
FFFC0378 8000004E 			csrrs	r0,#0,r1		; pulse sn reset bit
FFFC037C 00000004 			add		r0,r0,#0		; now a ramp of instructions
FFFC0380 00000004 			add		r0,r0,#0		; that don't depend on sequence
FFFC0384 00000004 			add		r0,r0,#0		; number to operate properly
FFFC0388 00000004 			add		r0,r0,#0
FFFC038C 00000004 			add		r0,r0,#0
FFFC0390 00000004 			add		r0,r0,#0
FFFC0394 00000004 			add		r0,r0,#0
FFFC0398 00000004 			add		r0,r0,#0
FFFC039C 00000004 			add		r0,r0,#0
FFFC03A0 00000004 			add		r0,r0,#0
FFFC03A4 00000004 			add		r0,r0,#0
FFFC03A8 00000004 			add		r0,r0,#0
FFFC03AC 00000004 			add		r0,r0,#0
FFFC03B0 00000004 			add		r0,r0,#0
                        	;		lw		r1,[sp]			; get r1 back
                        	;		lw		r23,8[sp]
                        	;		add		sp,sp,#16
FFFC03B4 C8000002 			rti

                        	calltest:
FFFC03B8 0000B809 			sw		r1,$FF400000		; 1
FFFC03BC FF40B85A 
FFFC03C0 5801B802 
FFFC03C4 00020844 			add		r1,r1,#2			; 2
FFFC03C8 0000B809 			lw		r1,$FF400000		; 3
FFFC03CC FF40B85A 
FFFC03D0 4801B802 
FFFC03D4 0000EFE9 			ret

                        	calltest1:
FFFC03D8 FFF8FFC4 			sub		sp,sp,#8
FFFC03DC 0000EFD6 			sw		lr,[sp]
FFFC03E0 FFC03B99 			call	calltest
FFFC03E4 0000EFD2 			lw		lr,[sp]
FFFC03E8 0008FFC4 			add		sp,sp,#8
FFFC03EC 0000EFE9 			ret

                        	calltest2:
FFFC03F0 FFF8FFC4 			sub		sp,sp,#8
FFFC03F4 0000EFD6 			sw		lr,[sp]
FFFC03F8 FFC03D99 			call	calltest1
FFFC03FC 0000EFD2 			lw		lr,[sp]
FFFC0400 0008FFC4 			add		sp,sp,#8
FFFC0404 0000EFE9 			ret

                        	calltest3:
FFFC0408 FFF8FFC4 			sub		sp,sp,#8
FFFC040C 0000EFD6 			sw		lr,[sp]
FFFC0410 FFC03F19 			call	calltest2
FFFC0414 0000EFD2 			lw		lr,[sp]
FFFC0418 0008FFC4 			add		sp,sp,#8
FFFC041C 0000EFE9 			ret

                        	;------------------------------------------------------------------------------
                        	; Set400x300 video mode.
                        	;------------------------------------------------------------------------------
                        	
                        	_Set400x300:
FFFC0420 FFF8FFC4 			sub		sp,sp,#8
FFFC0424 000037D6 			sw		r6,[sp]
FFFC0428 00003009 			ldi		r6,#AVIC
FFFC042C C000301A 
FFFC0430 FFDC305A 
FFFC0434 012C0809 			ldi		r1,#$0190012C	; 400x300
FFFC0438 0190085A 
FFFC043C 07E80994 			sh		r1,$7E8[r6]
FFFC0440 00010809 			ldi		r1,#$00320001	; 50 strips per line
FFFC0444 0032085A 
FFFC0448 07F00994 			sh		r1,$7F0[r6]		; set lowres = divide by 2
FFFC044C 000037D2 			lw		r6,[sp]
FFFC0450 0008FFC4 			add		sp,sp,#8
FFFC0454 0000EFE9 			ret

                        	;------------------------------------------------------------------------------
                        	; Get a random number, and generate the next number.
                        	;
                        	; Parameters:
                        	;	r18 = random stream number.
                        	; Returns:
                        	;	r1 = random 32 bit number.
                        	;------------------------------------------------------------------------------
                        	
                        	_GetRand:
FFFC0458 0C04B809 			sh		r18,$FFDC0C04	; set the stream
FFFC045C FFDCB85A 
FFFC0460 5012B802 
FFFC0464 0000001C 			nop						; delay a wee bit
FFFC0468 0C00B809 			lhu		r1,$FFDC0C00	; get a number
FFFC046C FFDCB85A 
FFFC0470 4401B802 
FFFC0474 0C00B809 			sh		r0,$FFDC0C00	; generate next number
FFFC0478 FFDCB85A 
FFFC047C 5000B802 
FFFC0480 0000EFE9 			ret

                        	;------------------------------------------------------------------------------
                        	; Fill the display memory with bands of color.
                        	;------------------------------------------------------------------------------
                        	
                        	_ColorBandMemory2:
FFFC0484 FFE8FFC4 			sub		sp,sp,#24
FFFC0488 00000FD6 			sw		r1,[sp]
FFFC048C 000817D6 			sw		r2,8[sp]
FFFC0490 001037D6 			sw		r6,16[sp]
FFFC0494 00071009 			ldi		r2,#7
FFFC0498 0600B809 			sb		r2,LEDS			; write to LEDs
FFFC049C FFDCB85A 
FFFC04A0 5402B802 
FFFC04A4 00003009 			ldi		r6,#$100000
FFFC04A8 0010305A 
FFFC04AC 8B889002 			mov		r18,r0
FFFC04B0 FFC04599 			call	_GetRand
                        	.0002:
FFFC04B4 000009A4 			sc		r1,[r6]
FFFC04B8 0600B809 			sb		r1,LEDS
FFFC04BC FFDCB85A 
FFFC04C0 5401B802 
FFFC04C4 00023184 			add		r6,r6,#2
FFFC04C8 03FF1188 			and		r2,r6,#$3FF
FFFC04CC 004100B0 			bne		r2,r0,.0001
FFFC04D0 8B889002 			mov		r18,r0
FFFC04D4 FFC04599 			call	_GetRand
                        	.0001:
FFFC04D8 0000B809 			cmpu	r2,r6,#$200000
FFFC04DC 0020B85A 
FFFC04E0 1C62B982 
FFFC04E4 FE4200B1 			blt		r2,r0,.0002
FFFC04E8 00081009 			ldi		r2,#8
FFFC04EC 0600B809 			sb		r2,LEDS			; write to LEDs
FFFC04F0 FFDCB85A 
FFFC04F4 5402B802 
FFFC04F8 00000FD2 			lw		r1,[sp]
FFFC04FC 000817D2 			lw		r2,8[sp]
FFFC0500 001037D2 			lw		r6,16[sp]
FFFC0504 0018EFE9 			ret		#24
                        	
                        	;------------------------------------------------------------------------------
                        	; Copy font to AVIC ram
                        	;
                        	;------------------------------------------------------------------------------
                        	
                        	_BootCopyFont:
FFFC0508 FFE8FFC4 			sub		$sp,$sp,#24
FFFC050C 000017D6 			sw		$r2,[$sp]
FFFC0510 00081FD6 			sw		$r3,8[$sp]
FFFC0514 001037D6 			sw		$r6,16[$sp]
FFFC0518 00040809 			ldi		r1,#$0004
FFFC051C 0600B809 			sb		r1,LEDS
FFFC0520 FFDCB85A 
FFFC0524 5401B802 
FFFC0528 00003009 			ldi		r6,#AVIC
FFFC052C C000301A 
FFFC0530 FFDC305A 
                        	
                        			; Setup font table
FFFC0534 00000809 			ldi		r1,#$1FFFEFF0
FFFC0538 EFF0081A 
FFFC053C 1FFF085A 
FFFC0540 06F00994 			sh		r1,$6F0[r6]			; set font table address
FFFC0544 06F40194 			sh		r0,$6F4[r6]			; set font id (0)
FFFC0548 00000809 			ldi		r1,#%10000111000001110000000000000000	; set font fixed, width, height = 8
FFFC054C 8707085A 
FFFC0550 0000B809 			sh		r1,$1FFFEFFC
FFFC0554 EFFCB81A 
FFFC0558 1FFFB85A 
FFFC055C 5001B802 
FFFC0560 00000809 			ldi		r1,#$1FFFF000		; set bitmap address (directly follows font table)
FFFC0564 F000081A 
FFFC0568 1FFF085A 
FFFC056C 0000B809 			sh		r1,$1FFFEFF4
FFFC0570 EFF4B81A 
FFFC0574 1FFFB85A 
FFFC0578 5001B802 
                        	
FFFC057C 0B403009 			ldi		r6,#font8
FFFC0580 FFFC305A 
FFFC0584 007F1009 			ldi		r2,#127				; 128 chars @ 8 bytes per char
                        	.0001:
FFFC0588 48631182 			lw		r3,[r6+r2*8]
FFFC058C 58631042 			sw		r3,[r1+r2*8]
FFFC0590 FFBE00A7 			dbnz	r2,.0001
FFFC0594 00050809 			ldi		r1,#$0005
FFFC0598 0600B809 			sb		r1,LEDS
FFFC059C FFDCB85A 
FFFC05A0 5401B802 
FFFC05A4 000017D2 			lw		$r2,[$sp]
FFFC05A8 00081FD2 			lw		$r3,8[$sp]
FFFC05AC 001037D2 			lw		$r6,16[$sp]
FFFC05B0 0018EFE9 			ret		#24
                        	
                        	;------------------------------------------------------------------------------
                        	;------------------------------------------------------------------------------
                        	
                        	
                        	;------------------------------------------------------------------------------
                        	; DispChar:
                        	;
                        	; Display character at cursor position. The current foreground color and
                        	; background color are used.
                        	;
                        	; Parameters:
                        	;	r18			character to display
                        	; Returns:
                        	;	<none>
                        	; Registers Affected:
                        	;	<none>
                        	;------------------------------------------------------------------------------
                        	
                        	_DispChar:
FFFC05B4 FFE0FFC4 			sub		$sp,$sp,#32
FFFC05B8 000017D6 			sw		$r2,[$sp]
FFFC05BC 00081FD6 			sw		$r3,8[$sp]
FFFC05C0 001037D6 			sw		$r6,16[$sp]
FFFC05C4 0018EFD6 			sw		$r29,24[$sp]
                        			
FFFC05C8 00003009 			ldi		r6,#AVIC
FFFC05CC C000301A 
FFFC05D0 FFDC305A 
FFFC05D4 03F82009 			ldi		r4,#1016
                        	.0001:			
                        										; wait for character que to empty
FFFC05D8 06E81191 			lhu		r2,$6E8[r6]			; read character queue index into r2
FFFC05DC FFC41130 			bgtu	r2,r4,.0001			; allow up 24 entries to be in progress	
                        	
FFFC05E0 0000B809 			lh		r3,fgcolor
FFFC05E4 FF40B85A 
FFFC05E8 4003B802 
FFFC05EC 06E01994 			sh		r3,$6E0[r6]
FFFC05F0 000C1809 			ldi		r3,#12				; 12 = set pen color
FFFC05F4 06E41994 			sh		r3,$6E4[r6]
FFFC05F8 06E80194 			sh		r0,$6E8[r6]			; queue
                        	
FFFC05FC 0004B809 			lh		r3,bkcolor
FFFC0600 FF40B85A 
FFFC0604 4003B802 
FFFC0608 06E01994 			sh		r3,$6E0[r6]
FFFC060C 000D1809 			ldi		r3,#13				; 13 = set fill color
FFFC0610 06E41994 			sh		r3,$6E4[r6]
FFFC0614 06E80194 			sh		r0,$6E8[r6]			; queue
                        	
FFFC0618 0018B809 			lhu		r3,_DBGCursorCol
FFFC061C FF40B85A 
FFFC0620 4403B802 
FFFC0624 3E1318C2 			shl		r3,r3,#19			; multiply by eight and convert to fixed (multiply by 65536)
FFFC0628 06E01994 			sh		r3,$6E0[r6]
FFFC062C 00101809 			ldi		r3,#16				; 16 = set X0 pos
FFFC0630 06E41994 			sh		r3,$6E4[r6]
FFFC0634 06E80194 			sh		r0,$6E8[r6]			; queue
                        	
FFFC0638 001CB809 			lhu		r3,_DBGCursorRow
FFFC063C FF40B85A 
FFFC0640 4403B802 
FFFC0644 3E1318C2 			shl		r3,r3,#19
FFFC0648 06E01994 			sh		r3,$6E0[r6]
FFFC064C 00111809 			ldi		r3,#17				; 17 = set Y0 pos
FFFC0650 06E41994 			sh		r3,$6E4[r6]
FFFC0654 06E80194 			sh		r0,$6E8[r6]			; queue
                        	
FFFC0658 06E09194 			sh		r18,$6E0[r6]		; data = character code
FFFC065C 00001809 			ldi		r3,#0				; 0 = draw character
FFFC0660 06E41994 			sh		r3,$6E4[r6]
FFFC0664 06E80194 			sh		r0,$6E8[r6]			; queue
                        	
FFFC0668 FFC06819 			call	_SyncCursorPos
FFFC066C 000017D2 			lw		$r2,[$sp]
FFFC0670 00081FD2 			lw		$r3,8[$sp]
FFFC0674 001037D2 			lw		$r6,16[$sp]
FFFC0678 0018EFD2 			lw		$r29,24[$sp]
FFFC067C 0020EFE9 			ret		#32
                        	
                        	;----------------------------------------------------------------------------
                        	;----------------------------------------------------------------------------
                        	_SyncCursorPos:
FFFC0680 FFE8FFC4 			sub		$sp,$sp,#24
FFFC0684 000017D6 			sw		$r2,[$sp]
FFFC0688 00081FD6 			sw		$r3,8[$sp]
FFFC068C 001037D6 			sw		$r6,16[$sp]
FFFC0690 00003009 			ldi		r6,#AVIC
FFFC0694 C000301A 
FFFC0698 FFDC305A 
FFFC069C 0018B809 			lhu		r2,_DBGCursorCol
FFFC06A0 FF40B85A 
FFFC06A4 4402B802 
FFFC06A8 001CB809 			lhu		r3,_DBGCursorRow
FFFC06AC FF40B85A 
FFFC06B0 4403B802 
FFFC06B4 3E0318C2 			shl		r3,r3,#3
FFFC06B8 001C18C4 			add		r3,r3,#28
FFFC06BC 3E1018C2 			shl		r3,r3,#16
FFFC06C0 3E031082 			shl		r2,r2,#3
FFFC06C4 01001084 			add		r2,r2,#256
FFFC06C8 24621882 			or		r2,r2,r3
		sh		r2,$408[r6]			;
FFFC06CC 04081194 
FFFC06D0 000017D2 			lw		$r2,[$sp]
FFFC06D4 00081FD2 			lw		$r3,8[$sp]
FFFC06D8 001037D2 			lw		$r6,16[$sp]
FFFC06DC 0018EFE9 			ret		#24
                        	
                        	;----------------------------------------------------------------------------
                        	;----------------------------------------------------------------------------
                        	_EnableCursor:
FFFC06E0 671F17C2 			push	r2
FFFC06E4 671F1FC2 			push	r3
FFFC06E8 671F37C2 			push	r6
                        			
FFFC06EC 00003009 			ldi		r6,#AVIC
FFFC06F0 C000301A 
FFFC06F4 FFDC305A 
FFFC06F8 00001009 			ldi		r2,#$FFFFFFFF
FFFC06FC FFFF101A 
FFFC0700 FFFF105A 
FFFC0704 07B01614 			sh		r2,$7B0[a6]		; enable sprite #0
FFFC0708 691F37C2 			pop		r6
FFFC070C 691F1FC2 			pop		r3
FFFC0710 691F17C2 			pop		r2
FFFC0714 0000EFE9 			ret

                        	;----------------------------------------------------------------------------
                        	; Setup the sprite color palette. The palette is loaded with random colors.
                        	;----------------------------------------------------------------------------
                        	
                        	_SetCursorPalette:
FFFC0718 FFE8FFC4 			sub		sp,sp,#24
FFFC071C 000017D6 			sw		r2,[sp]
FFFC0720 000837D6 			sw		r6,8[sp]
FFFC0724 00103FD6 			sw		r7,16[sp]
FFFC0728 00003009 			ldi		r6,#AVIC
FFFC072C C000301A 
FFFC0730 FFDC305A 
FFFC0734 7FFF1009 			ldi		r2,#WHITE
FFFC0738 00041194 			sh		r2,4[r6]				; palette entry #1
FFFC073C 7C001009 			ldi		r2,#%111110000000000	; RED
FFFC0740 00081194 			sh		r2,8[r6]				; palette entry #2
FFFC0744 000C3809 			ldi		r7,#12
                        	.0001:
FFFC0748 8B889002 			mov		r18,r0
FFFC074C FFC04599 			call	_GetRand
FFFC0750 7FFF0848 			and		r1,r1,#$7FFF
FFFC0754 50013982 			sh		r1,[r6+r7]
FFFC0758 000439C4 			add		r7,r7,#4
FFFC075C 040011C6 			cmp		r2,r7,#$400
FFFC0760 FF0200B1 			blt		r2,r0,.0001
FFFC0764 000017D2 			lw		r2,[sp]
FFFC0768 000837D2 			lw		r6,8[sp]
FFFC076C 00103FD2 			lw		r7,16[sp]
FFFC0770 0018FFC4 			add		sp,sp,#24
FFFC0774 0000EFE9 			ret
		
                        	;----------------------------------------------------------------------------
                        	; Establish a default image for all the sprites.
                        	;----------------------------------------------------------------------------
                        	
                        	_SetCursorImage:
FFFC0778 671F17C2 			push	r2
FFFC077C 671F1FC2 			push	r3
FFFC0780 671F27C2 			push	r4
FFFC0784 671F2FC2 			push	r5
FFFC0788 671F37C2 			push	r6
FFFC078C 671F3FC2 			push	r7
                        	
FFFC0790 00003009 			ldi		r6,#AVIC
FFFC0794 C000301A 
FFFC0798 FFDC305A 
FFFC079C 04003809 			ldi		r7,#$400
                        	.0002:
FFFC07A0 00001009 			ldi		r2,#$1FFEE000
FFFC07A4 E000101A 
FFFC07A8 1FFE105A 
FFFC07AC 50023982 			sh		r2,[r6+r7]		; sprite image address
FFFC07B0 000439C4 			add		r7,r7,#4		; advance to next field
FFFC07B4 03C01009 			ldi		r2,#30*32			; number of pixels
FFFC07B8 50023982 			sh		r2,[r6+r7]		; 
FFFC07BC 000C39C4 			add		r7,r7,#12		; next sprite
FFFC07C0 060011C6 			cmp		r2,r7,#$600
FFFC07C4 FEC100B0 			bne		r2,r0,.0002
                        	
FFFC07C8 00001009 			ldi		r2,#$1FFEE000
FFFC07CC E000101A 
FFFC07D0 1FFE105A 
FFFC07D4 08C01809 			ldi		r3,#_XImage
FFFC07D8 FFFC185A 
FFFC07DC 001E2809 			ldi		r5,#30
                        	.0001:
FFFC07E0 000820D2 			lw		r4,8[r3]	; swap the order of the words around
FFFC07E4 00002096 			sw		r4,[r2]
FFFC07E8 000020D2 			lw		r4,[r3]
FFFC07EC 00082096 			sw		r4,8[r2]
FFFC07F0 001018C4 			add		r3,r3,#16
FFFC07F4 00101084 			add		r2,r2,#16
FFFC07F8 FFFF2944 			sub		r5,r5,#1
FFFC07FC FF010170 			bne		r5,r0,.0001
                        	
FFFC0800 691F3FC2 			pop		r7		
FFFC0804 691F37C2 			pop		r6
FFFC0808 691F2FC2 			pop		r5
FFFC080C 691F27C2 			pop		r4
FFFC0810 691F1FC2 			pop		r3
FFFC0814 691F17C2 			pop		r2
FFFC0818 0000EFE9 			ret

FFFC081C 00000000 		align	
                        	
                        	_CursorBoxImage:
FFFC0820 11000000 		dw		$1111111111000000,$00
FFFC0824 11111111 
FFFC0828 00000000 
FFFC082C 00000000 
FFFC0830 01000000 		dw		$1000000001000000,$00
FFFC0834 10000000 
FFFC0838 00000000 
FFFC083C 00000000 
FFFC0840 01000000 		dw		$1000000001000000,$00
FFFC0844 10000000 
FFFC0848 00000000 
FFFC084C 00000000 
FFFC0850 01000000 		dw		$1000000001000000,$00
FFFC0854 10000000 
FFFC0858 00000000 
FFFC085C 00000000 
FFFC0860 01000000 		dw		$1000000001000000,$00
FFFC0864 10000000 
FFFC0868 00000000 
FFFC086C 00000000 
FFFC0870 01000000 		dw		$1000000001000000,$00
FFFC0874 10000000 
FFFC0878 00000000 
FFFC087C 00000000 
FFFC0880 01000000 		dw		$1000000001000000,$00
FFFC0884 10000000 
FFFC0888 00000000 
FFFC088C 00000000 
FFFC0890 01000000 		dw		$1000000001000000,$00
FFFC0894 10000000 
FFFC0898 00000000 
FFFC089C 00000000 
FFFC08A0 01000000 		dw		$1000110001000000,$00
FFFC08A4 10001100 
FFFC08A8 00000000 
FFFC08AC 00000000 
FFFC08B0 11000000 		dw		$1111111111000000,$00
FFFC08B4 11111111 
FFFC08B8 00000000 
FFFC08BC 00000000 
                        	
                        	; Higher order word appears later in memory but is displayed first. So the
                        	; order of these words are swapped around above. To make it convenient to
                        	; define the sprite image.
                        	
                        	_XImage:
FFFC08C0 22222222 		dw		$1122222222222222,$2222222222222211
FFFC08C4 11222222 
FFFC08C8 22222211 
FFFC08CC 22222222 
FFFC08D0 00000000 		dw		$2110000000000000,$0000000000000112
FFFC08D4 21100000 
FFFC08D8 00000112 
FFFC08DC 00000000 
FFFC08E0 00000000 		dw		$2011000000000000,$0000000000001102
FFFC08E4 20110000 
FFFC08E8 00001102 
FFFC08EC 00000000 
FFFC08F0 00000000 		dw		$2001100000000000,$0000000000011002
FFFC08F4 20011000 
FFFC08F8 00011002 
FFFC08FC 00000000 
FFFC0900 00000000 		dw		$2000110000000000,$0000000000110002
FFFC0904 20001100 
FFFC0908 00110002 
FFFC090C 00000000 
FFFC0910 00000000 		dw		$2000011000000000,$0000000001100002
FFFC0914 20000110 
FFFC0918 01100002 
FFFC091C 00000000 
FFFC0920 00000000 		dw		$2000001100000000,$0000000011000002
FFFC0924 20000011 
FFFC0928 11000002 
FFFC092C 00000000 
FFFC0930 10000000 		dw		$2000000110000000,$0000000110000002
FFFC0934 20000001 
FFFC0938 10000002 
FFFC093C 00000001 
FFFC0940 11000000 		dw		$2000000011000000,$0000001100000002
FFFC0944 20000000 
FFFC0948 00000002 
FFFC094C 00000011 
FFFC0950 01100000 		dw		$2000000001100000,$0000011000000002
FFFC0954 20000000 
FFFC0958 00000002 
FFFC095C 00000110 
FFFC0960 00110000 		dw		$2000000000110000,$0000110000000002
FFFC0964 20000000 
FFFC0968 00000002 
FFFC096C 00001100 
FFFC0970 00011009 		dw		$2000000000011009,$0901100000000002
FFFC0974 20000000 
FFFC0978 00000002 
FFFC097C 09011000 
FFFC0980 00001100 		dw		$2000000000001100,$0011000000000002
FFFC0984 20000000 
FFFC0988 00000002 
FFFC098C 00110000 
FFFC0990 00000110 		dw		$2000000000000110,$0110000000000002
FFFC0994 20000000 
FFFC0998 00000002 
FFFC099C 01100000 
FFFC09A0 00000011 		dw		$2000000000000011,$1100000000000002
FFFC09A4 20000000 
FFFC09A8 00000002 
FFFC09AC 11000000 
FFFC09B0 00000011 		dw		$2000000000000011,$1100000000000002
FFFC09B4 20000000 
FFFC09B8 00000002 
FFFC09BC 11000000 
FFFC09C0 00000110 		dw		$2000000000000110,$0110000000000002
FFFC09C4 20000000 
FFFC09C8 00000002 
FFFC09CC 01100000 
FFFC09D0 00001100 		dw		$2000000000001100,$0011000000000002
FFFC09D4 20000000 
FFFC09D8 00000002 
FFFC09DC 00110000 
FFFC09E0 00011009 		dw		$2000000000011009,$0901100000000002
FFFC09E4 20000000 
FFFC09E8 00000002 
FFFC09EC 09011000 
FFFC09F0 00110000 		dw		$2000000000110000,$0000110000000002
FFFC09F4 20000000 
FFFC09F8 00000002 
FFFC09FC 00001100 
FFFC0A00 01100000 		dw		$2000000001100000,$0000011000000002
FFFC0A04 20000000 
FFFC0A08 00000002 
FFFC0A0C 00000110 
FFFC0A10 11000000 		dw		$2000000011000000,$0000001100000002
FFFC0A14 20000000 
FFFC0A18 00000002 
FFFC0A1C 00000011 
FFFC0A20 10000000 		dw		$2000000110000000,$0000000110000002
FFFC0A24 20000001 
FFFC0A28 10000002 
FFFC0A2C 00000001 
FFFC0A30 00000000 		dw		$2000001100000000,$0000000011000002
FFFC0A34 20000011 
FFFC0A38 11000002 
FFFC0A3C 00000000 
FFFC0A40 00000000 		dw		$2000011000000000,$0000000001100002
FFFC0A44 20000110 
FFFC0A48 01100002 
FFFC0A4C 00000000 
FFFC0A50 00000000 		dw		$2000110000000000,$0000000000110002
FFFC0A54 20001100 
FFFC0A58 00110002 
FFFC0A5C 00000000 
FFFC0A60 00000000 		dw		$2001100000000000,$0000000000011002
FFFC0A64 20011000 
FFFC0A68 00011002 
FFFC0A6C 00000000 
FFFC0A70 00000000 		dw		$2011000000000000,$0000000000001102
FFFC0A74 20110000 
FFFC0A78 00001102 
FFFC0A7C 00000000 
FFFC0A80 00000000 		dw		$2110000000000000,$0000000000000112
FFFC0A84 21100000 
FFFC0A88 00000112 
FFFC0A8C 00000000 
FFFC0A90 22222222 		dw		$1122222222222222,$2222222222222211
FFFC0A94 11222222 
FFFC0A98 22222211 
FFFC0A9C 22222222 
                        	
                        	;----------------------------------------------------------------------------
                        	;----------------------------------------------------------------------------
                        	_RandomizeSpritePositions2:
FFFC0AA0 671F0FC2 			push	r1
FFFC0AA4 671F37C2 			push	r6
FFFC0AA8 671F3FC2 			push	r7
FFFC0AAC 00003009 			ldi		r6,#AVIC
FFFC0AB0 C000301A 
FFFC0AB4 FFDC305A 
FFFC0AB8 04083809 			ldi		r7,#$408
                        	.0001:
FFFC0ABC 8B889002 			mov		r18,r0
FFFC0AC0 FFC04599 			call	_GetRand
FFFC0AC4 00FFB809 			and		r1,r1,#$00FF00FF
FFFC0AC8 00FFB85A 
FFFC0ACC 2061B842 
FFFC0AD0 0080B809 			add		r1,r1,#$000E0080	; add +28 to y and +256 to x
FFFC0AD4 000EB85A 
FFFC0AD8 1061B842 
FFFC0ADC 50013982 			sh		r1,[r6+r7]
FFFC0AE0 001039C4 			add		r7,r7,#$10			; advance to next sprite
FFFC0AE4 05F809C6 			cmp		r1,r7,#$5F8
FFFC0AE8 FE820070 			blt		r1,r0,.0001
FFFC0AEC 691F3FC2 			pop		r7
FFFC0AF0 691F37C2 			pop		r6
FFFC0AF4 691F0FC2 			pop		r1
FFFC0AF8 0000EFE9 			ret

                        	;----------------------------------------------------------------------------
                        	;----------------------------------------------------------------------------
                        	clearTxtScreen:
FFFC0AFC 00242009 			ldi		r4,#$0024
FFFC0B00 0600B809 			sb		r4,LEDS
FFFC0B04 FFDCB85A 
FFFC0B08 5404B802 
FFFC0B0C 00000809 			ldi		r1,#$FFD00000	; text screen address
FFFC0B10 FFD0085A 
FFFC0B14 00181009 			ldi		r2,#24		; number of chars 2480 (80x31)
FFFC0B18 00001809 			ldi		r3,#%000010000_111111111_0000100000
FFFC0B1C FC20181A 
FFFC0B20 0087185A 
                        	.cts1:
FFFC0B24 00001854 			sh		r3,[r1]
FFFC0B28 00040844 			add		r1,r1,#4
FFFC0B2C FFFF1084 			sub		r2,r2,#1
FFFC0B30 FF8100B0 			bne		r2,r0,.cts1
FFFC0B34 0000EFE9 			ret

                        	;===============================================================================
                        	;===============================================================================
                        	;===============================================================================
                        	;===============================================================================
FFFC0B38 00000000 		align	1
FFFC0B3C 00000000 
                        	
                        	font8:
FFFC0B40 00000000 		db	$00,$00,$00,$00,$00,$00,$00,$00	; $00
FFFC0B44 00000000 
FFFC0B48 00000000 		db	$00,$00,$00,$00,$00,$00,$00,$00	; 
FFFC0B4C 00000000 
FFFC0B50 00000000 		db	$00,$00,$00,$00,$00,$00,$00,$00	; 
FFFC0B54 00000000 
FFFC0B58 00000000 		db	$00,$00,$00,$00,$00,$00,$00,$00	; 
FFFC0B5C 00000000 
FFFC0B60 00000000 		db	$00,$00,$00,$00,$00,$00,$00,$00	; $04
FFFC0B64 00000000 
FFFC0B68 00000000 		db	$00,$00,$00,$00,$00,$00,$00,$00	; 
FFFC0B6C 00000000 
FFFC0B70 00000000 		db	$00,$00,$00,$00,$00,$00,$00,$00	; 
FFFC0B74 00000000 
FFFC0B78 00000000 		db	$00,$00,$00,$00,$00,$00,$00,$00	; 
FFFC0B7C 00000000 
FFFC0B80 00000000 		db	$00,$00,$00,$00,$00,$00,$00,$00	; $08
FFFC0B84 00000000 
FFFC0B88 00000000 		db	$00,$00,$00,$00,$00,$00,$00,$00	; 
FFFC0B8C 00000000 
FFFC0B90 00000000 		db	$00,$00,$00,$00,$00,$00,$00,$00	; 
FFFC0B94 00000000 
FFFC0B98 00000000 		db	$00,$00,$00,$00,$00,$00,$00,$00	; 
FFFC0B9C 00000000 
FFFC0BA0 00000000 		db	$00,$00,$00,$00,$00,$00,$00,$00	; $0C
FFFC0BA4 00000000 
FFFC0BA8 00000000 		db	$00,$00,$00,$00,$00,$00,$00,$00	; 
FFFC0BAC 00000000 
FFFC0BB0 00000000 		db	$00,$00,$00,$00,$00,$00,$00,$00	; 
FFFC0BB4 00000000 
FFFC0BB8 00000000 		db	$00,$00,$00,$00,$00,$00,$00,$00	; 
FFFC0BBC 00000000 
FFFC0BC0 00000000 		db	$00,$00,$00,$00,$00,$00,$00,$00	; $10
FFFC0BC4 00000000 
FFFC0BC8 00000000 		db	$00,$00,$00,$00,$00,$00,$00,$00	; 
FFFC0BCC 00000000 
FFFC0BD0 00000000 		db	$00,$00,$00,$00,$00,$00,$00,$00	; 
FFFC0BD4 00000000 
FFFC0BD8 00000000 		db	$00,$00,$00,$00,$00,$00,$00,$00	; 
FFFC0BDC 00000000 
FFFC0BE0 00000000 		db	$00,$00,$00,$00,$00,$00,$00,$00	; $14
FFFC0BE4 00000000 
FFFC0BE8 00000000 		db	$00,$00,$00,$00,$00,$00,$00,$00	; 
FFFC0BEC 00000000 
FFFC0BF0 00000000 		db	$00,$00,$00,$00,$00,$00,$00,$00	; 
FFFC0BF4 00000000 
FFFC0BF8 00000000 		db	$00,$00,$00,$00,$00,$00,$00,$00	; 
FFFC0BFC 00000000 
FFFC0C00 00000000 		db	$00,$00,$00,$00,$00,$00,$00,$00	; $18
FFFC0C04 00000000 
FFFC0C08 00000000 		db	$00,$00,$00,$00,$00,$00,$00,$00	; 
FFFC0C0C 00000000 
FFFC0C10 00000000 		db	$00,$00,$00,$00,$00,$00,$00,$00	; 
FFFC0C14 00000000 
FFFC0C18 00000000 		db	$00,$00,$00,$00,$00,$00,$00,$00	; 
FFFC0C1C 00000000 
FFFC0C20 00000000 		db	$00,$00,$00,$00,$00,$00,$00,$00	; $1C
FFFC0C24 00000000 
FFFC0C28 00000000 		db	$00,$00,$00,$00,$00,$00,$00,$00	; 
FFFC0C2C 00000000 
FFFC0C30 00000000 		db	$00,$00,$00,$00,$00,$00,$00,$00	; 
FFFC0C34 00000000 
FFFC0C38 00000000 		db	$00,$00,$00,$00,$00,$00,$00,$00	; 
FFFC0C3C 00000000 
FFFC0C40 00000000 		db	$00,$00,$00,$00,$00,$00,$00,$00	; SPACE
FFFC0C44 00000000 
FFFC0C48 18181818 		db	$18,$18,$18,$18,$18,$00,$18,$00	; !
FFFC0C4C 00180018 
FFFC0C50 00006C6C 		db	$6C,$6C,$00,$00,$00,$00,$00,$00	; "
FFFC0C54 00000000 
FFFC0C58 6CFE6C6C 		db	$6C,$6C,$FE,$6C,$FE,$6C,$6C,$00	; #
FFFC0C5C 006C6CFE 
FFFC0C60 3C603E18 		db	$18,$3E,$60,$3C,$06,$7C,$18,$00	; $
FFFC0C64 00187C06 
FFFC0C68 D8AC6600 		db	$00,$66,$AC,$D8,$36,$6A,$CC,$00	; %
FFFC0C6C 00CC6A36 
FFFC0C70 76686C38 		db	$38,$6C,$68,$76,$DC,$CE,$7B,$00	; &
FFFC0C74 007BCEDC 
FFFC0C78 00301818 		db	$18,$18,$30,$00,$00,$00,$00,$00	; '
FFFC0C7C 00000000 
FFFC0C80 3030180C 		db	$0C,$18,$30,$30,$30,$18,$0C,$00	; (
FFFC0C84 000C1830 
FFFC0C88 0C0C1830 		db	$30,$18,$0C,$0C,$0C,$18,$30,$00	; )
FFFC0C8C 0030180C 
FFFC0C90 FF3C6600 		db	$00,$66,$3C,$FF,$3C,$66,$00,$00	; *
FFFC0C94 0000663C 
FFFC0C98 7E181800 		db	$00,$18,$18,$7E,$18,$18,$00,$00	; +
FFFC0C9C 00001818 
FFFC0CA0 00000000 		db	$00,$00,$00,$00,$00,$18,$18,$30	; ,
FFFC0CA4 30181800 
FFFC0CA8 7E000000 		db	$00,$00,$00,$7E,$00,$00,$00,$00	; -
FFFC0CAC 00000000 
FFFC0CB0 00000000 		db	$00,$00,$00,$00,$00,$18,$18,$00	; .
FFFC0CB4 00181800 
FFFC0CB8 180C0603 		db	$03,$06,$0C,$18,$30,$60,$C0,$00	; /
FFFC0CBC 00C06030 
FFFC0CC0 7E6E663C 		db	$3C,$66,$6E,$7E,$76,$66,$3C,$00	; 0
FFFC0CC4 003C6676 
FFFC0CC8 18783818 		db	$18,$38,$78,$18,$18,$18,$18,$00	; 1
FFFC0CCC 00181818 
FFFC0CD0 0C06663C 		db	$3C,$66,$06,$0C,$18,$30,$7E,$00	; 2
FFFC0CD4 007E3018 
FFFC0CD8 1C06663C 		db	$3C,$66,$06,$1C,$06,$66,$3C,$00	; 3
FFFC0CDC 003C6606 
FFFC0CE0 CC6C3C1C 		db	$1C,$3C,$6C,$CC,$FE,$0C,$0C,$00	; 4
FFFC0CE4 000C0CFE 
FFFC0CE8 067C607E 		db	$7E,$60,$7C,$06,$06,$66,$3C,$00	; 5
FFFC0CEC 003C6606 
FFFC0CF0 7C60301C 		db	$1C,$30,$60,$7C,$66,$66,$3C,$00	; 6
FFFC0CF4 003C6666 
FFFC0CF8 0C06067E 		db	$7E,$06,$06,$0C,$18,$18,$18,$00	; 7
FFFC0CFC 00181818 
FFFC0D00 3C66663C 		db	$3C,$66,$66,$3C,$66,$66,$3C,$00	; 8
FFFC0D04 003C6666 
FFFC0D08 3E66663C 		db	$3C,$66,$66,$3E,$06,$0C,$38,$00	; 9
FFFC0D0C 00380C06 
FFFC0D10 00181800 		db	$00,$18,$18,$00,$00,$18,$18,$00	; :
FFFC0D14 00181800 
FFFC0D18 00181800 		db	$00,$18,$18,$00,$00,$18,$18,$30	; ;
FFFC0D1C 30181800 
FFFC0D20 60180600 		db	$00,$06,$18,$60,$18,$06,$00,$00	; <
FFFC0D24 00000618 
FFFC0D28 007E0000 		db	$00,$00,$7E,$00,$7E,$00,$00,$00	; =
FFFC0D2C 0000007E 
FFFC0D30 06186000 		db	$00,$60,$18,$06,$18,$60,$00,$00	; >
FFFC0D34 00006018 
FFFC0D38 0C06663C 		db	$3C,$66,$06,$0C,$18,$00,$18,$00	; ?
FFFC0D3C 00180018 
FFFC0D40 D6DEC67C 		db	$7C,$C6,$DE,$D6,$DE,$C0,$78,$00	; @
FFFC0D44 0078C0DE 
FFFC0D48 7E66663C 		db	$3C,$66,$66,$7E,$66,$66,$66,$00	; A
FFFC0D4C 00666666 
FFFC0D50 7C66667C 		db	$7C,$66,$66,$7C,$66,$66,$7C,$00	; B
FFFC0D54 007C6666 
FFFC0D58 6060301E 		db	$1E,$30,$60,$60,$60,$30,$1E,$00	; C
FFFC0D5C 001E3060 
FFFC0D60 66666C78 		db	$78,$6C,$66,$66,$66,$6C,$78,$00	; D
FFFC0D64 00786C66 
FFFC0D68 7860607E 		db	$7E,$60,$60,$78,$60,$60,$7E,$00	; E
FFFC0D6C 007E6060 
FFFC0D70 7860607E 		db	$7E,$60,$60,$78,$60,$60,$60,$00	; F
FFFC0D74 00606060 
FFFC0D78 6E60663C 		db	$3C,$66,$60,$6E,$66,$66,$3E,$00	; G
FFFC0D7C 003E6666 
FFFC0D80 7E666666 		db	$66,$66,$66,$7E,$66,$66,$66,$00	; H
FFFC0D84 00666666 
FFFC0D88 1818183C 		db	$3C,$18,$18,$18,$18,$18,$3C,$00	; I
FFFC0D8C 003C1818 
FFFC0D90 06060606 		db	$06,$06,$06,$06,$06,$66,$3C,$00	; J
FFFC0D94 003C6606 
FFFC0D98 F0D8CCC6 		db	$C6,$CC,$D8,$F0,$D8,$CC,$C6,$00	; K
FFFC0D9C 00C6CCD8 
FFFC0DA0 60606060 		db	$60,$60,$60,$60,$60,$60,$7E,$00	; L
FFFC0DA4 007E6060 
FFFC0DA8 D6FEEEC6 		db	$C6,$EE,$FE,$D6,$C6,$C6,$C6,$00	; M
FFFC0DAC 00C6C6C6 
FFFC0DB0 DEF6E6C6 		db	$C6,$E6,$F6,$DE,$CE,$C6,$C6,$00	; N
FFFC0DB4 00C6C6CE 
FFFC0DB8 6666663C 		db	$3C,$66,$66,$66,$66,$66,$3C,$00	; O
FFFC0DBC 003C6666 
FFFC0DC0 7C66667C 		db	$7C,$66,$66,$7C,$60,$60,$60,$00	; P
FFFC0DC4 00606060 
FFFC0DC8 CCCCCC78 		db	$78,$CC,$CC,$CC,$CC,$DC,$7E,$00	; Q
FFFC0DCC 007EDCCC 
FFFC0DD0 7C66667C 		db	$7C,$66,$66,$7C,$6C,$66,$66,$00	; R
FFFC0DD4 0066666C 
FFFC0DD8 3C70663C 		db	$3C,$66,$70,$3C,$0E,$66,$3C,$00	; S
FFFC0DDC 003C660E 
FFFC0DE0 1818187E 		db	$7E,$18,$18,$18,$18,$18,$18,$00	; T
FFFC0DE4 00181818 
FFFC0DE8 66666666 		db	$66,$66,$66,$66,$66,$66,$3C,$00	; U
FFFC0DEC 003C6666 
FFFC0DF0 66666666 		db	$66,$66,$66,$66,$3C,$3C,$18,$00	; V
FFFC0DF4 00183C3C 
FFFC0DF8 D6C6C6C6 		db	$C6,$C6,$C6,$D6,$FE,$EE,$C6,$00	; W
FFFC0DFC 00C6EEFE 
FFFC0E00 183C66C3 		db	$C3,$66,$3C,$18,$3C,$66,$C3,$00	; X
FFFC0E04 00C3663C 
FFFC0E08 183C66C3 		db	$C3,$66,$3C,$18,$18,$18,$18,$00	; Y
FFFC0E0C 00181818 
FFFC0E10 30180CFE 		db	$FE,$0C,$18,$30,$60,$C0,$FE,$00	; Z
FFFC0E14 00FEC060 
FFFC0E18 3030303C 		db	$3C,$30,$30,$30,$30,$30,$3C,$00	; [
FFFC0E1C 003C3030 
FFFC0E20 183060C0 		db	$C0,$60,$30,$18,$0C,$06,$03,$00	; \
FFFC0E24 0003060C 
FFFC0E28 0C0C0C3C 		db	$3C,$0C,$0C,$0C,$0C,$0C,$3C,$00	; ]
FFFC0E2C 003C0C0C 
FFFC0E30 C66C3810 		db	$10,$38,$6C,$C6,$00,$00,$00,$00	; ^
FFFC0E34 00000000 
FFFC0E38 00000000 		db	$00,$00,$00,$00,$00,$00,$00,$FE	; _
FFFC0E3C FE000000 
FFFC0E40 000C1818 		db	$18,$18,$0C,$00,$00,$00,$00,$00	; `
FFFC0E44 00000000 
FFFC0E48 063C0000 		db	$00,$00,$3C,$06,$3E,$66,$3E,$00	; a
FFFC0E4C 003E663E 
FFFC0E50 667C6060 		db	$60,$60,$7C,$66,$66,$66,$7C,$00	; b
FFFC0E54 007C6666 
FFFC0E58 603C0000 		db	$00,$00,$3C,$60,$60,$60,$3C,$00	; c
FFFC0E5C 003C6060 
FFFC0E60 663E0606 		db	$06,$06,$3E,$66,$66,$66,$3E,$00	; d
FFFC0E64 003E6666 
FFFC0E68 663C0000 		db	$00,$00,$3C,$66,$7E,$60,$3C,$00	; e
FFFC0E6C 003C607E 
FFFC0E70 307C301C 		db	$1C,$30,$7C,$30,$30,$30,$30,$00	; f
FFFC0E74 00303030 
FFFC0E78 663E0000 		db	$00,$00,$3E,$66,$66,$3E,$06,$3C	; g
FFFC0E7C 3C063E66 
FFFC0E80 667C6060 		db	$60,$60,$7C,$66,$66,$66,$66,$00	; h
FFFC0E84 00666666 
FFFC0E88 18180018 		db	$18,$00,$18,$18,$18,$18,$0C,$00	; i
FFFC0E8C 000C1818 
FFFC0E90 0C0C000C 		db	$0C,$00,$0C,$0C,$0C,$0C,$0C,$78	; j
FFFC0E94 780C0C0C 
FFFC0E98 6C666060 		db	$60,$60,$66,$6C,$78,$6C,$66,$00	; k
FFFC0E9C 00666C78 
FFFC0EA0 18181818 		db	$18,$18,$18,$18,$18,$18,$0C,$00	; l
FFFC0EA4 000C1818 
FFFC0EA8 FEEC0000 		db	$00,$00,$EC,$FE,$D6,$C6,$C6,$00	; m
FFFC0EAC 00C6C6D6 
FFFC0EB0 667C0000 		db	$00,$00,$7C,$66,$66,$66,$66,$00	; n
FFFC0EB4 00666666 
FFFC0EB8 663C0000 		db	$00,$00,$3C,$66,$66,$66,$3C,$00	; o
FFFC0EBC 003C6666 
FFFC0EC0 667C0000 		db	$00,$00,$7C,$66,$66,$7C,$60,$60	; p
FFFC0EC4 60607C66 
FFFC0EC8 663E0000 		db	$00,$00,$3E,$66,$66,$3E,$06,$06	; q
FFFC0ECC 06063E66 
FFFC0ED0 667C0000 		db	$00,$00,$7C,$66,$60,$60,$60,$00	; r
FFFC0ED4 00606060 
FFFC0ED8 603C0000 		db	$00,$00,$3C,$60,$3C,$06,$7C,$00	; s
FFFC0EDC 007C063C 
FFFC0EE0 307C3030 		db	$30,$30,$7C,$30,$30,$30,$1C,$00	; t
FFFC0EE4 001C3030 
FFFC0EE8 66660000 		db	$00,$00,$66,$66,$66,$66,$3E,$00	; u
FFFC0EEC 003E6666 
FFFC0EF0 66660000 		db	$00,$00,$66,$66,$66,$3C,$18,$00	; v
FFFC0EF4 00183C66 
FFFC0EF8 C6C60000 		db	$00,$00,$C6,$C6,$D6,$FE,$6C,$00	; w
FFFC0EFC 006CFED6 
FFFC0F00 6CC60000 		db	$00,$00,$C6,$6C,$38,$6C,$C6,$00	; x
FFFC0F04 00C66C38 
FFFC0F08 66660000 		db	$00,$00,$66,$66,$66,$3C,$18,$30	; y
FFFC0F0C 30183C66 
FFFC0F10 0C7E0000 		db	$00,$00,$7E,$0C,$18,$30,$7E,$00	; z
FFFC0F14 007E3018 
FFFC0F18 7018180E 		db	$0E,$18,$18,$70,$18,$18,$0E,$00	; {
FFFC0F1C 000E1818 
FFFC0F20 18181818 		db	$18,$18,$18,$18,$18,$18,$18,$00	; |
FFFC0F24 00181818 
FFFC0F28 0E181870 		db	$70,$18,$18,$0E,$18,$18,$70,$00	; }
FFFC0F2C 00701818 
FFFC0F30 00009C72 		db	$72,$9C,$00,$00,$00,$00,$00,$00	; ~
FFFC0F34 00000000 
FFFC0F38 FEFEFEFE 		db	$FE,$FE,$FE,$FE,$FE,$FE,$FE,$00	; 
FFFC0F3C 00FEFEFE 
                        	
                        		align	8                        	
                        	tblvect:
FFFC0F40 00000000 		dw	0
FFFC0F44 00000000 
FFFC0F48 00000001 		dw	1
FFFC0F4C 00000000 
FFFC0F50 00000002 		dw	2
FFFC0F54 00000000 
FFFC0F58 00000003 		dw	3
FFFC0F5C 00000000 
FFFC0F60 00000004 		dw	4
FFFC0F64 00000000 
FFFC0F68 00000005 		dw	5
FFFC0F6C 00000000 
FFFC0F70 00000006 		dw	6
FFFC0F74 00000000 
FFFC0F78 00000007 		dw	7
FFFC0F7C 00000000 
FFFC0F80 00000008 		dw	8
FFFC0F84 00000000 
FFFC0F88 00000009 		dw	9
FFFC0F8C 00000000 
FFFC0F90 0000000A 		dw	10
FFFC0F94 00000000 
FFFC0F98 0000000B 		dw	11
FFFC0F9C 00000000 
FFFC0FA0 0000000C 		dw	12
FFFC0FA4 00000000 
FFFC0FA8 0000000D 		dw	13
FFFC0FAC 00000000 
FFFC0FB0 0000000E 		dw	14
FFFC0FB4 00000000 
FFFC0FB8 0000000F 		dw	15
FFFC0FBC 00000000 
                        	
                        	vec1data:
FFFC0FC0 00000001 		dw	1,1,1,1,1,1,1,1,1,1,1,1,1,1,1,1
FFFC0FC4 00000000 
FFFC0FC8 00000001 
FFFC0FCC 00000000 
FFFC0FD0 00000001 
FFFC0FD4 00000000 
FFFC0FD8 00000001 
FFFC0FDC 00000000 
FFFC0FE0 00000001 
FFFC0FE4 00000000 
FFFC0FE8 00000001 
FFFC0FEC 00000000 
FFFC0FF0 00000001 
FFFC0FF4 00000000 
FFFC0FF8 00000001 
FFFC0FFC 00000000 
FFFC1000 00000001 
FFFC1004 00000000 
FFFC1008 00000001 
FFFC100C 00000000 
FFFC1010 00000001 
FFFC1014 00000000 
FFFC1018 00000001 
FFFC101C 00000000 
FFFC1020 00000001 
FFFC1024 00000000 
FFFC1028 00000001 
FFFC102C 00000000 
FFFC1030 00000001 
FFFC1034 00000000 
FFFC1038 00000001 
FFFC103C 00000000 
                        	vec2data:
FFFC1040 00000002 		dw	2,2,2,2,2,2,2,2,2,2,2,2,2,2,2,2
FFFC1044 00000000 
FFFC1048 00000002 
FFFC104C 00000000 
FFFC1050 00000002 
FFFC1054 00000000 
FFFC1058 00000002 
FFFC105C 00000000 
FFFC1060 00000002 
FFFC1064 00000000 
FFFC1068 00000002 
FFFC106C 00000000 
FFFC1070 00000002 
FFFC1074 00000000 
FFFC1078 00000002 
FFFC107C 00000000 
FFFC1080 00000002 
FFFC1084 00000000 
FFFC1088 00000002 
FFFC108C 00000000 
FFFC1090 00000002 
FFFC1094 00000000 
FFFC1098 00000002 
FFFC109C 00000000 
FFFC10A0 00000002 
FFFC10A4 00000000 
FFFC10A8 00000002 
FFFC10AC 00000000 
FFFC10B0 00000002 
FFFC10B4 00000000 
FFFC10B8 00000002 
FFFC10BC 00000000 
                        	
                        		code
                        		align	16                        	
                        	;====================================================
                        	; Basic Block 0
                        	;====================================================
FFFC10C0 FFE0FFC4 	public code _test:
	      	sub  	$sp,$sp,#32
FFFC10C4 000807D6 		      	sw   	$r0,8[$sp]
FFFC10C8 0000F7D6 		      	sw   	$fp,[$sp]
FFFC10CC 8B88F7C2 		      	mov  	$fp,$sp
FFFC10D0 0000FFC4 		      	sub  	$sp,$sp,#0
                        	; 	__asm {
                        		      	     	
FFFC10D4 89080842 				mov	r1:x,r1
FFFC10D8 89880842 				mov	r1,r1:x
                        	; 	}
FFFC10DC 8B88FF82 		      	mov  	$sp,$fp
FFFC10E0 0000F7D2 		      	lw   	$fp,[$sp]
FFFC10E4 0020EFE9 		      	ret  	#32
                        	endpublic
                        	
                        	;====================================================
                        	; Basic Block 0
                        	;====================================================
                        	public code _LockGCSemaphore:
; 	__asm {
                        		      	     	
FFFC10E8 00020809 				ldi		r1,#2
FFFC10EC 800C084E 				csrrs	r1,#12,r1
FFFC10F0 60410862 				bfextu	r1,r1,#1,#1	// extract the previous lock status
FFFC10F4 0001084A 				xor		r1,r1,#1	// return true if semaphore wasn't locked
FFFC10F8 0000EFE9 				ret
endpublic
                        	
                        		code
FFFC10FC 00000000 		align	1
                        	
                        	;====================================================
                        	; Basic Block 0
                        	;====================================================
FFFC1100 FFE0FFC4 	public code __new:
	      	sub  	$sp,$sp,#32
FFFC1104 0018EFD6 		      	sw   	$lr,24[$sp]
FFFC1108 0010E7D6 		      	sw   	$xlr,16[$sp]
FFFC110C 000807D6 		      	sw   	$r0,8[$sp]
FFFC1110 0000F7D6 		      	sw   	$fp,[$sp]
FFFC1114 11E8E009 		      	ldi  	$xlr,#cc64rt_21
FFFC1118 FFFCE05A 
FFFC111C 8B88F7C2 		      	mov  	$fp,$sp
FFFC1120 FFF8FFC4 		      	sub  	$sp,$sp,#8
FFFC1124 FFD8FFC4 		      	sub  	$sp,$sp,#40
FFFC1128 00005FD6 		      	sw   	$r11,0[$sp]
FFFC112C 000867D6 		      	sw   	$r12,8[$sp]
FFFC1130 00106FD6 		      	sw   	$r13,16[$sp]
FFFC1134 001877D6 		      	sw   	$r14,24[$sp]
FFFC1138 00207FD6 		      	sw   	$r15,32[$sp]
FFFC113C FFF85F92 		      	lw   	$r11,-8[$fp]
FFFC1140 00286792 		      	lw   	$r12,40[$fp]
FFFC1144 00186F92 		      	lw   	$r13,24[$fp]
FFFC1148 00007009 		      	ldi  	$r14,#cc64rt_16
FFFC114C CC8A701A 
FFFC1150 FFFC705A 
FFFC1154 00207F92 		      	lw   	$r15,32[$fp]
                        	; 	p = (__object *)malloc(n+sizeof(__object));
FFFC1158 FFF8FFC4 		      	sub  	$sp,$sp,#8
FFFC115C 00101B44 		      	add  	$v2,$r13,#16
FFFC1160 00001FD6 		      	sw   	$v2,0[$sp]
FFFC1164 FFC4EB99 		      	call 	_malloc
FFFC1168 0008FFC4 		      	add  	$sp,$sp,#8
FFFC116C 8B885842 		      	mov  	$r11,$v0
                        	; 	memset(p, 0, n+sizeof(__object));
FFFC1170 FFE8FFC4 		      	sub  	$sp,$sp,#24
FFFC1174 00005FD6 		      	sw   	$r11,0[$sp]
FFFC1178 000807D6 		      	sw   	$r0,8[$sp]
FFFC117C 00101B44 		      	add  	$v2,$r13,#16
FFFC1180 00101FD6 		      	sw   	$v2,16[$sp]
FFFC1184 FFC4B219 		      	call 	_memset
FFFC1188 0018FFC4 		      	add  	$sp,$sp,#24
                        	; 	p->__id = id;
FFFC118C 00001B90 		      	lh   	$v2,[$r14]
FFFC1190 00041AD4 		      	sh   	$v2,4[$r11]
FFFC1194 67C018E2 		      	bfextu	$v2,$v2,#0,#31
FFFC1198 00007AD4 		      	sh   	$r15,[$r11]
                        	; 	p->__typenum = typenum;
FFFC119C 67C07BE2 		      	bfextu	$r15,$r15,#0,#31
                        	; 	p->__prev = *list;
FFFC11A0 00001B12 		      	lw   	$v2,[$r12]
FFFC11A4 00081AD6 		      	sw   	$v2,8[$r11]
                        	; 	*list = p;
FFFC11A8 00005B16 		      	sw   	$r11,[$r12]
                        	; 	id++;
FFFC11AC 00001B92 		      	lw   	$v2,[$r14]
FFFC11B0 000118C4 		      	add  	$v2,$v2,#1
FFFC11B4 00001B96 		      	sw   	$v2,[$r14]
                        	; 	return (&p[1]);
FFFC11B8 00102009 		      	ldi  	$v3,#16
FFFC11BC 10615902 		      	add  	$v0,$v3,$r11
cc64rt_24:
FFFC11C0 00005FD2 		      	lw   	$r11,0[$sp]
FFFC11C4 000867D2 		      	lw   	$r12,8[$sp]
FFFC11C8 00106FD2 		      	lw   	$r13,16[$sp]
FFFC11CC 001877D2 		      	lw   	$r14,24[$sp]
FFFC11D0 00207FD2 		      	lw   	$r15,32[$sp]
FFFC11D4 8B88FF82 		      	mov  	$sp,$fp
FFFC11D8 0000F7D2 		      	lw   	$fp,[$sp]
FFFC11DC 0010E7D2 		      	lw   	$xlr,16[$sp]
FFFC11E0 0018EFD2 		      	lw   	$lr,24[$sp]
FFFC11E4 0020EFE9 		      	ret  	#32
                        	cc64rt_21:
                        	;====================================================
                        	; Basic Block 1
                        	;====================================================
FFFC11E8 0010EF92 		      	lw   	$lr,16[$fp]
FFFC11EC 0018EF96 		      	sw   	$lr,24[$fp]
FFFC11F0 FE700031 		      	bra  	cc64rt_24
                        	endpublic
                        	
                        	;====================================================
                        	; Basic Block 0
                        	;====================================================
FFFC11F4 FFE0FFC4 	public code __delete:
	      	sub  	$sp,$sp,#32
FFFC11F8 0018EFD6 		      	sw   	$lr,24[$sp]
FFFC11FC 0010E7D6 		      	sw   	$xlr,16[$sp]
FFFC1200 000807D6 		      	sw   	$r0,8[$sp]
FFFC1204 0000F7D6 		      	sw   	$fp,[$sp]
FFFC1208 1294E009 		      	ldi  	$xlr,#cc64rt_35
FFFC120C FFFCE05A 
FFFC1210 8B88F7C2 		      	mov  	$fp,$sp
FFFC1214 FFF0FFC4 		      	sub  	$sp,$sp,#16
FFFC1218 FFE0FFC4 		      	sub  	$sp,$sp,#32
FFFC121C 00005FD6 		      	sw   	$r11,0[$sp]
FFFC1220 000867D6 		      	sw   	$r12,8[$sp]
FFFC1224 00106FD6 		      	sw   	$r13,16[$sp]
FFFC1228 001877D6 		      	sw   	$r14,24[$sp]
FFFC122C FFF85F92 		      	lw   	$r11,-8[$fp]
FFFC1230 00186792 		      	lw   	$r12,24[$fp]
FFFC1234 FFF06F92 		      	lw   	$r13,-16[$fp]
FFFC1238 00207792 		      	lw   	$r14,32[$fp]
                        	; 	m = *list;
FFFC123C 00005B92 		      	lw   	$r11,[$r14]
                        	; 	if (p==m) {
FFFC1240 00415B31 		      	bne  	$r12,$r11,cc64rt_38,#0
                        	;====================================================
                        	; Basic Block 1
                        	;====================================================
                        	; 		*list = p->__prev;
FFFC1244 00081B12 		      	lw   	$v2,8[$r12]
FFFC1248 00001B96 		      	sw   	$v2,[$r14]
FFFC124C 01700030 		      	bra  	cc64rt_39
                        	cc64rt_38:
                        	;====================================================
                        	; Basic Block 2
                        	;====================================================
                        	; 		q = m;
FFFC1250 8B886AC2 		      	mov  	$r13,$r11
                        	; 		m = m->__prev;
FFFC1254 00085AD2 		      	lw   	$r11,8[$r11]
                        	cc64rt_40:
FFFC1258 00C002F1 		      	beq  	$r11,$r0,cc64rt_41
                        	;====================================================
                        	; Basic Block 3
                        	;====================================================
                        	; 			if (p==m) {
FFFC125C 00415B31 		      	bne  	$r12,$r11,cc64rt_42,#0
                        	;====================================================
                        	; Basic Block 4
                        	;====================================================
                        	; 				q->__prev = p->__prev;
FFFC1260 00081B12 		      	lw   	$v2,8[$r12]
FFFC1264 00081B56 		      	sw   	$v2,8[$r13]
                        	; 				break;
FFFC1268 00700031 		      	bra  	cc64rt_41
                        	cc64rt_42:
                        	;====================================================
                        	; Basic Block 5
                        	;====================================================
                        	; 			q = m;
FFFC126C 8B886AC2 		      	mov  	$r13,$r11
                        	; 			m = m->__prev;
FFFC1270 00085AD2 		      	lw   	$r11,8[$r11]
FFFC1274 FF300030 		      	bra  	cc64rt_40
                        	cc64rt_41:
                        	cc64rt_39:
                        	;====================================================
                        	; Basic Block 6
                        	;====================================================
                        	; 	free(&p[-1]);
FFFC1278 FFF8FFC4 		      	sub  	$sp,$sp,#8
FFFC127C FFF02009 		      	ldi  	$v3,#-16
FFFC1280 10636102 		      	add  	$v2,$v3,$r12
	      	sw   	$v2,0[$sp]
FFFC1284 00001FD6 
FFFC1288 FFC50219 		      	call 	_free
FFFC128C 0008FFC4 		      	add  	$sp,$sp,#8
FFFC1290 00700030 		      	bra  	cc64rt_37
                        	cc64rt_35:
                        	;====================================================
                        	; Basic Block 7
                        	;====================================================
FFFC1294 0010EF92 		      	lw   	$lr,16[$fp]
FFFC1298 0018EF96 		      	sw   	$lr,24[$fp]
                        	cc64rt_37:
FFFC129C 00005FD2 		      	lw   	$r11,0[$sp]
FFFC12A0 000867D2 		      	lw   	$r12,8[$sp]
FFFC12A4 00106FD2 		      	lw   	$r13,16[$sp]
FFFC12A8 001877D2 		      	lw   	$r14,24[$sp]
FFFC12AC 8B88FF82 		      	mov  	$sp,$fp
FFFC12B0 0000F7D2 		      	lw   	$fp,[$sp]
FFFC12B4 0010E7D2 		      	lw   	$xlr,16[$sp]
FFFC12B8 0018EFD2 		      	lw   	$lr,24[$sp]
FFFC12BC 0020EFE9 		      	ret  	#32
                        	endpublic
                        	
                        	;====================================================
                        	; Basic Block 0
                        	;====================================================
FFFC12C0 FFE0FFC4 	public code __AddGarbage:
	      	sub  	$sp,$sp,#32
FFFC12C4 0018EFD6 		      	sw   	$lr,24[$sp]
FFFC12C8 0010E7D6 		      	sw   	$xlr,16[$sp]
FFFC12CC 000807D6 		      	sw   	$r0,8[$sp]
FFFC12D0 0000F7D6 		      	sw   	$fp,[$sp]
FFFC12D4 1358E009 		      	ldi  	$xlr,#cc64rt_61
FFFC12D8 FFFCE05A 
FFFC12DC 8B88F7C2 		      	mov  	$fp,$sp
FFFC12E0 FFE8FFC4 		      	sub  	$sp,$sp,#24
FFFC12E4 FFE0FFC4 		      	sub  	$sp,$sp,#32
FFFC12E8 00005FD6 		      	sw   	$r11,0[$sp]
FFFC12EC 000867D6 		      	sw   	$r12,8[$sp]
FFFC12F0 00106FD6 		      	sw   	$r13,16[$sp]
FFFC12F4 001877D6 		      	sw   	$r14,24[$sp]
FFFC12F8 00185F92 		      	lw   	$r11,24[$fp]
FFFC12FC FFE86792 		      	lw   	$r12,-24[$fp]
FFFC1300 FFF06F92 		      	lw   	$r13,-16[$fp]
FFFC1304 FFF87792 		      	lw   	$r14,-8[$fp]
                        	; 	__object *p;
FFFC1308 00086809 		      	ldi  	$r13,#8
                        	cc64rt_64:
                        	; 		count = 0;
FFFC130C 00006009 		      	ldi  	$r12,#0
                        	cc64rt_66:
FFFC1310 FFC10E99 		      	call 	_LockGCSemaphore
FFFC1314 00010071 		      	bne  	$v0,$r0,cc64rt_67
                        	;====================================================
                        	; Basic Block 1
                        	;====================================================
FFFC1318 FFB00031 		      	bra  	cc64rt_66
                        	cc64rt_67:
                        	cc64rt_68:
                        	;====================================================
                        	; Basic Block 2
                        	;====================================================
FFFC131C 014002F0 		      	beq  	$r11,$r0,cc64rt_69
                        	;====================================================
                        	; Basic Block 3
                        	;====================================================
                        	; 			count++;
FFFC1320 00016304 		      	add  	$r12,$r12,#1
                        	; 			p = list->__prev;
FFFC1324 000872D2 		      	lw   	$r14,8[$r11]
                        	; 			list->__prev = *garbage_list;
FFFC1328 00001B52 		      	lw   	$v2,[$r13]
FFFC132C 00081AD6 		      	sw   	$v2,8[$r11]
                        	; 			*garbage_list = list;
FFFC1330 00005B56 		      	sw   	$r11,[$r13]
                        	; 			list = p;
FFFC1334 8B885B82 		      	mov  	$r11,$r14
                        	; 			if (count==25)
FFFC1338 00191B06 		      	cmp  	$v2,$r12,#25
FFFC133C 000100F1 		      	bne  	$v2,$r0,cc64rt_70,#0
                        	;====================================================
                        	; Basic Block 4
                        	;====================================================
                        	; 				break;
FFFC1340 00300031 		      	bra  	cc64rt_69
                        	cc64rt_70:
                        	;====================================================
                        	; Basic Block 5
                        	;====================================================
FFFC1344 FEB00031 		      	bra  	cc64rt_68
                        	cc64rt_69:
                        	;====================================================
                        	; Basic Block 6
                        	;====================================================
                        	; 	__asm {
                        		      	     	
FFFC1348 00020809 				ldi		r1,#2
FFFC134C C00C004E 				csrrc	r0,#12,r1
                        	; 	}
FFFC1350 FDC102F0 		      	bne  	$r11,$r0,cc64rt_64
                        	;====================================================
                        	; Basic Block 7
                        	;====================================================
FFFC1354 00700030 		      	bra  	cc64rt_63
                        	cc64rt_61:
                        	;====================================================
                        	; Basic Block 8
                        	;====================================================
FFFC1358 0010EF92 		      	lw   	$lr,16[$fp]
FFFC135C 0018EF96 		      	sw   	$lr,24[$fp]
                        	cc64rt_63:
FFFC1360 00005FD2 		      	lw   	$r11,0[$sp]
FFFC1364 000867D2 		      	lw   	$r12,8[$sp]
FFFC1368 00106FD2 		      	lw   	$r13,16[$sp]
FFFC136C 001877D2 		      	lw   	$r14,24[$sp]
FFFC1370 8B88FF82 		      	mov  	$sp,$fp
FFFC1374 0000F7D2 		      	lw   	$fp,[$sp]
FFFC1378 0010E7D2 		      	lw   	$xlr,16[$sp]
FFFC137C 0018EFD2 		      	lw   	$lr,24[$sp]
FFFC1380 0020EFE9 		      	ret  	#32
                        	endpublic
                        	
                        	;====================================================
                        	; Basic Block 0
                        	;====================================================
FFFC1384 FFE0FFC4 	public code __GarbageCollector:
	      	sub  	$sp,$sp,#32
FFFC1388 0018EFD6 		      	sw   	$lr,24[$sp]
FFFC138C 0010E7D6 		      	sw   	$xlr,16[$sp]
FFFC1390 000807D6 		      	sw   	$r0,8[$sp]
FFFC1394 0000F7D6 		      	sw   	$fp,[$sp]
FFFC1398 14C4E009 		      	ldi  	$xlr,#cc64rt_108
FFFC139C FFFCE05A 
FFFC13A0 8B88F7C2 		      	mov  	$fp,$sp
FFFC13A4 FFC8FFC4 		      	sub  	$sp,$sp,#56
FFFC13A8 FFC8FFC4 		      	sub  	$sp,$sp,#56
FFFC13AC 00005FD6 		      	sw   	$r11,0[$sp]
FFFC13B0 000867D6 		      	sw   	$r12,8[$sp]
FFFC13B4 00106FD6 		      	sw   	$r13,16[$sp]
FFFC13B8 001877D6 		      	sw   	$r14,24[$sp]
FFFC13BC 00207FD6 		      	sw   	$r15,32[$sp]
FFFC13C0 002887D6 		      	sw   	$r16,40[$sp]
FFFC13C4 00308FD6 		      	sw   	$r17,48[$sp]
FFFC13C8 FFF05F92 		      	lw   	$r11,-16[$fp]
FFFC13CC FFD06792 		      	lw   	$r12,-48[$fp]
FFFC13D0 FFD86F92 		      	lw   	$r13,-40[$fp]
FFFC13D4 FFE07792 		      	lw   	$r14,-32[$fp]
FFFC13D8 FFF87F92 		      	lw   	$r15,-8[$fp]
FFFC13DC FFE88792 		      	lw   	$r16,-24[$fp]
FFFC13E0 FFC88F92 		      	lw   	$r17,-56[$fp]
                        	; 	__object *p;
FFFC13E4 00086009 		      	ldi  	$r12,#8
FFFC13E8 00008809 		      	ldi  	$r17,#0
                        	; 	for (mapno = 0; mapno < 64; mapno++) {
FFFC13EC 00005809 		      	ldi  	$r11,#0
                        	cc64rt_111:
FFFC13F0 00401AC6 		      	cmp  	$v2,$r11,#64
FFFC13F4 066300F0 		      	bge  	$v2,$r0,cc64rt_112,#2
                        	;====================================================
                        	; Basic Block 1
                        	;====================================================
                        	; 		done = false;
FFFC13F8 00006809 		      	ldi  	$r13,#0
                        	cc64rt_114:
                        	; 			count = 0;
FFFC13FC 00007009 		      	ldi  	$r14,#0
                        	cc64rt_116:
FFFC1400 FFC10E99 		      	call 	_LockGCSemaphore
FFFC1404 00010071 		      	bne  	$v0,$r0,cc64rt_117
                        	;====================================================
                        	; Basic Block 2
                        	;====================================================
FFFC1408 FFB00031 		      	bra  	cc64rt_116
                        	cc64rt_117:
                        	;====================================================
                        	; Basic Block 3
                        	;====================================================
                        	; 			omapno = _SetMMUOperateKey(mapno);
FFFC140C 8B8892C2 		      	mov  	$a0,$r11
                        	; 	__asm {
                        		      	     	
FFFC1410 0003080E 				csrrd	r1,#3,r0		// get PCR
FFFC1414 31C00CA2 				bfins	r1,r18,#0,#7	// set operating key
FFFC1418 4003084E 				csrrw	r1,#3,r1		// set PCR
FFFC141C 61C00862 				bfextu	r1,r1,#0,#7		// extract old operating key
                        	; 	}
FFFC1420 8B888042 		      	mov  	$r16,$v0
                        	; 			if (*pMagic==(('A' << 16) | ('C' << 8) | 'B')) {
FFFC1424 00001C52 		      	lw   	$v2,[$r17]
FFFC1428 43003809 		      	ldi  	$t2,#4276992
FFFC142C 0041385A 
FFFC1430 00424009 		      	ldi  	$t3,#66
FFFC1434 53C04222 		      	bfext	$t3,$t3,#0,#15
FFFC1438 246441C2 		      	or   	$v3,$t2,$t3
	      	bne  	$v2,$v3,cc64rt_122,#0
FFFC143C 028120F1 
                        	cc64rt_124:
                        	;====================================================
                        	; Basic Block 4
                        	;====================================================
FFFC1440 00001B12 		      	lw   	$v2,[$r12]
FFFC1444 01C000F1 		      	beq  	$v2,$r0,cc64rt_125
                        	;====================================================
                        	; Basic Block 5
                        	;====================================================
                        	; 					count++;
FFFC1448 00017384 		      	add  	$r14,$r14,#1
                        	; 					p = (*garbage_list)->__prev;
FFFC144C 00001B12 		      	lw   	$v2,[$r12]
FFFC1450 000878D2 		      	lw   	$r15,8[$v2]
                        	; 					free(&((*garbage_list)[-1]));
FFFC1454 FFF8FFC4 		      	sub  	$sp,$sp,#8
FFFC1458 FFF02009 		      	ldi  	$v3,#-16
FFFC145C 00003B12 		      	lw   	$t2,[$r12]
FFFC1460 10633902 		      	add  	$v2,$v3,$t2
	      	sw   	$v2,0[$sp]
FFFC1464 00001FD6 
FFFC1468 FFC50219 		      	call 	_free
FFFC146C 0008FFC4 		      	add  	$sp,$sp,#8
                        	; 					*garbage_list = p;
FFFC1470 00007B16 		      	sw   	$r15,[$r12]
                        	; 					if (count==25) {
FFFC1474 00191B86 		      	cmp  	$v2,$r14,#25
FFFC1478 000100F1 		      	bne  	$v2,$r0,cc64rt_126,#0
                        	;====================================================
                        	; Basic Block 6
                        	;====================================================
                        	; 						break;
FFFC147C 00300031 		      	bra  	cc64rt_125
                        	cc64rt_126:
                        	;====================================================
                        	; Basic Block 7
                        	;====================================================
FFFC1480 FDF00031 		      	bra  	cc64rt_124
                        	cc64rt_125:
                        	;====================================================
                        	; Basic Block 8
                        	;====================================================
                        	; 				if (*garbage_list==null)
FFFC1484 00001B12 		      	lw   	$v2,[$r12]
FFFC1488 000100F1 		      	bne  	$v2,$r0,cc64rt_128
                        	;====================================================
                        	; Basic Block 9
                        	;====================================================
                        	; 					done = true;
FFFC148C 00016809 		      	ldi  	$r13,#1
                        	cc64rt_128:
FFFC1490 00300031 		      	bra  	cc64rt_123
                        	cc64rt_122:
                        	;====================================================
                        	; Basic Block 10
                        	;====================================================
                        	; 				done = true;
FFFC1494 00016809 		      	ldi  	$r13,#1
                        	cc64rt_123:
                        	; 			_SetMMUOperateKey(omapno);
FFFC1498 8B889402 		      	mov  	$a0,$r16
                        	; 	__asm {
                        		      	     	
FFFC149C 0003080E 				csrrd	r1,#3,r0		// get PCR
FFFC14A0 31C00CA2 				bfins	r1,r18,#0,#7	// set operating key
FFFC14A4 4003084E 				csrrw	r1,#3,r1		// set PCR
FFFC14A8 61C00862 				bfextu	r1,r1,#0,#7		// extract old operating key
                        	; 	__asm {
                        		      	     	
FFFC14AC 00020809 				ldi		r1,#2
FFFC14B0 C00C004E 				csrrc	r0,#12,r1
                        	; 	}
FFFC14B4 FA000371 		      	beq  	$r13,$r0,cc64rt_114
                        	;====================================================
                        	; Basic Block 11
                        	;====================================================
FFFC14B8 00015AC4 		      	add  	$r11,$r11,#1
FFFC14BC F9B00030 		      	bra  	cc64rt_111
                        	cc64rt_112:
                        	;====================================================
                        	; Basic Block 12
                        	;====================================================
FFFC14C0 00700030 		      	bra  	cc64rt_110
                        	cc64rt_108:
                        	;====================================================
                        	; Basic Block 13
                        	;====================================================
FFFC14C4 0010EF92 		      	lw   	$lr,16[$fp]
FFFC14C8 0018EF96 		      	sw   	$lr,24[$fp]
                        	cc64rt_110:
FFFC14CC 00005FD2 		      	lw   	$r11,0[$sp]
FFFC14D0 000867D2 		      	lw   	$r12,8[$sp]
FFFC14D4 00106FD2 		      	lw   	$r13,16[$sp]
FFFC14D8 001877D2 		      	lw   	$r14,24[$sp]
FFFC14DC 00207FD2 		      	lw   	$r15,32[$sp]
FFFC14E0 002887D2 		      	lw   	$r16,40[$sp]
FFFC14E4 00308FD2 		      	lw   	$r17,48[$sp]
FFFC14E8 8B88FF82 		      	mov  	$sp,$fp
FFFC14EC 0000F7D2 		      	lw   	$fp,[$sp]
FFFC14F0 0010E7D2 		      	lw   	$xlr,16[$sp]
FFFC14F4 0018EFD2 		      	lw   	$lr,24[$sp]
FFFC14F8 0020EFE9 		      	ret  	#32
                        	endpublic
                        	
                        	;====================================================
                        	; Basic Block 0
                        	;====================================================
                        	public code __BrkHandler:
; 	__asm {
                        		      	     	
FFFC14FC 00000004 				add		r0,r0,#0			// load r0 with 0
FFFC1500 0006B00E 				csrrd	r22,#6,r0			// Get cause code
FFFC1504 01041DB2 				beq		r22,#128|3,.ts
FFFC1508 0044F5B3 				beq		r22,#128|30,.gc
FFFC150C 008025B2 				beq		r22,#4,.sc
FFFC1510 02C015B2 				beq		r22,#2,.ts2
FFFC1514 C8000002 				rti						// Unknown interrupt
			.gc:
                        				// Redirect to level #6
FFFC1518 0106300D 				rex		r0,6,6,1
FFFC151C C8000002 				rti						// Redirect failed
			.sc:
FFFC1520 0106300D 				rex		r0,6,6,1
FFFC1524 C8000002 				rti
			.ts:
FFFC1528 0024B809 				lh		r1,_milliseconds
FFFC152C FF40B85A 
FFFC1530 4001B802 
FFFC1534 00010844 				add		r1,r1,#1
FFFC1538 0024B809 				sh		r1,_milliseconds
FFFC153C FF40B85A 
FFFC1540 5001B802 
FFFC1544 00000809 				ldi		r1,#$20000		// sequence number reset bit
FFFC1548 0002085A 
FFFC154C 8000004E 				csrrs	r0,#0,r1		// pulse sn reset bit
FFFC1550 00000004 				add		r0,r0,#0		// now a ramp of instructions
FFFC1554 00000004 				add		r0,r0,#0		// that don't depend on sequence
FFFC1558 00000004 				add		r0,r0,#0		// number to operate properly
FFFC155C 00000004 				add		r0,r0,#0
FFFC1560 00000004 				add		r0,r0,#0
FFFC1564 00000004 				add		r0,r0,#0
FFFC1568 00000004 				add		r0,r0,#0
                        				.ts2:
FFFC156C FFC657A8 				jmp		_FMTK_SchedulerIRQ
                        	endpublic
                        	
                        	;====================================================
                        	; Basic Block 0
                        	;====================================================
                        	public code __BrkHandler6:
; 	__asm {
                        		      	     	
FFFC1570 0006080E 				csrrd	r1,#6,r0		// get cause code
FFFC1574 00402073 				beq		r1,#4,.sc
FFFC1578 0004F072 				beq		r1,#128|30,.gc
                        				//		rti
                        				.gc:
FFFC157C FFC13859 				call	__GarbageCollector
FFFC1580 C8000002 				rti
			.sc:
FFFC1584 FFC64F28 				jmp		_FMTK_SystemCall
                        	endpublic
                        	
                        	;====================================================
                        	; Basic Block 0
                        	;====================================================
FFFC1588 FFE0FFC4 	public code __SystemInit:
	      	sub  	$sp,$sp,#32
FFFC158C 000807D6 		      	sw   	$r0,8[$sp]
FFFC1590 0000F7D6 		      	sw   	$fp,[$sp]
FFFC1594 8B88F7C2 		      	mov  	$fp,$sp
FFFC1598 0000FFC4 		      	sub  	$sp,$sp,#0
                        	; 	milliseconds = 0;
FFFC159C 0024B809 		      	sw   	$r0,_milliseconds
FFFC15A0 FF40B85A 
FFFC15A4 5800B802 
                        	; 	__asm {
                        		      	     	
FFFC15A8 15700809 				ldi		r1,#__BrkHandler6
FFFC15AC FFFC085A 
FFFC15B0 4036004E 				csrrw	r0,#$36,r1			// tvec[6]
                        	; 	}
FFFC15B4 8B88FF82 		      	mov  	$sp,$fp
FFFC15B8 0000F7D2 		      	lw   	$fp,[$sp]
FFFC15BC 0020EFE9 		      	ret  	#32
                        	endpublic
                        	
                        		code
                        		align	16                        	
                        	;====================================================
                        	; Basic Block 0
                        	;====================================================
FFFC15C0 FF10FFC4 	public code _DBERout:
	      	sub  	$sp,$sp,#240
FFFC15C4 00000FD6 		      	sw   	$v0,0[$sp]
FFFC15C8 000817D6 		      	sw   	$v1,8[$sp]
FFFC15CC 00101FD6 		      	sw   	$v2,16[$sp]
FFFC15D0 001827D6 		      	sw   	$v3,24[$sp]
FFFC15D4 00203FD6 		      	sw   	$t2,32[$sp]
FFFC15D8 002847D6 		      	sw   	$t3,40[$sp]
FFFC15DC 00304FD6 		      	sw   	$t4,48[$sp]
FFFC15E0 003857D6 		      	sw   	$t5,56[$sp]
FFFC15E4 00405FD6 		      	sw   	$t6,64[$sp]
FFFC15E8 004867D6 		      	sw   	$t7,72[$sp]
FFFC15EC 00505FD6 		      	sw   	$r11,80[$sp]
FFFC15F0 005867D6 		      	sw   	$r12,88[$sp]
FFFC15F4 00606FD6 		      	sw   	$r13,96[$sp]
FFFC15F8 006877D6 		      	sw   	$r14,104[$sp]
FFFC15FC 00707FD6 		      	sw   	$r15,112[$sp]
FFFC1600 007887D6 		      	sw   	$r16,120[$sp]
FFFC1604 00808FD6 		      	sw   	$r17,128[$sp]
FFFC1608 008897D6 		      	sw   	$a0,136[$sp]
FFFC160C 00909FD6 		      	sw   	$a1,144[$sp]
FFFC1610 0098A7D6 		      	sw   	$a2,152[$sp]
FFFC1614 00A0AFD6 		      	sw   	$a3,160[$sp]
FFFC1618 00A8B7D6 		      	sw   	$a4,168[$sp]
FFFC161C 00B0BFD6 		      	sw   	$r23,176[$sp]
FFFC1620 00B8C7D6 		      	sw   	$r24,184[$sp]
FFFC1624 00C0CFD6 		      	sw   	$r25,192[$sp]
FFFC1628 00C8D7D6 		      	sw   	$r26,200[$sp]
FFFC162C 00D0DFD6 		      	sw   	$gp,208[$sp]
FFFC1630 00D8E7D6 		      	sw   	$xlr,216[$sp]
FFFC1634 00E0EFD6 		      	sw   	$lr,224[$sp]
FFFC1638 00E8F7D6 		      	sw   	$fp,232[$sp]
FFFC163C FFE0FFC4 		      	sub  	$sp,$sp,#32
FFFC1640 0018EFD6 		      	sw   	$lr,24[$sp]
FFFC1644 0010E7D6 		      	sw   	$xlr,16[$sp]
FFFC1648 000807D6 		      	sw   	$r0,8[$sp]
FFFC164C 0000F7D6 		      	sw   	$fp,[$sp]
FFFC1650 16DCE009 		      	ldi  	$xlr,#BIOSMain_10
FFFC1654 FFFCE05A 
FFFC1658 8B88F7C2 		      	mov  	$fp,$sp
FFFC165C FFD8FFC4 		      	sub  	$sp,$sp,#40
FFFC1660 FFF8FFC4 		      	sub  	$sp,$sp,#8
FFFC1664 00005FD6 		      	sw   	$r11,0[$sp]
FFFC1668 FFF85F92 		      	lw   	$r11,-8[$fp]
                        	; 	DBGDisplayString("\r\nDatabus error: ");
FFFC166C FFF8FFC4 		      	sub  	$sp,$sp,#8
FFFC1670 000007D6 		      	sw   	$r0,0[$sp]
FFFC1674 0000E818 		      	call 	_DBGDisplayString
FFFC1678 0008FFC4 		      	add  	$sp,$sp,#8
                        	; 	puthex(GetEPC());
FFFC167C 000006D9 		      	call 	_GetEPC
FFFC1680 8B889042 		      	mov  	$a0,$v0
FFFC1684 FFC3A959 		      	call 	_puthex
                        	; 	putch(' ');
FFFC1688 00209009 		      	ldi  	$a0,#32
FFFC168C FFC3DE19 		      	call 	_putch
                        	; 	puthex(GetBadAddr());
FFFC1690 00000719 		      	call 	_GetBadAddr
FFFC1694 8B889042 		      	mov  	$a0,$v0
FFFC1698 FFC3A959 		      	call 	_puthex
                        	; 	putch(' ');
FFFC169C 00209009 		      	ldi  	$a0,#32
FFFC16A0 FFC3DE19 		      	call 	_putch
                        	; 	for (nn = 63; nn >= 0; nn--) {
FFFC16A4 003F5809 		      	ldi  	$r11,#63
                        	BIOSMain_13:
FFFC16A8 014202F1 		      	blt  	$r11,$r0,BIOSMain_14
                        	;====================================================
                        	; Basic Block 1
                        	;====================================================
                        	; 		SetPCHNDX(nn);
FFFC16AC FFF8FFC4 		      	sub  	$sp,$sp,#8
FFFC16B0 00005FD6 		      	sw   	$r11,0[$sp]
FFFC16B4 0000E818 		      	call 	_SetPCHNDX
FFFC16B8 0008FFC4 		      	add  	$sp,$sp,#8
                        	; 		puthex(ReadPCHIST());
FFFC16BC 00000759 		      	call 	_ReadPCHIST
FFFC16C0 8B889042 		      	mov  	$a0,$v0
FFFC16C4 FFC3A959 		      	call 	_puthex
                        	; 		putch(' ');
FFFC16C8 00209009 		      	ldi  	$a0,#32
FFFC16CC FFC3DE19 		      	call 	_putch
FFFC16D0 FFFF5AC4 		      	sub  	$r11,$r11,#1
FFFC16D4 FEB00030 		      	bra  	BIOSMain_13
                        	BIOSMain_14:
                        	BIOSMain_16:
                        	;====================================================
                        	; Basic Block 2
                        	;====================================================
FFFC16D8 FFF00031 		      	bra  	BIOSMain_16
                        	BIOSMain_10:
                        	;====================================================
                        	; Basic Block 3
                        	;====================================================
FFFC16DC 0010EF92 		      	lw   	$lr,16[$fp]
FFFC16E0 0018EF96 		      	sw   	$lr,24[$fp]
FFFC16E4 00005FD2 		      	lw   	$r11,0[$sp]
FFFC16E8 8B88FF82 		      	mov  	$sp,$fp
FFFC16EC 0000F7D2 		      	lw   	$fp,[$sp]
FFFC16F0 0010E7D2 		      	lw   	$xlr,16[$sp]
FFFC16F4 0018EFD2 		      	lw   	$lr,24[$sp]
FFFC16F8 00000FD2 		      	lw   	$v0,0[$sp]
FFFC16FC 000817D2 		      	lw   	$v1,8[$sp]
FFFC1700 00101FD2 		      	lw   	$v2,16[$sp]
FFFC1704 001827D2 		      	lw   	$v3,24[$sp]
FFFC1708 00203FD2 		      	lw   	$t2,32[$sp]
FFFC170C 002847D2 		      	lw   	$t3,40[$sp]
FFFC1710 00304FD2 		      	lw   	$t4,48[$sp]
FFFC1714 003857D2 		      	lw   	$t5,56[$sp]
FFFC1718 00405FD2 		      	lw   	$t6,64[$sp]
FFFC171C 004867D2 		      	lw   	$t7,72[$sp]
FFFC1720 00505FD2 		      	lw   	$r11,80[$sp]
FFFC1724 005867D2 		      	lw   	$r12,88[$sp]
FFFC1728 00606FD2 		      	lw   	$r13,96[$sp]
FFFC172C 006877D2 		      	lw   	$r14,104[$sp]
FFFC1730 00707FD2 		      	lw   	$r15,112[$sp]
FFFC1734 007887D2 		      	lw   	$r16,120[$sp]
FFFC1738 00808FD2 		      	lw   	$r17,128[$sp]
FFFC173C 008897D2 		      	lw   	$a0,136[$sp]
FFFC1740 00909FD2 		      	lw   	$a1,144[$sp]
FFFC1744 0098A7D2 		      	lw   	$a2,152[$sp]
FFFC1748 00A0AFD2 		      	lw   	$a3,160[$sp]
FFFC174C 00A8B7D2 		      	lw   	$a4,168[$sp]
FFFC1750 00B0BFD2 		      	lw   	$r23,176[$sp]
FFFC1754 00B8C7D2 		      	lw   	$r24,184[$sp]
FFFC1758 00C0CFD2 		      	lw   	$r25,192[$sp]
FFFC175C 00C8D7D2 		      	lw   	$r26,200[$sp]
FFFC1760 00D0DFD2 		      	lw   	$gp,208[$sp]
FFFC1764 00D8E7D2 		      	lw   	$xlr,216[$sp]
FFFC1768 00E0EFD2 		      	lw   	$lr,224[$sp]
FFFC176C 00E8F7D2 		      	lw   	$fp,232[$sp]
FFFC1770 00F0FFC4 		      	add  	$sp,$sp,#240
                        		      	rte  
                        	endpublic
                        	
                        	;====================================================
                        	; Basic Block 0
                        	;====================================================
FFFC1774 FFE0FFC4 	public code _BIOSMain:
	      	sub  	$sp,$sp,#32
FFFC1778 0018EFD6 		      	sw   	$lr,24[$sp]
FFFC177C 0010E7D6 		      	sw   	$xlr,16[$sp]
FFFC1780 000807D6 		      	sw   	$r0,8[$sp]
FFFC1784 0000F7D6 		      	sw   	$fp,[$sp]
FFFC1788 19FCE009 		      	ldi  	$xlr,#BIOSMain_72
FFFC178C FFFCE05A 
FFFC1790 8B88F7C2 		      	mov  	$fp,$sp
FFFC1794 FFC8FFC4 		      	sub  	$sp,$sp,#56
FFFC1798 FFD8FFC4 		      	sub  	$sp,$sp,#40
FFFC179C 00005FD6 		      	sw   	$r11,0[$sp]
FFFC17A0 000867D6 		      	sw   	$r12,8[$sp]
FFFC17A4 00106FD6 		      	sw   	$r13,16[$sp]
FFFC17A8 001877D6 		      	sw   	$r14,24[$sp]
FFFC17AC 00207FD6 		      	sw   	$r15,32[$sp]
FFFC17B0 FFC85F92 		      	lw   	$r11,-56[$fp]
FFFC17B4 FFD06792 		      	lw   	$r12,-48[$fp]
FFFC17B8 FFE06F92 		      	lw   	$r13,-32[$fp]
FFFC17BC FFD87792 		      	lw   	$r14,-40[$fp]
                        	; 	float pi = 3.1415926535897932384626;
FFFC17C0 0000B809 		      	lw   	$r15,BIOSMain_21
FFFC17C4 9000B81A 
FFFC17C8 FFFCB85A 
FFFC17CC 480FB802 
FFFC17D0 00007009 		      	ldi  	$r14,#0
                        	; 	pStack = new int[1024];
FFFC17D4 FFE8FFC4 		      	sub  	$sp,$sp,#24
FFFC17D8 20001809 		      	ldi  	$v2,#8192
FFFC17DC 00001FD6 		      	sw   	$v2,0[$sp]
FFFC17E0 4E331809 		      	ldi  	$v2,#20019
FFFC17E4 00081FD6 		      	sw   	$v2,8[$sp]
FFFC17E8 FFF81F84 		      	lea  	$v2,-8[$fp]
FFFC17EC 00101FD6 		      	sw   	$v2,16[$sp]
FFFC17F0 FFC11019 		      	call 	__new
FFFC17F4 0018FFC4 		      	add  	$sp,$sp,#24
FFFC17F8 8B886042 		      	mov  	$r12,$v0
                        	; 	info = (077 << 48) | (0 << 32) | 0;
FFFC17FC 00005809 		      	ldi  	$r11,#17732923532771328
FFFC1800 0000585A 
FFFC1804 0000589A 
FFFC1808 003F58DA 
                        	; 	FMTK_StartThread(IdleThread,1024,pStack,0,info);
FFFC180C FFD8FFC4 		      	sub  	$sp,$sp,#40
FFFC1810 000007D6 		      	sw   	$r0,0[$sp]
FFFC1814 04001809 		      	ldi  	$v2,#1024
FFFC1818 00081FD6 		      	sw   	$v2,8[$sp]
FFFC181C 001067D6 		      	sw   	$r12,16[$sp]
FFFC1820 001807D6 		      	sw   	$r0,24[$sp]
FFFC1824 00205FD6 		      	sw   	$r11,32[$sp]
FFFC1828 FFC6C319 		      	call 	_FMTK_StartThread
FFFC182C 0028FFC4 		      	add  	$sp,$sp,#40
                        	; 	info = (030 << 48) | (0 << 32) | 0;
FFFC1830 00005809 		      	ldi  	$r11,#6755399441055744
FFFC1834 0000585A 
FFFC1838 0000589A 
FFFC183C 001858DA 
                        	; 	FMTK_StartThread(FocusSwitcher, 1024, new int[1024], 0, info);
FFFC1840 FFD8FFC4 		      	sub  	$sp,$sp,#40
FFFC1844 000007D6 		      	sw   	$r0,0[$sp]
FFFC1848 04001809 		      	ldi  	$v2,#1024
FFFC184C 00081FD6 		      	sw   	$v2,8[$sp]
FFFC1850 FFE8FFC4 		      	sub  	$sp,$sp,#24
FFFC1854 20001809 		      	ldi  	$v2,#8192
FFFC1858 00001FD6 		      	sw   	$v2,0[$sp]
FFFC185C 4E331809 		      	ldi  	$v2,#20019
FFFC1860 00081FD6 		      	sw   	$v2,8[$sp]
FFFC1864 FFF81F84 		      	lea  	$v2,-8[$fp]
FFFC1868 00101FD6 		      	sw   	$v2,16[$sp]
FFFC186C FFC11019 		      	call 	__new
FFFC1870 0018FFC4 		      	add  	$sp,$sp,#24
FFFC1874 00100FD6 		      	sw   	$v0,16[$sp]
FFFC1878 001807D6 		      	sw   	$r0,24[$sp]
FFFC187C 00205FD6 		      	sw   	$r11,32[$sp]
FFFC1880 FFC6C319 		      	call 	_FMTK_StartThread
FFFC1884 0028FFC4 		      	add  	$sp,$sp,#40
                        	;     asm {
                        		      	     	
FFFC1888 002E0809 				ldi   r1,#46
FFFC188C 0600B809 				sb    r1,$FFDC0600
FFFC1890 FFDCB85A 
FFFC1894 5401B802 
                        	; 	info = (033 << 48) | (0 << 32) | 0;
FFFC1898 00005809 		      	ldi  	$r11,#7599824371187712
FFFC189C 0000585A 
FFFC18A0 0000589A 
FFFC18A4 001B58DA 
                        	; 	FMTK_StartThread(shell, 1024, new int[1024], 0, info);
FFFC18A8 FFD8FFC4 		      	sub  	$sp,$sp,#40
FFFC18AC 000007D6 		      	sw   	$r0,0[$sp]
FFFC18B0 04001809 		      	ldi  	$v2,#1024
FFFC18B4 00081FD6 		      	sw   	$v2,8[$sp]
FFFC18B8 FFE8FFC4 		      	sub  	$sp,$sp,#24
FFFC18BC 20001809 		      	ldi  	$v2,#8192
FFFC18C0 00001FD6 		      	sw   	$v2,0[$sp]
FFFC18C4 4E331809 		      	ldi  	$v2,#20019
FFFC18C8 00081FD6 		      	sw   	$v2,8[$sp]
FFFC18CC FFF81F84 		      	lea  	$v2,-8[$fp]
FFFC18D0 00101FD6 		      	sw   	$v2,16[$sp]
FFFC18D4 FFC11019 		      	call 	__new
FFFC18D8 0018FFC4 		      	add  	$sp,$sp,#24
FFFC18DC 00100FD6 		      	sw   	$v0,16[$sp]
FFFC18E0 001807D6 		      	sw   	$r0,24[$sp]
FFFC18E4 00205FD6 		      	sw   	$r11,32[$sp]
FFFC18E8 FFC6C319 		      	call 	_FMTK_StartThread
FFFC18EC 0028FFC4 		      	add  	$sp,$sp,#40
                        	;     asm {
                        		      	     	
FFFC18F0 00810809 				ldi   r1,#129
FFFC18F4 0600B809 				sb    r1,$FFDC0600
FFFC18F8 FFDCB85A 
FFFC18FC 5401B802 
                        	; 	LEDS(1);
FFFC1900 00019009 		      	ldi  	$a0,#1
                        	; 	asm {
                        		      	     	
FFFC1904 0600B809 				sh		$a0,$FFDC0600
FFFC1908 FFDCB85A 
FFFC190C 5012B802 
                        	; 	DBGAttr = 0x087FC00;//0b0000_1000_0111_1111_1100_0000_0000;
FFFC1910 00001809 		      	ldi  	$v2,#8911872
FFFC1914 FC00181A 
FFFC1918 0087185A 
FFFC191C 0020B809 		      	sh   	$v2,_DBGAttr
FFFC1920 FF40B85A 
FFFC1924 5003B802 
                        	; 	DBGClearScreen();
FFFC1928 FFC5C3D9 		      	call 	_DBGClearScreen
                        	; 	DBGHomeCursor();
FFFC192C 0000E818 		      	call 	_DBGHomeCursor
                        	; 	DBGDisplayString("  FT64 Bios Started\r\n");
FFFC1930 FFF8FFC4 		      	sub  	$sp,$sp,#8
FFFC1934 00001809 		      	ldi  	$v2,#BIOSMain_22
FFFC1938 912C181A 
FFFC193C FFFC185A 
FFFC1940 00001FD6 		      	sw   	$v2,0[$sp]
FFFC1944 0000E818 		      	call 	_DBGDisplayString
FFFC1948 0008FFC4 		      	add  	$sp,$sp,#8
                        	; 	DBGDisplayString("  Menu\r\n  up = ramtest\r\n  down = graphics demo\r\n  left = float test\r\n  right=TinyBasic\r\n");
FFFC194C FFF8FFC4 		      	sub  	$sp,$sp,#8
FFFC1950 00001809 		      	ldi  	$v2,#BIOSMain_23
FFFC1954 907A181A 
FFFC1958 FFFC185A 
FFFC195C 00001FD6 		      	sw   	$v2,0[$sp]
FFFC1960 0000E818 		      	call 	_DBGDisplayString
FFFC1964 0008FFC4 		      	add  	$sp,$sp,#8
                        	BIOSMain_79:
                        	; 	asm {
                        		      	     	
FFFC1968 0600B809 				lb		$v0,BUTTONS
FFFC196C FFDCB85A 
FFFC1970 4C01B802 
                        	; 	}
FFFC1974 8B886842 		      	mov  	$r13,$v0
                        	; 		case 4:
FFFC1978 00801366 		      	bbs  	$r13,#2,BIOSMain_91
                        	;====================================================
                        	; Basic Block 1
                        	;====================================================
                        	; 		case 8:
FFFC197C 01401B66 		      	bbs  	$r13,#3,BIOSMain_92
                        	;====================================================
                        	; Basic Block 2
                        	;====================================================
                        	; 		case 2:
FFFC1980 02000B66 		      	bbs  	$r13,#1,BIOSMain_93
                        	;====================================================
                        	; Basic Block 3
                        	;====================================================
                        	; 		case 1:
FFFC1984 02C00366 		      	bbs  	$r13,#0,BIOSMain_94
                        	;====================================================
                        	; Basic Block 4
                        	;====================================================
FFFC1988 03700031 		      	bra  	BIOSMain_85
                        	BIOSMain_91:
                        	BIOSMain_95:
                        	;====================================================
                        	; Basic Block 5
                        	;====================================================
                        	; 	asm {
                        		      	     	
FFFC198C 0600B809 				lb		$v0,BUTTONS
FFFC1990 FFDCB85A 
FFFC1994 4C01B802 
                        	; 	}
FFFC1998 00000071 		      	beq  	$v0,$r0,BIOSMain_96
                        	;====================================================
                        	; Basic Block 6
                        	;====================================================
                        	; 			while(GetButton());
FFFC199C FF700031 		      	bra  	BIOSMain_95
                        	BIOSMain_96:
                        	;====================================================
                        	; Basic Block 7
                        	;====================================================
                        	; 			SpriteDemo();
FFFC19A0 FFC2AC99 		      	call 	_SpriteDemo
                        	; 			break;
FFFC19A4 02B00030 		      	bra  	BIOSMain_85
                        	BIOSMain_92:
                        	BIOSMain_101:
                        	;====================================================
                        	; Basic Block 8
                        	;====================================================
                        	; 	asm {
                        		      	     	
FFFC19A8 0600B809 				lb		$v0,BUTTONS
FFFC19AC FFDCB85A 
FFFC19B0 4C01B802 
                        	; 	}
FFFC19B4 00000071 		      	beq  	$v0,$r0,BIOSMain_102
                        	;====================================================
                        	; Basic Block 9
                        	;====================================================
                        	; 			while(GetButton());
FFFC19B8 FF700031 		      	bra  	BIOSMain_101
                        	BIOSMain_102:
                        	;====================================================
                        	; Basic Block 10
                        	;====================================================
                        	; 			ramtest();
FFFC19BC FFC3D259 		      	call 	_ramtest
                        	; 			break;
FFFC19C0 01B00031 		      	bra  	BIOSMain_85
                        	BIOSMain_93:
                        	BIOSMain_107:
                        	;====================================================
                        	; Basic Block 11
                        	;====================================================
                        	; 	asm {
                        		      	     	
FFFC19C4 0600B809 				lb		$v0,BUTTONS
FFFC19C8 FFDCB85A 
FFFC19CC 4C01B802 
                        	; 	}
FFFC19D0 00000071 		      	beq  	$v0,$r0,BIOSMain_108
                        	;====================================================
                        	; Basic Block 12
                        	;====================================================
                        	; 			while(GetButton());
FFFC19D4 FF700031 		      	bra  	BIOSMain_107
                        	BIOSMain_108:
                        	;====================================================
                        	; Basic Block 13
                        	;====================================================
                        	; 			FloatTest();
FFFC19D8 FFC33F19 		      	call 	_FloatTest
                        	; 			break;
FFFC19DC 00F00030 		      	bra  	BIOSMain_85
                        	BIOSMain_94:
                        	BIOSMain_113:
                        	;====================================================
                        	; Basic Block 14
                        	;====================================================
                        	; 	asm {
                        		      	     	
FFFC19E0 0600B809 				lb		$v0,BUTTONS
FFFC19E4 FFDCB85A 
FFFC19E8 4C01B802 
                        	; 	}
FFFC19EC 00000071 		      	beq  	$v0,$r0,BIOSMain_114
                        	;====================================================
                        	; Basic Block 15
                        	;====================================================
                        	; 			while(GetButton());
FFFC19F0 FF700031 		      	bra  	BIOSMain_113
                        	BIOSMain_114:
                        	;====================================================
                        	; Basic Block 16
                        	;====================================================
                        	; 			asm {
                        		      	     	
FFFC19F4 00000928 				jmp	TinyBasicDSD9
                        	BIOSMain_85:
FFFC19F8 FB700031 		      	bra  	BIOSMain_79
                        	BIOSMain_72:
                        	;====================================================
                        	; Basic Block 17
                        	;====================================================
FFFC19FC 0010EF92 		      	lw   	$lr,16[$fp]
FFFC1A00 0018EF96 		      	sw   	$lr,24[$fp]
FFFC1A04 FFF8FFC4 		      	sub  	$sp,$sp,#8
FFFC1A08 000097D6 		      	sw   	$a0,[$sp]
FFFC1A0C FFF89784 		      	lea  	$a0,-8[$fp]
FFFC1A10 FFC12C19 		      	call 	__AddGarbage
FFFC1A14 000097D2 		      	lw   	$a0,[$sp]
FFFC1A18 0008FFC4 		      	add  	$sp,$sp,#8
FFFC1A1C 00005FD2 		      	lw   	$r11,0[$sp]
FFFC1A20 000867D2 		      	lw   	$r12,8[$sp]
FFFC1A24 00106FD2 		      	lw   	$r13,16[$sp]
FFFC1A28 001877D2 		      	lw   	$r14,24[$sp]
FFFC1A2C 00207FD2 		      	lw   	$r15,32[$sp]
FFFC1A30 8B88FF82 		      	mov  	$sp,$fp
FFFC1A34 0000F7D2 		      	lw   	$fp,[$sp]
FFFC1A38 0010E7D2 		      	lw   	$xlr,16[$sp]
FFFC1A3C 0018EFD2 		      	lw   	$lr,24[$sp]
FFFC1A40 0020EFE9 		      	ret  	#32
                        	endpublic
                        	
                        	;====================================================
                        	; Basic Block 0
                        	;====================================================
FFFC1A44 FF10FFC4 	public code _BTNCIRQHandler:
	      	sub  	$sp,$sp,#240
FFFC1A48 00000FD6 		      	sw   	$v0,0[$sp]
FFFC1A4C 000817D6 		      	sw   	$v1,8[$sp]
FFFC1A50 00101FD6 		      	sw   	$v2,16[$sp]
FFFC1A54 001827D6 		      	sw   	$v3,24[$sp]
FFFC1A58 00203FD6 		      	sw   	$t2,32[$sp]
FFFC1A5C 002847D6 		      	sw   	$t3,40[$sp]
FFFC1A60 00304FD6 		      	sw   	$t4,48[$sp]
FFFC1A64 003857D6 		      	sw   	$t5,56[$sp]
FFFC1A68 00405FD6 		      	sw   	$t6,64[$sp]
FFFC1A6C 004867D6 		      	sw   	$t7,72[$sp]
FFFC1A70 00505FD6 		      	sw   	$r11,80[$sp]
FFFC1A74 005867D6 		      	sw   	$r12,88[$sp]
FFFC1A78 00606FD6 		      	sw   	$r13,96[$sp]
FFFC1A7C 006877D6 		      	sw   	$r14,104[$sp]
FFFC1A80 00707FD6 		      	sw   	$r15,112[$sp]
FFFC1A84 007887D6 		      	sw   	$r16,120[$sp]
FFFC1A88 00808FD6 		      	sw   	$r17,128[$sp]
FFFC1A8C 008897D6 		      	sw   	$a0,136[$sp]
FFFC1A90 00909FD6 		      	sw   	$a1,144[$sp]
FFFC1A94 0098A7D6 		      	sw   	$a2,152[$sp]
FFFC1A98 00A0AFD6 		      	sw   	$a3,160[$sp]
FFFC1A9C 00A8B7D6 		      	sw   	$a4,168[$sp]
FFFC1AA0 00B0BFD6 		      	sw   	$r23,176[$sp]
FFFC1AA4 00B8C7D6 		      	sw   	$r24,184[$sp]
FFFC1AA8 00C0CFD6 		      	sw   	$r25,192[$sp]
FFFC1AAC 00C8D7D6 		      	sw   	$r26,200[$sp]
FFFC1AB0 00D0DFD6 		      	sw   	$gp,208[$sp]
FFFC1AB4 00D8E7D6 		      	sw   	$xlr,216[$sp]
FFFC1AB8 00E0EFD6 		      	sw   	$lr,224[$sp]
FFFC1ABC 00E8F7D6 		      	sw   	$fp,232[$sp]
FFFC1AC0 FFE0FFC4 		      	sub  	$sp,$sp,#32
FFFC1AC4 0018EFD6 		      	sw   	$lr,24[$sp]
FFFC1AC8 0010E7D6 		      	sw   	$xlr,16[$sp]
FFFC1ACC 000807D6 		      	sw   	$r0,8[$sp]
FFFC1AD0 0000F7D6 		      	sw   	$fp,[$sp]
FFFC1AD4 1B54E009 		      	ldi  	$xlr,#BIOSMain_140
FFFC1AD8 FFFCE05A 
FFFC1ADC 8B88F7C2 		      	mov  	$fp,$sp
FFFC1AE0 FFD8FFC4 		      	sub  	$sp,$sp,#40
FFFC1AE4 FFF8FFC4 		      	sub  	$sp,$sp,#8
FFFC1AE8 00005FD6 		      	sw   	$r11,0[$sp]
FFFC1AEC FFF85F92 		      	lw   	$r11,-8[$fp]
                        	; 	asm {
                        		      	     	
FFFC1AF0 001E0809 				ldi		r1,#30
FFFC1AF4 0093B809 				sh		r1,PIC_ESR
FFFC1AF8 0000B85A 
FFFC1AFC 0000B89A 
FFFC1B00 8000B8DA 
FFFC1B04 5001B802 
                        	; 	DBGDisplayString("\r\nPC History:\r\n");
FFFC1B08 FFF8FFC4 		      	sub  	$sp,$sp,#8
FFFC1B0C 00001809 		      	ldi  	$v2,#BIOSMain_124
FFFC1B10 905A181A 
FFFC1B14 FFFC185A 
FFFC1B18 00001FD6 		      	sw   	$v2,0[$sp]
FFFC1B1C 0000E818 		      	call 	_DBGDisplayString
FFFC1B20 0008FFC4 		      	add  	$sp,$sp,#8
                        	; 	for (nn = 63; nn >= 0; nn--) {
FFFC1B24 003F5809 		      	ldi  	$r11,#63
                        	BIOSMain_143:
FFFC1B28 010202F1 		      	blt  	$r11,$r0,BIOSMain_144
                        	;====================================================
                        	; Basic Block 1
                        	;====================================================
                        	; 		SetPCHNDX(nn);
FFFC1B2C 8B8892C2 		      	mov  	$a0,$r11
                        	; 	asm {
                        		      	     	
FFFC1B30 4101048E 				csrrw	$r0,#$101,$a0
                        	; 	asm {
                        		      	     	
FFFC1B34 0100080E 				csrrd	$v0,#$100,$r0
                        	; 	}
FFFC1B38 8B889042 		      	mov  	$a0,$v0
FFFC1B3C FFC3A959 		      	call 	_puthex
                        	; 		putch(' ');
FFFC1B40 00209009 		      	ldi  	$a0,#32
FFFC1B44 FFC3DE19 		      	call 	_putch
FFFC1B48 FFFF5AC4 		      	sub  	$r11,$r11,#1
FFFC1B4C FEF00030 		      	bra  	BIOSMain_143
                        	BIOSMain_144:
                        	;====================================================
                        	; Basic Block 2
                        	;====================================================
FFFC1B50 00700030 		      	bra  	BIOSMain_142
                        	BIOSMain_140:
                        	;====================================================
                        	; Basic Block 3
                        	;====================================================
FFFC1B54 0010EF92 		      	lw   	$lr,16[$fp]
FFFC1B58 0018EF96 		      	sw   	$lr,24[$fp]
                        	BIOSMain_142:
FFFC1B5C 00005FD2 		      	lw   	$r11,0[$sp]
FFFC1B60 8B88FF82 		      	mov  	$sp,$fp
FFFC1B64 0000F7D2 		      	lw   	$fp,[$sp]
FFFC1B68 0010E7D2 		      	lw   	$xlr,16[$sp]
FFFC1B6C 0018EFD2 		      	lw   	$lr,24[$sp]
FFFC1B70 00000FD2 		      	lw   	$v0,0[$sp]
FFFC1B74 000817D2 		      	lw   	$v1,8[$sp]
FFFC1B78 00101FD2 		      	lw   	$v2,16[$sp]
FFFC1B7C 001827D2 		      	lw   	$v3,24[$sp]
FFFC1B80 00203FD2 		      	lw   	$t2,32[$sp]
FFFC1B84 002847D2 		      	lw   	$t3,40[$sp]
FFFC1B88 00304FD2 		      	lw   	$t4,48[$sp]
FFFC1B8C 003857D2 		      	lw   	$t5,56[$sp]
FFFC1B90 00405FD2 		      	lw   	$t6,64[$sp]
FFFC1B94 004867D2 		      	lw   	$t7,72[$sp]
FFFC1B98 00505FD2 		      	lw   	$r11,80[$sp]
FFFC1B9C 005867D2 		      	lw   	$r12,88[$sp]
FFFC1BA0 00606FD2 		      	lw   	$r13,96[$sp]
FFFC1BA4 006877D2 		      	lw   	$r14,104[$sp]
FFFC1BA8 00707FD2 		      	lw   	$r15,112[$sp]
FFFC1BAC 007887D2 		      	lw   	$r16,120[$sp]
FFFC1BB0 00808FD2 		      	lw   	$r17,128[$sp]
FFFC1BB4 008897D2 		      	lw   	$a0,136[$sp]
FFFC1BB8 00909FD2 		      	lw   	$a1,144[$sp]
FFFC1BBC 0098A7D2 		      	lw   	$a2,152[$sp]
FFFC1BC0 00A0AFD2 		      	lw   	$a3,160[$sp]
FFFC1BC4 00A8B7D2 		      	lw   	$a4,168[$sp]
FFFC1BC8 00B0BFD2 		      	lw   	$r23,176[$sp]
FFFC1BCC 00B8C7D2 		      	lw   	$r24,184[$sp]
FFFC1BD0 00C0CFD2 		      	lw   	$r25,192[$sp]
FFFC1BD4 00C8D7D2 		      	lw   	$r26,200[$sp]
FFFC1BD8 00D0DFD2 		      	lw   	$gp,208[$sp]
FFFC1BDC 00D8E7D2 		      	lw   	$xlr,216[$sp]
FFFC1BE0 00E0EFD2 		      	lw   	$lr,224[$sp]
FFFC1BE4 00E8F7D2 		      	lw   	$fp,232[$sp]
FFFC1BE8 00F0FFC4 		      	add  	$sp,$sp,#240
                        		      	rte  
                        	endpublic
                        	
                        	;====================================================
                        	; Basic Block 0
                        	;====================================================
FFFC1BEC FF10FFC4 	public code _IBERout:
	      	sub  	$sp,$sp,#240
FFFC1BF0 00000FD6 		      	sw   	$v0,0[$sp]
FFFC1BF4 000817D6 		      	sw   	$v1,8[$sp]
FFFC1BF8 00101FD6 		      	sw   	$v2,16[$sp]
FFFC1BFC 001827D6 		      	sw   	$v3,24[$sp]
FFFC1C00 00203FD6 		      	sw   	$t2,32[$sp]
FFFC1C04 002847D6 		      	sw   	$t3,40[$sp]
FFFC1C08 00304FD6 		      	sw   	$t4,48[$sp]
FFFC1C0C 003857D6 		      	sw   	$t5,56[$sp]
FFFC1C10 00405FD6 		      	sw   	$t6,64[$sp]
FFFC1C14 004867D6 		      	sw   	$t7,72[$sp]
FFFC1C18 00505FD6 		      	sw   	$r11,80[$sp]
FFFC1C1C 005867D6 		      	sw   	$r12,88[$sp]
FFFC1C20 00606FD6 		      	sw   	$r13,96[$sp]
FFFC1C24 006877D6 		      	sw   	$r14,104[$sp]
FFFC1C28 00707FD6 		      	sw   	$r15,112[$sp]
FFFC1C2C 007887D6 		      	sw   	$r16,120[$sp]
FFFC1C30 00808FD6 		      	sw   	$r17,128[$sp]
FFFC1C34 008897D6 		      	sw   	$a0,136[$sp]
FFFC1C38 00909FD6 		      	sw   	$a1,144[$sp]
FFFC1C3C 0098A7D6 		      	sw   	$a2,152[$sp]
FFFC1C40 00A0AFD6 		      	sw   	$a3,160[$sp]
FFFC1C44 00A8B7D6 		      	sw   	$a4,168[$sp]
FFFC1C48 00B0BFD6 		      	sw   	$r23,176[$sp]
FFFC1C4C 00B8C7D6 		      	sw   	$r24,184[$sp]
FFFC1C50 00C0CFD6 		      	sw   	$r25,192[$sp]
FFFC1C54 00C8D7D6 		      	sw   	$r26,200[$sp]
FFFC1C58 00D0DFD6 		      	sw   	$gp,208[$sp]
FFFC1C5C 00D8E7D6 		      	sw   	$xlr,216[$sp]
FFFC1C60 00E0EFD6 		      	sw   	$lr,224[$sp]
FFFC1C64 00E8F7D6 		      	sw   	$fp,232[$sp]
FFFC1C68 FFE0FFC4 		      	sub  	$sp,$sp,#32
FFFC1C6C 0018EFD6 		      	sw   	$lr,24[$sp]
FFFC1C70 0010E7D6 		      	sw   	$xlr,16[$sp]
FFFC1C74 000807D6 		      	sw   	$r0,8[$sp]
FFFC1C78 0000F7D6 		      	sw   	$fp,[$sp]
FFFC1C7C 1D00E009 		      	ldi  	$xlr,#BIOSMain_174
FFFC1C80 FFFCE05A 
FFFC1C84 8B88F7C2 		      	mov  	$fp,$sp
FFFC1C88 FFD8FFC4 		      	sub  	$sp,$sp,#40
FFFC1C8C FFF8FFC4 		      	sub  	$sp,$sp,#8
FFFC1C90 00005FD6 		      	sw   	$r11,0[$sp]
FFFC1C94 FFF85F92 		      	lw   	$r11,-8[$fp]
                        	; 	DBGDisplayString("\r\nInstruction Bus Error:\r\n");
FFFC1C98 FFF8FFC4 		      	sub  	$sp,$sp,#8
FFFC1C9C 00001809 		      	ldi  	$v2,#BIOSMain_155
FFFC1CA0 9024181A 
FFFC1CA4 FFFC185A 
FFFC1CA8 00001FD6 		      	sw   	$v2,0[$sp]
FFFC1CAC 0000E818 		      	call 	_DBGDisplayString
FFFC1CB0 0008FFC4 		      	add  	$sp,$sp,#8
                        	; 	DBGDisplayString("PC History:\r\n");
FFFC1CB4 FFF8FFC4 		      	sub  	$sp,$sp,#8
FFFC1CB8 00001809 		      	ldi  	$v2,#BIOSMain_156
FFFC1CBC 9008181A 
FFFC1CC0 FFFC185A 
FFFC1CC4 00001FD6 		      	sw   	$v2,0[$sp]
FFFC1CC8 0000E818 		      	call 	_DBGDisplayString
FFFC1CCC 0008FFC4 		      	add  	$sp,$sp,#8
                        	; 	for (nn = 63; nn >= 0; nn--) {
FFFC1CD0 003F5809 		      	ldi  	$r11,#63
                        	BIOSMain_177:
FFFC1CD4 010202F1 		      	blt  	$r11,$r0,BIOSMain_178
                        	;====================================================
                        	; Basic Block 1
                        	;====================================================
                        	; 		SetPCHNDX(nn);
FFFC1CD8 8B8892C2 		      	mov  	$a0,$r11
                        	; 	asm {
                        		      	     	
FFFC1CDC 4101048E 				csrrw	$r0,#$101,$a0
                        	; 	asm {
                        		      	     	
FFFC1CE0 0100080E 				csrrd	$v0,#$100,$r0
                        	; 	}
FFFC1CE4 8B889042 		      	mov  	$a0,$v0
FFFC1CE8 FFC3A959 		      	call 	_puthex
                        	; 		putch(' ');
FFFC1CEC 00209009 		      	ldi  	$a0,#32
FFFC1CF0 FFC3DE19 		      	call 	_putch
FFFC1CF4 FFFF5AC4 		      	sub  	$r11,$r11,#1
FFFC1CF8 FEF00030 		      	bra  	BIOSMain_177
                        	BIOSMain_178:
                        	BIOSMain_188:
                        	;====================================================
                        	; Basic Block 2
                        	;====================================================
FFFC1CFC FFF00031 		      	bra  	BIOSMain_188
                        	BIOSMain_174:
                        	;====================================================
                        	; Basic Block 3
                        	;====================================================
FFFC1D00 0010EF92 		      	lw   	$lr,16[$fp]
FFFC1D04 0018EF96 		      	sw   	$lr,24[$fp]
FFFC1D08 00005FD2 		      	lw   	$r11,0[$sp]
FFFC1D0C 8B88FF82 		      	mov  	$sp,$fp
FFFC1D10 0000F7D2 		      	lw   	$fp,[$sp]
FFFC1D14 0010E7D2 		      	lw   	$xlr,16[$sp]
FFFC1D18 0018EFD2 		      	lw   	$lr,24[$sp]
FFFC1D1C 00000FD2 		      	lw   	$v0,0[$sp]
FFFC1D20 000817D2 		      	lw   	$v1,8[$sp]
FFFC1D24 00101FD2 		      	lw   	$v2,16[$sp]
FFFC1D28 001827D2 		      	lw   	$v3,24[$sp]
FFFC1D2C 00203FD2 		      	lw   	$t2,32[$sp]
FFFC1D30 002847D2 		      	lw   	$t3,40[$sp]
FFFC1D34 00304FD2 		      	lw   	$t4,48[$sp]
FFFC1D38 003857D2 		      	lw   	$t5,56[$sp]
FFFC1D3C 00405FD2 		      	lw   	$t6,64[$sp]
FFFC1D40 004867D2 		      	lw   	$t7,72[$sp]
FFFC1D44 00505FD2 		      	lw   	$r11,80[$sp]
FFFC1D48 005867D2 		      	lw   	$r12,88[$sp]
FFFC1D4C 00606FD2 		      	lw   	$r13,96[$sp]
FFFC1D50 006877D2 		      	lw   	$r14,104[$sp]
FFFC1D54 00707FD2 		      	lw   	$r15,112[$sp]
FFFC1D58 007887D2 		      	lw   	$r16,120[$sp]
FFFC1D5C 00808FD2 		      	lw   	$r17,128[$sp]
FFFC1D60 008897D2 		      	lw   	$a0,136[$sp]
FFFC1D64 00909FD2 		      	lw   	$a1,144[$sp]
FFFC1D68 0098A7D2 		      	lw   	$a2,152[$sp]
FFFC1D6C 00A0AFD2 		      	lw   	$a3,160[$sp]
FFFC1D70 00A8B7D2 		      	lw   	$a4,168[$sp]
FFFC1D74 00B0BFD2 		      	lw   	$r23,176[$sp]
FFFC1D78 00B8C7D2 		      	lw   	$r24,184[$sp]
FFFC1D7C 00C0CFD2 		      	lw   	$r25,192[$sp]
FFFC1D80 00C8D7D2 		      	lw   	$r26,200[$sp]
FFFC1D84 00D0DFD2 		      	lw   	$gp,208[$sp]
FFFC1D88 00D8E7D2 		      	lw   	$xlr,216[$sp]
FFFC1D8C 00E0EFD2 		      	lw   	$lr,224[$sp]
FFFC1D90 00E8F7D2 		      	lw   	$fp,232[$sp]
FFFC1D94 00F0FFC4 		      	add  	$sp,$sp,#240
                        		      	rte  
                        	endpublic
                        	
                        	;====================================================
                        	; Basic Block 0
                        	;====================================================
FFFC1D98 FFE0FFC4 	public code _GrWaitQue:
	      	sub  	$sp,$sp,#32
FFFC1D9C 000807D6 		      	sw   	$r0,8[$sp]
FFFC1DA0 0000F7D6 		      	sw   	$fp,[$sp]
FFFC1DA4 8B88F7C2 		      	mov  	$fp,$sp
FFFC1DA8 0000FFC4 		      	sub  	$sp,$sp,#0
                        	; 	asm {
                        		      	     	
FFFC1DAC FFF0FFC4 				sub		$sp,$sp,#16
FFFC1DB0 000017D6 				sw		$v1,[$sp]
FFFC1DB4 000837D6 				sw		$r6,8[$sp]
FFFC1DB8 00003009 				ldi		$r6,#$FFDCC000
FFFC1DBC C000301A 
FFFC1DC0 FFDC305A 
FFFC1DC4 14029002 				neg		$v1,$a0
FFFC1DC8 03FC1084 				add		$v1,$v1,#1020
                        				.0001:
FFFC1DCC 06E80991 				lhu		$v0,$6E8[r6]
FFFC1DD0 FFC208B0 				bgt		$v0,$v1,.0001
FFFC1DD4 000017D2 				lw		$v1,[$sp]
FFFC1DD8 000837D2 				lw		$r6,8[$sp]
FFFC1DDC 0010FFC4 				add		$sp,$sp,#16
                        	; 	}
FFFC1DE0 8B88FF82 		      	mov  	$sp,$fp
FFFC1DE4 0000F7D2 		      	lw   	$fp,[$sp]
FFFC1DE8 0020EFE9 		      	ret  	#32
                        	endpublic
                        	
                        	;====================================================
                        	; Basic Block 0
                        	;====================================================
FFFC1DEC FFE0FFC4 	public code _GrQueCmd:
	      	sub  	$sp,$sp,#32
FFFC1DF0 000807D6 		      	sw   	$r0,8[$sp]
FFFC1DF4 0000F7D6 		      	sw   	$fp,[$sp]
FFFC1DF8 8B88F7C2 		      	mov  	$fp,$sp
FFFC1DFC 0000FFC4 		      	sub  	$sp,$sp,#0
                        	; 	asm {
                        		      	     	
FFFC1E00 FFF8FFC4 				sub		$sp,$sp,#8
FFFC1E04 000037D6 				sw		$r6,[$sp]
FFFC1E08 00003009 				ldi		$r6,#$FFDCC000
FFFC1E0C C000301A 
FFFC1E10 FFDC305A 
FFFC1E14 06E09194 				sh		$a0,$6E0[$r6]		; set value
FFFC1E18 06E49994 				sh		$a1,$6E4[$r6]		; set command
FFFC1E1C 06E80194 				sh		$r0,$6E8[$r6]		; queue
FFFC1E20 000037D2 				lw		$r6,[$sp]
FFFC1E24 0008FFC4 				add		$sp,$sp,#8
                        	; 	}
FFFC1E28 8B88FF82 		      	mov  	$sp,$fp
FFFC1E2C 0000F7D2 		      	lw   	$fp,[$sp]
FFFC1E30 0020EFE9 		      	ret  	#32
                        	endpublic
                        	
                        	;====================================================
                        	; Basic Block 0
                        	;====================================================
FFFC1E34 FFE0FFC4 	public code _GrResetCmdQue:
	      	sub  	$sp,$sp,#32
FFFC1E38 0018EFD6 		      	sw   	$lr,24[$sp]
FFFC1E3C 0010E7D6 		      	sw   	$xlr,16[$sp]
FFFC1E40 000807D6 		      	sw   	$r0,8[$sp]
FFFC1E44 0000F7D6 		      	sw   	$fp,[$sp]
FFFC1E48 1E68E009 		      	ldi  	$xlr,#BIOSMain_211
FFFC1E4C FFFCE05A 
FFFC1E50 8B88F7C2 		      	mov  	$fp,$sp
FFFC1E54 FFF8FFC4 		      	sub  	$sp,$sp,#8
FFFC1E58 00009009 		      	ldi  	$a0,#0
FFFC1E5C 00FE9809 		      	ldi  	$a1,#254
FFFC1E60 FFC1DED9 		      	call 	_GrQueCmd
FFFC1E64 00700030 		      	bra  	BIOSMain_213
                        	BIOSMain_211:
                        	;====================================================
                        	; Basic Block 1
                        	;====================================================
FFFC1E68 0010EF92 		      	lw   	$lr,16[$fp]
FFFC1E6C 0018EF96 		      	sw   	$lr,24[$fp]
                        	BIOSMain_213:
FFFC1E70 8B88FF82 		      	mov  	$sp,$fp
FFFC1E74 0000F7D2 		      	lw   	$fp,[$sp]
FFFC1E78 0010E7D2 		      	lw   	$xlr,16[$sp]
FFFC1E7C 0018EFD2 		      	lw   	$lr,24[$sp]
FFFC1E80 0020EFE9 		      	ret  	#32
                        	endpublic
                        	
                        	;====================================================
                        	; Basic Block 0
                        	;====================================================
FFFC1E84 FFE0FFC4 	public code _GrFlushCmdQue:
	      	sub  	$sp,$sp,#32
FFFC1E88 0018EFD6 		      	sw   	$lr,24[$sp]
FFFC1E8C 0010E7D6 		      	sw   	$xlr,16[$sp]
FFFC1E90 000807D6 		      	sw   	$r0,8[$sp]
FFFC1E94 0000F7D6 		      	sw   	$fp,[$sp]
FFFC1E98 1EE0E009 		      	ldi  	$xlr,#BIOSMain_222
FFFC1E9C FFFCE05A 
FFFC1EA0 8B88F7C2 		      	mov  	$fp,$sp
FFFC1EA4 FFF0FFC4 		      	sub  	$sp,$sp,#16
FFFC1EA8 FFF8FFC4 		      	sub  	$sp,$sp,#8
FFFC1EAC 00005FD6 		      	sw   	$r11,0[$sp]
FFFC1EB0 FFF85F92 		      	lw   	$r11,-8[$fp]
                        	; 	GrWaitQue(4);
FFFC1EB4 00049009 		      	ldi  	$a0,#4
FFFC1EB8 FFC1D999 		      	call 	_GrWaitQue
                        	; 	for (nn = 0; nn < 4; nn++)
FFFC1EBC 00005809 		      	ldi  	$r11,#0
                        	BIOSMain_225:
FFFC1EC0 00041AC6 		      	cmp  	$v2,$r11,#4
FFFC1EC4 00A300F1 		      	bge  	$v2,$r0,BIOSMain_226,#2
                        	;====================================================
                        	; Basic Block 1
                        	;====================================================
                        	; 		GrQueCmd(0,255);
FFFC1EC8 00009009 		      	ldi  	$a0,#0
FFFC1ECC 00FF9809 		      	ldi  	$a1,#255
FFFC1ED0 FFC1DED9 		      	call 	_GrQueCmd
FFFC1ED4 00015AC4 		      	add  	$r11,$r11,#1
FFFC1ED8 FF300031 		      	bra  	BIOSMain_225
                        	BIOSMain_226:
                        	;====================================================
                        	; Basic Block 2
                        	;====================================================
FFFC1EDC 00700030 		      	bra  	BIOSMain_224
                        	BIOSMain_222:
                        	;====================================================
                        	; Basic Block 3
                        	;====================================================
FFFC1EE0 0010EF92 		      	lw   	$lr,16[$fp]
FFFC1EE4 0018EF96 		      	sw   	$lr,24[$fp]
                        	BIOSMain_224:
FFFC1EE8 00005FD2 		      	lw   	$r11,0[$sp]
FFFC1EEC 8B88FF82 		      	mov  	$sp,$fp
FFFC1EF0 0000F7D2 		      	lw   	$fp,[$sp]
FFFC1EF4 0010E7D2 		      	lw   	$xlr,16[$sp]
FFFC1EF8 0018EFD2 		      	lw   	$lr,24[$sp]
FFFC1EFC 0020EFE9 		      	ret  	#32
                        	endpublic
                        	
                        	;====================================================
                        	; Basic Block 0
                        	;====================================================
FFFC1F00 FFE0FFC4 	public code _GrPlotPoint:
	      	sub  	$sp,$sp,#32
FFFC1F04 0018EFD6 		      	sw   	$lr,24[$sp]
FFFC1F08 0010E7D6 		      	sw   	$xlr,16[$sp]
FFFC1F0C 000807D6 		      	sw   	$r0,8[$sp]
FFFC1F10 0000F7D6 		      	sw   	$fp,[$sp]
FFFC1F14 1F98E009 		      	ldi  	$xlr,#BIOSMain_233
FFFC1F18 FFFCE05A 
FFFC1F1C 8B88F7C2 		      	mov  	$fp,$sp
FFFC1F20 FFF8FFC4 		      	sub  	$sp,$sp,#8
FFFC1F24 FFE0FFC4 		      	sub  	$sp,$sp,#32
FFFC1F28 00005FD6 		      	sw   	$r11,0[$sp]
FFFC1F2C 000867D6 		      	sw   	$r12,8[$sp]
FFFC1F30 00106FD6 		      	sw   	$r13,16[$sp]
FFFC1F34 001877D6 		      	sw   	$r14,24[$sp]
FFFC1F38 00305F92 		      	lw   	$r11,48[$fp]
FFFC1F3C 00186792 		      	lw   	$r12,24[$fp]
FFFC1F40 00206F92 		      	lw   	$r13,32[$fp]
FFFC1F44 00287792 		      	lw   	$r14,40[$fp]
                        	; 	GrWaitQue(5);
FFFC1F48 00059009 		      	ldi  	$a0,#5
FFFC1F4C FFC1D999 		      	call 	_GrWaitQue
                        	; 	GrQueCmd(color & 0x7fff, 12);	// set pen color
FFFC1F50 7FFF9388 		      	and  	$a0,$r14,#32767
FFFC1F54 000C9809 		      	ldi  	$a1,#12
FFFC1F58 FFC1DED9 		      	call 	_GrQueCmd
                        	; 	GrQueCmd(alpha & 0xffff, 14);	// set alpha value
FFFC1F5C FFFFB809 		      	and  	$a0,$r11,#65535
FFFC1F60 0000B85A 
FFFC1F64 2072BAC2 
FFFC1F68 000E9809 		      	ldi  	$a1,#14
FFFC1F6C FFC1DED9 		      	call 	_GrQueCmd
                        	; 	GrQueCmd(x,16);			// set x0 pos
FFFC1F70 8B889302 		      	mov  	$a0,$r12
FFFC1F74 00109809 		      	ldi  	$a1,#16
FFFC1F78 FFC1DED9 		      	call 	_GrQueCmd
                        	; 	GrQueCmd(y,17);			// set y0 pos
FFFC1F7C 8B889342 		      	mov  	$a0,$r13
FFFC1F80 00119809 		      	ldi  	$a1,#17
FFFC1F84 FFC1DED9 		      	call 	_GrQueCmd
                        	; 	GrQueCmd(0x10,1);				// plot point
FFFC1F88 00109009 		      	ldi  	$a0,#16
FFFC1F8C 00019809 		      	ldi  	$a1,#1
FFFC1F90 FFC1DED9 		      	call 	_GrQueCmd
FFFC1F94 00700030 		      	bra  	BIOSMain_235
                        	BIOSMain_233:
                        	;====================================================
                        	; Basic Block 1
                        	;====================================================
FFFC1F98 0010EF92 		      	lw   	$lr,16[$fp]
FFFC1F9C 0018EF96 		      	sw   	$lr,24[$fp]
                        	BIOSMain_235:
FFFC1FA0 00005FD2 		      	lw   	$r11,0[$sp]
FFFC1FA4 000867D2 		      	lw   	$r12,8[$sp]
FFFC1FA8 00106FD2 		      	lw   	$r13,16[$sp]
FFFC1FAC 001877D2 		      	lw   	$r14,24[$sp]
FFFC1FB0 8B88FF82 		      	mov  	$sp,$fp
FFFC1FB4 0000F7D2 		      	lw   	$fp,[$sp]
FFFC1FB8 0010E7D2 		      	lw   	$xlr,16[$sp]
FFFC1FBC 0018EFD2 		      	lw   	$lr,24[$sp]
FFFC1FC0 0020EFE9 		      	ret  	#32
                        	endpublic
                        	
                        	;====================================================
                        	; Basic Block 0
                        	;====================================================
FFFC1FC4 FFE0FFC4 	public code _GrDrawLine:
	      	sub  	$sp,$sp,#32
FFFC1FC8 0018EFD6 		      	sw   	$lr,24[$sp]
FFFC1FCC 0010E7D6 		      	sw   	$xlr,16[$sp]
FFFC1FD0 000807D6 		      	sw   	$r0,8[$sp]
FFFC1FD4 0000F7D6 		      	sw   	$fp,[$sp]
FFFC1FD8 2084E009 		      	ldi  	$xlr,#BIOSMain_241
FFFC1FDC FFFCE05A 
FFFC1FE0 8B88F7C2 		      	mov  	$fp,$sp
FFFC1FE4 FFF8FFC4 		      	sub  	$sp,$sp,#8
FFFC1FE8 FFD0FFC4 		      	sub  	$sp,$sp,#48
FFFC1FEC 00005FD6 		      	sw   	$r11,0[$sp]
FFFC1FF0 000867D6 		      	sw   	$r12,8[$sp]
FFFC1FF4 00106FD6 		      	sw   	$r13,16[$sp]
FFFC1FF8 001877D6 		      	sw   	$r14,24[$sp]
FFFC1FFC 00207FD6 		      	sw   	$r15,32[$sp]
FFFC2000 002887D6 		      	sw   	$r16,40[$sp]
FFFC2004 00285F92 		      	lw   	$r11,40[$fp]
FFFC2008 00206792 		      	lw   	$r12,32[$fp]
FFFC200C 00186F92 		      	lw   	$r13,24[$fp]
FFFC2010 00387792 		      	lw   	$r14,56[$fp]
FFFC2014 00407F92 		      	lw   	$r15,64[$fp]
FFFC2018 00308792 		      	lw   	$r16,48[$fp]
                        	; 	GrWaitQue(7);
FFFC201C 00079009 		      	ldi  	$a0,#7
FFFC2020 FFC1D999 		      	call 	_GrWaitQue
                        	; 	GrQueCmd(color & 0x7fff, 12);	// set pen color
FFFC2024 7FFF9388 		      	and  	$a0,$r14,#32767
FFFC2028 000C9809 		      	ldi  	$a1,#12
FFFC202C FFC1DED9 		      	call 	_GrQueCmd
                        	; 	GrQueCmd(alpha & 0xffff, 14);	// set alpha value
FFFC2030 FFFFB809 		      	and  	$a0,$r15,#65535
FFFC2034 0000B85A 
FFFC2038 2072BBC2 
FFFC203C 000E9809 		      	ldi  	$a1,#14
FFFC2040 FFC1DED9 		      	call 	_GrQueCmd
                        	; 	GrQueCmd(x0,16);			// set x0 pos
FFFC2044 8B889342 		      	mov  	$a0,$r13
FFFC2048 00109809 		      	ldi  	$a1,#16
FFFC204C FFC1DED9 		      	call 	_GrQueCmd
                        	; 	GrQueCmd(y0,17);			// set y0 pos
FFFC2050 8B889302 		      	mov  	$a0,$r12
FFFC2054 00119809 		      	ldi  	$a1,#17
FFFC2058 FFC1DED9 		      	call 	_GrQueCmd
                        	; 	GrQueCmd(x1,19);			// set x1 pos
FFFC205C 8B8892C2 		      	mov  	$a0,$r11
FFFC2060 00139809 		      	ldi  	$a1,#19
FFFC2064 FFC1DED9 		      	call 	_GrQueCmd
                        	; 	GrQueCmd(y1,20);			// set y1 pos
FFFC2068 8B889402 		      	mov  	$a0,$r16
FFFC206C 00149809 		      	ldi  	$a1,#20
FFFC2070 FFC1DED9 		      	call 	_GrQueCmd
                        	; 	GrQueCmd(0x10,2);				// draw line
FFFC2074 00109009 		      	ldi  	$a0,#16
FFFC2078 00029809 		      	ldi  	$a1,#2
FFFC207C FFC1DED9 		      	call 	_GrQueCmd
FFFC2080 00700030 		      	bra  	BIOSMain_243
                        	BIOSMain_241:
                        	;====================================================
                        	; Basic Block 1
                        	;====================================================
FFFC2084 0010EF92 		      	lw   	$lr,16[$fp]
FFFC2088 0018EF96 		      	sw   	$lr,24[$fp]
                        	BIOSMain_243:
FFFC208C 00005FD2 		      	lw   	$r11,0[$sp]
FFFC2090 000867D2 		      	lw   	$r12,8[$sp]
FFFC2094 00106FD2 		      	lw   	$r13,16[$sp]
FFFC2098 001877D2 		      	lw   	$r14,24[$sp]
FFFC209C 00207FD2 		      	lw   	$r15,32[$sp]
FFFC20A0 002887D2 		      	lw   	$r16,40[$sp]
FFFC20A4 8B88FF82 		      	mov  	$sp,$fp
FFFC20A8 0000F7D2 		      	lw   	$fp,[$sp]
FFFC20AC 0010E7D2 		      	lw   	$xlr,16[$sp]
FFFC20B0 0018EFD2 		      	lw   	$lr,24[$sp]
FFFC20B4 0020EFE9 		      	ret  	#32
                        	endpublic
                        	
                        	;====================================================
                        	; Basic Block 0
                        	;====================================================
FFFC20B8 FFE0FFC4 	public code _RandomPoints:
	      	sub  	$sp,$sp,#32
FFFC20BC 0018EFD6 		      	sw   	$lr,24[$sp]
FFFC20C0 0010E7D6 		      	sw   	$xlr,16[$sp]
FFFC20C4 000807D6 		      	sw   	$r0,8[$sp]
FFFC20C8 0000F7D6 		      	sw   	$fp,[$sp]
FFFC20CC 2190E009 		      	ldi  	$xlr,#BIOSMain_252
FFFC20D0 FFFCE05A 
FFFC20D4 8B88F7C2 		      	mov  	$fp,$sp
FFFC20D8 FFE0FFC4 		      	sub  	$sp,$sp,#32
FFFC20DC FFE0FFC4 		      	sub  	$sp,$sp,#32
FFFC20E0 00005FD6 		      	sw   	$r11,0[$sp]
FFFC20E4 000867D6 		      	sw   	$r12,8[$sp]
FFFC20E8 00106FD6 		      	sw   	$r13,16[$sp]
FFFC20EC 001877D6 		      	sw   	$r14,24[$sp]
FFFC20F0 FFF85F92 		      	lw   	$r11,-8[$fp]
FFFC20F4 FFF06792 		      	lw   	$r12,-16[$fp]
FFFC20F8 FFE06F92 		      	lw   	$r13,-32[$fp]
FFFC20FC FFE87792 		      	lw   	$r14,-24[$fp]
                        	; 	randStream = 0;
FFFC2100 0010B809 		      	sw   	$r0,_randStream
FFFC2104 FF40B85A 
FFFC2108 5800B802 
                        	; 	for (nn = 0; nn < 10000; nn++) {
FFFC210C 00005809 		      	ldi  	$r11,#0
                        	BIOSMain_255:
FFFC2110 27101AC6 		      	cmp  	$v2,$r11,#10000
FFFC2114 03A300F1 		      	bge  	$v2,$r0,BIOSMain_256,#2
                        	;====================================================
                        	; Basic Block 1
                        	;====================================================
                        	; 		color = GetRand(randStream) & 0x7fff;
FFFC2118 0010B809 		      	lw   	$a0,_randStream
FFFC211C FF40B85A 
FFFC2120 4812B802 
FFFC2124 FFC04599 		      	call 	_GetRand
FFFC2128 7FFF6848 		      	and  	$r13,$v0,#32767
                        	; 		x = (GetRand(randStream) % 400) + 128;
FFFC212C 0010B809 		      	lw   	$a0,_randStream
FFFC2130 FF40B85A 
FFFC2134 4812B802 
FFFC2138 FFC04599 		      	call 	_GetRand
FFFC213C 0190206E 		      	mod  	$v3,$v0,#400
FFFC2140 00806104 		      	add  	$r12,$v3,#128
                        	; 		y = (GetRand(randStream) % 300) + 14;
FFFC2144 0010B809 		      	lw   	$a0,_randStream
FFFC2148 FF40B85A 
FFFC214C 4812B802 
FFFC2150 FFC04599 		      	call 	_GetRand
FFFC2154 012C206E 		      	mod  	$v3,$v0,#300
FFFC2158 000E7104 		      	add  	$r14,$v3,#14
                        	; 		GrPlotPoint(x<<16,y<<16,color,-1);
FFFC215C FFE0FFC4 		      	sub  	$sp,$sp,#32
FFFC2160 3E901B02 		      	asl  	$v2,$r12,#16
FFFC2164 00001FD6 		      	sw   	$v2,0[$sp]
FFFC2168 3E902382 		      	asl  	$v3,$r14,#16
FFFC216C 000827D6 		      	sw   	$v3,8[$sp]
FFFC2170 00106FD6 		      	sw   	$r13,16[$sp]
FFFC2174 FFFF3809 		      	ldi  	$t2,#-1
FFFC2178 00183FD6 		      	sw   	$t2,24[$sp]
FFFC217C FFC1F019 		      	call 	_GrPlotPoint
FFFC2180 0020FFC4 		      	add  	$sp,$sp,#32
FFFC2184 00015AC4 		      	add  	$r11,$r11,#1
FFFC2188 FC300031 		      	bra  	BIOSMain_255
                        	BIOSMain_256:
                        	;====================================================
                        	; Basic Block 2
                        	;====================================================
FFFC218C 00700030 		      	bra  	BIOSMain_254
                        	BIOSMain_252:
                        	;====================================================
                        	; Basic Block 3
                        	;====================================================
FFFC2190 0010EF92 		      	lw   	$lr,16[$fp]
FFFC2194 0018EF96 		      	sw   	$lr,24[$fp]
                        	BIOSMain_254:
FFFC2198 00005FD2 		      	lw   	$r11,0[$sp]
FFFC219C 000867D2 		      	lw   	$r12,8[$sp]
FFFC21A0 00106FD2 		      	lw   	$r13,16[$sp]
FFFC21A4 001877D2 		      	lw   	$r14,24[$sp]
FFFC21A8 8B88FF82 		      	mov  	$sp,$fp
FFFC21AC 0000F7D2 		      	lw   	$fp,[$sp]
FFFC21B0 0010E7D2 		      	lw   	$xlr,16[$sp]
FFFC21B4 0018EFD2 		      	lw   	$lr,24[$sp]
FFFC21B8 0020EFE9 		      	ret  	#32
                        	endpublic
                        	
                        	;====================================================
                        	; Basic Block 0
                        	;====================================================
FFFC21BC FFE0FFC4 	public code _RandomLines:
	      	sub  	$sp,$sp,#32
FFFC21C0 0018EFD6 		      	sw   	$lr,24[$sp]
FFFC21C4 0010E7D6 		      	sw   	$xlr,16[$sp]
FFFC21C8 000807D6 		      	sw   	$r0,8[$sp]
FFFC21CC 0000F7D6 		      	sw   	$fp,[$sp]
FFFC21D0 22E4E009 		      	ldi  	$xlr,#BIOSMain_266
FFFC21D4 FFFCE05A 
FFFC21D8 8B88F7C2 		      	mov  	$fp,$sp
FFFC21DC FFD0FFC4 		      	sub  	$sp,$sp,#48
FFFC21E0 FFD0FFC4 		      	sub  	$sp,$sp,#48
FFFC21E4 00005FD6 		      	sw   	$r11,0[$sp]
FFFC21E8 000867D6 		      	sw   	$r12,8[$sp]
FFFC21EC 00106FD6 		      	sw   	$r13,16[$sp]
FFFC21F0 001877D6 		      	sw   	$r14,24[$sp]
FFFC21F4 00207FD6 		      	sw   	$r15,32[$sp]
FFFC21F8 002887D6 		      	sw   	$r16,40[$sp]
FFFC21FC FFF85F92 		      	lw   	$r11,-8[$fp]
FFFC2200 FFE06792 		      	lw   	$r12,-32[$fp]
FFFC2204 FFF06F92 		      	lw   	$r13,-16[$fp]
FFFC2208 FFE87792 		      	lw   	$r14,-24[$fp]
FFFC220C FFD07F92 		      	lw   	$r15,-48[$fp]
FFFC2210 FFD88792 		      	lw   	$r16,-40[$fp]
                        	; 	randStream = 0;
FFFC2214 0010B809 		      	sw   	$r0,_randStream
FFFC2218 FF40B85A 
FFFC221C 5800B802 
                        	; 	for (nn = 0; nn < 20000; nn++) {
FFFC2220 00005809 		      	ldi  	$r11,#0
                        	BIOSMain_269:
FFFC2224 4E201AC6 		      	cmp  	$v2,$r11,#20000
FFFC2228 05A300F1 		      	bge  	$v2,$r0,BIOSMain_270,#2
                        	;====================================================
                        	; Basic Block 1
                        	;====================================================
                        	; 		color = GetRand(randStream) & 0x7fff;
FFFC222C 0010B809 		      	lw   	$a0,_randStream
FFFC2230 FF40B85A 
FFFC2234 4812B802 
FFFC2238 FFC04599 		      	call 	_GetRand
FFFC223C 7FFF7848 		      	and  	$r15,$v0,#32767
                        	; 		x0 = (GetRand(randStream) % 400) + 128;
FFFC2240 0010B809 		      	lw   	$a0,_randStream
FFFC2244 FF40B85A 
FFFC2248 4812B802 
FFFC224C FFC04599 		      	call 	_GetRand
FFFC2250 0190206E 		      	mod  	$v3,$v0,#400
FFFC2254 00806904 		      	add  	$r13,$v3,#128
                        	; 		y0 = (GetRand(randStream) % 300) + 14;
FFFC2258 0010B809 		      	lw   	$a0,_randStream
FFFC225C FF40B85A 
FFFC2260 4812B802 
FFFC2264 FFC04599 		      	call 	_GetRand
FFFC2268 012C206E 		      	mod  	$v3,$v0,#300
FFFC226C 000E7104 		      	add  	$r14,$v3,#14
                        	; 		x1 = (GetRand(randStream) % 400) + 128;
FFFC2270 0010B809 		      	lw   	$a0,_randStream
FFFC2274 FF40B85A 
FFFC2278 4812B802 
FFFC227C FFC04599 		      	call 	_GetRand
FFFC2280 0190206E 		      	mod  	$v3,$v0,#400
FFFC2284 00806104 		      	add  	$r12,$v3,#128
                        	; 		y1 = (GetRand(randStream) % 300) + 14;
FFFC2288 0010B809 		      	lw   	$a0,_randStream
FFFC228C FF40B85A 
FFFC2290 4812B802 
FFFC2294 FFC04599 		      	call 	_GetRand
FFFC2298 012C206E 		      	mod  	$v3,$v0,#300
FFFC229C 000E8104 		      	add  	$r16,$v3,#14
                        	; 		GrDrawLine(x0<<16,y0<<16,x1<<16,y1<<16,color,-1);
FFFC22A0 FFD0FFC4 		      	sub  	$sp,$sp,#48
FFFC22A4 3E901B42 		      	asl  	$v2,$r13,#16
FFFC22A8 00001FD6 		      	sw   	$v2,0[$sp]
FFFC22AC 3E902382 		      	asl  	$v3,$r14,#16
FFFC22B0 000827D6 		      	sw   	$v3,8[$sp]
FFFC22B4 3E903B02 		      	asl  	$t2,$r12,#16
FFFC22B8 00103FD6 		      	sw   	$t2,16[$sp]
FFFC22BC 3E904402 		      	asl  	$t3,$r16,#16
FFFC22C0 001847D6 		      	sw   	$t3,24[$sp]
FFFC22C4 00207FD6 		      	sw   	$r15,32[$sp]
FFFC22C8 FFFF4809 		      	ldi  	$t4,#-1
FFFC22CC 00284FD6 		      	sw   	$t4,40[$sp]
FFFC22D0 FFC1FC59 		      	call 	_GrDrawLine
FFFC22D4 0030FFC4 		      	add  	$sp,$sp,#48
FFFC22D8 00015AC4 		      	add  	$r11,$r11,#1
FFFC22DC FA300031 		      	bra  	BIOSMain_269
                        	BIOSMain_270:
                        	;====================================================
                        	; Basic Block 2
                        	;====================================================
FFFC22E0 00700030 		      	bra  	BIOSMain_268
                        	BIOSMain_266:
                        	;====================================================
                        	; Basic Block 3
                        	;====================================================
FFFC22E4 0010EF92 		      	lw   	$lr,16[$fp]
FFFC22E8 0018EF96 		      	sw   	$lr,24[$fp]
                        	BIOSMain_268:
FFFC22EC 00005FD2 		      	lw   	$r11,0[$sp]
FFFC22F0 000867D2 		      	lw   	$r12,8[$sp]
FFFC22F4 00106FD2 		      	lw   	$r13,16[$sp]
FFFC22F8 001877D2 		      	lw   	$r14,24[$sp]
FFFC22FC 00207FD2 		      	lw   	$r15,32[$sp]
FFFC2300 002887D2 		      	lw   	$r16,40[$sp]
FFFC2304 8B88FF82 		      	mov  	$sp,$fp
FFFC2308 0000F7D2 		      	lw   	$fp,[$sp]
FFFC230C 0010E7D2 		      	lw   	$xlr,16[$sp]
FFFC2310 0018EFD2 		      	lw   	$lr,24[$sp]
FFFC2314 0020EFE9 		      	ret  	#32
                        	endpublic
                        	
                        	;====================================================
                        	; Basic Block 0
                        	;====================================================
FFFC2318 FFE0FFC4 	public code _GrFillRect:
	      	sub  	$sp,$sp,#32
FFFC231C 0018EFD6 		      	sw   	$lr,24[$sp]
FFFC2320 0010E7D6 		      	sw   	$xlr,16[$sp]
FFFC2324 000807D6 		      	sw   	$r0,8[$sp]
FFFC2328 0000F7D6 		      	sw   	$fp,[$sp]
FFFC232C 23BCE009 		      	ldi  	$xlr,#BIOSMain_277
FFFC2330 FFFCE05A 
FFFC2334 8B88F7C2 		      	mov  	$fp,$sp
FFFC2338 FFF8FFC4 		      	sub  	$sp,$sp,#8
FFFC233C FFD8FFC4 		      	sub  	$sp,$sp,#40
FFFC2340 00005FD6 		      	sw   	$r11,0[$sp]
FFFC2344 000867D6 		      	sw   	$r12,8[$sp]
FFFC2348 00106FD6 		      	sw   	$r13,16[$sp]
FFFC234C 001877D6 		      	sw   	$r14,24[$sp]
FFFC2350 00207FD6 		      	sw   	$r15,32[$sp]
FFFC2354 00185F92 		      	lw   	$r11,24[$fp]
FFFC2358 00286792 		      	lw   	$r12,40[$fp]
FFFC235C 00206F92 		      	lw   	$r13,32[$fp]
FFFC2360 00307792 		      	lw   	$r14,48[$fp]
FFFC2364 00387F92 		      	lw   	$r15,56[$fp]
                        	; 	GrWaitQue(6);
FFFC2368 00069009 		      	ldi  	$a0,#6
FFFC236C FFC1D999 		      	call 	_GrWaitQue
                        	; 	GrQueCmd(color & 0x7fff, 13);	// set fill color
FFFC2370 7FFF93C8 		      	and  	$a0,$r15,#32767
FFFC2374 000D9809 		      	ldi  	$a1,#13
FFFC2378 FFC1DED9 		      	call 	_GrQueCmd
                        	; 	GrQueCmd(x0,16);			// set x0 pos
FFFC237C 8B8892C2 		      	mov  	$a0,$r11
FFFC2380 00109809 		      	ldi  	$a1,#16
FFFC2384 FFC1DED9 		      	call 	_GrQueCmd
                        	; 	GrQueCmd(y0,17);			// set y0 pos
FFFC2388 8B889342 		      	mov  	$a0,$r13
FFFC238C 00119809 		      	ldi  	$a1,#17
FFFC2390 FFC1DED9 		      	call 	_GrQueCmd
                        	; 	GrQueCmd(x1,19);			// set x1 pos
FFFC2394 8B889302 		      	mov  	$a0,$r12
FFFC2398 00139809 		      	ldi  	$a1,#19
FFFC239C FFC1DED9 		      	call 	_GrQueCmd
                        	; 	GrQueCmd(y1,20);			// set y1 pos
FFFC23A0 8B889382 		      	mov  	$a0,$r14
FFFC23A4 00149809 		      	ldi  	$a1,#20
FFFC23A8 FFC1DED9 		      	call 	_GrQueCmd
                        	; 	GrQueCmd(0x10,3);			// fill rect
FFFC23AC 00109009 		      	ldi  	$a0,#16
FFFC23B0 00039809 		      	ldi  	$a1,#3
FFFC23B4 FFC1DED9 		      	call 	_GrQueCmd
FFFC23B8 00700030 		      	bra  	BIOSMain_279
                        	BIOSMain_277:
                        	;====================================================
                        	; Basic Block 1
                        	;====================================================
FFFC23BC 0010EF92 		      	lw   	$lr,16[$fp]
FFFC23C0 0018EF96 		      	sw   	$lr,24[$fp]
                        	BIOSMain_279:
FFFC23C4 00005FD2 		      	lw   	$r11,0[$sp]
FFFC23C8 000867D2 		      	lw   	$r12,8[$sp]
FFFC23CC 00106FD2 		      	lw   	$r13,16[$sp]
FFFC23D0 001877D2 		      	lw   	$r14,24[$sp]
FFFC23D4 00207FD2 		      	lw   	$r15,32[$sp]
FFFC23D8 8B88FF82 		      	mov  	$sp,$fp
FFFC23DC 0000F7D2 		      	lw   	$fp,[$sp]
FFFC23E0 0010E7D2 		      	lw   	$xlr,16[$sp]
FFFC23E4 0018EFD2 		      	lw   	$lr,24[$sp]
FFFC23E8 0020EFE9 		      	ret  	#32
                        	endpublic
                        	
                        	;====================================================
                        	; Basic Block 0
                        	;====================================================
FFFC23EC FFE0FFC4 	public code _RandomRects:
	      	sub  	$sp,$sp,#32
FFFC23F0 0018EFD6 		      	sw   	$lr,24[$sp]
FFFC23F4 0010E7D6 		      	sw   	$xlr,16[$sp]
FFFC23F8 000807D6 		      	sw   	$r0,8[$sp]
FFFC23FC 0000F7D6 		      	sw   	$fp,[$sp]
FFFC2400 250CE009 		      	ldi  	$xlr,#BIOSMain_288
FFFC2404 FFFCE05A 
FFFC2408 8B88F7C2 		      	mov  	$fp,$sp
FFFC240C FFD0FFC4 		      	sub  	$sp,$sp,#48
FFFC2410 FFD0FFC4 		      	sub  	$sp,$sp,#48
FFFC2414 00005FD6 		      	sw   	$r11,0[$sp]
FFFC2418 000867D6 		      	sw   	$r12,8[$sp]
FFFC241C 00106FD6 		      	sw   	$r13,16[$sp]
FFFC2420 001877D6 		      	sw   	$r14,24[$sp]
FFFC2424 00207FD6 		      	sw   	$r15,32[$sp]
FFFC2428 002887D6 		      	sw   	$r16,40[$sp]
FFFC242C FFF85F92 		      	lw   	$r11,-8[$fp]
FFFC2430 FFE06792 		      	lw   	$r12,-32[$fp]
FFFC2434 FFF06F92 		      	lw   	$r13,-16[$fp]
FFFC2438 FFE87792 		      	lw   	$r14,-24[$fp]
FFFC243C FFD07F92 		      	lw   	$r15,-48[$fp]
FFFC2440 FFD88792 		      	lw   	$r16,-40[$fp]
                        	; 	randStream = 0;
FFFC2444 0010B809 		      	sw   	$r0,_randStream
FFFC2448 FF40B85A 
FFFC244C 5800B802 
                        	; 	for (nn = 0; nn < 1000; nn++) {
FFFC2450 00005809 		      	ldi  	$r11,#0
                        	BIOSMain_291:
FFFC2454 03E81AC6 		      	cmp  	$v2,$r11,#1000
FFFC2458 056300F1 		      	bge  	$v2,$r0,BIOSMain_292,#2
                        	;====================================================
                        	; Basic Block 1
                        	;====================================================
                        	; 		color = GetRand(randStream) & 0x7fff;
FFFC245C 0010B809 		      	lw   	$a0,_randStream
FFFC2460 FF40B85A 
FFFC2464 4812B802 
FFFC2468 FFC04599 		      	call 	_GetRand
FFFC246C 7FFF7848 		      	and  	$r15,$v0,#32767
                        	; 		x0 = (GetRand(randStream) % 400) + 128;
FFFC2470 0010B809 		      	lw   	$a0,_randStream
FFFC2474 FF40B85A 
FFFC2478 4812B802 
FFFC247C FFC04599 		      	call 	_GetRand
FFFC2480 0190206E 		      	mod  	$v3,$v0,#400
FFFC2484 00806904 		      	add  	$r13,$v3,#128
                        	; 		y0 = (GetRand(randStream) % 300) + 14;
FFFC2488 0010B809 		      	lw   	$a0,_randStream
FFFC248C FF40B85A 
FFFC2490 4812B802 
FFFC2494 FFC04599 		      	call 	_GetRand
FFFC2498 012C206E 		      	mod  	$v3,$v0,#300
FFFC249C 000E7104 		      	add  	$r14,$v3,#14
                        	; 		x1 = (GetRand(randStream) % 400) + 128;
FFFC24A0 0010B809 		      	lw   	$a0,_randStream
FFFC24A4 FF40B85A 
FFFC24A8 4812B802 
FFFC24AC FFC04599 		      	call 	_GetRand
FFFC24B0 0190206E 		      	mod  	$v3,$v0,#400
FFFC24B4 00806104 		      	add  	$r12,$v3,#128
                        	; 		y1 = (GetRand(randStream) % 300) + 14;
FFFC24B8 0010B809 		      	lw   	$a0,_randStream
FFFC24BC FF40B85A 
FFFC24C0 4812B802 
FFFC24C4 FFC04599 		      	call 	_GetRand
FFFC24C8 012C206E 		      	mod  	$v3,$v0,#300
FFFC24CC 000E8104 		      	add  	$r16,$v3,#14
                        	; 		GrFillRect(x0<<16,y0<<16,x1<<16,y1<<16,color);
FFFC24D0 FFD8FFC4 		      	sub  	$sp,$sp,#40
FFFC24D4 3E901B42 		      	asl  	$v2,$r13,#16
FFFC24D8 00001FD6 		      	sw   	$v2,0[$sp]
FFFC24DC 3E902382 		      	asl  	$v3,$r14,#16
FFFC24E0 000827D6 		      	sw   	$v3,8[$sp]
FFFC24E4 3E903B02 		      	asl  	$t2,$r12,#16
FFFC24E8 00103FD6 		      	sw   	$t2,16[$sp]
FFFC24EC 3E904402 		      	asl  	$t3,$r16,#16
FFFC24F0 001847D6 		      	sw   	$t3,24[$sp]
FFFC24F4 00207FD6 		      	sw   	$r15,32[$sp]
FFFC24F8 FFC23199 		      	call 	_GrFillRect
FFFC24FC 0028FFC4 		      	add  	$sp,$sp,#40
FFFC2500 00015AC4 		      	add  	$r11,$r11,#1
FFFC2504 FA700031 		      	bra  	BIOSMain_291
                        	BIOSMain_292:
                        	;====================================================
                        	; Basic Block 2
                        	;====================================================
FFFC2508 00700030 		      	bra  	BIOSMain_290
                        	BIOSMain_288:
                        	;====================================================
                        	; Basic Block 3
                        	;====================================================
FFFC250C 0010EF92 		      	lw   	$lr,16[$fp]
FFFC2510 0018EF96 		      	sw   	$lr,24[$fp]
                        	BIOSMain_290:
FFFC2514 00005FD2 		      	lw   	$r11,0[$sp]
FFFC2518 000867D2 		      	lw   	$r12,8[$sp]
FFFC251C 00106FD2 		      	lw   	$r13,16[$sp]
FFFC2520 001877D2 		      	lw   	$r14,24[$sp]
FFFC2524 00207FD2 		      	lw   	$r15,32[$sp]
FFFC2528 002887D2 		      	lw   	$r16,40[$sp]
FFFC252C 8B88FF82 		      	mov  	$sp,$fp
FFFC2530 0000F7D2 		      	lw   	$fp,[$sp]
FFFC2534 0010E7D2 		      	lw   	$xlr,16[$sp]
FFFC2538 0018EFD2 		      	lw   	$lr,24[$sp]
FFFC253C 0020EFE9 		      	ret  	#32
                        	endpublic
                        	
                        	;====================================================
                        	; Basic Block 0
                        	;====================================================
FFFC2540 FFE0FFC4 	public code _GrDrawChar:
	      	sub  	$sp,$sp,#32
FFFC2544 0018EFD6 		      	sw   	$lr,24[$sp]
FFFC2548 0010E7D6 		      	sw   	$xlr,16[$sp]
FFFC254C 000807D6 		      	sw   	$r0,8[$sp]
FFFC2550 0000F7D6 		      	sw   	$fp,[$sp]
FFFC2554 25C8E009 		      	ldi  	$xlr,#BIOSMain_299
FFFC2558 FFFCE05A 
FFFC255C 8B88F7C2 		      	mov  	$fp,$sp
FFFC2560 FFF8FFC4 		      	sub  	$sp,$sp,#8
FFFC2564 FFE8FFC4 		      	sub  	$sp,$sp,#24
FFFC2568 00005FD6 		      	sw   	$r11,0[$sp]
FFFC256C 000867D6 		      	sw   	$r12,8[$sp]
FFFC2570 00106FD6 		      	sw   	$r13,16[$sp]
FFFC2574 00285F92 		      	lw   	$r11,40[$fp]
FFFC2578 00186792 		      	lw   	$r12,24[$fp]
FFFC257C 00206F92 		      	lw   	$r13,32[$fp]
                        	; 	GrWaitQue(5);
FFFC2580 00059009 		      	ldi  	$a0,#5
FFFC2584 FFC1D999 		      	call 	_GrWaitQue
                        	; 	GrQueCmd(0x7FFF, 12);	// set pen color
FFFC2588 7FFF9009 		      	ldi  	$a0,#32767
FFFC258C 000C9809 		      	ldi  	$a1,#12
FFFC2590 FFC1DED9 		      	call 	_GrQueCmd
                        	; 	GrQueCmd(0x000F, 13);	// set fill color
FFFC2594 000F9009 		      	ldi  	$a0,#15
FFFC2598 000D9809 		      	ldi  	$a1,#13
FFFC259C FFC1DED9 		      	call 	_GrQueCmd
                        	; 	GrQueCmd(x,16);			// set x0 pos
FFFC25A0 8B889302 		      	mov  	$a0,$r12
FFFC25A4 00109809 		      	ldi  	$a1,#16
FFFC25A8 FFC1DED9 		      	call 	_GrQueCmd
                        	; 	GrQueCmd(y,17);			// set y0 pos
FFFC25AC 8B889342 		      	mov  	$a0,$r13
FFFC25B0 00119809 		      	ldi  	$a1,#17
FFFC25B4 FFC1DED9 		      	call 	_GrQueCmd
                        	; 	GrQueCmd(ch,0);			// text blit
FFFC25B8 8B8892C2 		      	mov  	$a0,$r11
FFFC25BC 00009809 		      	ldi  	$a1,#0
FFFC25C0 FFC1DED9 		      	call 	_GrQueCmd
FFFC25C4 00700030 		      	bra  	BIOSMain_301
                        	BIOSMain_299:
                        	;====================================================
                        	; Basic Block 1
                        	;====================================================
FFFC25C8 0010EF92 		      	lw   	$lr,16[$fp]
FFFC25CC 0018EF96 		      	sw   	$lr,24[$fp]
                        	BIOSMain_301:
FFFC25D0 00005FD2 		      	lw   	$r11,0[$sp]
FFFC25D4 000867D2 		      	lw   	$r12,8[$sp]
FFFC25D8 00106FD2 		      	lw   	$r13,16[$sp]
FFFC25DC 8B88FF82 		      	mov  	$sp,$fp
FFFC25E0 0000F7D2 		      	lw   	$fp,[$sp]
FFFC25E4 0010E7D2 		      	lw   	$xlr,16[$sp]
FFFC25E8 0018EFD2 		      	lw   	$lr,24[$sp]
FFFC25EC 0020EFE9 		      	ret  	#32
                        	endpublic
                        	
                        	;====================================================
                        	; Basic Block 0
                        	;====================================================
FFFC25F0 FFE0FFC4 	public code _RandomChars:
	      	sub  	$sp,$sp,#32
FFFC25F4 0018EFD6 		      	sw   	$lr,24[$sp]
FFFC25F8 0010E7D6 		      	sw   	$xlr,16[$sp]
FFFC25FC 000807D6 		      	sw   	$r0,8[$sp]
FFFC2600 0000F7D6 		      	sw   	$fp,[$sp]
FFFC2604 26ACE009 		      	ldi  	$xlr,#BIOSMain_310
FFFC2608 FFFCE05A 
FFFC260C 8B88F7C2 		      	mov  	$fp,$sp
FFFC2610 FFD8FFC4 		      	sub  	$sp,$sp,#40
FFFC2614 FFE8FFC4 		      	sub  	$sp,$sp,#24
FFFC2618 00005FD6 		      	sw   	$r11,0[$sp]
FFFC261C 000867D6 		      	sw   	$r12,8[$sp]
FFFC2620 00106FD6 		      	sw   	$r13,16[$sp]
FFFC2624 FFE85F92 		      	lw   	$r11,-24[$fp]
FFFC2628 FFF06792 		      	lw   	$r12,-16[$fp]
FFFC262C FFE06F92 		      	lw   	$r13,-32[$fp]
                        	; 	randStream = 0;
FFFC2630 0010B809 		      	sw   	$r0,_randStream
FFFC2634 FF40B85A 
FFFC2638 5800B802 
                        	; 	y0 = 128;
FFFC263C 00806809 		      	ldi  	$r13,#128
                        	; 	ch = 'A';
FFFC2640 00416009 		      	ldi  	$r12,#65
                        	; 	GrWaitQue(2);
FFFC2644 00029009 		      	ldi  	$a0,#2
FFFC2648 FFC1D999 		      	call 	_GrWaitQue
                        	; 	GrQueCmd(0x7FFF, 12);	// set pen color
FFFC264C 7FFF9009 		      	ldi  	$a0,#32767
FFFC2650 000C9809 		      	ldi  	$a1,#12
FFFC2654 FFC1DED9 		      	call 	_GrQueCmd
                        	; 	GrQueCmd(0x000F, 13);	// set fill color
FFFC2658 000F9009 		      	ldi  	$a0,#15
FFFC265C 000D9809 		      	ldi  	$a1,#13
FFFC2660 FFC1DED9 		      	call 	_GrQueCmd
                        	; 	for (x0 = 128; x0 < 500; x0 += 10) {
FFFC2664 00805809 		      	ldi  	$r11,#128
                        	BIOSMain_313:
FFFC2668 01F41AC6 		      	cmp  	$v2,$r11,#500
FFFC266C 01E300F0 		      	bge  	$v2,$r0,BIOSMain_314,#2
                        	;====================================================
                        	; Basic Block 1
                        	;====================================================
                        	; 		GrWaitQue(3);
FFFC2670 00039009 		      	ldi  	$a0,#3
FFFC2674 FFC1D999 		      	call 	_GrWaitQue
                        	; 		GrQueCmd(x0<<16,16);
FFFC2678 3E9092C2 		      	asl  	$a0,$r11,#16
FFFC267C 00109809 		      	ldi  	$a1,#16
FFFC2680 FFC1DED9 		      	call 	_GrQueCmd
                        	; 		GrQueCmd(y0<<16,17);
FFFC2684 3E909342 		      	asl  	$a0,$r13,#16
FFFC2688 00119809 		      	ldi  	$a1,#17
FFFC268C FFC1DED9 		      	call 	_GrQueCmd
                        	; 		GrQueCmd(ch,0);
FFFC2690 8B889302 		      	mov  	$a0,$r12
FFFC2694 00009809 		      	ldi  	$a1,#0
FFFC2698 FFC1DED9 		      	call 	_GrQueCmd
                        	; 		ch++;
FFFC269C 00016304 		      	add  	$r12,$r12,#1
FFFC26A0 000A5AC4 		      	add  	$r11,$r11,#10
FFFC26A4 FE300030 		      	bra  	BIOSMain_313
                        	BIOSMain_314:
                        	;====================================================
                        	; Basic Block 2
                        	;====================================================
FFFC26A8 00700030 		      	bra  	BIOSMain_312
                        	BIOSMain_310:
                        	;====================================================
                        	; Basic Block 3
                        	;====================================================
FFFC26AC 0010EF92 		      	lw   	$lr,16[$fp]
FFFC26B0 0018EF96 		      	sw   	$lr,24[$fp]
                        	BIOSMain_312:
FFFC26B4 00005FD2 		      	lw   	$r11,0[$sp]
FFFC26B8 000867D2 		      	lw   	$r12,8[$sp]
FFFC26BC 00106FD2 		      	lw   	$r13,16[$sp]
FFFC26C0 8B88FF82 		      	mov  	$sp,$fp
FFFC26C4 0000F7D2 		      	lw   	$fp,[$sp]
FFFC26C8 0010E7D2 		      	lw   	$xlr,16[$sp]
FFFC26CC 0018EFD2 		      	lw   	$lr,24[$sp]
FFFC26D0 0020EFE9 		      	ret  	#32
                        	endpublic
                        	
                        	;====================================================
                        	; Basic Block 0
                        	;====================================================
FFFC26D4 FFE0FFC4 	public code _GrClearScreen:
	      	sub  	$sp,$sp,#32
FFFC26D8 000807D6 		      	sw   	$r0,8[$sp]
FFFC26DC 0000F7D6 		      	sw   	$fp,[$sp]
FFFC26E0 8B88F7C2 		      	mov  	$fp,$sp
FFFC26E4 FFF0FFC4 		      	sub  	$sp,$sp,#16
FFFC26E8 FFE8FFC4 		      	sub  	$sp,$sp,#24
FFFC26EC 00005FD6 		      	sw   	$r11,0[$sp]
FFFC26F0 000867D6 		      	sw   	$r12,8[$sp]
FFFC26F4 00106FD6 		      	sw   	$r13,16[$sp]
FFFC26F8 FFF85F92 		      	lw   	$r11,-8[$fp]
FFFC26FC 53006009 		      	ldi  	$r12,#480000
FFFC2700 0007605A 
                        	; 	int nn;
FFFC2704 00006809 		      	ldi  	$r13,#1048576
FFFC2708 0010685A 
                        	; 	for (nn = 0; nn < 480000; nn++)
FFFC270C 00005809 		      	ldi  	$r11,#0
                        	BIOSMain_327:
FFFC2710 00A362F1 		      	bge  	$r11,$r12,BIOSMain_328,#2
                        	;====================================================
                        	; Basic Block 1
                        	;====================================================
                        	; 		pScreen[nn] = 0x000f;
FFFC2714 3E010AC2 		      	shl  	$v0,$r11,#1
FFFC2718 000F1009 		      	ldi  	$v1,#15
FFFC271C 90020B42 		      	sc   	$v1,[$r13+$v0]
FFFC2720 00015AC4 		      	add  	$r11,$r11,#1
FFFC2724 FF700030 		      	bra  	BIOSMain_327
                        	BIOSMain_328:
                        	;====================================================
                        	; Basic Block 2
                        	;====================================================
FFFC2728 00005FD2 		      	lw   	$r11,0[$sp]
FFFC272C 000867D2 		      	lw   	$r12,8[$sp]
FFFC2730 00106FD2 		      	lw   	$r13,16[$sp]
FFFC2734 8B88FF82 		      	mov  	$sp,$fp
FFFC2738 0000F7D2 		      	lw   	$fp,[$sp]
FFFC273C 0020EFE9 		      	ret  	#32
                        	endpublic
                        	
                        	;====================================================
                        	; Basic Block 0
                        	;====================================================
FFFC2740 FFE0FFC4 	public code _ColorBandMemory:
	      	sub  	$sp,$sp,#32
FFFC2744 0018EFD6 		      	sw   	$lr,24[$sp]
FFFC2748 0010E7D6 		      	sw   	$xlr,16[$sp]
FFFC274C 000807D6 		      	sw   	$r0,8[$sp]
FFFC2750 0000F7D6 		      	sw   	$fp,[$sp]
FFFC2754 27D0E009 		      	ldi  	$xlr,#BIOSMain_340
FFFC2758 FFFCE05A 
FFFC275C 8B88F7C2 		      	mov  	$fp,$sp
FFFC2760 FFE8FFC4 		      	sub  	$sp,$sp,#24
FFFC2764 FFE0FFC4 		      	sub  	$sp,$sp,#32
FFFC2768 00005FD6 		      	sw   	$r11,0[$sp]
FFFC276C 000867D6 		      	sw   	$r12,8[$sp]
FFFC2770 00106FD6 		      	sw   	$r13,16[$sp]
FFFC2774 001877D6 		      	sw   	$r14,24[$sp]
FFFC2778 FFF05F92 		      	lw   	$r11,-16[$fp]
FFFC277C 53006009 		      	ldi  	$r12,#480000
FFFC2780 0007605A 
FFFC2784 FFEE6FA0 		      	lc   	$r13,-18[$fp]
                        	; 	__int16 *pScreen = (__int16 *)0x100000;
FFFC2788 00007009 		      	ldi  	$r14,#1048576
FFFC278C 0010705A 
                        	; 	randStream = 0;
FFFC2790 0010B809 		      	sw   	$r0,_randStream
FFFC2794 FF40B85A 
FFFC2798 5800B802 
                        	; 	for (nn = 0; nn < 480000; nn++) {
FFFC279C 00005809 		      	ldi  	$r11,#0
                        	BIOSMain_343:
FFFC27A0 016362F0 		      	bge  	$r11,$r12,BIOSMain_344,#2
                        	;====================================================
                        	; Basic Block 1
                        	;====================================================
                        	; 		if (nn % 1024 == 0)
FFFC27A4 03FF1AC8 		      	and  	$v2,$r11,#1023
FFFC27A8 008100F1 		      	bne  	$v2,$r0,BIOSMain_346
                        	;====================================================
                        	; Basic Block 2
                        	;====================================================
                        	; 			color = GetRand(randStream);
FFFC27AC 0010B809 		      	lw   	$a0,_randStream
FFFC27B0 FF40B85A 
FFFC27B4 4812B802 
FFFC27B8 FFC04599 		      	call 	_GetRand
FFFC27BC 8B886842 		      	mov  	$r13,$v0
                        	BIOSMain_346:
                        	; 		pScreen[nn] = color;
FFFC27C0 902D5B82 		      	sc   	$r13,[$r14+$r11*2]
FFFC27C4 00015AC4 		      	add  	$r11,$r11,#1
FFFC27C8 FEB00031 		      	bra  	BIOSMain_343
                        	BIOSMain_344:
                        	;====================================================
                        	; Basic Block 3
                        	;====================================================
FFFC27CC 00700030 		      	bra  	BIOSMain_342
                        	BIOSMain_340:
                        	;====================================================
                        	; Basic Block 4
                        	;====================================================
FFFC27D0 0010EF92 		      	lw   	$lr,16[$fp]
FFFC27D4 0018EF96 		      	sw   	$lr,24[$fp]
                        	BIOSMain_342:
FFFC27D8 00005FD2 		      	lw   	$r11,0[$sp]
FFFC27DC 000867D2 		      	lw   	$r12,8[$sp]
FFFC27E0 00106FD2 		      	lw   	$r13,16[$sp]
FFFC27E4 001877D2 		      	lw   	$r14,24[$sp]
FFFC27E8 8B88FF82 		      	mov  	$sp,$fp
FFFC27EC 0000F7D2 		      	lw   	$fp,[$sp]
FFFC27F0 0010E7D2 		      	lw   	$xlr,16[$sp]
FFFC27F4 0018EFD2 		      	lw   	$lr,24[$sp]
FFFC27F8 0020EFE9 		      	ret  	#32
                        	endpublic
                        	
                        	;====================================================
                        	; Basic Block 0
                        	;====================================================
FFFC27FC FFE0FFC4 	public code _EnableSprite:
	      	sub  	$sp,$sp,#32
FFFC2800 000807D6 		      	sw   	$r0,8[$sp]
FFFC2804 0000F7D6 		      	sw   	$fp,[$sp]
FFFC2808 8B88F7C2 		      	mov  	$fp,$sp
FFFC280C FFF8FFC4 		      	sub  	$sp,$sp,#8
FFFC2810 FFF0FFC4 		      	sub  	$sp,$sp,#16
FFFC2814 00005FD6 		      	sw   	$r11,0[$sp]
FFFC2818 000867D6 		      	sw   	$r12,8[$sp]
FFFC281C FFF85F92 		      	lw   	$r11,-8[$fp]
FFFC2820 00106792 		      	lw   	$r12,16[$fp]
                        	; 	unsigned __int32 *pAVIC = ((unsigned __int32 *)0xFFDCC000);
FFFC2824 00005809 		      	ldi  	$r11,#4292657152
FFFC2828 C000581A 
FFFC282C FFDC585A 
                        	; 	pAVIC[492] = pAVIC[492] | (1 << spriteno);
FFFC2830 07B012D0 		      	lh   	$v1,1968[$r11]
FFFC2834 00012009 		      	ldi  	$v3,#1
FFFC2838 3C836102 		      	asl.h	$v2,$v3,$r12
	      	or   	$v0,$v1,$v2
	      	sh   	$v0,1968[$r11]
FFFC283C 24611882 
FFFC2840 07B00AD4 
FFFC2844 67C00862 		      	bfextu	$v0,$v0,#0,#31
FFFC2848 00005FD2 		      	lw   	$r11,0[$sp]
FFFC284C 000867D2 		      	lw   	$r12,8[$sp]
FFFC2850 8B88FF82 		      	mov  	$sp,$fp
FFFC2854 0000F7D2 		      	lw   	$fp,[$sp]
FFFC2858 0020EFE9 		      	ret  	#32
                        	endpublic
                        	
                        	;====================================================
                        	; Basic Block 0
                        	;====================================================
FFFC285C FFE0FFC4 	public code _EnableSprites:
	      	sub  	$sp,$sp,#32
FFFC2860 000807D6 		      	sw   	$r0,8[$sp]
FFFC2864 0000F7D6 		      	sw   	$fp,[$sp]
FFFC2868 8B88F7C2 		      	mov  	$fp,$sp
FFFC286C FFF8FFC4 		      	sub  	$sp,$sp,#8
FFFC2870 FFF0FFC4 		      	sub  	$sp,$sp,#16
FFFC2874 00005FD6 		      	sw   	$r11,0[$sp]
FFFC2878 000867D6 		      	sw   	$r12,8[$sp]
FFFC287C FFF85F92 		      	lw   	$r11,-8[$fp]
FFFC2880 00106792 		      	lw   	$r12,16[$fp]
                        	; 	unsigned __int32 *pAVIC = ((unsigned __int32 *)0xFFDCC000);
FFFC2884 00005809 		      	ldi  	$r11,#4292657152
FFFC2888 C000581A 
FFFC288C FFDC585A 
                        	; 	pAVIC[492] = pAVIC[492] | sprites;
FFFC2890 07B012D0 		      	lh   	$v1,1968[$r11]
FFFC2894 24616082 		      	or   	$v0,$v1,$r12
	      	sh   	$v0,1968[$r11]
FFFC2898 07B00AD4 
FFFC289C 67C00862 		      	bfextu	$v0,$v0,#0,#31
FFFC28A0 00005FD2 		      	lw   	$r11,0[$sp]
FFFC28A4 000867D2 		      	lw   	$r12,8[$sp]
FFFC28A8 8B88FF82 		      	mov  	$sp,$fp
FFFC28AC 0000F7D2 		      	lw   	$fp,[$sp]
FFFC28B0 0020EFE9 		      	ret  	#32
                        	endpublic
                        	
                        	;====================================================
                        	; Basic Block 0
                        	;====================================================
FFFC28B4 FFE0FFC4 	public code _RandomizeSpriteColors:
	      	sub  	$sp,$sp,#32
FFFC28B8 0018EFD6 		      	sw   	$lr,24[$sp]
FFFC28BC 0010E7D6 		      	sw   	$xlr,16[$sp]
FFFC28C0 000807D6 		      	sw   	$r0,8[$sp]
FFFC28C4 0000F7D6 		      	sw   	$fp,[$sp]
FFFC28C8 2938E009 		      	ldi  	$xlr,#BIOSMain_372
FFFC28CC FFFCE05A 
FFFC28D0 8B88F7C2 		      	mov  	$fp,$sp
FFFC28D4 FFF0FFC4 		      	sub  	$sp,$sp,#16
FFFC28D8 FFF0FFC4 		      	sub  	$sp,$sp,#16
FFFC28DC 00005FD6 		      	sw   	$r11,0[$sp]
FFFC28E0 000867D6 		      	sw   	$r12,8[$sp]
FFFC28E4 FFF85F92 		      	lw   	$r11,-8[$fp]
                        	; 	int colorno;
FFFC28E8 00006009 		      	ldi  	$r12,#4292657152
FFFC28EC C000601A 
FFFC28F0 FFDC605A 
                        	; 	randStream = 0;
FFFC28F4 0010B809 		      	sw   	$r0,_randStream
FFFC28F8 FF40B85A 
FFFC28FC 5800B802 
                        	; 	for (colorno = 2; colorno < 256; colorno++) {
FFFC2900 00025809 		      	ldi  	$r11,#2
                        	BIOSMain_375:
FFFC2904 01001AC6 		      	cmp  	$v2,$r11,#256
FFFC2908 016300F0 		      	bge  	$v2,$r0,BIOSMain_376,#2
                        	;====================================================
                        	; Basic Block 1
                        	;====================================================
                        	; 		pSprite[colorno] = GetRand(randStream) & 0x7fff;
FFFC290C 3E021AC2 		      	shl  	$v2,$r11,#2
FFFC2910 0010B809 		      	lw   	$a0,_randStream
FFFC2914 FF40B85A 
FFFC2918 4812B802 
FFFC291C FFC04599 		      	call 	_GetRand
FFFC2920 7FFF2048 		      	and  	$v3,$v0,#32767
FFFC2924 50041B02 		      	sh   	$v3,[$r12+$v2]
FFFC2928 67C02122 		      	bfextu	$v3,$v3,#0,#31
FFFC292C 00015AC4 		      	add  	$r11,$r11,#1
FFFC2930 FEB00030 		      	bra  	BIOSMain_375
                        	BIOSMain_376:
                        	;====================================================
                        	; Basic Block 2
                        	;====================================================
FFFC2934 00700030 		      	bra  	BIOSMain_374
                        	BIOSMain_372:
                        	;====================================================
                        	; Basic Block 3
                        	;====================================================
FFFC2938 0010EF92 		      	lw   	$lr,16[$fp]
FFFC293C 0018EF96 		      	sw   	$lr,24[$fp]
                        	BIOSMain_374:
FFFC2940 00005FD2 		      	lw   	$r11,0[$sp]
FFFC2944 000867D2 		      	lw   	$r12,8[$sp]
FFFC2948 8B88FF82 		      	mov  	$sp,$fp
FFFC294C 0000F7D2 		      	lw   	$fp,[$sp]
FFFC2950 0010E7D2 		      	lw   	$xlr,16[$sp]
FFFC2954 0018EFD2 		      	lw   	$lr,24[$sp]
FFFC2958 0020EFE9 		      	ret  	#32
                        	endpublic
                        	
                        	;====================================================
                        	; Basic Block 0
                        	;====================================================
FFFC295C FFE0FFC4 	public code _SetSpritePos:
	      	sub  	$sp,$sp,#32
FFFC2960 000807D6 		      	sw   	$r0,8[$sp]
FFFC2964 0000F7D6 		      	sw   	$fp,[$sp]
FFFC2968 8B88F7C2 		      	mov  	$fp,$sp
FFFC296C FFF8FFC4 		      	sub  	$sp,$sp,#8
FFFC2970 FFE0FFC4 		      	sub  	$sp,$sp,#32
FFFC2974 00005FD6 		      	sw   	$r11,0[$sp]
FFFC2978 000867D6 		      	sw   	$r12,8[$sp]
FFFC297C 00106FD6 		      	sw   	$r13,16[$sp]
FFFC2980 001877D6 		      	sw   	$r14,24[$sp]
FFFC2984 FFF85F92 		      	lw   	$r11,-8[$fp]
FFFC2988 00206792 		      	lw   	$r12,32[$fp]
FFFC298C 00106F92 		      	lw   	$r13,16[$fp]
FFFC2990 00187792 		      	lw   	$r14,24[$fp]
                        	; 	__int32 *pSprite = &((unsigned __int32 *)0xFFDCC000)[0x100];
FFFC2994 04001009 		      	ldi  	$v1,#1024
FFFC2998 C000B809 		      	or   	$v2,$r0,#4292657152
FFFC299C FFDCB85A 
FFFC29A0 2463B802 
FFFC29A4 106B1882 		      	add  	$r11,$v1,$v2
; 	pSprite[spriteno*4 + 2] = (__int32)((y << 16) | x);
FFFC29A8 3E021B42 		      	shl  	$v2,$r13,#2
FFFC29AC 3E0210C2 		      	shl  	$v1,$v2,#2
FFFC29B0 10615882 		      	add  	$v0,$v1,$r11
	      	asl.h	$v2,$r12,#16
FFFC29B4 3E901B02 
FFFC29B8 246270C2 		      	or   	$v1,$v2,$r14
	      	sh   	$v1,8[$v0]
FFFC29BC 00081054 
FFFC29C0 00005FD2 		      	lw   	$r11,0[$sp]
FFFC29C4 000867D2 		      	lw   	$r12,8[$sp]
FFFC29C8 00106FD2 		      	lw   	$r13,16[$sp]
FFFC29CC 001877D2 		      	lw   	$r14,24[$sp]
FFFC29D0 8B88FF82 		      	mov  	$sp,$fp
FFFC29D4 0000F7D2 		      	lw   	$fp,[$sp]
FFFC29D8 0020EFE9 		      	ret  	#32
                        	endpublic
                        	
                        	;====================================================
                        	; Basic Block 0
                        	;====================================================
FFFC29DC FFE0FFC4 	public code _RandomizeSpritePositions:
	      	sub  	$sp,$sp,#32
FFFC29E0 0018EFD6 		      	sw   	$lr,24[$sp]
FFFC29E4 0010E7D6 		      	sw   	$xlr,16[$sp]
FFFC29E8 000807D6 		      	sw   	$r0,8[$sp]
FFFC29EC 0000F7D6 		      	sw   	$fp,[$sp]
FFFC29F0 2A9CE009 		      	ldi  	$xlr,#BIOSMain_394
FFFC29F4 FFFCE05A 
FFFC29F8 8B88F7C2 		      	mov  	$fp,$sp
FFFC29FC FFE0FFC4 		      	sub  	$sp,$sp,#32
FFFC2A00 FFE0FFC4 		      	sub  	$sp,$sp,#32
FFFC2A04 00005FD6 		      	sw   	$r11,0[$sp]
FFFC2A08 000867D6 		      	sw   	$r12,8[$sp]
FFFC2A0C 00106FD6 		      	sw   	$r13,16[$sp]
FFFC2A10 001877D6 		      	sw   	$r14,24[$sp]
FFFC2A14 FFF85F92 		      	lw   	$r11,-8[$fp]
FFFC2A18 FFE06792 		      	lw   	$r12,-32[$fp]
FFFC2A1C FFF06F92 		      	lw   	$r13,-16[$fp]
FFFC2A20 FFE87792 		      	lw   	$r14,-24[$fp]
                        	; 	int spriteno;
FFFC2A24 04002009 		      	ldi  	$v3,#1024
FFFC2A28 C000B809 		      	or   	$t2,$r0,#4292657152
FFFC2A2C FFDCB85A 
FFFC2A30 2467B802 
FFFC2A34 106C3902 		      	add  	$r12,$v3,$t2
; 	randStream = 0;
FFFC2A38 0010B809 		      	sw   	$r0,_randStream
FFFC2A3C FF40B85A 
FFFC2A40 5800B802 
                        	; 	for (spriteno = 0; spriteno < 32; spriteno++) {
FFFC2A44 00005809 		      	ldi  	$r11,#0
                        	BIOSMain_397:
FFFC2A48 00201AC6 		      	cmp  	$v2,$r11,#32
FFFC2A4C 026300F0 		      	bge  	$v2,$r0,BIOSMain_398,#2
                        	;====================================================
                        	; Basic Block 1
                        	;====================================================
                        	; 		x = (GetRand(randStream) % 400) + 128;
FFFC2A50 0010B809 		      	lw   	$a0,_randStream
FFFC2A54 FF40B85A 
FFFC2A58 4812B802 
FFFC2A5C FFC04599 		      	call 	_GetRand
FFFC2A60 0190206E 		      	mod  	$v3,$v0,#400
FFFC2A64 00806904 		      	add  	$r13,$v3,#128
                        	; 		y = (GetRand(randStream) % 300) + 14;
FFFC2A68 0010B809 		      	lw   	$a0,_randStream
FFFC2A6C FF40B85A 
FFFC2A70 4812B802 
FFFC2A74 FFC04599 		      	call 	_GetRand
FFFC2A78 012C206E 		      	mod  	$v3,$v0,#300
FFFC2A7C 000E7104 		      	add  	$r14,$v3,#14
                        	; 		pSprite[2] = (y << 16) | x;
FFFC2A80 3E902382 		      	asl.h	$v3,$r14,#16
FFFC2A84 24636902 		      	or   	$v2,$v3,$r13
	      	sh   	$v2,8[$r12]
FFFC2A88 00081B14 
                        	; 		pSprite += 4;
FFFC2A8C 00106304 		      	add  	$r12,$r12,#16
FFFC2A90 00015AC4 		      	add  	$r11,$r11,#1
FFFC2A94 FDB00030 		      	bra  	BIOSMain_397
                        	BIOSMain_398:
                        	;====================================================
                        	; Basic Block 2
                        	;====================================================
FFFC2A98 00700030 		      	bra  	BIOSMain_396
                        	BIOSMain_394:
                        	;====================================================
                        	; Basic Block 3
                        	;====================================================
FFFC2A9C 0010EF92 		      	lw   	$lr,16[$fp]
FFFC2AA0 0018EF96 		      	sw   	$lr,24[$fp]
                        	BIOSMain_396:
                        	BIOSMain_400:
FFFC2AA4 00005FD2 		      	lw   	$r11,0[$sp]
FFFC2AA8 000867D2 		      	lw   	$r12,8[$sp]
FFFC2AAC 00106FD2 		      	lw   	$r13,16[$sp]
FFFC2AB0 001877D2 		      	lw   	$r14,24[$sp]
FFFC2AB4 8B88FF82 		      	mov  	$sp,$fp
FFFC2AB8 0000F7D2 		      	lw   	$fp,[$sp]
FFFC2ABC 0010E7D2 		      	lw   	$xlr,16[$sp]
FFFC2AC0 0018EFD2 		      	lw   	$lr,24[$sp]
FFFC2AC4 0020EFE9 		      	ret  	#32
                        	endpublic
                        	
                        	;====================================================
                        	; Basic Block 0
                        	;====================================================
FFFC2AC8 FFE0FFC4 	public code _SpriteDemo:
	      	sub  	$sp,$sp,#32
FFFC2ACC 0018EFD6 		      	sw   	$lr,24[$sp]
FFFC2AD0 0010E7D6 		      	sw   	$xlr,16[$sp]
FFFC2AD4 000807D6 		      	sw   	$r0,8[$sp]
FFFC2AD8 0000F7D6 		      	sw   	$fp,[$sp]
FFFC2ADC 2EB4E009 		      	ldi  	$xlr,#BIOSMain_468
FFFC2AE0 FFFCE05A 
FFFC2AE4 8B88F7C2 		      	mov  	$fp,$sp
FFFC2AE8 FDB8FFC4 		      	sub  	$sp,$sp,#584
FFFC2AEC FFC8FFC4 		      	sub  	$sp,$sp,#56
FFFC2AF0 00005FD6 		      	sw   	$r11,0[$sp]
FFFC2AF4 000867D6 		      	sw   	$r12,8[$sp]
FFFC2AF8 00106FD6 		      	sw   	$r13,16[$sp]
FFFC2AFC 001877D6 		      	sw   	$r14,24[$sp]
FFFC2B00 00207FD6 		      	sw   	$r15,32[$sp]
FFFC2B04 002887D6 		      	sw   	$r16,40[$sp]
FFFC2B08 00308FD6 		      	sw   	$r17,48[$sp]
FFFC2B0C FFF85F92 		      	lw   	$r11,-8[$fp]
FFFC2B10 FDF06792 		      	lw   	$r12,-528[$fp]
FFFC2B14 FDE86F92 		      	lw   	$r13,-536[$fp]
FFFC2B18 FDD87792 		      	lw   	$r14,-552[$fp]
FFFC2B1C FF781F84 		      	lea  	$v2,-136[$fp]
FFFC2B20 8B8878C2 		      	mov  	$r15,$v2
FFFC2B24 FEF81F84 		      	lea  	$v2,-264[$fp]
FFFC2B28 8B8880C2 		      	mov  	$r16,$v2
FFFC2B2C FDC08F92 		      	lw   	$r17,-576[$fp]
                        	; 	int spriteno;
FFFC2B30 04002009 		      	ldi  	$v3,#1024
FFFC2B34 C000B809 		      	or   	$t2,$r0,#4292657152
FFFC2B38 FFDCB85A 
FFFC2B3C 2467B802 
FFFC2B40 10633902 		      	add  	$v2,$v3,$t2
	      	sw   	$v2,-568[$fp]
FFFC2B44 FDC81F96 
FFFC2B48 00008809 		      	ldi  	$r17,#503316480
FFFC2B4C 1E00885A 
                        	; 	randStream = 0;
FFFC2B50 0010B809 		      	sw   	$r0,_randStream
FFFC2B54 FF40B85A 
FFFC2B58 5800B802 
                        	; 	LEDS(2);
FFFC2B5C 00029009 		      	ldi  	$a0,#2
                        	; 	asm {
                        		      	     	
FFFC2B60 0600B809 				sh		$a0,$FFDC0600
FFFC2B64 FFDCB85A 
FFFC2B68 5012B802 
                        	; 	RandomizeSpriteColors();
FFFC2B6C FFC28B59 		      	call 	_RandomizeSpriteColors
                        	; 	EnableSprites(-1);
FFFC2B70 FFF8FFC4 		      	sub  	$sp,$sp,#8
FFFC2B74 FFFF1809 		      	ldi  	$v2,#-1
FFFC2B78 00001FD6 		      	sw   	$v2,0[$sp]
FFFC2B7C FFC285D9 		      	call 	_EnableSprites
FFFC2B80 0008FFC4 		      	add  	$sp,$sp,#8
                        	; 	for (n = 0; n < 32 * 32 * 4; n = n + 1)
FFFC2B84 00006009 		      	ldi  	$r12,#0
                        	BIOSMain_475:
FFFC2B88 10001B06 		      	cmp  	$v2,$r12,#4096
FFFC2B8C 012300F1 		      	bge  	$v2,$r0,BIOSMain_476,#2
                        	;====================================================
                        	; Basic Block 1
                        	;====================================================
                        	; 		pImages[n] = GetRand(randStream);
FFFC2B90 3E021B02 		      	shl  	$v2,$r12,#2
FFFC2B94 0010B809 		      	lw   	$a0,_randStream
FFFC2B98 FF40B85A 
FFFC2B9C 4812B802 
FFFC2BA0 FFC04599 		      	call 	_GetRand
FFFC2BA4 50011C42 		      	sh   	$v0,[$r17+$v2]
FFFC2BA8 67C00862 		      	bfextu	$v0,$v0,#0,#31
FFFC2BAC 00016304 		      	add  	$r12,$r12,#1
FFFC2BB0 FEB00031 		      	bra  	BIOSMain_475
                        	BIOSMain_476:
                        	;====================================================
                        	; Basic Block 2
                        	;====================================================
                        	; 	x = 128; y = 64;
FFFC2BB4 00807009 		      	ldi  	$r14,#128
FFFC2BB8 00401809 		      	ldi  	$v2,#64
FFFC2BBC FDD01F96 		      	sw   	$v2,-560[$fp]
                        	; 	for (spriteno = 0; spriteno < 32; spriteno++) {
FFFC2BC0 00005809 		      	ldi  	$r11,#0
                        	BIOSMain_478:
FFFC2BC4 00201AC6 		      	cmp  	$v2,$r11,#32
FFFC2BC8 046300F0 		      	bge  	$v2,$r0,BIOSMain_479,#2
                        	;====================================================
                        	; Basic Block 3
                        	;====================================================
                        	; 		pSprite[spriteno*4] = (__int32)&pImages[spriteno * 128];
FFFC2BCC 3E0222C2 		      	shl  	$v3,$r11,#2
FFFC2BD0 3E021902 		      	shl  	$v2,$v3,#2
FFFC2BD4 FDC82792 		      	lw   	$v3,-568[$fp]
FFFC2BD8 3E074AC2 		      	shl.h	$t4,$r11,#7
FFFC2BDC 3E024242 		      	shl.h	$t3,$t4,#2
FFFC2BE0 10678A02 		      	add  	$t2,$t3,$r17
	      	sh   	$t2,[$v3+$v2]
FFFC2BE4 50071902 
                        	; 		pSprite[spriteno*4+1] = 32*60;
FFFC2BE8 3E023AC2 		      	shl  	$t2,$r11,#2
FFFC2BEC 3E0221C2 		      	shl  	$v3,$t2,#2
FFFC2BF0 FDC83F92 		      	lw   	$t2,-568[$fp]
FFFC2BF4 10633902 		      	add  	$v2,$v3,$t2
	      	ldi  	$v3,#1920
FFFC2BF8 07802009 
FFFC2BFC 000420D4 		      	sh   	$v3,4[$v2]
FFFC2C00 67C02122 		      	bfextu	$v3,$v3,#0,#31
                        	; 		xpos[spriteno] = x;
FFFC2C04 504E5BC2 		      	sh   	$r14,[$r15+$r11*4]
                        	; 		ypos[spriteno] = y;
FFFC2C08 3E021AC2 		      	shl  	$v2,$r11,#2
FFFC2C0C FDD02790 		      	lh   	$v3,-560[$fp]
FFFC2C10 50041C02 		      	sh   	$v3,[$r16+$v2]
                        	; 		SetSpritePos(spriteno, x, y);
FFFC2C14 FFE8FFC4 		      	sub  	$sp,$sp,#24
FFFC2C18 00005FD6 		      	sw   	$r11,0[$sp]
FFFC2C1C 000877D6 		      	sw   	$r14,8[$sp]
FFFC2C20 FDD01F92 		      	lw   	$v2,-560[$fp]
FFFC2C24 00101FD6 		      	sw   	$v2,16[$sp]
FFFC2C28 FFC295D9 		      	call 	_SetSpritePos
FFFC2C2C 0018FFC4 		      	add  	$sp,$sp,#24
                        	; 		x += 20;
FFFC2C30 00147384 		      	add  	$r14,$r14,#20
                        	; 		if (x >= 500) {
FFFC2C34 01F41B86 		      	cmp  	$v2,$r14,#500
FFFC2C38 008200F0 		      	blt  	$v2,$r0,BIOSMain_481,#0
                        	;====================================================
                        	; Basic Block 4
                        	;====================================================
                        	; 			x = 128;
FFFC2C3C 00807009 		      	ldi  	$r14,#128
                        	; 			y += 64;
FFFC2C40 FDD01F92 		      	lw   	$v2,-560[$fp]
FFFC2C44 004018C4 		      	add  	$v2,$v2,#64
FFFC2C48 FDD01F96 		      	sw   	$v2,-560[$fp]
                        	BIOSMain_481:
FFFC2C4C 00015AC4 		      	add  	$r11,$r11,#1
FFFC2C50 FBB00030 		      	bra  	BIOSMain_478
                        	BIOSMain_479:
                        	;====================================================
                        	; Basic Block 5
                        	;====================================================
                        	; 	LEDS(0xf7);
FFFC2C54 00F79009 		      	ldi  	$a0,#247
                        	; 	asm {
                        		      	     	
FFFC2C58 0600B809 				sh		$a0,$FFDC0600
FFFC2C5C FFDCB85A 
FFFC2C60 5012B802 
                        	BIOSMain_487:
                        	; 		btn = GetButton() & 31;
FFFC2C64 FDB81F96 		      	sw   	$v2,-584[$fp]
                        	; 	asm {
                        		      	     	
FFFC2C68 0600B809 				lb		$v0,BUTTONS
FFFC2C6C FFDCB85A 
FFFC2C70 4C01B802 
                        	; 	}
FFFC2C74 001F1848 		      	and  	$v2,$v0,#31
FFFC2C78 FDE01F96 		      	sw   	$v2,-544[$fp]
                        	; 		LEDS(btn);
FFFC2C7C FDE09792 		      	lw   	$a0,-544[$fp]
                        	; 	asm {
                        		      	     	
FFFC2C80 0600B809 				sh		$a0,$FFDC0600
FFFC2C84 FFDCB85A 
FFFC2C88 5012B802 
                        	; 		switch(btn) {
FFFC2C8C FDE01F92 		      	lw   	$v2,-544[$fp]
                        	; 		case 8:	goto j1;
FFFC2C90 000018E7 		      	bbs  	$v2,#3,BIOSMain_500
                        	;====================================================
                        	; Basic Block 6
                        	;====================================================
FFFC2C94 00300031 		      	bra  	BIOSMain_497
                        	BIOSMain_500:
                        	;====================================================
                        	; Basic Block 7
                        	;====================================================
FFFC2C98 00300031 		      	bra  	BIOSMain_401
                        	BIOSMain_497:
                        	;====================================================
                        	; Basic Block 8
                        	;====================================================
FFFC2C9C FE300031 		      	bra  	BIOSMain_487
                        	BIOSMain_401:
                        	BIOSMain_501:
                        	;====================================================
                        	; Basic Block 9
                        	;====================================================
FFFC2CA0 FDB81F96 		      	sw   	$v2,-584[$fp]
                        	; 	asm {
                        		      	     	
FFFC2CA4 0600B809 				lb		$v0,BUTTONS
FFFC2CA8 FFDCB85A 
FFFC2CAC 4C01B802 
                        	; 	}
FFFC2CB0 001F1848 		      	and  	$v2,$v0,#31
FFFC2CB4 000000F1 		      	beq  	$v2,$r0,BIOSMain_502
                        	;====================================================
                        	; Basic Block 10
                        	;====================================================
                        	; 	while (GetButton() & 31);
FFFC2CB8 FF300031 		      	bra  	BIOSMain_501
                        	BIOSMain_502:
                        	;====================================================
                        	; Basic Block 11
                        	;====================================================
                        	; 	for (spriteno = 0; spriteno < 32; spriteno++) {
FFFC2CBC 00005809 		      	ldi  	$r11,#0
                        	BIOSMain_507:
FFFC2CC0 00201AC6 		      	cmp  	$v2,$r11,#32
FFFC2CC4 02A300F0 		      	bge  	$v2,$r0,BIOSMain_508,#2
                        	;====================================================
                        	; Basic Block 12
                        	;====================================================
                        	; 		dx[spriteno] = (GetRand(randStream) % 16) - 8;
FFFC2CC8 3E021AC2 		      	shl  	$v2,$r11,#2
FFFC2CCC FE782784 		      	lea  	$v3,-392[$fp]
FFFC2CD0 0010B809 		      	lw   	$a0,_randStream
FFFC2CD4 FF40B85A 
FFFC2CD8 4812B802 
FFFC2CDC FFC04599 		      	call 	_GetRand
FFFC2CE0 000F4048 		      	and  	$t3,$v0,#15
FFFC2CE4 FFF83A04 		      	sub  	$t2,$t3,#8
FFFC2CE8 50071902 		      	sh   	$t2,[$v3+$v2]
                        	; 		dy[spriteno] = (GetRand(randStream) % 16) - 8;
FFFC2CEC 3E021AC2 		      	shl  	$v2,$r11,#2
FFFC2CF0 FDF82784 		      	lea  	$v3,-520[$fp]
FFFC2CF4 0010B809 		      	lw   	$a0,_randStream
FFFC2CF8 FF40B85A 
FFFC2CFC 4812B802 
FFFC2D00 FFC04599 		      	call 	_GetRand
FFFC2D04 000F4048 		      	and  	$t3,$v0,#15
FFFC2D08 FFF83A04 		      	sub  	$t2,$t3,#8
FFFC2D0C 50071902 		      	sh   	$t2,[$v3+$v2]
FFFC2D10 00015AC4 		      	add  	$r11,$r11,#1
FFFC2D14 FD700030 		      	bra  	BIOSMain_507
                        	BIOSMain_508:
                        	;====================================================
                        	; Basic Block 13
                        	;====================================================
                        	; 	for (n = 0; n < 32 * 32 * 2; n = n + 1)
FFFC2D18 00006009 		      	ldi  	$r12,#0
                        	BIOSMain_510:
FFFC2D1C 08001B06 		      	cmp  	$v2,$r12,#2048
FFFC2D20 012300F1 		      	bge  	$v2,$r0,BIOSMain_511,#2
                        	;====================================================
                        	; Basic Block 14
                        	;====================================================
                        	; 		pImages[n] = GetRand(randStream);
FFFC2D24 3E021B02 		      	shl  	$v2,$r12,#2
FFFC2D28 0010B809 		      	lw   	$a0,_randStream
FFFC2D2C FF40B85A 
FFFC2D30 4812B802 
FFFC2D34 FFC04599 		      	call 	_GetRand
FFFC2D38 50011C42 		      	sh   	$v0,[$r17+$v2]
FFFC2D3C 67C00862 		      	bfextu	$v0,$v0,#0,#31
FFFC2D40 00016304 		      	add  	$r12,$r12,#1
FFFC2D44 FEB00031 		      	bra  	BIOSMain_510
                        	BIOSMain_511:
                        	BIOSMain_513:
                        	;====================================================
                        	; Basic Block 15
                        	;====================================================
                        	; 		for (m = 0; m < 50000; m++);	// Timing delay
FFFC2D48 00006809 		      	ldi  	$r13,#0
                        	BIOSMain_515:
FFFC2D4C C350B809 		      	cmp  	$v2,$r13,#50000
FFFC2D50 0000B85A 
FFFC2D54 1863BB42 
FFFC2D58 006300F0 		      	bge  	$v2,$r0,BIOSMain_516,#2
                        	;====================================================
                        	; Basic Block 16
                        	;====================================================
FFFC2D5C 00016B44 		      	add  	$r13,$r13,#1
FFFC2D60 FF700030 		      	bra  	BIOSMain_515
                        	BIOSMain_516:
                        	;====================================================
                        	; Basic Block 17
                        	;====================================================
                        	; 		for (spriteno = 0; spriteno < 32; spriteno++) {
FFFC2D64 00005809 		      	ldi  	$r11,#0
                        	BIOSMain_518:
FFFC2D68 00201AC6 		      	cmp  	$v2,$r11,#32
FFFC2D6C 092300F0 		      	bge  	$v2,$r0,BIOSMain_519,#2
                        	;====================================================
                        	; Basic Block 18
                        	;====================================================
                        	; 			LEDS(spriteno);
FFFC2D70 8B8892C2 		      	mov  	$a0,$r11
                        	; 	asm {
                        		      	     	
FFFC2D74 0600B809 				sh		$a0,$FFDC0600
FFFC2D78 FFDCB85A 
FFFC2D7C 5012B802 
                        	; 			xpos[spriteno] = xpos[spriteno] + dx[spriteno];
FFFC2D80 3E021AC2 		      	shl  	$v2,$r11,#2
FFFC2D84 40475BC2 		      	lh   	$t2,[$r15+$r11*4]
FFFC2D88 3E0242C2 		      	shl  	$t3,$r11,#2
FFFC2D8C FE784F84 		      	lea  	$t4,-392[$fp]
FFFC2D90 40084242 		      	lh   	$t3,[$t4+$t3]
FFFC2D94 106441C2 		      	add  	$v3,$t2,$t3
	      	sh   	$v3,[$r15+$v2]
FFFC2D98 50041BC2 
                        	; 			ypos[spriteno] = ypos[spriteno] + dy[spriteno];
FFFC2D9C 3E021AC2 		      	shl  	$v2,$r11,#2
FFFC2DA0 40475C02 		      	lh   	$t2,[$r16+$r11*4]
FFFC2DA4 3E0242C2 		      	shl  	$t3,$r11,#2
FFFC2DA8 FDF84F84 		      	lea  	$t4,-520[$fp]
FFFC2DAC 40084242 		      	lh   	$t3,[$t4+$t3]
FFFC2DB0 106441C2 		      	add  	$v3,$t2,$t3
	      	sh   	$v3,[$r16+$v2]
FFFC2DB4 50041C02 
                        	; 			if (xpos[spriteno] < 128) {
FFFC2DB8 40435BC2 		      	lh   	$v2,[$r15+$r11*4]
FFFC2DBC 008020C6 		      	cmp  	$v3,$v2,#128
FFFC2DC0 01430130 		      	bge  	$v3,$r0,BIOSMain_525,#0
                        	;====================================================
                        	; Basic Block 19
                        	;====================================================
                        	; 				xpos[spriteno] = 128;
FFFC2DC4 3E021AC2 		      	shl  	$v2,$r11,#2
FFFC2DC8 00802009 		      	ldi  	$v3,#128
FFFC2DCC 50041BC2 		      	sh   	$v3,[$r15+$v2]
                        	; 				dx[spriteno] = -dx[spriteno];
FFFC2DD0 3E021AC2 		      	shl  	$v2,$r11,#2
FFFC2DD4 FE782784 		      	lea  	$v3,-392[$fp]
FFFC2DD8 3E0242C2 		      	shl  	$t3,$r11,#2
FFFC2DDC FE784F84 		      	lea  	$t4,-392[$fp]
FFFC2DE0 40084242 		      	lh   	$t3,[$t4+$t3]
FFFC2DE4 14074002 		      	neg  	$t2,$t3
FFFC2DE8 50071902 		      	sh   	$t2,[$v3+$v2]
                        	BIOSMain_525:
                        	; 			if (xpos[spriteno] >= 528) {
FFFC2DEC 40435BC2 		      	lh   	$v2,[$r15+$r11*4]
FFFC2DF0 021020C6 		      	cmp  	$v3,$v2,#528
FFFC2DF4 01420130 		      	blt  	$v3,$r0,BIOSMain_527,#0
                        	;====================================================
                        	; Basic Block 20
                        	;====================================================
                        	; 				xpos[spriteno] = 528;
FFFC2DF8 3E021AC2 		      	shl  	$v2,$r11,#2
FFFC2DFC 02102009 		      	ldi  	$v3,#528
FFFC2E00 50041BC2 		      	sh   	$v3,[$r15+$v2]
                        	; 				dx[spriteno] = -dx[spriteno];
FFFC2E04 3E021AC2 		      	shl  	$v2,$r11,#2
FFFC2E08 FE782784 		      	lea  	$v3,-392[$fp]
FFFC2E0C 3E0242C2 		      	shl  	$t3,$r11,#2
FFFC2E10 FE784F84 		      	lea  	$t4,-392[$fp]
FFFC2E14 40084242 		      	lh   	$t3,[$t4+$t3]
FFFC2E18 14074002 		      	neg  	$t2,$t3
FFFC2E1C 50071902 		      	sh   	$t2,[$v3+$v2]
                        	BIOSMain_527:
                        	; 			if (ypos[spriteno] < 14) {
FFFC2E20 40435C02 		      	lh   	$v2,[$r16+$r11*4]
FFFC2E24 000E20C6 		      	cmp  	$v3,$v2,#14
FFFC2E28 01430130 		      	bge  	$v3,$r0,BIOSMain_529,#0
                        	;====================================================
                        	; Basic Block 21
                        	;====================================================
                        	; 				ypos[spriteno] = 14;
FFFC2E2C 3E021AC2 		      	shl  	$v2,$r11,#2
FFFC2E30 000E2009 		      	ldi  	$v3,#14
FFFC2E34 50041C02 		      	sh   	$v3,[$r16+$v2]
                        	; 				dy[spriteno] = -dy[spriteno];
FFFC2E38 3E021AC2 		      	shl  	$v2,$r11,#2
FFFC2E3C FDF82784 		      	lea  	$v3,-520[$fp]
FFFC2E40 3E0242C2 		      	shl  	$t3,$r11,#2
FFFC2E44 FDF84F84 		      	lea  	$t4,-520[$fp]
FFFC2E48 40084242 		      	lh   	$t3,[$t4+$t3]
FFFC2E4C 14074002 		      	neg  	$t2,$t3
FFFC2E50 50071902 		      	sh   	$t2,[$v3+$v2]
                        	BIOSMain_529:
                        	; 			if (ypos[spriteno] >= 314)
FFFC2E54 40435C02 		      	lh   	$v2,[$r16+$r11*4]
FFFC2E58 013A20C6 		      	cmp  	$v3,$v2,#314
FFFC2E5C 00420131 		      	blt  	$v3,$r0,BIOSMain_531,#0
                        	;====================================================
                        	; Basic Block 22
                        	;====================================================
                        	; 				ypos[spriteno] = 314;
FFFC2E60 3E021AC2 		      	shl  	$v2,$r11,#2
FFFC2E64 013A2009 		      	ldi  	$v3,#314
FFFC2E68 50041C02 		      	sh   	$v3,[$r16+$v2]
                        	BIOSMain_531:
                        	; 				dy[spriteno] = -dy[spriteno];
FFFC2E6C 3E021AC2 		      	shl  	$v2,$r11,#2
FFFC2E70 FDF82784 		      	lea  	$v3,-520[$fp]
FFFC2E74 3E0242C2 		      	shl  	$t3,$r11,#2
FFFC2E78 FDF84F84 		      	lea  	$t4,-520[$fp]
FFFC2E7C 40084242 		      	lh   	$t3,[$t4+$t3]
FFFC2E80 14074002 		      	neg  	$t2,$t3
FFFC2E84 50071902 		      	sh   	$t2,[$v3+$v2]
FFFC2E88 00015AC4 		      	add  	$r11,$r11,#1
FFFC2E8C F6F00030 		      	bra  	BIOSMain_518
                        	BIOSMain_519:
                        	;====================================================
                        	; Basic Block 23
                        	;====================================================
                        	; 			SetSpritePos(spriteno, (int)xpos[spriteno], (int)ypos[spriteno]);
FFFC2E90 FFE8FFC4 		      	sub  	$sp,$sp,#24
FFFC2E94 00005FD6 		      	sw   	$r11,0[$sp]
FFFC2E98 40435BC2 		      	lh   	$v2,[$r15+$r11*4]
FFFC2E9C 00081FD6 		      	sw   	$v2,8[$sp]
FFFC2EA0 40445C02 		      	lh   	$v3,[$r16+$r11*4]
FFFC2EA4 001027D6 		      	sw   	$v3,16[$sp]
FFFC2EA8 FFC295D9 		      	call 	_SetSpritePos
FFFC2EAC 0018FFC4 		      	add  	$sp,$sp,#24
FFFC2EB0 F4B00031 		      	bra  	BIOSMain_513
                        	BIOSMain_468:
                        	;====================================================
                        	; Basic Block 24
                        	;====================================================
FFFC2EB4 0010EF92 		      	lw   	$lr,16[$fp]
FFFC2EB8 0018EF96 		      	sw   	$lr,24[$fp]
FFFC2EBC 00005FD2 		      	lw   	$r11,0[$sp]
FFFC2EC0 000867D2 		      	lw   	$r12,8[$sp]
FFFC2EC4 00106FD2 		      	lw   	$r13,16[$sp]
FFFC2EC8 001877D2 		      	lw   	$r14,24[$sp]
FFFC2ECC 00207FD2 		      	lw   	$r15,32[$sp]
FFFC2ED0 002887D2 		      	lw   	$r16,40[$sp]
FFFC2ED4 00308FD2 		      	lw   	$r17,48[$sp]
FFFC2ED8 8B88FF82 		      	mov  	$sp,$fp
FFFC2EDC 0000F7D2 		      	lw   	$fp,[$sp]
FFFC2EE0 0010E7D2 		      	lw   	$xlr,16[$sp]
FFFC2EE4 0018EFD2 		      	lw   	$lr,24[$sp]
FFFC2EE8 0020EFE9 		      	ret  	#32
                        	endpublic
                        	
                        	;====================================================
                        	; Basic Block 0
                        	;====================================================
FFFC2EEC FFE0FFC4 	public code _AudioTest:
	      	sub  	$sp,$sp,#32
FFFC2EF0 0018EFD6 		      	sw   	$lr,24[$sp]
FFFC2EF4 0010E7D6 		      	sw   	$xlr,16[$sp]
FFFC2EF8 000807D6 		      	sw   	$r0,8[$sp]
FFFC2EFC 0000F7D6 		      	sw   	$fp,[$sp]
FFFC2F00 2F64E009 		      	ldi  	$xlr,#BIOSMain_542
FFFC2F04 FFFCE05A 
FFFC2F08 8B88F7C2 		      	mov  	$fp,$sp
FFFC2F0C FFF0FFC4 		      	sub  	$sp,$sp,#16
FFFC2F10 FFF0FFC4 		      	sub  	$sp,$sp,#16
FFFC2F14 00005FD6 		      	sw   	$r11,0[$sp]
FFFC2F18 000867D6 		      	sw   	$r12,8[$sp]
FFFC2F1C FFF05F92 		      	lw   	$r11,-16[$fp]
                        	; 	unsigned __int32 *pGPIO = (unsigned __int32 *)(0xFFDC0700);
FFFC2F20 07006009 		      	ldi  	$r12,#4292609792
FFFC2F24 FFDC605A 
FFFC2F28 00005809 		      	ldi  	$r11,#4292657152
FFFC2F2C C000581A 
FFFC2F30 FFDC585A 
                        	; 	LEDS(0xf7);
FFFC2F34 00F79009 		      	ldi  	$a0,#247
                        	; 	asm {
                        		      	     	
FFFC2F38 0600B809 				sh		$a0,$FFDC0600
FFFC2F3C FFDCB85A 
FFFC2F40 5012B802 
                        	; 	pGPIO[0] = 0xFFFFFFFF;		// turn on audio clocks
FFFC2F44 00001809 		      	ldi  	$v2,#4294967295
FFFC2F48 FFFF181A 
FFFC2F4C FFFF185A 
FFFC2F50 00001B14 		      	sh   	$v2,[$r12]
                        	; 	pAVIC[404] = 0x0000401F;	// Enable channels and test mode
FFFC2F54 401F1809 		      	ldi  	$v2,#16415
FFFC2F58 06501AD4 		      	sh   	$v2,1616[$r11]
FFFC2F5C 67C018E2 		      	bfextu	$v2,$v2,#0,#31
FFFC2F60 00700030 		      	bra  	BIOSMain_544
                        	BIOSMain_542:
                        	;====================================================
                        	; Basic Block 1
                        	;====================================================
FFFC2F64 0010EF92 		      	lw   	$lr,16[$fp]
FFFC2F68 0018EF96 		      	sw   	$lr,24[$fp]
                        	BIOSMain_544:
FFFC2F6C 00005FD2 		      	lw   	$r11,0[$sp]
FFFC2F70 000867D2 		      	lw   	$r12,8[$sp]
FFFC2F74 8B88FF82 		      	mov  	$sp,$fp
FFFC2F78 0000F7D2 		      	lw   	$fp,[$sp]
FFFC2F7C 0010E7D2 		      	lw   	$xlr,16[$sp]
FFFC2F80 0018EFD2 		      	lw   	$lr,24[$sp]
FFFC2F84 0020EFE9 		      	ret  	#32
                        	endpublic
                        	
                        	;====================================================
                        	; Basic Block 0
                        	;====================================================
FFFC2F88 FFE0FFC4 	public code _InitAudio:
	      	sub  	$sp,$sp,#32
FFFC2F8C 000807D6 		      	sw   	$r0,8[$sp]
FFFC2F90 0000F7D6 		      	sw   	$fp,[$sp]
FFFC2F94 8B88F7C2 		      	mov  	$fp,$sp
FFFC2F98 FFF8FFC4 		      	sub  	$sp,$sp,#8
FFFC2F9C FFE8FFC4 		      	sub  	$sp,$sp,#24
FFFC2FA0 00005FD6 		      	sw   	$r11,0[$sp]
FFFC2FA4 000867D6 		      	sw   	$r12,8[$sp]
FFFC2FA8 00106FD6 		      	sw   	$r13,16[$sp]
FFFC2FAC FFF85F92 		      	lw   	$r11,-8[$fp]
FFFC2FB0 00006009 		      	ldi  	$r12,#65535
FFFC2FB4 FFFF601A 
FFFC2FB8 0000605A 
FFFC2FBC 00006809 		      	ldi  	$r13,#1048575
FFFC2FC0 FFFF681A 
FFFC2FC4 000F685A 
                        	; 	unsigned __int32 *pAVIC = ((unsigned __int32 *)0xFFDCC000);
FFFC2FC8 00005809 		      	ldi  	$r11,#4292657152
FFFC2FCC C000581A 
FFFC2FD0 FFDC585A 
                        	; 	pAVIC[384] = 0x200000;
FFFC2FD4 00000809 		      	ldi  	$v0,#2097152
FFFC2FD8 0020085A 
FFFC2FDC 06000AD4 		      	sh   	$v0,1536[$r11]
FFFC2FE0 67C00862 		      	bfextu	$v0,$v0,#0,#31
                        	; 	pAVIC[385] = 65535;		// buffer length
FFFC2FE4 060462D4 		      	sh   	$r12,1540[$r11]
FFFC2FE8 67C06322 		      	bfextu	$r12,$r12,#0,#31
                        	; 	pAVIC[386] = 0xFFFFF;	// period to max
FFFC2FEC 06086AD4 		      	sh   	$r13,1544[$r11]
FFFC2FF0 67C06B62 		      	bfextu	$r13,$r13,#0,#31
                        	; 	pAVIC[387] = 0x0000;	// volume = 0, output data = 0
FFFC2FF4 00000809 		      	ldi  	$v0,#0
FFFC2FF8 060C0AD4 		      	sh   	$v0,1548[$r11]
                        	; 	pAVIC[388] = 0x210000;
FFFC2FFC 00000809 		      	ldi  	$v0,#2162688
FFFC3000 0021085A 
FFFC3004 06100AD4 		      	sh   	$v0,1552[$r11]
FFFC3008 67C00862 		      	bfextu	$v0,$v0,#0,#31
                        	; 	pAVIC[389] = 65535;		// buffer length
FFFC300C 061462D4 		      	sh   	$r12,1556[$r11]
FFFC3010 67C06322 		      	bfextu	$r12,$r12,#0,#31
                        	; 	pAVIC[390] = 0xFFFFF;	// period to max
FFFC3014 06186AD4 		      	sh   	$r13,1560[$r11]
FFFC3018 67C06B62 		      	bfextu	$r13,$r13,#0,#31
                        	; 	pAVIC[391] = 0x0000;	// volume = 0, output data = 0
FFFC301C 00000809 		      	ldi  	$v0,#0
FFFC3020 061C0AD4 		      	sh   	$v0,1564[$r11]
                        	; 	pAVIC[392] = 0x220000;
FFFC3024 00000809 		      	ldi  	$v0,#2228224
FFFC3028 0022085A 
FFFC302C 06200AD4 		      	sh   	$v0,1568[$r11]
FFFC3030 67C00862 		      	bfextu	$v0,$v0,#0,#31
                        	; 	pAVIC[393] = 65535;		// buffer length
FFFC3034 062462D4 		      	sh   	$r12,1572[$r11]
FFFC3038 67C06322 		      	bfextu	$r12,$r12,#0,#31
                        	; 	pAVIC[394] = 0xFFFFF;	// period to max
FFFC303C 06286AD4 		      	sh   	$r13,1576[$r11]
FFFC3040 67C06B62 		      	bfextu	$r13,$r13,#0,#31
                        	; 	pAVIC[395] = 0x0000;	// volume = 0, output data = 0
FFFC3044 00000809 		      	ldi  	$v0,#0
FFFC3048 062C0AD4 		      	sh   	$v0,1580[$r11]
                        	; 	pAVIC[396] = 0x230000;
FFFC304C 00000809 		      	ldi  	$v0,#2293760
FFFC3050 0023085A 
FFFC3054 06300AD4 		      	sh   	$v0,1584[$r11]
FFFC3058 67C00862 		      	bfextu	$v0,$v0,#0,#31
                        	; 	pAVIC[397] = 65535;		// buffer length
FFFC305C 063462D4 		      	sh   	$r12,1588[$r11]
FFFC3060 67C06322 		      	bfextu	$r12,$r12,#0,#31
                        	; 	pAVIC[398] = 0xFFFFF;	// period to max
FFFC3064 06386AD4 		      	sh   	$r13,1592[$r11]
FFFC3068 67C06B62 		      	bfextu	$r13,$r13,#0,#31
                        	; 	pAVIC[399] = 0x0000;	// volume = 0, output data = 0
FFFC306C 00000809 		      	ldi  	$v0,#0
FFFC3070 063C0AD4 		      	sh   	$v0,1596[$r11]
                        	; 	pAVIC[400] = 0x240000;
FFFC3074 00000809 		      	ldi  	$v0,#2359296
FFFC3078 0024085A 
FFFC307C 06400AD4 		      	sh   	$v0,1600[$r11]
FFFC3080 67C00862 		      	bfextu	$v0,$v0,#0,#31
                        	; 	pAVIC[401] = 65535;		// buffer length
FFFC3084 064462D4 		      	sh   	$r12,1604[$r11]
FFFC3088 67C06322 		      	bfextu	$r12,$r12,#0,#31
                        	; 	pAVIC[402] = 0xFFFFF;	// period to max
FFFC308C 06486AD4 		      	sh   	$r13,1608[$r11]
FFFC3090 67C06B62 		      	bfextu	$r13,$r13,#0,#31
                        	; 	pAVIC[403] = 0x0000;	// volume = 0, output data = 0
FFFC3094 00000809 		      	ldi  	$v0,#0
FFFC3098 064C0AD4 		      	sh   	$v0,1612[$r11]
                        	; 	pAVIC[404] = 0x00001F00;	// Reset
FFFC309C 1F000809 		      	ldi  	$v0,#7936
FFFC30A0 06500AD4 		      	sh   	$v0,1616[$r11]
                        	; 	pAVIC[404] = 0x00000000;
FFFC30A4 00000809 		      	ldi  	$v0,#0
FFFC30A8 06500AD4 		      	sh   	$v0,1616[$r11]
FFFC30AC 67C00862 		      	bfextu	$v0,$v0,#0,#31
FFFC30B0 00005FD2 		      	lw   	$r11,0[$sp]
FFFC30B4 000867D2 		      	lw   	$r12,8[$sp]
FFFC30B8 00106FD2 		      	lw   	$r13,16[$sp]
FFFC30BC 8B88FF82 		      	mov  	$sp,$fp
FFFC30C0 0000F7D2 		      	lw   	$fp,[$sp]
FFFC30C4 0020EFE9 		      	ret  	#32
                        	endpublic
                        	
                        		code
FFFC30C8 00000000 		align	1
FFFC30CC 00000000 
                        	
                        	;====================================================
                        	; Basic Block 0
                        	;====================================================
                        	_TestAddsub:
FFFC30D0 FFE0FFC4 		      	sub  	$sp,$sp,#32
FFFC30D4 0018EFD6 		      	sw   	$lr,24[$sp]
FFFC30D8 0010E7D6 		      	sw   	$xlr,16[$sp]
FFFC30DC 000807D6 		      	sw   	$r0,8[$sp]
FFFC30E0 0000F7D6 		      	sw   	$fp,[$sp]
FFFC30E4 31E4E009 		      	ldi  	$xlr,#FloatTest_12
FFFC30E8 FFFCE05A 
FFFC30EC 8B88F7C2 		      	mov  	$fp,$sp
FFFC30F0 FFD8FFC4 		      	sub  	$sp,$sp,#40
FFFC30F4 FFF0FFC4 		      	sub  	$sp,$sp,#16
FFFC30F8 00005FD6 		      	sw   	$r11,0[$sp]
FFFC30FC 000867D6 		      	sw   	$r12,8[$sp]
FFFC3100 FFF05F92 		      	lw   	$r11,-16[$fp]
FFFC3104 FFF86792 		      	lw   	$r12,-8[$fp]
                        	; 	sum = a + b;
                        		      	fadd.d	$v2,$a0,$a1
FFFC3108 8B8860C2 		      	mov  	$r12,$v2
                        	; 	dif = a - b;
                        		      	fsub.d	$v2,$a0,$a1
FFFC310C 8B8858C2 		      	mov  	$r11,$v2
                        	; 	prtflt(a,20,16,'E');
FFFC3110 00149809 		      	ldi  	$a1,#20
FFFC3114 0010A009 		      	ldi  	$a2,#16
FFFC3118 0045A809 		      	ldi  	$a3,#69
FFFC311C FFC57819 		      	call 	_prtflt
                        	; 	DBGDisplayString(" + ");
FFFC3120 00009009 		      	ldi  	$a0,#FloatTest_2
FFFC3124 9514901A 
FFFC3128 FFFC905A 
FFFC312C 0000E818 		      	call 	_DBGDisplayString
                        	; 	prtflt(b,20,16,'E');
FFFC3130 8B8894C2 		      	mov  	$a0,$a1
FFFC3134 00149809 		      	ldi  	$a1,#20
FFFC3138 0010A009 		      	ldi  	$a2,#16
FFFC313C 0045A809 		      	ldi  	$a3,#69
FFFC3140 FFC57819 		      	call 	_prtflt
                        	; 	DBGDisplayString(" = ");
FFFC3144 00009009 		      	ldi  	$a0,#FloatTest_3
FFFC3148 950C901A 
FFFC314C FFFC905A 
FFFC3150 0000E818 		      	call 	_DBGDisplayString
                        	; 	prtflt(sum,20,16,'E');
FFFC3154 8B889302 		      	mov  	$a0,$r12
FFFC3158 00149809 		      	ldi  	$a1,#20
FFFC315C 0010A009 		      	ldi  	$a2,#16
FFFC3160 0045A809 		      	ldi  	$a3,#69
FFFC3164 FFC57819 		      	call 	_prtflt
                        	; 	DBGDisplayString("\r\n");
FFFC3168 00009009 		      	ldi  	$a0,#FloatTest_4
FFFC316C 9506901A 
FFFC3170 FFFC905A 
FFFC3174 0000E818 		      	call 	_DBGDisplayString
                        	; 	prtflt(a,20,16,'E');
FFFC3178 00149809 		      	ldi  	$a1,#20
FFFC317C 0010A009 		      	ldi  	$a2,#16
FFFC3180 0045A809 		      	ldi  	$a3,#69
FFFC3184 FFC57819 		      	call 	_prtflt
                        	; 	DBGDisplayString(" - ");
FFFC3188 00009009 		      	ldi  	$a0,#FloatTest_5
FFFC318C 94FE901A 
FFFC3190 FFFC905A 
FFFC3194 0000E818 		      	call 	_DBGDisplayString
                        	; 	prtflt(b,20,16,'E');
FFFC3198 8B8894C2 		      	mov  	$a0,$a1
FFFC319C 00149809 		      	ldi  	$a1,#20
FFFC31A0 0010A009 		      	ldi  	$a2,#16
FFFC31A4 0045A809 		      	ldi  	$a3,#69
FFFC31A8 FFC57819 		      	call 	_prtflt
                        	; 	DBGDisplayString(" = ");
FFFC31AC 00009009 		      	ldi  	$a0,#FloatTest_6
FFFC31B0 94F6901A 
FFFC31B4 FFFC905A 
FFFC31B8 0000E818 		      	call 	_DBGDisplayString
                        	; 	prtflt(dif,20,16,'E');
FFFC31BC 8B8892C2 		      	mov  	$a0,$r11
FFFC31C0 00149809 		      	ldi  	$a1,#20
FFFC31C4 0010A009 		      	ldi  	$a2,#16
FFFC31C8 0045A809 		      	ldi  	$a3,#69
FFFC31CC FFC57819 		      	call 	_prtflt
                        	; 	DBGDisplayString("\r\n");
FFFC31D0 00009009 		      	ldi  	$a0,#FloatTest_7
FFFC31D4 94F0901A 
FFFC31D8 FFFC905A 
FFFC31DC 0000E818 		      	call 	_DBGDisplayString
FFFC31E0 00700030 		      	bra  	FloatTest_14
                        	FloatTest_12:
                        	;====================================================
                        	; Basic Block 1
                        	;====================================================
FFFC31E4 0010EF92 		      	lw   	$lr,16[$fp]
FFFC31E8 0018EF96 		      	sw   	$lr,24[$fp]
                        	FloatTest_14:
FFFC31EC 00005FD2 		      	lw   	$r11,0[$sp]
FFFC31F0 000867D2 		      	lw   	$r12,8[$sp]
FFFC31F4 8B88FF82 		      	mov  	$sp,$fp
FFFC31F8 0000F7D2 		      	lw   	$fp,[$sp]
FFFC31FC 0010E7D2 		      	lw   	$xlr,16[$sp]
FFFC3200 0018EFD2 		      	lw   	$lr,24[$sp]
FFFC3204 0020EFE9 		      	ret  	#32
                        	;====================================================
                        	; Basic Block 0
                        	;====================================================
                        	_TestMul:
FFFC3208 FFE0FFC4 		      	sub  	$sp,$sp,#32
FFFC320C 0018EFD6 		      	sw   	$lr,24[$sp]
FFFC3210 0010E7D6 		      	sw   	$xlr,16[$sp]
FFFC3214 000807D6 		      	sw   	$r0,8[$sp]
FFFC3218 0000F7D6 		      	sw   	$fp,[$sp]
FFFC321C 32A8E009 		      	ldi  	$xlr,#FloatTest_24
FFFC3220 FFFCE05A 
FFFC3224 8B88F7C2 		      	mov  	$fp,$sp
FFFC3228 FFE0FFC4 		      	sub  	$sp,$sp,#32
FFFC322C FFF8FFC4 		      	sub  	$sp,$sp,#8
FFFC3230 00005FD6 		      	sw   	$r11,0[$sp]
FFFC3234 FFF85F92 		      	lw   	$r11,-8[$fp]
                        	; 	prod = a * b;
                        		      	fmul.d	$v2,$a0,$a1
FFFC3238 8B8858C2 		      	mov  	$r11,$v2
                        	; 	prtflt(a,20,16,'E');
FFFC323C 00149809 		      	ldi  	$a1,#20
FFFC3240 0010A009 		      	ldi  	$a2,#16
FFFC3244 0045A809 		      	ldi  	$a3,#69
FFFC3248 FFC57819 		      	call 	_prtflt
                        	; 	DBGDisplayString(" * ");
FFFC324C 00009009 		      	ldi  	$a0,#FloatTest_17
FFFC3250 94E8901A 
FFFC3254 FFFC905A 
FFFC3258 0000E818 		      	call 	_DBGDisplayString
                        	; 	prtflt(b,20,16,'E');
FFFC325C 8B8894C2 		      	mov  	$a0,$a1
FFFC3260 00149809 		      	ldi  	$a1,#20
FFFC3264 0010A009 		      	ldi  	$a2,#16
FFFC3268 0045A809 		      	ldi  	$a3,#69
FFFC326C FFC57819 		      	call 	_prtflt
                        	; 	DBGDisplayString(" = ");
FFFC3270 00009009 		      	ldi  	$a0,#FloatTest_18
FFFC3274 94E0901A 
FFFC3278 FFFC905A 
FFFC327C 0000E818 		      	call 	_DBGDisplayString
                        	; 	prtflt(prod,20,16,'E');
FFFC3280 8B8892C2 		      	mov  	$a0,$r11
FFFC3284 00149809 		      	ldi  	$a1,#20
FFFC3288 0010A009 		      	ldi  	$a2,#16
FFFC328C 0045A809 		      	ldi  	$a3,#69
FFFC3290 FFC57819 		      	call 	_prtflt
                        	; 	DBGDisplayString("\r\n");
FFFC3294 00009009 		      	ldi  	$a0,#FloatTest_19
FFFC3298 94DA901A 
FFFC329C FFFC905A 
FFFC32A0 0000E818 		      	call 	_DBGDisplayString
FFFC32A4 00700030 		      	bra  	FloatTest_26
                        	FloatTest_24:
                        	;====================================================
                        	; Basic Block 1
                        	;====================================================
FFFC32A8 0010EF92 		      	lw   	$lr,16[$fp]
FFFC32AC 0018EF96 		      	sw   	$lr,24[$fp]
                        	FloatTest_26:
FFFC32B0 00005FD2 		      	lw   	$r11,0[$sp]
FFFC32B4 8B88FF82 		      	mov  	$sp,$fp
FFFC32B8 0000F7D2 		      	lw   	$fp,[$sp]
FFFC32BC 0010E7D2 		      	lw   	$xlr,16[$sp]
FFFC32C0 0018EFD2 		      	lw   	$lr,24[$sp]
FFFC32C4 0020EFE9 		      	ret  	#32
                        	;====================================================
                        	; Basic Block 0
                        	;====================================================
                        	_TestEval:
FFFC32C8 FFE0FFC4 		      	sub  	$sp,$sp,#32
FFFC32CC 0018EFD6 		      	sw   	$lr,24[$sp]
FFFC32D0 0010E7D6 		      	sw   	$xlr,16[$sp]
FFFC32D4 000807D6 		      	sw   	$r0,8[$sp]
FFFC32D8 0000F7D6 		      	sw   	$fp,[$sp]
FFFC32DC 33C4E009 		      	ldi  	$xlr,#FloatTest_41
FFFC32E0 FFFCE05A 
FFFC32E4 8B88F7C2 		      	mov  	$fp,$sp
FFFC32E8 FFD0FFC4 		      	sub  	$sp,$sp,#48
FFFC32EC FFE0FFC4 		      	sub  	$sp,$sp,#32
FFFC32F0 00005FD6 		      	sw   	$r11,0[$sp]
FFFC32F4 000867D6 		      	sw   	$r12,8[$sp]
FFFC32F8 00106FD6 		      	sw   	$r13,16[$sp]
FFFC32FC 001877D6 		      	sw   	$r14,24[$sp]
FFFC3300 FFF85F92 		      	lw   	$r11,-8[$fp]
FFFC3304 FFF06792 		      	lw   	$r12,-16[$fp]
FFFC3308 FFE86F92 		      	lw   	$r13,-24[$fp]
                        	; 	x = 90071992254740994.0;	// 2^53 + 2
FFFC330C 0000B809 		      	lw   	$r11,FloatTest_29
FFFC3310 9200B81A 
FFFC3314 FFFCB85A 
FFFC3318 480BB802 
                        	; 	DBGDisplayString("x= ");
FFFC331C 00009009 		      	ldi  	$a0,#FloatTest_30
FFFC3320 94D2901A 
FFFC3324 FFFC905A 
FFFC3328 0000E818 		      	call 	_DBGDisplayString
                        	; 	prtflt(x,39,30,'E');
FFFC332C 8B8892C2 		      	mov  	$a0,$r11
FFFC3330 00279809 		      	ldi  	$a1,#39
FFFC3334 001EA009 		      	ldi  	$a2,#30
FFFC3338 0045A809 		      	ldi  	$a3,#69
FFFC333C FFC57819 		      	call 	_prtflt
                        	; 	y = 1.0 - 1.0/65536.0;
FFFC3340 0000B809 		      	lw   	$t2,FloatTest_32
FFFC3344 91F0B81A 
FFFC3348 FFFCB85A 
FFFC334C 4807B802 
                        		      	fdiv.d	$v3,$r14,$t2
                        		      	fsub.d	$v2,$r14,$v3
FFFC3350 8B8860C2 		      	mov  	$r12,$v2
                        	; 	DBGDisplayString("\r\ny= ");
FFFC3354 00009009 		      	ldi  	$a0,#FloatTest_33
FFFC3358 94C6901A 
FFFC335C FFFC905A 
FFFC3360 0000E818 		      	call 	_DBGDisplayString
                        	; 	prtflt(y,39,30,'E');
FFFC3364 8B889302 		      	mov  	$a0,$r12
FFFC3368 00279809 		      	ldi  	$a1,#39
FFFC336C 001EA009 		      	ldi  	$a2,#30
FFFC3370 0045A809 		      	ldi  	$a3,#69
FFFC3374 FFC57819 		      	call 	_prtflt
                        	; 	z = x + y;
                        		      	fadd.d	$v2,$r11,$r12
FFFC3378 8B8868C2 		      	mov  	$r13,$v2
                        	; 	DBGDisplayString("\r\nx+y= ");
FFFC337C 00009009 		      	ldi  	$a0,#FloatTest_34
FFFC3380 94B6901A 
FFFC3384 FFFC905A 
FFFC3388 0000E818 		      	call 	_DBGDisplayString
                        	; 	prtflt(z,39,30,'E');
FFFC338C 8B889342 		      	mov  	$a0,$r13
FFFC3390 00279809 		      	ldi  	$a1,#39
FFFC3394 001EA009 		      	ldi  	$a2,#30
FFFC3398 0045A809 		      	ldi  	$a3,#69
FFFC339C FFC57819 		      	call 	_prtflt
                        	; 	DBGDisplayString("\r\nIEEE-754 result: 90071992254740994.0 dbl\r\n");
FFFC33A0 00009009 		      	ldi  	$a0,#FloatTest_35
FFFC33A4 945C901A 
FFFC33A8 FFFC905A 
FFFC33AC 0000E818 		      	call 	_DBGDisplayString
                        	; 	DBGDisplayString("\r\nIEEE-754 result: 90071992254740996.0 xdbl\r\n");
FFFC33B0 00009009 		      	ldi  	$a0,#FloatTest_36
FFFC33B4 9400901A 
FFFC33B8 FFFC905A 
FFFC33BC 0000E818 		      	call 	_DBGDisplayString
FFFC33C0 00700030 		      	bra  	FloatTest_43
                        	FloatTest_41:
                        	;====================================================
                        	; Basic Block 1
                        	;====================================================
FFFC33C4 0010EF92 		      	lw   	$lr,16[$fp]
FFFC33C8 0018EF96 		      	sw   	$lr,24[$fp]
                        	FloatTest_43:
FFFC33CC 00005FD2 		      	lw   	$r11,0[$sp]
FFFC33D0 000867D2 		      	lw   	$r12,8[$sp]
FFFC33D4 00106FD2 		      	lw   	$r13,16[$sp]
FFFC33D8 001877D2 		      	lw   	$r14,24[$sp]
FFFC33DC 8B88FF82 		      	mov  	$sp,$fp
FFFC33E0 0000F7D2 		      	lw   	$fp,[$sp]
FFFC33E4 0010E7D2 		      	lw   	$xlr,16[$sp]
FFFC33E8 0018EFD2 		      	lw   	$lr,24[$sp]
FFFC33EC 0020EFE9 		      	ret  	#32
                        	;====================================================
                        	; Basic Block 0
                        	;====================================================
FFFC33F0 FFE0FFC4 	public code _FloatTest:
	      	sub  	$sp,$sp,#32
FFFC33F4 0018EFD6 		      	sw   	$lr,24[$sp]
FFFC33F8 0010E7D6 		      	sw   	$xlr,16[$sp]
FFFC33FC 000807D6 		      	sw   	$r0,8[$sp]
FFFC3400 0000F7D6 		      	sw   	$fp,[$sp]
FFFC3404 39FCE009 		      	ldi  	$xlr,#FloatTest_110
FFFC3408 FFFCE05A 
FFFC340C 8B88F7C2 		      	mov  	$fp,$sp
FFFC3410 FFD0FFC4 		      	sub  	$sp,$sp,#48
FFFC3414 FFC8FFC4 		      	sub  	$sp,$sp,#56
FFFC3418 00005FD6 		      	sw   	$r11,0[$sp]
FFFC341C 000867D6 		      	sw   	$r12,8[$sp]
FFFC3420 00106FD6 		      	sw   	$r13,16[$sp]
FFFC3424 001877D6 		      	sw   	$r14,24[$sp]
FFFC3428 00207FD6 		      	sw   	$r15,32[$sp]
FFFC342C 002887D6 		      	sw   	$r16,40[$sp]
FFFC3430 00308FD6 		      	sw   	$r17,48[$sp]
FFFC3434 FFE05F92 		      	lw   	$r11,-32[$fp]
FFFC3438 FFD86F92 		      	lw   	$r13,-40[$fp]
FFFC343C FFF87792 		      	lw   	$r14,-8[$fp]
FFFC3440 FFD07F92 		      	lw   	$r15,-48[$fp]
FFFC3444 FFE88792 		      	lw   	$r16,-24[$fp]
                        	; 	int bad;
FFFC3448 0000B809 		      	lw   	$r17,FloatTest_45
FFFC344C 91E8B81A 
FFFC3450 FFFCB85A 
FFFC3454 4811B802 
                        	FloatTest_113:
                        	; 	asm {
                        		      	     	
                        				ldwu	r1,BUTTONS
FFFC3458 001F0848 				and		r1,r1,#$1F
                        	; 	}
FFFC345C 00000071 		      	beq  	$v0,$r0,FloatTest_114
                        	;====================================================
                        	; Basic Block 1
                        	;====================================================
                        	; 	while(GetButton());
FFFC3460 FFB00031 		      	bra  	FloatTest_113
                        	FloatTest_114:
                        	;====================================================
                        	; Basic Block 2
                        	;====================================================
                        	; 	DBGDisplayString("  Float Test\r\n");
FFFC3464 00009009 		      	ldi  	$a0,#FloatTest_46
FFFC3468 93E2901A 
FFFC346C FFFC905A 
FFFC3470 0000E818 		      	call 	_DBGDisplayString
                        	; 	DBGDisplayString("  PI is ");
FFFC3474 00009009 		      	ldi  	$a0,#FloatTest_47
FFFC3478 93D0901A 
FFFC347C FFFC905A 
FFFC3480 0000E818 		      	call 	_DBGDisplayString
                        	; 	prtflt(pi,20,16,'E');
FFFC3484 FFE0FFC4 		      	sub  	$sp,$sp,#32
FFFC3488 00008FD6 		      	sw   	$r17,0[$sp]
FFFC348C 00141809 		      	ldi  	$v2,#20
FFFC3490 00081FD6 		      	sw   	$v2,8[$sp]
FFFC3494 00101809 		      	ldi  	$v2,#16
FFFC3498 00101FD6 		      	sw   	$v2,16[$sp]
FFFC349C 00451809 		      	ldi  	$v2,#69
FFFC34A0 00181FD6 		      	sw   	$v2,24[$sp]
FFFC34A4 FFC57819 		      	call 	_prtflt
FFFC34A8 0020FFC4 		      	add  	$sp,$sp,#32
                        	; 	DBGDisplayString("Testing prtflt");
FFFC34AC 00009009 		      	ldi  	$a0,#FloatTest_48
FFFC34B0 93B2901A 
FFFC34B4 FFFC905A 
FFFC34B8 0000E818 		      	call 	_DBGDisplayString
                        	; 	DBGDisplayString("\r\n0.0=");
FFFC34BC 00009009 		      	ldi  	$a0,#FloatTest_49
FFFC34C0 93A4901A 
FFFC34C4 FFFC905A 
FFFC34C8 0000E818 		      	call 	_DBGDisplayString
                        	; 	prtflt(0.0,0,16,'E');
FFFC34CC FFE0FFC4 		      	sub  	$sp,$sp,#32
FFFC34D0 000067D6 		      	sw   	$r12,0[$sp]
FFFC34D4 000807D6 		      	sw   	$r0,8[$sp]
FFFC34D8 00101809 		      	ldi  	$v2,#16
FFFC34DC 00101FD6 		      	sw   	$v2,16[$sp]
FFFC34E0 00451809 		      	ldi  	$v2,#69
FFFC34E4 00181FD6 		      	sw   	$v2,24[$sp]
FFFC34E8 FFC57819 		      	call 	_prtflt
FFFC34EC 0020FFC4 		      	add  	$sp,$sp,#32
                        	; 	DBGDisplayString("\r\n42.0=");
FFFC34F0 00009009 		      	ldi  	$a0,#FloatTest_51
FFFC34F4 9394901A 
FFFC34F8 FFFC905A 
FFFC34FC 0000E818 		      	call 	_DBGDisplayString
                        	; 	prtflt(42.0,0,16,'E');
FFFC3500 FFE0FFC4 		      	sub  	$sp,$sp,#32
FFFC3504 0000B809 		      	lw   	$v2,FloatTest_52
FFFC3508 91D8B81A 
FFFC350C FFFCB85A 
FFFC3510 4803B802 
FFFC3514 00001FD6 		      	sw   	$v2,0[$sp]
FFFC3518 000807D6 		      	sw   	$r0,8[$sp]
FFFC351C 00102009 		      	ldi  	$v3,#16
FFFC3520 001027D6 		      	sw   	$v3,16[$sp]
FFFC3524 00452009 		      	ldi  	$v3,#69
FFFC3528 001827D6 		      	sw   	$v3,24[$sp]
FFFC352C FFC57819 		      	call 	_prtflt
FFFC3530 0020FFC4 		      	add  	$sp,$sp,#32
                        	; 	DBGDisplayString("\r\n12345 => float ");
FFFC3534 00009009 		      	ldi  	$a0,#FloatTest_53
FFFC3538 9370901A 
FFFC353C FFFC905A 
FFFC3540 0000E818 		      	call 	_DBGDisplayString
                        	; 	t1 = 12345;
FFFC3544 30397809 		      	ldi  	$r15,#12345
                        	; 	a = (float)t1;
FFFC3548 8B885BC2 		      	mov  	$r11,$r15
                        	; 	prtflt(a,0,16,'E');
FFFC354C FFE0FFC4 		      	sub  	$sp,$sp,#32
FFFC3550 00005FD6 		      	sw   	$r11,0[$sp]
FFFC3554 000807D6 		      	sw   	$r0,8[$sp]
FFFC3558 00101809 		      	ldi  	$v2,#16
FFFC355C 00101FD6 		      	sw   	$v2,16[$sp]
FFFC3560 00451809 		      	ldi  	$v2,#69
FFFC3564 00181FD6 		      	sw   	$v2,24[$sp]
FFFC3568 FFC57819 		      	call 	_prtflt
FFFC356C 0020FFC4 		      	add  	$sp,$sp,#32
                        	; 	DBGDisplayString("\r\n12345. => int ");
FFFC3570 00009009 		      	ldi  	$a0,#FloatTest_54
FFFC3574 934E901A 
FFFC3578 FFFC905A 
FFFC357C 0000E818 		      	call 	_DBGDisplayString
                        	; 	t1 = (int)a;
FFFC3580 8B887AC2 		      	mov  	$r15,$r11
                        	; 	prtflt((float)t1,0,16,'E');
FFFC3584 FFE0FFC4 		      	sub  	$sp,$sp,#32
FFFC3588 00007FD6 		      	sw   	$r15,0[$sp]
FFFC358C 000807D6 		      	sw   	$r0,8[$sp]
FFFC3590 00101809 		      	ldi  	$v2,#16
FFFC3594 00101FD6 		      	sw   	$v2,16[$sp]
FFFC3598 00451809 		      	ldi  	$v2,#69
FFFC359C 00181FD6 		      	sw   	$v2,24[$sp]
FFFC35A0 FFC57819 		      	call 	_prtflt
FFFC35A4 0020FFC4 		      	add  	$sp,$sp,#32
                        	; 	DBGDisplayString("\r\n1234567.8901234=");
FFFC35A8 00009009 		      	ldi  	$a0,#FloatTest_55
FFFC35AC 9328901A 
FFFC35B0 FFFC905A 
FFFC35B4 0000E818 		      	call 	_DBGDisplayString
                        	; 	prtflt(1234567.8901234,0,16,'E');
FFFC35B8 FFE0FFC4 		      	sub  	$sp,$sp,#32
FFFC35BC 0000B809 		      	lw   	$v2,FloatTest_56
FFFC35C0 91D0B81A 
FFFC35C4 FFFCB85A 
FFFC35C8 4803B802 
FFFC35CC 00001FD6 		      	sw   	$v2,0[$sp]
FFFC35D0 000807D6 		      	sw   	$r0,8[$sp]
FFFC35D4 00102009 		      	ldi  	$v3,#16
FFFC35D8 001027D6 		      	sw   	$v3,16[$sp]
FFFC35DC 00452009 		      	ldi  	$v3,#69
FFFC35E0 001827D6 		      	sw   	$v3,24[$sp]
FFFC35E4 FFC57819 		      	call 	_prtflt
FFFC35E8 0020FFC4 		      	add  	$sp,$sp,#32
                        	; 	DBGDisplayString("  ");
FFFC35EC 00009009 		      	ldi  	$a0,#FloatTest_57
FFFC35F0 9322901A 
FFFC35F4 FFFC905A 
FFFC35F8 0000E818 		      	call 	_DBGDisplayString
                        	; 	prtflt(log10q(1234567.8901234),0,16,'E');
FFFC35FC FFE0FFC4 		      	sub  	$sp,$sp,#32
FFFC3600 FFF8FFC4 		      	sub  	$sp,$sp,#8
FFFC3604 0000B809 		      	lw   	$v2,FloatTest_56
FFFC3608 91D0B81A 
FFFC360C FFFCB85A 
FFFC3610 4803B802 
FFFC3614 00001FD6 		      	sw   	$v2,0[$sp]
FFFC3618 FFC58E59 		      	call 	_log10q
FFFC361C 0008FFC4 		      	add  	$sp,$sp,#8
FFFC3620 00000FD6 		      	sw   	$v0,0[$sp]
FFFC3624 000807D6 		      	sw   	$r0,8[$sp]
FFFC3628 00102009 		      	ldi  	$v3,#16
FFFC362C 001027D6 		      	sw   	$v3,16[$sp]
FFFC3630 00452009 		      	ldi  	$v3,#69
FFFC3634 001827D6 		      	sw   	$v3,24[$sp]
FFFC3638 FFC57819 		      	call 	_prtflt
FFFC363C 0020FFC4 		      	add  	$sp,$sp,#32
                        	; 	DBGDisplayString("\r\n1.8e14=");
FFFC3640 00009009 		      	ldi  	$a0,#FloatTest_58
FFFC3644 930E901A 
FFFC3648 FFFC905A 
FFFC364C 0000E818 		      	call 	_DBGDisplayString
                        	; 	prtflt(1.8e14,0,16,'E');
FFFC3650 FFE0FFC4 		      	sub  	$sp,$sp,#32
FFFC3654 0000B809 		      	lw   	$v2,FloatTest_59
FFFC3658 91C8B81A 
FFFC365C FFFCB85A 
FFFC3660 4803B802 
FFFC3664 00001FD6 		      	sw   	$v2,0[$sp]
FFFC3668 000807D6 		      	sw   	$r0,8[$sp]
FFFC366C 00102009 		      	ldi  	$v3,#16
FFFC3670 001027D6 		      	sw   	$v3,16[$sp]
FFFC3674 00452009 		      	ldi  	$v3,#69
FFFC3678 001827D6 		      	sw   	$v3,24[$sp]
FFFC367C FFC57819 		      	call 	_prtflt
FFFC3680 0020FFC4 		      	add  	$sp,$sp,#32
                        	; 	DBGDisplayString("\r\n555555.5555555=");
FFFC3684 00009009 		      	ldi  	$a0,#FloatTest_60
FFFC3688 92EA901A 
FFFC368C FFFC905A 
FFFC3690 0000E818 		      	call 	_DBGDisplayString
                        	; 	prtflt(555555.5555555,0,16,'E');
FFFC3694 FFE0FFC4 		      	sub  	$sp,$sp,#32
FFFC3698 0000B809 		      	lw   	$v2,FloatTest_61
FFFC369C 91C0B81A 
FFFC36A0 FFFCB85A 
FFFC36A4 4803B802 
FFFC36A8 00001FD6 		      	sw   	$v2,0[$sp]
FFFC36AC 000807D6 		      	sw   	$r0,8[$sp]
FFFC36B0 00102009 		      	ldi  	$v3,#16
FFFC36B4 001027D6 		      	sw   	$v3,16[$sp]
FFFC36B8 00452009 		      	ldi  	$v3,#69
FFFC36BC 001827D6 		      	sw   	$v3,24[$sp]
FFFC36C0 FFC57819 		      	call 	_prtflt
FFFC36C4 0020FFC4 		      	add  	$sp,$sp,#32
                        	; 	DBGDisplayString("\r\n-8.8888888888889e14=");
FFFC36C8 00009009 		      	ldi  	$a0,#FloatTest_62
FFFC36CC 92BC901A 
FFFC36D0 FFFC905A 
FFFC36D4 0000E818 		      	call 	_DBGDisplayString
                        	; 	prtflt(-8.8888888888889e+14,0,16,'E');
FFFC36D8 FFE0FFC4 		      	sub  	$sp,$sp,#32
FFFC36DC 0000B809 		      	lw   	$v2,FloatTest_64
FFFC36E0 91B0B81A 
FFFC36E4 FFFCB85A 
FFFC36E8 4803B802 
FFFC36EC 00001FD6 		      	sw   	$v2,0[$sp]
FFFC36F0 000807D6 		      	sw   	$r0,8[$sp]
FFFC36F4 00102009 		      	ldi  	$v3,#16
FFFC36F8 001027D6 		      	sw   	$v3,16[$sp]
FFFC36FC 00452009 		      	ldi  	$v3,#69
FFFC3700 001827D6 		      	sw   	$v3,24[$sp]
FFFC3704 FFC57819 		      	call 	_prtflt
FFFC3708 0020FFC4 		      	add  	$sp,$sp,#32
                        	; 	DBGDisplayString("\r\n1.11111111111111e+23=");
FFFC370C 00009009 		      	ldi  	$a0,#FloatTest_65
FFFC3710 928C901A 
FFFC3714 FFFC905A 
FFFC3718 0000E818 		      	call 	_DBGDisplayString
                        	; 	prtflt(1.11111111111111e+23,0,16,'E');
FFFC371C FFE0FFC4 		      	sub  	$sp,$sp,#32
FFFC3720 0000B809 		      	lw   	$v2,FloatTest_66
FFFC3724 91A8B81A 
FFFC3728 FFFCB85A 
FFFC372C 4803B802 
FFFC3730 00001FD6 		      	sw   	$v2,0[$sp]
FFFC3734 000807D6 		      	sw   	$r0,8[$sp]
FFFC3738 00102009 		      	ldi  	$v3,#16
FFFC373C 001027D6 		      	sw   	$v3,16[$sp]
FFFC3740 00452009 		      	ldi  	$v3,#69
FFFC3744 001827D6 		      	sw   	$v3,24[$sp]
FFFC3748 FFC57819 		      	call 	_prtflt
FFFC374C 0020FFC4 		      	add  	$sp,$sp,#32
                        	; 	DBGDisplayString("  ");
FFFC3750 00009009 		      	ldi  	$a0,#FloatTest_67
FFFC3754 9286901A 
FFFC3758 FFFC905A 
FFFC375C 0000E818 		      	call 	_DBGDisplayString
                        	; 	prtflt(log10q(1.11111111111111e+23),0,16,'E');
FFFC3760 FFE0FFC4 		      	sub  	$sp,$sp,#32
FFFC3764 FFF8FFC4 		      	sub  	$sp,$sp,#8
FFFC3768 0000B809 		      	lw   	$v2,FloatTest_66
FFFC376C 91A8B81A 
FFFC3770 FFFCB85A 
FFFC3774 4803B802 
FFFC3778 00001FD6 		      	sw   	$v2,0[$sp]
FFFC377C FFC58E59 		      	call 	_log10q
FFFC3780 0008FFC4 		      	add  	$sp,$sp,#8
FFFC3784 00000FD6 		      	sw   	$v0,0[$sp]
FFFC3788 000807D6 		      	sw   	$r0,8[$sp]
FFFC378C 00102009 		      	ldi  	$v3,#16
FFFC3790 001027D6 		      	sw   	$v3,16[$sp]
FFFC3794 00452009 		      	ldi  	$v3,#69
FFFC3798 001827D6 		      	sw   	$v3,24[$sp]
FFFC379C FFC57819 		      	call 	_prtflt
FFFC37A0 0020FFC4 		      	add  	$sp,$sp,#32
                        	FloatTest_119:
                        	; 	asm {
                        		      	     	
                        				ldwu	r1,BUTTONS
FFFC37A4 001F0848 				and		r1,r1,#$1F
                        	; 	}
FFFC37A8 00010071 		      	bne  	$v0,$r0,FloatTest_120
                        	;====================================================
                        	; Basic Block 3
                        	;====================================================
                        	; 	while (!GetButton());
FFFC37AC FFB00031 		      	bra  	FloatTest_119
                        	FloatTest_120:
                        	FloatTest_125:
                        	;====================================================
                        	; Basic Block 4
                        	;====================================================
                        	; 	asm {
                        		      	     	
                        				ldwu	r1,BUTTONS
FFFC37B0 001F0848 				and		r1,r1,#$1F
                        	; 	}
FFFC37B4 00000071 		      	beq  	$v0,$r0,FloatTest_126
                        	;====================================================
                        	; Basic Block 5
                        	;====================================================
                        	; 	while(GetButton());
FFFC37B8 FFB00031 		      	bra  	FloatTest_125
                        	FloatTest_126:
                        	;====================================================
                        	; Basic Block 6
                        	;====================================================
                        	; 	DBGClearScreen();
FFFC37BC FFC5C3D9 		      	call 	_DBGClearScreen
                        	; 	DBGHomeCursor();
FFFC37C0 0000E818 		      	call 	_DBGHomeCursor
                        	; 	DBGDisplayString("\r\n10.0+10.0=");
FFFC37C4 00009009 		      	ldi  	$a0,#FloatTest_68
FFFC37C8 926C901A 
FFFC37CC FFFC905A 
FFFC37D0 0000E818 		      	call 	_DBGDisplayString
                        	; 	a = 10.0;
FFFC37D4 0000B809 		      	lw   	$r11,FloatTest_69
FFFC37D8 91A0B81A 
FFFC37DC FFFCB85A 
FFFC37E0 480BB802 
                        	; 	b = 10.0;
FFFC37E4 0000B809 		      	lw   	$r13,FloatTest_69
FFFC37E8 91A0B81A 
FFFC37EC FFFCB85A 
FFFC37F0 480DB802 
                        	; 	prtflt(a+b,20,16,'E');
FFFC37F4 FFE0FFC4 		      	sub  	$sp,$sp,#32
                        		      	fadd.d	$v2,$r11,$r13
FFFC37F8 00001FD6 		      	sw   	$v2,0[$sp]
FFFC37FC 00142009 		      	ldi  	$v3,#20
FFFC3800 000827D6 		      	sw   	$v3,8[$sp]
FFFC3804 00102009 		      	ldi  	$v3,#16
FFFC3808 001027D6 		      	sw   	$v3,16[$sp]
FFFC380C 00452009 		      	ldi  	$v3,#69
FFFC3810 001827D6 		      	sw   	$v3,24[$sp]
FFFC3814 FFC57819 		      	call 	_prtflt
FFFC3818 0020FFC4 		      	add  	$sp,$sp,#32
                        	; 	DBGDisplayString("\r\n10.0*10.0=");
FFFC381C 00009009 		      	ldi  	$a0,#FloatTest_70
FFFC3820 9252901A 
FFFC3824 FFFC905A 
FFFC3828 0000E818 		      	call 	_DBGDisplayString
                        	; 	prtflt(a*b,20,16,'E');
FFFC382C FFE0FFC4 		      	sub  	$sp,$sp,#32
                        		      	fmul.d	$v2,$r11,$r13
FFFC3830 00001FD6 		      	sw   	$v2,0[$sp]
FFFC3834 00142009 		      	ldi  	$v3,#20
FFFC3838 000827D6 		      	sw   	$v3,8[$sp]
FFFC383C 00102009 		      	ldi  	$v3,#16
FFFC3840 001027D6 		      	sw   	$v3,16[$sp]
FFFC3844 00452009 		      	ldi  	$v3,#69
FFFC3848 001827D6 		      	sw   	$v3,24[$sp]
FFFC384C FFC57819 		      	call 	_prtflt
FFFC3850 0020FFC4 		      	add  	$sp,$sp,#32
                        	; 	DBGDisplayString("\r\n300.0/25.0=");
FFFC3854 00009009 		      	ldi  	$a0,#FloatTest_71
FFFC3858 9236901A 
FFFC385C FFFC905A 
FFFC3860 0000E818 		      	call 	_DBGDisplayString
                        	; 	a = 300.0;
FFFC3864 0000B809 		      	lw   	$r11,FloatTest_72
FFFC3868 9198B81A 
FFFC386C FFFCB85A 
FFFC3870 480BB802 
                        	; 	b = 25.0;
FFFC3874 0000B809 		      	lw   	$r13,FloatTest_73
FFFC3878 9190B81A 
FFFC387C FFFCB85A 
FFFC3880 480DB802 
                        	; 	prtflt(a/b,20,16,'E');
FFFC3884 FFE0FFC4 		      	sub  	$sp,$sp,#32
                        		      	fdiv.d	$v2,$r11,$r13
FFFC3888 00001FD6 		      	sw   	$v2,0[$sp]
FFFC388C 00142009 		      	ldi  	$v3,#20
FFFC3890 000827D6 		      	sw   	$v3,8[$sp]
FFFC3894 00102009 		      	ldi  	$v3,#16
FFFC3898 001027D6 		      	sw   	$v3,16[$sp]
FFFC389C 00452009 		      	ldi  	$v3,#69
FFFC38A0 001827D6 		      	sw   	$v3,24[$sp]
FFFC38A4 FFC57819 		      	call 	_prtflt
FFFC38A8 0020FFC4 		      	add  	$sp,$sp,#32
                        	; 	DBGDisplayString("\r\n");
FFFC38AC 00009009 		      	ldi  	$a0,#FloatTest_74
FFFC38B0 9230901A 
FFFC38B4 FFFC905A 
FFFC38B8 0000E818 		      	call 	_DBGDisplayString
                        	; 	a = 0.0; b = -0.0;
FFFC38BC 8B885B02 		      	mov  	$r11,$r12
FFFC38C0 8B886B02 		      	mov  	$r13,$r12
                        	; 	bad = 0;
FFFC38C4 00007009 		      	ldi  	$r14,#0
                        	; 	if (a != b)
                        		      	fbeq.d	$r11,$r13,FloatTest_131
                        	; 		bad = 1;
FFFC38C8 00017009 		      	ldi  	$r14,#1
                        	FloatTest_131:
                        	; 	nx = -a;
                        		      	fneg.d	$v2,$r11
FFFC38CC 8B8880C2 		      	mov  	$r16,$v2
                        	; 	if (nx != a)
                        		      	fbeq.d	$r16,$r11,FloatTest_133
                        	; 		bad = 1;
FFFC38D0 00017009 		      	ldi  	$r14,#1
                        	FloatTest_133:
                        	; 	TestAddsub(+0.0, +0.0);
FFFC38D4 FFF0FFC4 		      	sub  	$sp,$sp,#16
FFFC38D8 000067D6 		      	sw   	$r12,0[$sp]
FFFC38DC 000867D6 		      	sw   	$r12,8[$sp]
FFFC38E0 FFC30D19 		      	call 	_TestAddsub
FFFC38E4 0010FFC4 		      	add  	$sp,$sp,#16
                        	; 	TestAddsub(+0.0, -0.0);
FFFC38E8 FFF0FFC4 		      	sub  	$sp,$sp,#16
FFFC38EC 000067D6 		      	sw   	$r12,0[$sp]
FFFC38F0 000867D6 		      	sw   	$r12,8[$sp]
FFFC38F4 FFC30D19 		      	call 	_TestAddsub
FFFC38F8 0010FFC4 		      	add  	$sp,$sp,#16
                        	; 	TestAddsub(-0.0, +0.0);
FFFC38FC FFF0FFC4 		      	sub  	$sp,$sp,#16
FFFC3900 000067D6 		      	sw   	$r12,0[$sp]
FFFC3904 000867D6 		      	sw   	$r12,8[$sp]
FFFC3908 FFC30D19 		      	call 	_TestAddsub
FFFC390C 0010FFC4 		      	add  	$sp,$sp,#16
                        	; 	TestAddsub(-0.0, -0.0);
FFFC3910 FFF0FFC4 		      	sub  	$sp,$sp,#16
FFFC3914 000067D6 		      	sw   	$r12,0[$sp]
FFFC3918 000867D6 		      	sw   	$r12,8[$sp]
FFFC391C FFC30D19 		      	call 	_TestAddsub
FFFC3920 0010FFC4 		      	add  	$sp,$sp,#16
                        	; 	TestAddsub(+1.0, +1.0);
FFFC3924 FFF0FFC4 		      	sub  	$sp,$sp,#16
FFFC3928 0000B809 		      	lw   	$v2,FloatTest_31
FFFC392C 91F8B81A 
FFFC3930 FFFCB85A 
FFFC3934 4803B802 
FFFC3938 00001FD6 		      	sw   	$v2,0[$sp]
FFFC393C 0000B809 		      	lw   	$v3,FloatTest_31
FFFC3940 91F8B81A 
FFFC3944 FFFCB85A 
FFFC3948 4804B802 
FFFC394C 000827D6 		      	sw   	$v3,8[$sp]
FFFC3950 FFC30D19 		      	call 	_TestAddsub
FFFC3954 0010FFC4 		      	add  	$sp,$sp,#16
                        	; 	TestAddsub(+1.0, -1.0);
FFFC3958 FFF0FFC4 		      	sub  	$sp,$sp,#16
FFFC395C 0000B809 		      	lw   	$v2,FloatTest_31
FFFC3960 91F8B81A 
FFFC3964 FFFCB85A 
FFFC3968 4803B802 
FFFC396C 00001FD6 		      	sw   	$v2,0[$sp]
FFFC3970 0000B809 		      	lw   	$v3,FloatTest_76
FFFC3974 9180B81A 
FFFC3978 FFFCB85A 
FFFC397C 4804B802 
FFFC3980 000827D6 		      	sw   	$v3,8[$sp]
FFFC3984 FFC30D19 		      	call 	_TestAddsub
FFFC3988 0010FFC4 		      	add  	$sp,$sp,#16
                        	; 	TestMul(+0.0, +0.0);
FFFC398C FFF0FFC4 		      	sub  	$sp,$sp,#16
FFFC3990 000067D6 		      	sw   	$r12,0[$sp]
FFFC3994 000867D6 		      	sw   	$r12,8[$sp]
FFFC3998 FFC32099 		      	call 	_TestMul
FFFC399C 0010FFC4 		      	add  	$sp,$sp,#16
                        	; 	TestMul(+0.0, -0.0);
FFFC39A0 FFF0FFC4 		      	sub  	$sp,$sp,#16
FFFC39A4 000067D6 		      	sw   	$r12,0[$sp]
FFFC39A8 000867D6 		      	sw   	$r12,8[$sp]
FFFC39AC FFC32099 		      	call 	_TestMul
FFFC39B0 0010FFC4 		      	add  	$sp,$sp,#16
                        	; 	TestMul(-0.0, +0.0);
FFFC39B4 FFF0FFC4 		      	sub  	$sp,$sp,#16
FFFC39B8 000067D6 		      	sw   	$r12,0[$sp]
FFFC39BC 000867D6 		      	sw   	$r12,8[$sp]
FFFC39C0 FFC32099 		      	call 	_TestMul
FFFC39C4 0010FFC4 		      	add  	$sp,$sp,#16
                        	; 	TestMul(-0.0, -0.0);
FFFC39C8 FFF0FFC4 		      	sub  	$sp,$sp,#16
FFFC39CC 000067D6 		      	sw   	$r12,0[$sp]
FFFC39D0 000867D6 		      	sw   	$r12,8[$sp]
FFFC39D4 FFC32099 		      	call 	_TestMul
FFFC39D8 0010FFC4 		      	add  	$sp,$sp,#16
                        	; 	if (bad)
FFFC39DC 008003B0 		      	beq  	$r14,$r0,FloatTest_135
                        	;====================================================
                        	; Basic Block 7
                        	;====================================================
                        	; 		DBGDisplayString("\r\nSigned zero fail.");
FFFC39E0 00009009 		      	ldi  	$a0,#FloatTest_77
FFFC39E4 9208901A 
FFFC39E8 FFFC905A 
FFFC39EC 0000E818 		      	call 	_DBGDisplayString
                        	FloatTest_135:
                        	; 	TestEval();
FFFC39F0 FFC32C99 		      	call 	_TestEval
                        	; 	asm {
                        		      	     	
                        				ldwu	r1,BUTTONS
FFFC39F4 001F0848 				and		r1,r1,#$1F
                        	; 	}
FFFC39F8 00700030 		      	bra  	FloatTest_112
                        	FloatTest_110:
                        	;====================================================
                        	; Basic Block 8
                        	;====================================================
FFFC39FC 0010EF92 		      	lw   	$lr,16[$fp]
FFFC3A00 0018EF96 		      	sw   	$lr,24[$fp]
                        	FloatTest_112:
FFFC3A04 00005FD2 		      	lw   	$r11,0[$sp]
FFFC3A08 000867D2 		      	lw   	$r12,8[$sp]
FFFC3A0C 00106FD2 		      	lw   	$r13,16[$sp]
FFFC3A10 001877D2 		      	lw   	$r14,24[$sp]
FFFC3A14 00207FD2 		      	lw   	$r15,32[$sp]
FFFC3A18 002887D2 		      	lw   	$r16,40[$sp]
FFFC3A1C 00308FD2 		      	lw   	$r17,48[$sp]
FFFC3A20 8B88FF82 		      	mov  	$sp,$fp
FFFC3A24 0000F7D2 		      	lw   	$fp,[$sp]
FFFC3A28 0010E7D2 		      	lw   	$xlr,16[$sp]
FFFC3A2C 0018EFD2 		      	lw   	$lr,24[$sp]
FFFC3A30 0020EFE9 		      	ret  	#32
                        	endpublic
                        	
                        		code
FFFC3A34 00000000 		align	1
FFFC3A38 00000000 
FFFC3A3C 00000000 
                        	
                        	;====================================================
                        	; Basic Block 0
                        	;====================================================
                        	_TwoSpaces:
FFFC3A40 FFE0FFC4 		      	sub  	$sp,$sp,#32
FFFC3A44 0018EFD6 		      	sw   	$lr,24[$sp]
FFFC3A48 0010E7D6 		      	sw   	$xlr,16[$sp]
FFFC3A4C 000807D6 		      	sw   	$r0,8[$sp]
FFFC3A50 0000F7D6 		      	sw   	$fp,[$sp]
FFFC3A54 3A78E009 		      	ldi  	$xlr,#ramtest_6
FFFC3A58 FFFCE05A 
FFFC3A5C 8B88F7C2 		      	mov  	$fp,$sp
FFFC3A60 0000FFC4 		      	sub  	$sp,$sp,#0
FFFC3A64 00209009 		      	ldi  	$a0,#32
FFFC3A68 FFC3DE19 		      	call 	_putch
FFFC3A6C 00209009 		      	ldi  	$a0,#32
FFFC3A70 FFC3DE19 		      	call 	_putch
FFFC3A74 00700030 		      	bra  	ramtest_8
                        	ramtest_6:
                        	;====================================================
                        	; Basic Block 1
                        	;====================================================
FFFC3A78 0010EF92 		      	lw   	$lr,16[$fp]
FFFC3A7C 0018EF96 		      	sw   	$lr,24[$fp]
                        	ramtest_8:
FFFC3A80 8B88FF82 		      	mov  	$sp,$fp
FFFC3A84 0000F7D2 		      	lw   	$fp,[$sp]
FFFC3A88 0010E7D2 		      	lw   	$xlr,16[$sp]
FFFC3A8C 0018EFD2 		      	lw   	$lr,24[$sp]
FFFC3A90 0020EFE9 		      	ret  	#32
                        	;====================================================
                        	; Basic Block 0
                        	;====================================================
FFFC3A94 FFE0FFC4 	public code _puthex:
	      	sub  	$sp,$sp,#32
FFFC3A98 000807D6 		      	sw   	$r0,8[$sp]
FFFC3A9C 0000F7D6 		      	sw   	$fp,[$sp]
FFFC3AA0 8B88F7C2 		      	mov  	$fp,$sp
FFFC3AA4 0000FFC4 		      	sub  	$sp,$sp,#0
                        		      	     	
FFFC3AA8 8B880C82 				mov		r1,r18
FFFC3AAC 000014D9 				call	_DisplayTetra
FFFC3AB0 8B88FF82 		      	mov  	$sp,$fp
FFFC3AB4 0000F7D2 		      	lw   	$fp,[$sp]
FFFC3AB8 0020EFE9 		      	ret  	#32
                        	endpublic
                        	
                        	;====================================================
                        	; Basic Block 0
                        	;====================================================
FFFC3ABC FFE0FFC4 	public code _dumpaddr:
	      	sub  	$sp,$sp,#32
FFFC3AC0 0018EFD6 		      	sw   	$lr,24[$sp]
FFFC3AC4 0010E7D6 		      	sw   	$xlr,16[$sp]
FFFC3AC8 000807D6 		      	sw   	$r0,8[$sp]
FFFC3ACC 0000F7D6 		      	sw   	$fp,[$sp]
FFFC3AD0 3B0CE009 		      	ldi  	$xlr,#ramtest_22
FFFC3AD4 FFFCE05A 
FFFC3AD8 8B88F7C2 		      	mov  	$fp,$sp
FFFC3ADC 0000FFC4 		      	sub  	$sp,$sp,#0
FFFC3AE0 FFC3A419 		      	call 	_TwoSpaces
FFFC3AE4 FFC3A959 		      	call 	_puthex
FFFC3AE8 00209009 		      	ldi  	$a0,#32
FFFC3AEC FFC3DE19 		      	call 	_putch
FFFC3AF0 00009492 		      	lw   	$a0,[$a0]
FFFC3AF4 FFC3A959 		      	call 	_puthex
FFFC3AF8 000D9009 		      	ldi  	$a0,#13
FFFC3AFC FFC3DE19 		      	call 	_putch
FFFC3B00 000A9009 		      	ldi  	$a0,#10
FFFC3B04 FFC3DE19 		      	call 	_putch
FFFC3B08 00700030 		      	bra  	ramtest_24
                        	ramtest_22:
                        	;====================================================
                        	; Basic Block 1
                        	;====================================================
FFFC3B0C 0010EF92 		      	lw   	$lr,16[$fp]
FFFC3B10 0018EF96 		      	sw   	$lr,24[$fp]
                        	ramtest_24:
FFFC3B14 8B88FF82 		      	mov  	$sp,$fp
FFFC3B18 0000F7D2 		      	lw   	$fp,[$sp]
FFFC3B1C 0010E7D2 		      	lw   	$xlr,16[$sp]
FFFC3B20 0018EFD2 		      	lw   	$lr,24[$sp]
FFFC3B24 0020EFE9 		      	ret  	#32
                        	endpublic
                        	
                        	;====================================================
                        	; Basic Block 0
                        	;====================================================
                        	_SetMem:
FFFC3B28 FFE0FFC4 		      	sub  	$sp,$sp,#32
FFFC3B2C 0018EFD6 		      	sw   	$lr,24[$sp]
FFFC3B30 0010E7D6 		      	sw   	$xlr,16[$sp]
FFFC3B34 000807D6 		      	sw   	$r0,8[$sp]
FFFC3B38 0000F7D6 		      	sw   	$fp,[$sp]
FFFC3B3C 3BF4E009 		      	ldi  	$xlr,#ramtest_42
FFFC3B40 FFFCE05A 
FFFC3B44 8B88F7C2 		      	mov  	$fp,$sp
FFFC3B48 FFF0FFC4 		      	sub  	$sp,$sp,#16
FFFC3B4C FFD8FFC4 		      	sub  	$sp,$sp,#40
FFFC3B50 00005FD6 		      	sw   	$r11,0[$sp]
FFFC3B54 000867D6 		      	sw   	$r12,8[$sp]
FFFC3B58 00106FD6 		      	sw   	$r13,16[$sp]
FFFC3B5C 001877D6 		      	sw   	$r14,24[$sp]
FFFC3B60 00207FD6 		      	sw   	$r15,32[$sp]
FFFC3B64 FFF85F92 		      	lw   	$r11,-8[$fp]
FFFC3B68 00006009 		      	ldi  	$r12,#65536
FFFC3B6C 0001605A 
FFFC3B70 8B886802 		      	mov  	$r13,$r0
FFFC3B74 00007009 		      	ldi  	$r14,#536870912
FFFC3B78 2000705A 
FFFC3B7C 8B887802 		      	mov  	$r15,$r0
FFFC3B80 8B885B02 		      	mov  	$r11,$r12
                        	ramtest_45:
FFFC3B84 036372F0 		      	bge  	$r11,$r14,ramtest_46,#2
                        	;====================================================
                        	; Basic Block 1
                        	;====================================================
FFFC3B88 0FFF1AC8 		      	and  	$v2,$r11,#4095
FFFC3B8C 028100F0 		      	bne  	$v2,$r0,ramtest_48
                        	;====================================================
                        	; Basic Block 2
                        	;====================================================
FFFC3B90 FFC3A419 		      	call 	_TwoSpaces
FFFC3B94 3ECC92C2 		      	asr  	$a0,$r11,#12
FFFC3B98 FFC3A959 		      	call 	_puthex
FFFC3B9C 000D9009 		      	ldi  	$a0,#13
FFFC3BA0 FFC3DE19 		      	call 	_putch
                        		      	     	
FFFC3BA4 39F4B809 				lcu		r1,BUTTONS
FFFC3BA8 FFFCB85A 
FFFC3BAC 8401B802 
FFFC3BB0 00041846 		      	cmp  	$v2,$v0,#4
FFFC3BB4 014100F0 		      	bne  	$v2,$r0,ramtest_50,#0
                        	ramtest_56:
                        	;====================================================
                        	; Basic Block 3
                        	;====================================================
FFFC3BB8 00005FD2 		      	lw   	$r11,0[$sp]
FFFC3BBC 000867D2 		      	lw   	$r12,8[$sp]
FFFC3BC0 00106FD2 		      	lw   	$r13,16[$sp]
FFFC3BC4 001877D2 		      	lw   	$r14,24[$sp]
FFFC3BC8 00207FD2 		      	lw   	$r15,32[$sp]
FFFC3BCC 8B88FF82 		      	mov  	$sp,$fp
FFFC3BD0 0000F7D2 		      	lw   	$fp,[$sp]
FFFC3BD4 0010E7D2 		      	lw   	$xlr,16[$sp]
FFFC3BD8 0018EFD2 		      	lw   	$lr,24[$sp]
FFFC3BDC 0020EFE9 		      	ret  	#32
                        	ramtest_50:
                        	ramtest_48:
                        	;====================================================
                        	; Basic Block 4
                        	;====================================================
FFFC3BE0 000092D4 		      	sh   	$a0,[$r11]
FFFC3BE4 00049AD4 		      	sh   	$a1,4[$r11]
FFFC3BE8 00085AC4 		      	add  	$r11,$r11,#8
FFFC3BEC FCB00031 		      	bra  	ramtest_45
                        	ramtest_46:
                        	;====================================================
                        	; Basic Block 5
                        	;====================================================
FFFC3BF0 00700030 		      	bra  	ramtest_44
                        	ramtest_42:
                        	;====================================================
                        	; Basic Block 6
                        	;====================================================
FFFC3BF4 0010EF92 		      	lw   	$lr,16[$fp]
FFFC3BF8 0018EF96 		      	sw   	$lr,24[$fp]
                        	ramtest_44:
FFFC3BFC FDF00030 		      	bra  	ramtest_56
                        	;====================================================
                        	; Basic Block 0
                        	;====================================================
                        	_CheckMem:
FFFC3C00 FFE0FFC4 		      	sub  	$sp,$sp,#32
FFFC3C04 0018EFD6 		      	sw   	$lr,24[$sp]
FFFC3C08 0010E7D6 		      	sw   	$xlr,16[$sp]
FFFC3C0C 000807D6 		      	sw   	$r0,8[$sp]
FFFC3C10 0000F7D6 		      	sw   	$fp,[$sp]
FFFC3C14 3D18E009 		      	ldi  	$xlr,#ramtest_79
FFFC3C18 FFFCE05A 
FFFC3C1C 8B88F7C2 		      	mov  	$fp,$sp
FFFC3C20 FFE8FFC4 		      	sub  	$sp,$sp,#24
FFFC3C24 FFD0FFC4 		      	sub  	$sp,$sp,#48
FFFC3C28 00005FD6 		      	sw   	$r11,0[$sp]
FFFC3C2C 000867D6 		      	sw   	$r12,8[$sp]
FFFC3C30 00106FD6 		      	sw   	$r13,16[$sp]
FFFC3C34 001877D6 		      	sw   	$r14,24[$sp]
FFFC3C38 00207FD6 		      	sw   	$r15,32[$sp]
FFFC3C3C 002887D6 		      	sw   	$r16,40[$sp]
FFFC3C40 FFF85F92 		      	lw   	$r11,-8[$fp]
FFFC3C44 FFF06792 		      	lw   	$r12,-16[$fp]
FFFC3C48 8B886802 		      	mov  	$r13,$r0
FFFC3C4C 00007009 		      	ldi  	$r14,#65536
FFFC3C50 0001705A 
FFFC3C54 8B887802 		      	mov  	$r15,$r0
FFFC3C58 00008009 		      	ldi  	$r16,#536870912
FFFC3C5C 2000805A 
FFFC3C60 00006009 		      	ldi  	$r12,#0
FFFC3C64 8B885B82 		      	mov  	$r11,$r14
                        	ramtest_82:
FFFC3C68 04E382F0 		      	bge  	$r11,$r16,ramtest_83,#2
                        	;====================================================
                        	; Basic Block 1
                        	;====================================================
FFFC3C6C 0FFF1AC8 		      	and  	$v2,$r11,#4095
FFFC3C70 028100F1 		      	bne  	$v2,$r0,ramtest_85
                        	;====================================================
                        	; Basic Block 2
                        	;====================================================
FFFC3C74 FFC3A419 		      	call 	_TwoSpaces
FFFC3C78 3ECC92C2 		      	asr  	$a0,$r11,#12
FFFC3C7C FFC3A959 		      	call 	_puthex
FFFC3C80 000D9009 		      	ldi  	$a0,#13
FFFC3C84 FFC3DE19 		      	call 	_putch
                        		      	     	
FFFC3C88 39F4B809 				lcu		r1,BUTTONS
FFFC3C8C FFFCB85A 
FFFC3C90 8401B802 
FFFC3C94 00041846 		      	cmp  	$v2,$v0,#4
FFFC3C98 014100F1 		      	bne  	$v2,$r0,ramtest_87,#0
                        	ramtest_93:
                        	;====================================================
                        	; Basic Block 3
                        	;====================================================
FFFC3C9C 00005FD2 		      	lw   	$r11,0[$sp]
FFFC3CA0 000867D2 		      	lw   	$r12,8[$sp]
FFFC3CA4 00106FD2 		      	lw   	$r13,16[$sp]
FFFC3CA8 001877D2 		      	lw   	$r14,24[$sp]
FFFC3CAC 00207FD2 		      	lw   	$r15,32[$sp]
FFFC3CB0 002887D2 		      	lw   	$r16,40[$sp]
FFFC3CB4 8B88FF82 		      	mov  	$sp,$fp
FFFC3CB8 0000F7D2 		      	lw   	$fp,[$sp]
FFFC3CBC 0010E7D2 		      	lw   	$xlr,16[$sp]
FFFC3CC0 0018EFD2 		      	lw   	$lr,24[$sp]
FFFC3CC4 0020EFE9 		      	ret  	#32
                        	ramtest_87:
                        	ramtest_85:
                        	;====================================================
                        	; Basic Block 4
                        	;====================================================
FFFC3CC8 00001AD0 		      	lh   	$v2,[$r11]
FFFC3CCC 004090F1 		      	beq  	$v2,$a0,ramtest_94,#0
                        	;====================================================
                        	; Basic Block 5
                        	;====================================================
FFFC3CD0 00016304 		      	add  	$r12,$r12,#1
FFFC3CD4 8B8892C2 		      	mov  	$a0,$r11
FFFC3CD8 FFC3ABD9 		      	call 	_dumpaddr
                        	ramtest_94:
FFFC3CDC 00041AD0 		      	lh   	$v2,4[$r11]
FFFC3CE0 004098F1 		      	beq  	$v2,$a1,ramtest_96,#0
                        	;====================================================
                        	; Basic Block 6
                        	;====================================================
FFFC3CE4 00016304 		      	add  	$r12,$r12,#1
FFFC3CE8 8B8892C2 		      	mov  	$a0,$r11
FFFC3CEC FFC3ABD9 		      	call 	_dumpaddr
                        	ramtest_96:
FFFC3CF0 000A1B06 		      	cmp  	$v2,$r12,#10
FFFC3CF4 00031831 		      	bge  	$r0,$v2,ramtest_98,#0
                        	;====================================================
                        	; Basic Block 7
                        	;====================================================
FFFC3CF8 00700030 		      	bra  	ramtest_83
                        	ramtest_98:
                        	;====================================================
                        	; Basic Block 8
                        	;====================================================
FFFC3CFC 00085AC4 		      	add  	$r11,$r11,#8
FFFC3D00 FB300031 		      	bra  	ramtest_82
                        	ramtest_83:
                        	;====================================================
                        	; Basic Block 9
                        	;====================================================
FFFC3D04 000D9009 		      	ldi  	$a0,#13
FFFC3D08 FFC3DE19 		      	call 	_putch
FFFC3D0C 000A9009 		      	ldi  	$a0,#10
FFFC3D10 FFC3DE19 		      	call 	_putch
FFFC3D14 00700030 		      	bra  	ramtest_81
                        	ramtest_79:
                        	;====================================================
                        	; Basic Block 10
                        	;====================================================
FFFC3D18 0010EF92 		      	lw   	$lr,16[$fp]
FFFC3D1C 0018EF96 		      	sw   	$lr,24[$fp]
                        	ramtest_81:
FFFC3D20 FBF00030 		      	bra  	ramtest_93
                        	;====================================================
                        	; Basic Block 0
                        	;====================================================
FFFC3D24 FFE0FFC4 	public code _ramtest:
	      	sub  	$sp,$sp,#32
FFFC3D28 0018EFD6 		      	sw   	$lr,24[$sp]
FFFC3D2C 0010E7D6 		      	sw   	$xlr,16[$sp]
FFFC3D30 000807D6 		      	sw   	$r0,8[$sp]
FFFC3D34 0000F7D6 		      	sw   	$fp,[$sp]
FFFC3D38 3DBCE009 		      	ldi  	$xlr,#ramtest_105
FFFC3D3C FFFCE05A 
FFFC3D40 8B88F7C2 		      	mov  	$fp,$sp
FFFC3D44 FFF0FFC4 		      	sub  	$sp,$sp,#16
FFFC3D48 FFF0FFC4 		      	sub  	$sp,$sp,#16
FFFC3D4C 00005FD6 		      	sw   	$r11,0[$sp]
FFFC3D50 000867D6 		      	sw   	$r12,8[$sp]
FFFC3D54 55555809 		      	ldi  	$r11,#1431655765
FFFC3D58 5555585A 
FFFC3D5C 00006009 		      	ldi  	$r12,#2863311530
FFFC3D60 AAAA601A 
FFFC3D64 AAAA605A 
FFFC3D68 00009009 		      	ldi  	$a0,#ramtest_100
FFFC3D6C 9520901A 
FFFC3D70 FFFC905A 
FFFC3D74 0000E818 		      	call 	_DBGDisplayString
FFFC3D78 8B889302 		      	mov  	$a0,$r12
FFFC3D7C 8B889AC2 		      	mov  	$a1,$r11
FFFC3D80 FFC3B299 		      	call 	_SetMem
FFFC3D84 8B889302 		      	mov  	$a0,$r12
FFFC3D88 8B889AC2 		      	mov  	$a1,$r11
FFFC3D8C FFC3C019 		      	call 	_CheckMem
FFFC3D90 000D9009 		      	ldi  	$a0,#13
FFFC3D94 FFC3DE19 		      	call 	_putch
FFFC3D98 000A9009 		      	ldi  	$a0,#10
FFFC3D9C FFC3DE19 		      	call 	_putch
FFFC3DA0 8B8892C2 		      	mov  	$a0,$r11
FFFC3DA4 8B889B02 		      	mov  	$a1,$r12
FFFC3DA8 FFC3B299 		      	call 	_SetMem
FFFC3DAC 8B8892C2 		      	mov  	$a0,$r11
FFFC3DB0 8B889B02 		      	mov  	$a1,$r12
FFFC3DB4 FFC3C019 		      	call 	_CheckMem
FFFC3DB8 00700030 		      	bra  	ramtest_107
                        	ramtest_105:
                        	;====================================================
                        	; Basic Block 1
                        	;====================================================
FFFC3DBC 0010EF92 		      	lw   	$lr,16[$fp]
FFFC3DC0 0018EF96 		      	sw   	$lr,24[$fp]
                        	ramtest_107:
FFFC3DC4 00005FD2 		      	lw   	$r11,0[$sp]
FFFC3DC8 000867D2 		      	lw   	$r12,8[$sp]
FFFC3DCC 8B88FF82 		      	mov  	$sp,$fp
FFFC3DD0 0000F7D2 		      	lw   	$fp,[$sp]
FFFC3DD4 0010E7D2 		      	lw   	$xlr,16[$sp]
FFFC3DD8 0018EFD2 		      	lw   	$lr,24[$sp]
FFFC3DDC 0020EFE9 		      	ret  	#32
                        	endpublic
                        	
                        		code
                        		align	16                        	
                        	;====================================================
                        	; Basic Block 0
                        	;====================================================
FFFC3DE0 FFE0FFC4 	public code _putch:
	      	sub  	$sp,$sp,#32
FFFC3DE4 0018EFD6 		      	sw   	$lr,24[$sp]
FFFC3DE8 0010E7D6 		      	sw   	$xlr,16[$sp]
FFFC3DEC 000807D6 		      	sw   	$r0,8[$sp]
FFFC3DF0 0000F7D6 		      	sw   	$fp,[$sp]
FFFC3DF4 3E48E009 		      	ldi  	$xlr,#stdio_15
FFFC3DF8 FFFCE05A 
FFFC3DFC 8B88F7C2 		      	mov  	$fp,$sp
FFFC3E00 0000FFC4 		      	sub  	$sp,$sp,#0
FFFC3E04 00011809 		      	ldi  	$v2,#1
FFFC3E08 004000F0 		      	beq  	$v2,$r0,stdio_18
                        	;====================================================
                        	; Basic Block 1
                        	;====================================================
FFFC3E0C 0000E818 		      	call 	_DBGDisplayChar
FFFC3E10 01B00030 		      	bra  	stdio_19
                        	stdio_18:
                        	;====================================================
                        	; Basic Block 2
                        	;====================================================
FFFC3E14 002D9009 		      	ldi  	$a0,#45
                        		      	     	
FFFC3E18 0600B809 				sb    r18,LEDS
FFFC3E1C FFDCB85A 
FFFC3E20 5412B802 
                        		      	     	
FFFC3E24 671F37C2 				push	r6
FFFC3E28 8B880C82 				mov		r1,r18
FFFC3E2C 000E3009 				ldi     r6,#14    ; Teletype output function
                        				int     #10       ; Video BIOS call
FFFC3E30 691F37C2 				pop		r6
FFFC3E34 002E9009 		      	ldi  	$a0,#46
                        		      	     	
FFFC3E38 0600B809 				sb    r18,LEDS
FFFC3E3C FFDCB85A 
FFFC3E40 5412B802 
                        	stdio_19:
FFFC3E44 00700030 		      	bra  	stdio_17
                        	stdio_15:
                        	;====================================================
                        	; Basic Block 3
                        	;====================================================
FFFC3E48 0010EF92 		      	lw   	$lr,16[$fp]
FFFC3E4C 0018EF96 		      	sw   	$lr,24[$fp]
                        	stdio_17:
FFFC3E50 8B88FF82 		      	mov  	$sp,$fp
FFFC3E54 0000F7D2 		      	lw   	$fp,[$sp]
FFFC3E58 0010E7D2 		      	lw   	$xlr,16[$sp]
FFFC3E5C 0018EFD2 		      	lw   	$lr,24[$sp]
FFFC3E60 0020EFE9 		      	ret  	#32
                        	endpublic
                        	
                        		code
FFFC3E64 00000000 		align	1
FFFC3E68 00000000 
FFFC3E6C 00000000 
                        	
                        	;====================================================
                        	; Basic Block 0
                        	;====================================================
FFFC3E70 FFE0FFC4 	public code _putnum:
	      	sub  	$sp,$sp,#32
FFFC3E74 0018EFD6 		      	sw   	$lr,24[$sp]
FFFC3E78 0010E7D6 		      	sw   	$xlr,16[$sp]
FFFC3E7C 000807D6 		      	sw   	$r0,8[$sp]
FFFC3E80 0000F7D6 		      	sw   	$fp,[$sp]
FFFC3E84 3FACE009 		      	ldi  	$xlr,#stdio_73
FFFC3E88 FFFCE05A 
FFFC3E8C 8B88F7C2 		      	mov  	$fp,$sp
FFFC3E90 FFD0FFC4 		      	sub  	$sp,$sp,#48
FFFC3E94 FFE0FFC4 		      	sub  	$sp,$sp,#32
FFFC3E98 00005FD6 		      	sw   	$r11,0[$sp]
FFFC3E9C 000867D6 		      	sw   	$r12,8[$sp]
FFFC3EA0 00106FD6 		      	sw   	$r13,16[$sp]
FFFC3EA4 001877D6 		      	sw   	$r14,24[$sp]
FFFC3EA8 FFF85F92 		      	lw   	$r11,-8[$fp]
FFFC3EAC FFEE67A0 		      	lc   	$r12,-18[$fp]
FFFC3EB0 00006809 		      	ldi  	$r13,#stdio_29
FFFC3EB4 CC92681A 
FFFC3EB8 FFFC685A 
FFFC3EBC FFF07792 		      	lw   	$r14,-16[$fp]
FFFC3EC0 00509009 		      	ldi  	$a0,#80
                        		      	     	
FFFC3EC4 0600B809 				sb    r18,LEDS
FFFC3EC8 FFDCB85A 
FFFC3ECC 5412B802 
FFFC3ED0 004204F0 		      	blt  	$a1,$r0,stdio_82
                        	;====================================================
                        	; Basic Block 1
                        	;====================================================
FFFC3ED4 00C81CC6 		      	cmp  	$v2,$a1,#200
FFFC3ED8 00331831 		      	bge  	$r0,$v2,stdio_80,#3
                        	stdio_82:
                        	;====================================================
                        	; Basic Block 2
                        	;====================================================
FFFC3EDC 00009809 		      	ldi  	$a1,#0
                        	stdio_80:
FFFC3EE0 002B1809 		      	ldi  	$v2,#43
FFFC3EE4 000304B1 		      	bge  	$a0,$r0,stdio_83
                        	;====================================================
                        	; Basic Block 3
                        	;====================================================
FFFC3EE8 002D1809 		      	ldi  	$v2,#45
                        	stdio_83:
FFFC3EEC 8B8860C2 		      	mov  	$r12,$v2
FFFC3EF0 000304B1 		      	bge  	$a0,$r0,stdio_85
                        	;====================================================
                        	; Basic Block 4
                        	;====================================================
                        		      	     	
                        				abs		r1,r18
                        	stdio_89:
                        	stdio_90:
FFFC3EF4 8B889042 		      	mov  	$a0,$v0
                        	stdio_85:
FFFC3EF8 00005809 		      	ldi  	$r11,#0
                        	stdio_91:
FFFC3EFC 00031AC8 		      	and  	$v2,$r11,#3
FFFC3F00 000320C6 		      	cmp  	$v3,$v2,#3
FFFC3F04 00910130 		      	bne  	$v3,$r0,stdio_93,#1
                        	;====================================================
                        	; Basic Block 5
                        	;====================================================
FFFC3F08 53C0A522 		      	bfext	$a2,$a2,#0,#15
FFFC3F0C 00400530 		      	beq  	$a2,$r0,stdio_93
                        	;====================================================
                        	; Basic Block 6
                        	;====================================================
FFFC3F10 90345B42 		      	sc   	$a2,[$r13+$r11*2]
FFFC3F14 00015AC4 		      	add  	$r11,$r11,#1
                        	stdio_93:
FFFC3F18 000A74AE 		      	mod  	$r14,$a0,#10
FFFC3F1C 3E011AC2 		      	shl  	$v2,$r11,#1
FFFC3F20 00303809 		      	ldi  	$t2,#48
FFFC3F24 53C039E2 		      	bfext	$t2,$t2,#0,#15
FFFC3F28 10643B82 		      	add  	$v3,$r14,$t2
	      	sc   	$v3,[$r13+$v2]
FFFC3F2C 90041B42 
                        		      	div  	$a0,$a0,#10
FFFC3F30 00015AC4 		      	add  	$r11,$r11,#1
FFFC3F34 004004B2 		      	beqi 	$a0,#0,stdio_95
                        	;====================================================
                        	; Basic Block 7
                        	;====================================================
FFFC3F38 00121AC6 		      	cmp  	$v2,$r11,#18
FFFC3F3C FDE31831 		      	bge  	$r0,$v2,stdio_91,#2
                        	stdio_95:
                        	;====================================================
                        	; Basic Block 8
                        	;====================================================
FFFC3F40 002D1B06 		      	cmp  	$v2,$r12,#45
FFFC3F44 004100F0 		      	bne  	$v2,$r0,stdio_96,#0
                        	;====================================================
                        	; Basic Block 9
                        	;====================================================
FFFC3F48 902C5B42 		      	sc   	$r12,[$r13+$r11*2]
FFFC3F4C 00015AC4 		      	add  	$r11,$r11,#1
                        	stdio_96:
FFFC3F50 00589009 		      	ldi  	$a0,#88
                        		      	     	
FFFC3F54 0600B809 				sb    r18,LEDS
FFFC3F58 FFDCB85A 
FFFC3F5C 5412B802 
                        	stdio_102:
FFFC3F60 00A39AF0 		      	bge  	$r11,$a1,stdio_103,#2
                        	;====================================================
                        	; Basic Block 10
                        	;====================================================
FFFC3F64 8B889542 		      	mov  	$a0,$a3
FFFC3F68 FFC3DE19 		      	call 	_putch
FFFC3F6C FFFF9CC4 		      	sub  	$a1,$a1,#1
FFFC3F70 FF700031 		      	bra  	stdio_102
                        	stdio_103:
                        	;====================================================
                        	; Basic Block 11
                        	;====================================================
FFFC3F74 00599009 		      	ldi  	$a0,#89
                        		      	     	
FFFC3F78 0600B809 				sb    r18,LEDS
FFFC3F7C FFDCB85A 
FFFC3F80 5412B802 
                        	stdio_109:
FFFC3F84 00835830 		      	bge  	$r0,$r11,stdio_110
                        	;====================================================
                        	; Basic Block 12
                        	;====================================================
FFFC3F88 FFFF5AC4 		      	sub  	$r11,$r11,#1
FFFC3F8C 80325B42 		      	lc   	$a0,[$r13+$r11*2]
FFFC3F90 FFC3DE19 		      	call 	_putch
FFFC3F94 FF700031 		      	bra  	stdio_109
                        	stdio_110:
                        	;====================================================
                        	; Basic Block 13
                        	;====================================================
FFFC3F98 005A9009 		      	ldi  	$a0,#90
                        		      	     	
FFFC3F9C 0600B809 				sb    r18,LEDS
FFFC3FA0 FFDCB85A 
FFFC3FA4 5412B802 
FFFC3FA8 00700030 		      	bra  	stdio_75
                        	stdio_73:
                        	;====================================================
                        	; Basic Block 14
                        	;====================================================
FFFC3FAC 0010EF92 		      	lw   	$lr,16[$fp]
FFFC3FB0 0018EF96 		      	sw   	$lr,24[$fp]
                        	stdio_75:
FFFC3FB4 00005FD2 		      	lw   	$r11,0[$sp]
FFFC3FB8 000867D2 		      	lw   	$r12,8[$sp]
FFFC3FBC 00106FD2 		      	lw   	$r13,16[$sp]
FFFC3FC0 001877D2 		      	lw   	$r14,24[$sp]
FFFC3FC4 8B88FF82 		      	mov  	$sp,$fp
FFFC3FC8 0000F7D2 		      	lw   	$fp,[$sp]
FFFC3FCC 0010E7D2 		      	lw   	$xlr,16[$sp]
FFFC3FD0 0018EFD2 		      	lw   	$lr,24[$sp]
FFFC3FD4 0020EFE9 		      	ret  	#32
                        	endpublic
                        	
                        	;====================================================
                        	; Basic Block 0
                        	;====================================================
FFFC3FD8 FFE0FFC4 	public code _puthexnum:
	      	sub  	$sp,$sp,#32
FFFC3FDC 0018EFD6 		      	sw   	$lr,24[$sp]
FFFC3FE0 0010E7D6 		      	sw   	$xlr,16[$sp]
FFFC3FE4 000807D6 		      	sw   	$r0,8[$sp]
FFFC3FE8 0000F7D6 		      	sw   	$fp,[$sp]
FFFC3FEC 411CE009 		      	ldi  	$xlr,#stdio_142
FFFC3FF0 FFFCE05A 
FFFC3FF4 8B88F7C2 		      	mov  	$fp,$sp
FFFC3FF8 FF08FFC4 		      	sub  	$sp,$sp,#248
FFFC3FFC FFE0FFC4 		      	sub  	$sp,$sp,#32
FFFC4000 00005FD6 		      	sw   	$r11,0[$sp]
FFFC4004 000867D6 		      	sw   	$r12,8[$sp]
FFFC4008 00106FD6 		      	sw   	$r13,16[$sp]
FFFC400C 001877D6 		      	sw   	$r14,24[$sp]
FFFC4010 FFF85F92 		      	lw   	$r11,-8[$fp]
FFFC4014 FFF06792 		      	lw   	$r12,-16[$fp]
FFFC4018 FFEE6FA0 		      	lc   	$r13,-18[$fp]
FFFC401C FF261F84 		      	lea  	$v2,-218[$fp]
FFFC4020 8B8870C2 		      	mov  	$r14,$v2
                        		      	     	
FFFC4024 0080B809 				sw	r18,$FFDC0080
FFFC4028 FFDCB85A 
FFFC402C 5812B802 
FFFC4030 004204F0 		      	blt  	$a1,$r0,stdio_147
                        	;====================================================
                        	; Basic Block 1
                        	;====================================================
FFFC4034 00641CC6 		      	cmp  	$v2,$a1,#100
FFFC4038 00331831 		      	bge  	$r0,$v2,stdio_145,#3
                        	stdio_147:
                        	;====================================================
                        	; Basic Block 2
                        	;====================================================
FFFC403C 00009809 		      	ldi  	$a1,#0
                        	stdio_145:
FFFC4040 00005809 		      	ldi  	$r11,#0
FFFC4044 002B1809 		      	ldi  	$v2,#43
FFFC4048 000304B1 		      	bge  	$a0,$r0,stdio_148
                        	;====================================================
                        	; Basic Block 3
                        	;====================================================
FFFC404C 002D1809 		      	ldi  	$v2,#45
                        	stdio_148:
FFFC4050 8B8868C2 		      	mov  	$r13,$v2
FFFC4054 004304B0 		      	bge  	$a0,$r0,stdio_150
                        	;====================================================
                        	; Basic Block 4
                        	;====================================================
FFFC4058 14039002 		      	neg  	$v2,$a0
FFFC405C 8B8890C2 		      	mov  	$a0,$v2
                        	stdio_150:
                        	stdio_152:
FFFC4060 000F1C88 		      	and  	$v2,$a0,#15
FFFC4064 00C300F0 		      	bge  	$v2,$r0,stdio_154,#0
                        	;====================================================
                        	; Basic Block 5
                        	;====================================================
FFFC4068 3E011AC2 		      	shl  	$v2,$r11,#1
FFFC406C 00303809 		      	ldi  	$t2,#48
FFFC4070 53C039E2 		      	bfext	$t2,$t2,#0,#15
FFFC4074 10643B02 		      	add  	$v3,$r12,$t2
	      	sc   	$v3,[$r14+$v2]
FFFC4078 90041B82 
FFFC407C 01F00030 		      	bra  	stdio_155
                        	stdio_154:
                        	;====================================================
                        	; Basic Block 6
                        	;====================================================
FFFC4080 00C00531 		      	beq  	$a2,$r0,stdio_156
                        	;====================================================
                        	; Basic Block 7
                        	;====================================================
FFFC4084 3E011AC2 		      	shl  	$v2,$r11,#1
FFFC4088 00414009 		      	ldi  	$t3,#65
FFFC408C 53C04222 		      	bfext	$t3,$t3,#0,#15
FFFC4090 10674302 		      	add  	$t2,$r12,$t3
	      	sub  	$v3,$t2,#10
FFFC4094 FFF621C4 
FFFC4098 90041B82 		      	sc   	$v3,[$r14+$v2]
FFFC409C 00F00030 		      	bra  	stdio_157
                        	stdio_156:
                        	;====================================================
                        	; Basic Block 8
                        	;====================================================
FFFC40A0 3E011AC2 		      	shl  	$v2,$r11,#1
FFFC40A4 00614009 		      	ldi  	$t3,#97
FFFC40A8 53C04222 		      	bfext	$t3,$t3,#0,#15
FFFC40AC 10674302 		      	add  	$t2,$r12,$t3
	      	sub  	$v3,$t2,#10
FFFC40B0 FFF621C4 
FFFC40B4 90041B82 		      	sc   	$v3,[$r14+$v2]
                        	stdio_157:
                        	stdio_155:
FFFC40B8 3EC49482 		      	asr  	$a0,$a0,#4
FFFC40BC 00015AC4 		      	add  	$r11,$r11,#1
FFFC40C0 004004B2 		      	beqi 	$a0,#0,stdio_158
                        	;====================================================
                        	; Basic Block 9
                        	;====================================================
FFFC40C4 00121AC6 		      	cmp  	$v2,$r11,#18
FFFC40C8 FCA200F1 		      	blt  	$v2,$r0,stdio_152,#2
                        	stdio_158:
                        	;====================================================
                        	; Basic Block 10
                        	;====================================================
FFFC40CC 002D1B46 		      	cmp  	$v2,$r13,#45
FFFC40D0 004100F0 		      	bne  	$v2,$r0,stdio_159,#0
                        	;====================================================
                        	; Basic Block 11
                        	;====================================================
FFFC40D4 902D5B82 		      	sc   	$r13,[$r14+$r11*2]
FFFC40D8 00015AC4 		      	add  	$r11,$r11,#1
                        	stdio_159:
                        	stdio_161:
FFFC40DC 01239AF0 		      	bge  	$r11,$a1,stdio_162,#2
                        	;====================================================
                        	; Basic Block 12
                        	;====================================================
FFFC40E0 8B881D42 		      	mov  	$v2,$a3
FFFC40E4 002D2346 		      	cmp  	$v3,$r13,#45
FFFC40E8 00010131 		      	bne  	$v3,$r0,stdio_163,#0
                        	;====================================================
                        	; Basic Block 13
                        	;====================================================
FFFC40EC 00201809 		      	ldi  	$v2,#32
                        	stdio_163:
FFFC40F0 8B8890C2 		      	mov  	$a0,$v2
FFFC40F4 FFC3DE19 		      	call 	_putch
FFFC40F8 FFFF9CC4 		      	sub  	$a1,$a1,#1
FFFC40FC FEF00031 		      	bra  	stdio_161
                        	stdio_162:
                        	stdio_165:
                        	;====================================================
                        	; Basic Block 14
                        	;====================================================
FFFC4100 00835831 		      	bge  	$r0,$r11,stdio_166
                        	;====================================================
                        	; Basic Block 15
                        	;====================================================
FFFC4104 FFFF5AC4 		      	sub  	$r11,$r11,#1
                        		      	     	
FFFC4108 0000001C 				nop 
FFFC410C 80325B82 		      	lc   	$a0,[$r14+$r11*2]
FFFC4110 FFC3DE19 		      	call 	_putch
FFFC4114 FF700030 		      	bra  	stdio_165
                        	stdio_166:
                        	;====================================================
                        	; Basic Block 16
                        	;====================================================
FFFC4118 00700030 		      	bra  	stdio_144
                        	stdio_142:
                        	;====================================================
                        	; Basic Block 17
                        	;====================================================
FFFC411C 0010EF92 		      	lw   	$lr,16[$fp]
FFFC4120 0018EF96 		      	sw   	$lr,24[$fp]
                        	stdio_144:
FFFC4124 00005FD2 		      	lw   	$r11,0[$sp]
FFFC4128 000867D2 		      	lw   	$r12,8[$sp]
FFFC412C 00106FD2 		      	lw   	$r13,16[$sp]
FFFC4130 001877D2 		      	lw   	$r14,24[$sp]
FFFC4134 8B88FF82 		      	mov  	$sp,$fp
FFFC4138 0000F7D2 		      	lw   	$fp,[$sp]
FFFC413C 0010E7D2 		      	lw   	$xlr,16[$sp]
FFFC4140 0018EFD2 		      	lw   	$lr,24[$sp]
FFFC4144 0020EFE9 		      	ret  	#32
                        	endpublic
                        	
                        	;====================================================
                        	; Basic Block 0
                        	;====================================================
FFFC4148 FFE0FFC4 	public code _putstr:
	      	sub  	$sp,$sp,#32
FFFC414C 0018EFD6 		      	sw   	$lr,24[$sp]
FFFC4150 0010E7D6 		      	sw   	$xlr,16[$sp]
FFFC4154 000807D6 		      	sw   	$r0,8[$sp]
FFFC4158 0000F7D6 		      	sw   	$fp,[$sp]
FFFC415C 41B8E009 		      	ldi  	$xlr,#stdio_175
FFFC4160 FFFCE05A 
FFFC4164 8B88F7C2 		      	mov  	$fp,$sp
FFFC4168 FFF0FFC4 		      	sub  	$sp,$sp,#16
FFFC416C FFF8FFC4 		      	sub  	$sp,$sp,#8
FFFC4170 00005FD6 		      	sw   	$r11,0[$sp]
FFFC4174 8B885C82 		      	mov  	$r11,$a0
                        	stdio_178:
FFFC4178 00001CA0 		      	lc   	$v2,[$a0]
FFFC417C 00C000F0 		      	beq  	$v2,$r0,stdio_179
                        	;====================================================
                        	; Basic Block 1
                        	;====================================================
FFFC4180 00839831 		      	bge  	$r0,$a1,stdio_179
                        	;====================================================
                        	; Basic Block 2
                        	;====================================================
FFFC4184 000094A0 		      	lc   	$a0,[$a0]
FFFC4188 FFC3DE19 		      	call 	_putch
FFFC418C 00029484 		      	add  	$a0,$a0,#2
FFFC4190 FFFF9CC4 		      	sub  	$a1,$a1,#1
FFFC4194 FF300030 		      	bra  	stdio_178
                        	stdio_179:
                        	;====================================================
                        	; Basic Block 3
                        	;====================================================
FFFC4198 14645C82 		      	sub  	$v3,$a0,$r11
	      	shru 	$v0,$v3,#1
FFFC419C 3E410902 
                        	stdio_181:
FFFC41A0 00005FD2 		      	lw   	$r11,0[$sp]
FFFC41A4 8B88FF82 		      	mov  	$sp,$fp
FFFC41A8 0000F7D2 		      	lw   	$fp,[$sp]
FFFC41AC 0010E7D2 		      	lw   	$xlr,16[$sp]
FFFC41B0 0018EFD2 		      	lw   	$lr,24[$sp]
FFFC41B4 0020EFE9 		      	ret  	#32
                        	stdio_175:
                        	;====================================================
                        	; Basic Block 4
                        	;====================================================
FFFC41B8 0010EF92 		      	lw   	$lr,16[$fp]
FFFC41BC 0018EF96 		      	sw   	$lr,24[$fp]
FFFC41C0 FEF00031 		      	bra  	stdio_181
                        	endpublic
                        	
                        	;====================================================
                        	; Basic Block 0
                        	;====================================================
FFFC41C4 FFE0FFC4 	public code _putstrD:
	      	sub  	$sp,$sp,#32
FFFC41C8 0018EFD6 		      	sw   	$lr,24[$sp]
FFFC41CC 0010E7D6 		      	sw   	$xlr,16[$sp]
FFFC41D0 000807D6 		      	sw   	$r0,8[$sp]
FFFC41D4 0000F7D6 		      	sw   	$fp,[$sp]
FFFC41D8 4234E009 		      	ldi  	$xlr,#stdio_189
FFFC41DC FFFCE05A 
FFFC41E0 8B88F7C2 		      	mov  	$fp,$sp
FFFC41E4 FFF0FFC4 		      	sub  	$sp,$sp,#16
FFFC41E8 FFF8FFC4 		      	sub  	$sp,$sp,#8
FFFC41EC 00005FD6 		      	sw   	$r11,0[$sp]
FFFC41F0 8B885C82 		      	mov  	$r11,$a0
                        	stdio_192:
FFFC41F4 00001C92 		      	lw   	$v2,[$a0]
FFFC41F8 00C000F0 		      	beq  	$v2,$r0,stdio_193
                        	;====================================================
                        	; Basic Block 1
                        	;====================================================
FFFC41FC 00839831 		      	bge  	$r0,$a1,stdio_193
                        	;====================================================
                        	; Basic Block 2
                        	;====================================================
FFFC4200 00009492 		      	lw   	$a0,[$a0]
FFFC4204 FFC3DE19 		      	call 	_putch
FFFC4208 00089484 		      	add  	$a0,$a0,#8
FFFC420C FFFF9CC4 		      	sub  	$a1,$a1,#1
FFFC4210 FF300030 		      	bra  	stdio_192
                        	stdio_193:
                        	;====================================================
                        	; Basic Block 3
                        	;====================================================
FFFC4214 14645C82 		      	sub  	$v3,$a0,$r11
	      	shru 	$v0,$v3,#3
FFFC4218 3E430902 
                        	stdio_195:
FFFC421C 00005FD2 		      	lw   	$r11,0[$sp]
FFFC4220 8B88FF82 		      	mov  	$sp,$fp
FFFC4224 0000F7D2 		      	lw   	$fp,[$sp]
FFFC4228 0010E7D2 		      	lw   	$xlr,16[$sp]
FFFC422C 0018EFD2 		      	lw   	$lr,24[$sp]
FFFC4230 0020EFE9 		      	ret  	#32
                        	stdio_189:
                        	;====================================================
                        	; Basic Block 4
                        	;====================================================
FFFC4234 0010EF92 		      	lw   	$lr,16[$fp]
FFFC4238 0018EF96 		      	sw   	$lr,24[$fp]
FFFC423C FEF00031 		      	bra  	stdio_195
                        	endpublic
                        	
                        	;====================================================
                        	; Basic Block 0
                        	;====================================================
FFFC4240 FFE0FFC4 	public code _putstr2:
	      	sub  	$sp,$sp,#32
FFFC4244 000807D6 		      	sw   	$r0,8[$sp]
FFFC4248 0000F7D6 		      	sw   	$fp,[$sp]
FFFC424C 8B88F7C2 		      	mov  	$fp,$sp
FFFC4250 0000FFC4 		      	sub  	$sp,$sp,#0
                        		      	     	
FFFC4254 671F37C2 				push	r6
FFFC4258 8B880C82 				mov     r1,r18
FFFC425C 001B3009 				ldi     r6,#$1B   ; Video BIOS DisplayString16 function
                        				int     #10
FFFC4260 691F37C2 				pop		r6
FFFC4264 8B88FF82 		      	mov  	$sp,$fp
FFFC4268 0000F7D2 		      	lw   	$fp,[$sp]
FFFC426C 0020EFE9 		      	ret  	#32
                        	endpublic
                        	
                        	;====================================================
                        	; Basic Block 0
                        	;====================================================
FFFC4270 FFE0FFC4 	public code _getcharNoWait:
	      	sub  	$sp,$sp,#32
FFFC4274 0018EFD6 		      	sw   	$lr,24[$sp]
FFFC4278 0010E7D6 		      	sw   	$xlr,16[$sp]
FFFC427C 000807D6 		      	sw   	$r0,8[$sp]
FFFC4280 0000F7D6 		      	sw   	$fp,[$sp]
FFFC4284 42ACE009 		      	ldi  	$xlr,#stdio_208
FFFC4288 FFFCE05A 
FFFC428C 8B88F7C2 		      	mov  	$fp,$sp
FFFC4290 0000FFC4 		      	sub  	$sp,$sp,#0
FFFC4294 0000E818 		      	call 	_KeybdGetBufferedCharNoWait
                        	stdio_211:
FFFC4298 8B88FF82 		      	mov  	$sp,$fp
FFFC429C 0000F7D2 		      	lw   	$fp,[$sp]
FFFC42A0 0010E7D2 		      	lw   	$xlr,16[$sp]
FFFC42A4 0018EFD2 		      	lw   	$lr,24[$sp]
FFFC42A8 0020EFE9 		      	ret  	#32
                        	stdio_208:
                        	;====================================================
                        	; Basic Block 1
                        	;====================================================
FFFC42AC 0010EF92 		      	lw   	$lr,16[$fp]
FFFC42B0 0018EF96 		      	sw   	$lr,24[$fp]
FFFC42B4 FF300030 		      	bra  	stdio_211
                        	endpublic
                        	
                        	;====================================================
                        	; Basic Block 0
                        	;====================================================
FFFC42B8 FFE0FFC4 	public code _getchar:
	      	sub  	$sp,$sp,#32
FFFC42BC 0018EFD6 		      	sw   	$lr,24[$sp]
FFFC42C0 0010E7D6 		      	sw   	$xlr,16[$sp]
FFFC42C4 000807D6 		      	sw   	$r0,8[$sp]
FFFC42C8 0000F7D6 		      	sw   	$fp,[$sp]
FFFC42CC 4310E009 		      	ldi  	$xlr,#stdio_218
FFFC42D0 FFFCE05A 
FFFC42D4 8B88F7C2 		      	mov  	$fp,$sp
FFFC42D8 FFF8FFC4 		      	sub  	$sp,$sp,#8
FFFC42DC FFF8FFC4 		      	sub  	$sp,$sp,#8
FFFC42E0 00005FD6 		      	sw   	$r11,0[$sp]
FFFC42E4 FFF85F92 		      	lw   	$r11,-8[$fp]
                        	stdio_221:
FFFC42E8 FFC42719 		      	call 	_getcharNoWait
FFFC42EC 8B885842 		      	mov  	$r11,$v0
FFFC42F0 FF8FFAF3 		      	beqi 	$r11,#-1,stdio_221
                        	;====================================================
                        	; Basic Block 1
                        	;====================================================
FFFC42F4 00FF0AC8 		      	and  	$v0,$r11,#255
                        	stdio_223:
FFFC42F8 00005FD2 		      	lw   	$r11,0[$sp]
FFFC42FC 8B88FF82 		      	mov  	$sp,$fp
FFFC4300 0000F7D2 		      	lw   	$fp,[$sp]
FFFC4304 0010E7D2 		      	lw   	$xlr,16[$sp]
FFFC4308 0018EFD2 		      	lw   	$lr,24[$sp]
FFFC430C 0020EFE9 		      	ret  	#32
                        	stdio_218:
                        	;====================================================
                        	; Basic Block 2
                        	;====================================================
FFFC4310 0010EF92 		      	lw   	$lr,16[$fp]
FFFC4314 0018EF96 		      	sw   	$lr,24[$fp]
FFFC4318 FEF00031 		      	bra  	stdio_223
                        	endpublic
                        	
                        	;====================================================
                        	; Basic Block 0
                        	;====================================================
FFFC431C FFE0FFC4 	public code _printf:
	      	sub  	$sp,$sp,#32
FFFC4320 0018EFD6 		      	sw   	$lr,24[$sp]
FFFC4324 0010E7D6 		      	sw   	$xlr,16[$sp]
FFFC4328 000807D6 		      	sw   	$r0,8[$sp]
FFFC432C 0000F7D6 		      	sw   	$fp,[$sp]
FFFC4330 45E8E009 		      	ldi  	$xlr,#stdio_264
FFFC4334 FFFCE05A 
FFFC4338 8B88F7C2 		      	mov  	$fp,$sp
FFFC433C FFA8FFC4 		      	sub  	$sp,$sp,#88
FFFC4340 FFC8FFC4 		      	sub  	$sp,$sp,#56
FFFC4344 00005FD6 		      	sw   	$r11,0[$sp]
FFFC4348 000867D6 		      	sw   	$r12,8[$sp]
FFFC434C 00106FD6 		      	sw   	$r13,16[$sp]
FFFC4350 001877D6 		      	sw   	$r14,24[$sp]
FFFC4354 00207FD6 		      	sw   	$r15,32[$sp]
FFFC4358 002887D6 		      	sw   	$r16,40[$sp]
FFFC435C 00308FD6 		      	sw   	$r17,48[$sp]
FFFC4360 00181F84 		      	lea  	$v2,24[$fp]
FFFC4364 8B8858C2 		      	mov  	$r11,$v2
FFFC4368 FFF86792 		      	lw   	$r12,-8[$fp]
FFFC436C FFE86F92 		      	lw   	$r13,-24[$fp]
FFFC4370 FFE07792 		      	lw   	$r14,-32[$fp]
FFFC4374 FFC67FA0 		      	lc   	$r15,-58[$fp]
FFFC4378 FFF08792 		      	lw   	$r16,-16[$fp]
FFFC437C 8B8862C2 		      	mov  	$r12,$r11
                        	stdio_267:
FFFC4380 00001AD2 		      	lw   	$v2,[$r11]
FFFC4384 000018E0 		      	lc   	$v2,[$v2]
FFFC4388 12C000F0 		      	beq  	$v2,$r0,stdio_268
                        	;====================================================
                        	; Basic Block 1
                        	;====================================================
FFFC438C 00207809 		      	ldi  	$r15,#32
FFFC4390 00001AD2 		      	lw   	$v2,[$r11]
FFFC4394 000018E0 		      	lc   	$v2,[$v2]
FFFC4398 002520C6 		      	cmp  	$v3,$v2,#37
FFFC439C 11410130 		      	bne  	$v3,$r0,stdio_270,#0
                        	;====================================================
                        	; Basic Block 2
                        	;====================================================
FFFC43A0 00006809 		      	ldi  	$r13,#0
FFFC43A4 00007009 		      	ldi  	$r14,#65535
FFFC43A8 FFFF701A 
FFFC43AC 0000705A 
FFFC43B0 00001AD2 		      	lw   	$v2,[$r11]
FFFC43B4 000218C4 		      	add  	$v2,$v2,#2
FFFC43B8 00001AD6 		      	sw   	$v2,[$r11]
                        	stdio_224:
FFFC43BC 00001AD2 		      	lw   	$v2,[$r11]
FFFC43C0 000018E0 		      	lc   	$v2,[$v2]
FFFC43C4 024128F3 		      	beqi 	$v2,#37,stdio_284
                        	;====================================================
                        	; Basic Block 3
                        	;====================================================
FFFC43C8 028318F3 		      	beqi 	$v2,#99,stdio_285
                        	;====================================================
                        	; Basic Block 4
                        	;====================================================
FFFC43CC 030320F2 		      	beqi 	$v2,#100,stdio_286
                        	;====================================================
                        	; Basic Block 5
                        	;====================================================
FFFC43D0 03C228F2 		      	beqi 	$v2,#69,stdio_287
                        	;====================================================
                        	; Basic Block 6
                        	;====================================================
FFFC43D4 038328F3 		      	beqi 	$v2,#101,stdio_287
                        	;====================================================
                        	; Basic Block 7
                        	;====================================================
FFFC43D8 0503C0F2 		      	beqi 	$v2,#120,stdio_288
                        	;====================================================
                        	; Basic Block 8
                        	;====================================================
FFFC43DC 05C2C0F2 		      	beqi 	$v2,#88,stdio_289
                        	;====================================================
                        	; Basic Block 9
                        	;====================================================
FFFC43E0 068398F2 		      	beqi 	$v2,#115,stdio_290
                        	;====================================================
                        	; Basic Block 10
                        	;====================================================
FFFC43E4 078180F2 		      	beqi 	$v2,#48,stdio_291
                        	;====================================================
                        	; Basic Block 11
                        	;====================================================
FFFC43E8 0781C8F2 		      	beqi 	$v2,#57,stdio_292
                        	;====================================================
                        	; Basic Block 12
                        	;====================================================
FFFC43EC 0741C0F3 		      	beqi 	$v2,#56,stdio_292
                        	;====================================================
                        	; Basic Block 13
                        	;====================================================
FFFC43F0 0741B8F2 		      	beqi 	$v2,#55,stdio_292
                        	;====================================================
                        	; Basic Block 14
                        	;====================================================
FFFC43F4 0701B0F3 		      	beqi 	$v2,#54,stdio_292
                        	;====================================================
                        	; Basic Block 15
                        	;====================================================
FFFC43F8 0701A8F2 		      	beqi 	$v2,#53,stdio_292
                        	;====================================================
                        	; Basic Block 16
                        	;====================================================
FFFC43FC 06C1A0F3 		      	beqi 	$v2,#52,stdio_292
                        	;====================================================
                        	; Basic Block 17
                        	;====================================================
FFFC4400 06C198F2 		      	beqi 	$v2,#51,stdio_292
                        	;====================================================
                        	; Basic Block 18
                        	;====================================================
FFFC4404 068190F3 		      	beqi 	$v2,#50,stdio_292
                        	;====================================================
                        	; Basic Block 19
                        	;====================================================
FFFC4408 068188F2 		      	beqi 	$v2,#49,stdio_292
                        	;====================================================
                        	; Basic Block 20
                        	;====================================================
FFFC440C 098170F2 		      	beqi 	$v2,#46,stdio_293
                        	;====================================================
                        	; Basic Block 21
                        	;====================================================
FFFC4410 0DB00030 		      	bra  	stdio_272
                        	stdio_284:
                        	;====================================================
                        	; Basic Block 22
                        	;====================================================
FFFC4414 00259009 		      	ldi  	$a0,#37
FFFC4418 FFC3DE19 		      	call 	_putch
FFFC441C 0D300031 		      	bra  	stdio_272
                        	stdio_285:
                        	;====================================================
                        	; Basic Block 23
                        	;====================================================
FFFC4420 00086304 		      	add  	$r12,$r12,#8
FFFC4424 00009312 		      	lw   	$a0,[$r12]
FFFC4428 FFC3DE19 		      	call 	_putch
FFFC442C 0CB00031 		      	bra  	stdio_272
                        	stdio_286:
                        	;====================================================
                        	; Basic Block 24
                        	;====================================================
FFFC4430 00086304 		      	add  	$r12,$r12,#8
FFFC4434 00009312 		      	lw   	$a0,[$r12]
FFFC4438 8B889B42 		      	mov  	$a1,$r13
FFFC443C 0000A009 		      	ldi  	$a2,#0
FFFC4440 8B88ABC2 		      	mov  	$a3,$r15
FFFC4444 FFC3E719 		      	call 	_putnum
FFFC4448 0BF00030 		      	bra  	stdio_272
                        	stdio_287:
                        	;====================================================
                        	; Basic Block 25
                        	;====================================================
FFFC444C 8B888302 		      	mov  	$r16,$r12
FFFC4450 00088404 		      	add  	$r16,$r16,#8
FFFC4454 00001C12 		      	lw   	$v2,[$r16]
FFFC4458 00001C56 		      	sw   	$v2,[$r17]
FFFC445C 8B886402 		      	mov  	$r12,$r16
FFFC4460 00009452 		      	lw   	$a0,[$r17]
FFFC4464 8B889B42 		      	mov  	$a1,$r13
FFFC4468 8B88A382 		      	mov  	$a2,$r14
FFFC446C 000022D2 		      	lw   	$v3,[$r11]
FFFC4470 0000A920 		      	lc   	$a3,[$v3]
FFFC4474 FFC57819 		      	call 	_prtflt
FFFC4478 0A700030 		      	bra  	stdio_272
                        	stdio_288:
                        	;====================================================
                        	; Basic Block 26
                        	;====================================================
FFFC447C 00086304 		      	add  	$r12,$r12,#8
FFFC4480 00009312 		      	lw   	$a0,[$r12]
FFFC4484 8B889B42 		      	mov  	$a1,$r13
FFFC4488 0000A009 		      	ldi  	$a2,#0
FFFC448C 8B88ABC2 		      	mov  	$a3,$r15
FFFC4490 FFC3FD99 		      	call 	_puthexnum
FFFC4494 09700031 		      	bra  	stdio_272
                        	stdio_289:
                        	;====================================================
                        	; Basic Block 27
                        	;====================================================
FFFC4498 00086304 		      	add  	$r12,$r12,#8
FFFC449C 00009312 		      	lw   	$a0,[$r12]
FFFC44A0 8B889B42 		      	mov  	$a1,$r13
FFFC44A4 0001A009 		      	ldi  	$a2,#1
FFFC44A8 8B88ABC2 		      	mov  	$a3,$r15
FFFC44AC FFC3FD99 		      	call 	_puthexnum
FFFC44B0 08B00030 		      	bra  	stdio_272
                        	stdio_290:
                        	;====================================================
                        	; Basic Block 28
                        	;====================================================
FFFC44B4 00086304 		      	add  	$r12,$r12,#8
FFFC44B8 FFF0FFC4 		      	sub  	$sp,$sp,#16
FFFC44BC 00001B12 		      	lw   	$v2,[$r12]
FFFC44C0 00001FD6 		      	sw   	$v2,0[$sp]
FFFC44C4 000877D6 		      	sw   	$r14,8[$sp]
FFFC44C8 FFC41499 		      	call 	_putstr
FFFC44CC 0010FFC4 		      	add  	$sp,$sp,#16
FFFC44D0 FFD80F96 		      	sw   	$v0,-40[$fp]
FFFC44D4 07700031 		      	bra  	stdio_272
                        	stdio_291:
                        	;====================================================
                        	; Basic Block 29
                        	;====================================================
FFFC44D8 00307809 		      	ldi  	$r15,#48
                        	stdio_292:
FFFC44DC 000022D2 		      	lw   	$v3,[$r11]
FFFC44E0 00002120 		      	lc   	$v3,[$v3]
FFFC44E4 FFD06904 		      	sub  	$r13,$v3,#48
FFFC44E8 00001AD2 		      	lw   	$v2,[$r11]
FFFC44EC 000218C4 		      	add  	$v2,$v2,#2
FFFC44F0 00001AD6 		      	sw   	$v2,[$r11]
                        	stdio_294:
FFFC44F4 FFF8FFC4 		      	sub  	$sp,$sp,#8
FFFC44F8 00001AD2 		      	lw   	$v2,[$r11]
FFFC44FC 000018E0 		      	lc   	$v2,[$v2]
FFFC4500 00001FD6 		      	sw   	$v2,0[$sp]
FFFC4504 FFC468D9 		      	call 	_isdigit
FFFC4508 0008FFC4 		      	add  	$sp,$sp,#8
FFFC450C 01000070 		      	beq  	$v0,$r0,stdio_295
                        	;====================================================
                        	; Basic Block 30
                        	;====================================================
                        		      	mul  	$r13,$r13,#10
FFFC4510 000022D2 		      	lw   	$v3,[$r11]
FFFC4514 00002120 		      	lc   	$v3,[$v3]
FFFC4518 FFD01904 		      	sub  	$v2,$v3,#48
FFFC451C 106D1B42 		      	add  	$r13,$r13,$v2
	      	lw   	$v2,[$r11]
FFFC4520 00001AD2 
FFFC4524 000218C4 		      	add  	$v2,$v2,#2
FFFC4528 00001AD6 		      	sw   	$v2,[$r11]
FFFC452C FE300031 		      	bra  	stdio_294
                        	stdio_295:
                        	;====================================================
                        	; Basic Block 31
                        	;====================================================
FFFC4530 00001AD2 		      	lw   	$v2,[$r11]
FFFC4534 000018E0 		      	lc   	$v2,[$v2]
FFFC4538 000170F3 		      	beqi 	$v2,#46,stdio_296
                        	;====================================================
                        	; Basic Block 32
                        	;====================================================
FFFC453C F3F00031 		      	bra  	stdio_224
                        	stdio_296:
                        	stdio_293:
                        	;====================================================
                        	; Basic Block 33
                        	;====================================================
FFFC4540 00001AD2 		      	lw   	$v2,[$r11]
FFFC4544 000218C4 		      	add  	$v2,$v2,#2
FFFC4548 00001AD6 		      	sw   	$v2,[$r11]
FFFC454C FFF8FFC4 		      	sub  	$sp,$sp,#8
FFFC4550 00001AD2 		      	lw   	$v2,[$r11]
FFFC4554 000018E0 		      	lc   	$v2,[$v2]
FFFC4558 00001FD6 		      	sw   	$v2,0[$sp]
FFFC455C FFC468D9 		      	call 	_isdigit
FFFC4560 0008FFC4 		      	add  	$sp,$sp,#8
FFFC4564 00010071 		      	bne  	$v0,$r0,stdio_298
                        	;====================================================
                        	; Basic Block 34
                        	;====================================================
FFFC4568 F2B00030 		      	bra  	stdio_224
                        	stdio_298:
                        	;====================================================
                        	; Basic Block 35
                        	;====================================================
FFFC456C 000022D2 		      	lw   	$v3,[$r11]
FFFC4570 00002120 		      	lc   	$v3,[$v3]
FFFC4574 FFD07104 		      	sub  	$r14,$v3,#48
FFFC4578 00001AD2 		      	lw   	$v2,[$r11]
FFFC457C 000218C4 		      	add  	$v2,$v2,#2
FFFC4580 00001AD6 		      	sw   	$v2,[$r11]
                        	stdio_300:
FFFC4584 FFF8FFC4 		      	sub  	$sp,$sp,#8
FFFC4588 00001AD2 		      	lw   	$v2,[$r11]
FFFC458C 000018E0 		      	lc   	$v2,[$v2]
FFFC4590 00001FD6 		      	sw   	$v2,0[$sp]
FFFC4594 FFC468D9 		      	call 	_isdigit
FFFC4598 0008FFC4 		      	add  	$sp,$sp,#8
FFFC459C 01000070 		      	beq  	$v0,$r0,stdio_301
                        	;====================================================
                        	; Basic Block 36
                        	;====================================================
                        		      	mul  	$r14,$r14,#10
FFFC45A0 000022D2 		      	lw   	$v3,[$r11]
FFFC45A4 00002120 		      	lc   	$v3,[$v3]
FFFC45A8 FFD01904 		      	sub  	$v2,$v3,#48
FFFC45AC 106E1B82 		      	add  	$r14,$r14,$v2
	      	lw   	$v2,[$r11]
FFFC45B0 00001AD2 
FFFC45B4 000218C4 		      	add  	$v2,$v2,#2
FFFC45B8 00001AD6 		      	sw   	$v2,[$r11]
FFFC45BC FE300031 		      	bra  	stdio_300
                        	stdio_301:
                        	;====================================================
                        	; Basic Block 37
                        	;====================================================
FFFC45C0 EFF00030 		      	bra  	stdio_224
                        	stdio_272:
                        	;====================================================
                        	; Basic Block 38
                        	;====================================================
FFFC45C4 00700031 		      	bra  	stdio_271
                        	stdio_270:
                        	;====================================================
                        	; Basic Block 39
                        	;====================================================
FFFC45C8 00001AD2 		      	lw   	$v2,[$r11]
FFFC45CC 000090E0 		      	lc   	$a0,[$v2]
FFFC45D0 FFC3DE19 		      	call 	_putch
                        	stdio_271:
FFFC45D4 00001AD2 		      	lw   	$v2,[$r11]
FFFC45D8 000218C4 		      	add  	$v2,$v2,#2
FFFC45DC 00001AD6 		      	sw   	$v2,[$r11]
FFFC45E0 ECF00031 		      	bra  	stdio_267
                        	stdio_268:
                        	;====================================================
                        	; Basic Block 40
                        	;====================================================
FFFC45E4 00700030 		      	bra  	stdio_266
                        	stdio_264:
                        	;====================================================
                        	; Basic Block 41
                        	;====================================================
FFFC45E8 0010EF92 		      	lw   	$lr,16[$fp]
FFFC45EC 0018EF96 		      	sw   	$lr,24[$fp]
                        	stdio_266:
FFFC45F0 00005FD2 		      	lw   	$r11,0[$sp]
FFFC45F4 000867D2 		      	lw   	$r12,8[$sp]
FFFC45F8 00106FD2 		      	lw   	$r13,16[$sp]
FFFC45FC 001877D2 		      	lw   	$r14,24[$sp]
FFFC4600 00207FD2 		      	lw   	$r15,32[$sp]
FFFC4604 002887D2 		      	lw   	$r16,40[$sp]
FFFC4608 00308FD2 		      	lw   	$r17,48[$sp]
FFFC460C 8B88FF82 		      	mov  	$sp,$fp
FFFC4610 0000F7D2 		      	lw   	$fp,[$sp]
FFFC4614 0010E7D2 		      	lw   	$xlr,16[$sp]
FFFC4618 0018EFD2 		      	lw   	$lr,24[$sp]
FFFC461C 0020EFE9 		      	ret  	#32
                        	endpublic
                        	
                        		code
                        		align	16                        	
                        	;====================================================
                        	; Basic Block 0
                        	;====================================================
FFFC4620 FFE0FFC4 	public code _isxdigit:
	      	sub  	$sp,$sp,#32
FFFC4624 000807D6 		      	sw   	$r0,8[$sp]
FFFC4628 0000F7D6 		      	sw   	$fp,[$sp]
FFFC462C 8B88F7C2 		      	mov  	$fp,$sp
FFFC4630 0000FFC4 		      	sub  	$sp,$sp,#0
FFFC4634 00410C86 		      	cmp  	$v0,$a0,#65
FFFC4638 00D20070 		      	blt  	$v0,$r0,ctype_13,#1
                        	;====================================================
                        	; Basic Block 1
                        	;====================================================
FFFC463C 00460C86 		      	cmp  	$v0,$a0,#70
FFFC4640 00920830 		      	blt  	$r0,$v0,ctype_13,#1
                        	;====================================================
                        	; Basic Block 2
                        	;====================================================
FFFC4644 00010809 		      	ldi  	$v0,#1
                        	ctype_15:
FFFC4648 8B88FF82 		      	mov  	$sp,$fp
FFFC464C 0000F7D2 		      	lw   	$fp,[$sp]
FFFC4650 0020EFE9 		      	ret  	#32
                        	ctype_13:
                        	;====================================================
                        	; Basic Block 3
                        	;====================================================
FFFC4654 00610C86 		      	cmp  	$v0,$a0,#97
FFFC4658 00920070 		      	blt  	$v0,$r0,ctype_16,#1
                        	;====================================================
                        	; Basic Block 4
                        	;====================================================
FFFC465C 00660C86 		      	cmp  	$v0,$a0,#102
FFFC4660 00520830 		      	blt  	$r0,$v0,ctype_16,#1
                        	;====================================================
                        	; Basic Block 5
                        	;====================================================
FFFC4664 00010809 		      	ldi  	$v0,#1
FFFC4668 FEF00031 		      	bra  	ctype_15
                        	ctype_16:
                        	;====================================================
                        	; Basic Block 6
                        	;====================================================
FFFC466C 00300C86 		      	cmp  	$v0,$a0,#48
FFFC4670 00920070 		      	blt  	$v0,$r0,ctype_18,#1
                        	;====================================================
                        	; Basic Block 7
                        	;====================================================
FFFC4674 00390C86 		      	cmp  	$v0,$a0,#57
FFFC4678 00520830 		      	blt  	$r0,$v0,ctype_18,#1
                        	;====================================================
                        	; Basic Block 8
                        	;====================================================
FFFC467C 00010809 		      	ldi  	$v0,#1
FFFC4680 FE300031 		      	bra  	ctype_15
                        	ctype_18:
                        	;====================================================
                        	; Basic Block 9
                        	;====================================================
FFFC4684 00000809 		      	ldi  	$v0,#0
FFFC4688 FDF00031 		      	bra  	ctype_15
                        	endpublic
                        	
                        	;====================================================
                        	; Basic Block 0
                        	;====================================================
FFFC468C FFE0FFC4 	public code _isdigit:
	      	sub  	$sp,$sp,#32
FFFC4690 000807D6 		      	sw   	$r0,8[$sp]
FFFC4694 0000F7D6 		      	sw   	$fp,[$sp]
FFFC4698 8B88F7C2 		      	mov  	$fp,$sp
FFFC469C 0000FFC4 		      	sub  	$sp,$sp,#0
FFFC46A0 00300C86 		      	cmp  	$v0,$a0,#48
FFFC46A4 00D20070 		      	blt  	$v0,$r0,ctype_29,#1
                        	;====================================================
                        	; Basic Block 1
                        	;====================================================
FFFC46A8 00390C86 		      	cmp  	$v0,$a0,#57
FFFC46AC 00920830 		      	blt  	$r0,$v0,ctype_29,#1
                        	;====================================================
                        	; Basic Block 2
                        	;====================================================
FFFC46B0 00010809 		      	ldi  	$v0,#1
                        	ctype_31:
FFFC46B4 8B88FF82 		      	mov  	$sp,$fp
FFFC46B8 0000F7D2 		      	lw   	$fp,[$sp]
FFFC46BC 0020EFE9 		      	ret  	#32
                        	ctype_29:
                        	;====================================================
                        	; Basic Block 3
                        	;====================================================
FFFC46C0 00000809 		      	ldi  	$v0,#0
FFFC46C4 FF700031 		      	bra  	ctype_31
                        	endpublic
                        	
                        	;====================================================
                        	; Basic Block 0
                        	;====================================================
FFFC46C8 FFE0FFC4 	public code _isalpha:
	      	sub  	$sp,$sp,#32
FFFC46CC 000807D6 		      	sw   	$r0,8[$sp]
FFFC46D0 0000F7D6 		      	sw   	$fp,[$sp]
FFFC46D4 8B88F7C2 		      	mov  	$fp,$sp
FFFC46D8 0000FFC4 		      	sub  	$sp,$sp,#0
FFFC46DC 00610C86 		      	cmp  	$v0,$a0,#97
FFFC46E0 00D20070 		      	blt  	$v0,$r0,ctype_43,#1
                        	;====================================================
                        	; Basic Block 1
                        	;====================================================
FFFC46E4 007A0C86 		      	cmp  	$v0,$a0,#122
FFFC46E8 00920830 		      	blt  	$r0,$v0,ctype_43,#1
                        	;====================================================
                        	; Basic Block 2
                        	;====================================================
FFFC46EC 00010809 		      	ldi  	$v0,#1
                        	ctype_45:
FFFC46F0 8B88FF82 		      	mov  	$sp,$fp
FFFC46F4 0000F7D2 		      	lw   	$fp,[$sp]
FFFC46F8 0020EFE9 		      	ret  	#32
                        	ctype_43:
                        	;====================================================
                        	; Basic Block 3
                        	;====================================================
FFFC46FC 00410C86 		      	cmp  	$v0,$a0,#65
FFFC4700 00920070 		      	blt  	$v0,$r0,ctype_46,#1
                        	;====================================================
                        	; Basic Block 4
                        	;====================================================
FFFC4704 005A0C86 		      	cmp  	$v0,$a0,#90
FFFC4708 00520830 		      	blt  	$r0,$v0,ctype_46,#1
                        	;====================================================
                        	; Basic Block 5
                        	;====================================================
FFFC470C 00010809 		      	ldi  	$v0,#1
FFFC4710 FEF00031 		      	bra  	ctype_45
                        	ctype_46:
                        	;====================================================
                        	; Basic Block 6
                        	;====================================================
FFFC4714 00000809 		      	ldi  	$v0,#0
FFFC4718 FEB00031 		      	bra  	ctype_45
                        	endpublic
                        	
                        	;====================================================
                        	; Basic Block 0
                        	;====================================================
FFFC471C FFE0FFC4 	public code _isalnum:
	      	sub  	$sp,$sp,#32
FFFC4720 000807D6 		      	sw   	$r0,8[$sp]
FFFC4724 0000F7D6 		      	sw   	$fp,[$sp]
FFFC4728 8B88F7C2 		      	mov  	$fp,$sp
FFFC472C 0000FFC4 		      	sub  	$sp,$sp,#0
FFFC4730 00300C86 		      	cmp  	$v0,$a0,#48
FFFC4734 00D20070 		      	blt  	$v0,$r0,ctype_61,#1
                        	;====================================================
                        	; Basic Block 1
                        	;====================================================
FFFC4738 00390C86 		      	cmp  	$v0,$a0,#57
FFFC473C 00920830 		      	blt  	$r0,$v0,ctype_61,#1
                        	;====================================================
                        	; Basic Block 2
                        	;====================================================
FFFC4740 00010809 		      	ldi  	$v0,#1
                        	ctype_63:
FFFC4744 8B88FF82 		      	mov  	$sp,$fp
FFFC4748 0000F7D2 		      	lw   	$fp,[$sp]
FFFC474C 0020EFE9 		      	ret  	#32
                        	ctype_61:
                        	;====================================================
                        	; Basic Block 3
                        	;====================================================
FFFC4750 00610C86 		      	cmp  	$v0,$a0,#97
FFFC4754 00920070 		      	blt  	$v0,$r0,ctype_64,#1
                        	;====================================================
                        	; Basic Block 4
                        	;====================================================
FFFC4758 007A0C86 		      	cmp  	$v0,$a0,#122
FFFC475C 00520830 		      	blt  	$r0,$v0,ctype_64,#1
                        	;====================================================
                        	; Basic Block 5
                        	;====================================================
FFFC4760 00010809 		      	ldi  	$v0,#1
FFFC4764 FEF00031 		      	bra  	ctype_63
                        	ctype_64:
                        	;====================================================
                        	; Basic Block 6
                        	;====================================================
FFFC4768 00410C86 		      	cmp  	$v0,$a0,#65
FFFC476C 00920070 		      	blt  	$v0,$r0,ctype_66,#1
                        	;====================================================
                        	; Basic Block 7
                        	;====================================================
FFFC4770 005A0C86 		      	cmp  	$v0,$a0,#90
FFFC4774 00520830 		      	blt  	$r0,$v0,ctype_66,#1
                        	;====================================================
                        	; Basic Block 8
                        	;====================================================
FFFC4778 00010809 		      	ldi  	$v0,#1
FFFC477C FE300031 		      	bra  	ctype_63
                        	ctype_66:
                        	;====================================================
                        	; Basic Block 9
                        	;====================================================
FFFC4780 00000809 		      	ldi  	$v0,#0
FFFC4784 FDF00031 		      	bra  	ctype_63
                        	endpublic
                        	
                        	;====================================================
                        	; Basic Block 0
                        	;====================================================
FFFC4788 FFE0FFC4 	public code _isspace:
	      	sub  	$sp,$sp,#32
FFFC478C 000807D6 		      	sw   	$r0,8[$sp]
FFFC4790 0000F7D6 		      	sw   	$fp,[$sp]
FFFC4794 8B88F7C2 		      	mov  	$fp,$sp
FFFC4798 0000FFC4 		      	sub  	$sp,$sp,#0
FFFC479C 00200C86 		      	cmp  	$v0,$a0,#32
FFFC47A0 00810070 		      	bne  	$v0,$r0,ctype_85,#0
                        	;====================================================
                        	; Basic Block 1
                        	;====================================================
FFFC47A4 00010809 		      	ldi  	$v0,#1
                        	ctype_87:
FFFC47A8 8B88FF82 		      	mov  	$sp,$fp
FFFC47AC 0000F7D2 		      	lw   	$fp,[$sp]
FFFC47B0 0020EFE9 		      	ret  	#32
                        	ctype_85:
                        	;====================================================
                        	; Basic Block 2
                        	;====================================================
FFFC47B4 00090C86 		      	cmp  	$v0,$a0,#9
FFFC47B8 00410070 		      	bne  	$v0,$r0,ctype_88,#0
                        	;====================================================
                        	; Basic Block 3
                        	;====================================================
FFFC47BC 00010809 		      	ldi  	$v0,#1
FFFC47C0 FF300031 		      	bra  	ctype_87
                        	ctype_88:
                        	;====================================================
                        	; Basic Block 4
                        	;====================================================
FFFC47C4 000A0C86 		      	cmp  	$v0,$a0,#10
FFFC47C8 00410070 		      	bne  	$v0,$r0,ctype_90,#0
                        	;====================================================
                        	; Basic Block 5
                        	;====================================================
FFFC47CC 00010809 		      	ldi  	$v0,#1
FFFC47D0 FEB00031 		      	bra  	ctype_87
                        	ctype_90:
                        	;====================================================
                        	; Basic Block 6
                        	;====================================================
FFFC47D4 000D0C86 		      	cmp  	$v0,$a0,#13
FFFC47D8 00410070 		      	bne  	$v0,$r0,ctype_92,#0
                        	;====================================================
                        	; Basic Block 7
                        	;====================================================
FFFC47DC 00010809 		      	ldi  	$v0,#1
FFFC47E0 FE300031 		      	bra  	ctype_87
                        	ctype_92:
                        	;====================================================
                        	; Basic Block 8
                        	;====================================================
FFFC47E4 000C0C86 		      	cmp  	$v0,$a0,#12
FFFC47E8 00410070 		      	bne  	$v0,$r0,ctype_94,#0
                        	;====================================================
                        	; Basic Block 9
                        	;====================================================
FFFC47EC 00010809 		      	ldi  	$v0,#1
FFFC47F0 FDB00031 		      	bra  	ctype_87
                        	ctype_94:
                        	;====================================================
                        	; Basic Block 10
                        	;====================================================
FFFC47F4 00000809 		      	ldi  	$v0,#0
FFFC47F8 FD700031 		      	bra  	ctype_87
                        	endpublic
                        	
                        	;====================================================
                        	; Basic Block 0
                        	;====================================================
FFFC47FC FFE0FFC4 	public code _tolower:
	      	sub  	$sp,$sp,#32
FFFC4800 000807D6 		      	sw   	$r0,8[$sp]
FFFC4804 0000F7D6 		      	sw   	$fp,[$sp]
FFFC4808 8B88F7C2 		      	mov  	$fp,$sp
FFFC480C 0000FFC4 		      	sub  	$sp,$sp,#0
FFFC4810 00410C86 		      	cmp  	$v0,$a0,#65
FFFC4814 00520071 		      	blt  	$v0,$r0,ctype_105,#1
                        	;====================================================
                        	; Basic Block 1
                        	;====================================================
FFFC4818 005A0C86 		      	cmp  	$v0,$a0,#90
FFFC481C 00120831 		      	blt  	$r0,$v0,ctype_105,#1
                        	;====================================================
                        	; Basic Block 2
                        	;====================================================
FFFC4820 00209484 		      	add  	$a0,$a0,#32
                        	ctype_105:
FFFC4824 8B880C82 		      	mov  	$v0,$a0
FFFC4828 8B88FF82 		      	mov  	$sp,$fp
FFFC482C 0000F7D2 		      	lw   	$fp,[$sp]
FFFC4830 0020EFE9 		      	ret  	#32
                        	endpublic
                        	
                        	;====================================================
                        	; Basic Block 0
                        	;====================================================
FFFC4834 FFE0FFC4 	public code _toupper:
	      	sub  	$sp,$sp,#32
FFFC4838 000807D6 		      	sw   	$r0,8[$sp]
FFFC483C 0000F7D6 		      	sw   	$fp,[$sp]
FFFC4840 8B88F7C2 		      	mov  	$fp,$sp
FFFC4844 0000FFC4 		      	sub  	$sp,$sp,#0
FFFC4848 00610C86 		      	cmp  	$v0,$a0,#97
FFFC484C 00520071 		      	blt  	$v0,$r0,ctype_117,#1
                        	;====================================================
                        	; Basic Block 1
                        	;====================================================
FFFC4850 00610C86 		      	cmp  	$v0,$a0,#97
FFFC4854 00120831 		      	blt  	$r0,$v0,ctype_117,#1
                        	;====================================================
                        	; Basic Block 2
                        	;====================================================
FFFC4858 FFE09484 		      	add  	$a0,$a0,#-32
                        	ctype_117:
FFFC485C 8B880C82 		      	mov  	$v0,$a0
FFFC4860 8B88FF82 		      	mov  	$sp,$fp
FFFC4864 0000F7D2 		      	lw   	$fp,[$sp]
FFFC4868 0020EFE9 		      	ret  	#32
                        	endpublic
                        	
                        	;====================================================
                        	; Basic Block 0
                        	;====================================================
FFFC486C FFE0FFC4 	public code _isupper:
	      	sub  	$sp,$sp,#32
FFFC4870 000807D6 		      	sw   	$r0,8[$sp]
FFFC4874 0000F7D6 		      	sw   	$fp,[$sp]
FFFC4878 8B88F7C2 		      	mov  	$fp,$sp
FFFC487C 0000FFC4 		      	sub  	$sp,$sp,#0
FFFC4880 00410C86 		      	cmp  	$v0,$a0,#65
FFFC4884 00920070 		      	blt  	$v0,$r0,ctype_129,#1
                        	;====================================================
                        	; Basic Block 1
                        	;====================================================
FFFC4888 005A0C86 		      	cmp  	$v0,$a0,#90
FFFC488C 00520830 		      	blt  	$r0,$v0,ctype_129,#1
                        	;====================================================
                        	; Basic Block 2
                        	;====================================================
FFFC4890 00010809 		      	ldi  	$v0,#1
FFFC4894 00300031 		      	bra  	ctype_130
                        	ctype_129:
                        	;====================================================
                        	; Basic Block 3
                        	;====================================================
FFFC4898 00000809 		      	ldi  	$v0,#0
                        	ctype_130:
FFFC489C 8B88FF82 		      	mov  	$sp,$fp
FFFC48A0 0000F7D2 		      	lw   	$fp,[$sp]
FFFC48A4 0020EFE9 		      	ret  	#32
                        	endpublic
                        	
                        	;====================================================
                        	; Basic Block 0
                        	;====================================================
FFFC48A8 FFE0FFC4 	public code _islower:
	      	sub  	$sp,$sp,#32
FFFC48AC 000807D6 		      	sw   	$r0,8[$sp]
FFFC48B0 0000F7D6 		      	sw   	$fp,[$sp]
FFFC48B4 8B88F7C2 		      	mov  	$fp,$sp
FFFC48B8 0000FFC4 		      	sub  	$sp,$sp,#0
FFFC48BC 00610C86 		      	cmp  	$v0,$a0,#97
FFFC48C0 00920070 		      	blt  	$v0,$r0,ctype_141,#1
                        	;====================================================
                        	; Basic Block 1
                        	;====================================================
FFFC48C4 007A0C86 		      	cmp  	$v0,$a0,#122
FFFC48C8 00520830 		      	blt  	$r0,$v0,ctype_141,#1
                        	;====================================================
                        	; Basic Block 2
                        	;====================================================
FFFC48CC 00010809 		      	ldi  	$v0,#1
FFFC48D0 00300031 		      	bra  	ctype_142
                        	ctype_141:
                        	;====================================================
                        	; Basic Block 3
                        	;====================================================
FFFC48D4 00000809 		      	ldi  	$v0,#0
                        	ctype_142:
FFFC48D8 8B88FF82 		      	mov  	$sp,$fp
FFFC48DC 0000F7D2 		      	lw   	$fp,[$sp]
FFFC48E0 0020EFE9 		      	ret  	#32
                        	endpublic
                        	
                        	;====================================================
                        	; Basic Block 0
                        	;====================================================
FFFC48E4 FFE0FFC4 	public code _ispunct:
	      	sub  	$sp,$sp,#32
FFFC48E8 000807D6 		      	sw   	$r0,8[$sp]
FFFC48EC 0000F7D6 		      	sw   	$fp,[$sp]
FFFC48F0 8B88F7C2 		      	mov  	$fp,$sp
FFFC48F4 0000FFC4 		      	sub  	$sp,$sp,#0
FFFC48F8 0302F4B2 		      	beqi 	$a0,#94,ctype_161
                        	;====================================================
                        	; Basic Block 1
                        	;====================================================
FFFC48FC 02C1D4B3 		      	beqi 	$a0,#58,ctype_161
                        	;====================================================
                        	; Basic Block 2
                        	;====================================================
FFFC4900 02C17CB2 		      	beqi 	$a0,#47,ctype_161
                        	;====================================================
                        	; Basic Block 3
                        	;====================================================
FFFC4904 028174B3 		      	beqi 	$a0,#46,ctype_161
                        	;====================================================
                        	; Basic Block 4
                        	;====================================================
FFFC4908 02816CB2 		      	beqi 	$a0,#45,ctype_161
                        	;====================================================
                        	; Basic Block 5
                        	;====================================================
FFFC490C 024164B3 		      	beqi 	$a0,#44,ctype_161
                        	;====================================================
                        	; Basic Block 6
                        	;====================================================
FFFC4910 02415CB2 		      	beqi 	$a0,#43,ctype_161
                        	;====================================================
                        	; Basic Block 7
                        	;====================================================
FFFC4914 020154B3 		      	beqi 	$a0,#42,ctype_161
                        	;====================================================
                        	; Basic Block 8
                        	;====================================================
FFFC4918 0202ECB2 		      	beqi 	$a0,#93,ctype_161
                        	;====================================================
                        	; Basic Block 9
                        	;====================================================
FFFC491C 01C2E4B3 		      	beqi 	$a0,#92,ctype_161
                        	;====================================================
                        	; Basic Block 10
                        	;====================================================
FFFC4920 01C2DCB2 		      	beqi 	$a0,#91,ctype_161
                        	;====================================================
                        	; Basic Block 11
                        	;====================================================
FFFC4924 0181FCB3 		      	beqi 	$a0,#63,ctype_161
                        	;====================================================
                        	; Basic Block 12
                        	;====================================================
FFFC4928 0181F4B2 		      	beqi 	$a0,#62,ctype_161
                        	;====================================================
                        	; Basic Block 13
                        	;====================================================
FFFC492C 0141ECB3 		      	beqi 	$a0,#61,ctype_161
                        	;====================================================
                        	; Basic Block 14
                        	;====================================================
FFFC4930 0141E4B2 		      	beqi 	$a0,#60,ctype_161
                        	;====================================================
                        	; Basic Block 15
                        	;====================================================
FFFC4934 0101DCB3 		      	beqi 	$a0,#59,ctype_161
                        	;====================================================
                        	; Basic Block 16
                        	;====================================================
FFFC4938 01014CB2 		      	beqi 	$a0,#41,ctype_161
                        	;====================================================
                        	; Basic Block 17
                        	;====================================================
FFFC493C 00C144B3 		      	beqi 	$a0,#40,ctype_161
                        	;====================================================
                        	; Basic Block 18
                        	;====================================================
FFFC4940 00C13CB2 		      	beqi 	$a0,#39,ctype_161
                        	;====================================================
                        	; Basic Block 19
                        	;====================================================
FFFC4944 008134B3 		      	beqi 	$a0,#38,ctype_161
                        	;====================================================
                        	; Basic Block 20
                        	;====================================================
FFFC4948 00812CB2 		      	beqi 	$a0,#37,ctype_161
                        	;====================================================
                        	; Basic Block 21
                        	;====================================================
FFFC494C 00411CB3 		      	beqi 	$a0,#35,ctype_161
                        	;====================================================
                        	; Basic Block 22
                        	;====================================================
FFFC4950 004114B2 		      	beqi 	$a0,#34,ctype_161
                        	;====================================================
                        	; Basic Block 23
                        	;====================================================
FFFC4954 00010CB3 		      	beqi 	$a0,#33,ctype_161
                        	;====================================================
                        	; Basic Block 24
                        	;====================================================
FFFC4958 00B00030 		      	bra  	ctype_162
                        	ctype_161:
                        	;====================================================
                        	; Basic Block 25
                        	;====================================================
FFFC495C 00010809 		      	ldi  	$v0,#1
                        	ctype_163:
FFFC4960 8B88FF82 		      	mov  	$sp,$fp
FFFC4964 0000F7D2 		      	lw   	$fp,[$sp]
FFFC4968 0020EFE9 		      	ret  	#32
                        	ctype_162:
                        	;====================================================
                        	; Basic Block 26
                        	;====================================================
FFFC496C 00000809 		      	ldi  	$v0,#0
FFFC4970 FF700031 		      	bra  	ctype_163
                        	endpublic
                        	
                        	;====================================================
                        	; Basic Block 0
                        	;====================================================
FFFC4974 FFE0FFC4 	public code _isgraph:
	      	sub  	$sp,$sp,#32
FFFC4978 0018EFD6 		      	sw   	$lr,24[$sp]
FFFC497C 0010E7D6 		      	sw   	$xlr,16[$sp]
FFFC4980 000807D6 		      	sw   	$r0,8[$sp]
FFFC4984 0000F7D6 		      	sw   	$fp,[$sp]
FFFC4988 49CCE009 		      	ldi  	$xlr,#ctype_171
FFFC498C FFFCE05A 
FFFC4990 8B88F7C2 		      	mov  	$fp,$sp
FFFC4994 0000FFC4 		      	sub  	$sp,$sp,#0
FFFC4998 FFC48E59 		      	call 	_ispunct
FFFC499C 00410070 		      	bne  	$v0,$r0,ctype_176
                        	;====================================================
                        	; Basic Block 1
                        	;====================================================
FFFC49A0 FFC471D9 		      	call 	_isalnum
FFFC49A4 00400070 		      	beq  	$v0,$r0,ctype_174
                        	ctype_176:
                        	;====================================================
                        	; Basic Block 2
                        	;====================================================
FFFC49A8 00011809 		      	ldi  	$v2,#1
FFFC49AC 00300031 		      	bra  	ctype_175
                        	ctype_174:
                        	;====================================================
                        	; Basic Block 3
                        	;====================================================
FFFC49B0 00001809 		      	ldi  	$v2,#0
                        	ctype_175:
FFFC49B4 8B8808C2 		      	mov  	$v0,$v2
                        	ctype_177:
FFFC49B8 8B88FF82 		      	mov  	$sp,$fp
FFFC49BC 0000F7D2 		      	lw   	$fp,[$sp]
FFFC49C0 0010E7D2 		      	lw   	$xlr,16[$sp]
FFFC49C4 0018EFD2 		      	lw   	$lr,24[$sp]
FFFC49C8 0020EFE9 		      	ret  	#32
                        	ctype_171:
                        	;====================================================
                        	; Basic Block 4
                        	;====================================================
FFFC49CC 0010EF92 		      	lw   	$lr,16[$fp]
FFFC49D0 0018EF96 		      	sw   	$lr,24[$fp]
FFFC49D4 FF300030 		      	bra  	ctype_177
                        	endpublic
                        	
                        	;====================================================
                        	; Basic Block 0
                        	;====================================================
FFFC49D8 FFE0FFC4 	public code _isprint:
	      	sub  	$sp,$sp,#32
FFFC49DC 0018EFD6 		      	sw   	$lr,24[$sp]
FFFC49E0 0010E7D6 		      	sw   	$xlr,16[$sp]
FFFC49E4 000807D6 		      	sw   	$r0,8[$sp]
FFFC49E8 0000F7D6 		      	sw   	$fp,[$sp]
FFFC49EC 4A38E009 		      	ldi  	$xlr,#ctype_187
FFFC49F0 FFFCE05A 
FFFC49F4 8B88F7C2 		      	mov  	$fp,$sp
FFFC49F8 0000FFC4 		      	sub  	$sp,$sp,#0
FFFC49FC FFC49759 		      	call 	_isgraph
FFFC4A00 00810070 		      	bne  	$v0,$r0,ctype_192
                        	;====================================================
                        	; Basic Block 1
                        	;====================================================
FFFC4A04 00201C86 		      	cmp  	$v2,$a0,#32
FFFC4A08 04A300C2 		      	not  	$v2,$v2
FFFC4A0C 53C018E2 		      	bfext	$v2,$v2,#0,#15
FFFC4A10 004000F0 		      	beq  	$v2,$r0,ctype_190
                        	ctype_192:
                        	;====================================================
                        	; Basic Block 2
                        	;====================================================
FFFC4A14 00011809 		      	ldi  	$v2,#1
FFFC4A18 00300031 		      	bra  	ctype_191
                        	ctype_190:
                        	;====================================================
                        	; Basic Block 3
                        	;====================================================
FFFC4A1C 00001809 		      	ldi  	$v2,#0
                        	ctype_191:
FFFC4A20 8B8808C2 		      	mov  	$v0,$v2
                        	ctype_195:
FFFC4A24 8B88FF82 		      	mov  	$sp,$fp
FFFC4A28 0000F7D2 		      	lw   	$fp,[$sp]
FFFC4A2C 0010E7D2 		      	lw   	$xlr,16[$sp]
FFFC4A30 0018EFD2 		      	lw   	$lr,24[$sp]
FFFC4A34 0020EFE9 		      	ret  	#32
                        	ctype_187:
                        	;====================================================
                        	; Basic Block 4
                        	;====================================================
FFFC4A38 0010EF92 		      	lw   	$lr,16[$fp]
FFFC4A3C 0018EF96 		      	sw   	$lr,24[$fp]
FFFC4A40 FF300030 		      	bra  	ctype_195
                        	endpublic
                        	
                        	;====================================================
                        	; Basic Block 0
                        	;====================================================
FFFC4A44 FFE0FFC4 	public code _iscntrl:
	      	sub  	$sp,$sp,#32
FFFC4A48 000807D6 		      	sw   	$r0,8[$sp]
FFFC4A4C 0000F7D6 		      	sw   	$fp,[$sp]
FFFC4A50 8B88F7C2 		      	mov  	$fp,$sp
FFFC4A54 0000FFC4 		      	sub  	$sp,$sp,#0
FFFC4A58 00C03CB2 		      	beqi 	$a0,#7,ctype_213
                        	;====================================================
                        	; Basic Block 1
                        	;====================================================
FFFC4A5C 00801CA7 		      	bbs  	$a0,#3,ctype_213
                        	;====================================================
                        	; Basic Block 2
                        	;====================================================
FFFC4A60 008054B2 		      	beqi 	$a0,#10,ctype_213
                        	;====================================================
                        	; Basic Block 3
                        	;====================================================
FFFC4A64 00406CB3 		      	beqi 	$a0,#13,ctype_213
                        	;====================================================
                        	; Basic Block 4
                        	;====================================================
FFFC4A68 004064B2 		      	beqi 	$a0,#12,ctype_213
                        	;====================================================
                        	; Basic Block 5
                        	;====================================================
FFFC4A6C 00004CB3 		      	beqi 	$a0,#9,ctype_213
                        	;====================================================
                        	; Basic Block 6
                        	;====================================================
FFFC4A70 00B00030 		      	bra  	ctype_214
                        	ctype_213:
                        	;====================================================
                        	; Basic Block 7
                        	;====================================================
FFFC4A74 00010809 		      	ldi  	$v0,#1
                        	ctype_215:
FFFC4A78 8B88FF82 		      	mov  	$sp,$fp
FFFC4A7C 0000F7D2 		      	lw   	$fp,[$sp]
FFFC4A80 0020EFE9 		      	ret  	#32
                        	ctype_214:
                        	;====================================================
                        	; Basic Block 8
                        	;====================================================
FFFC4A84 00000809 		      	ldi  	$v0,#0
FFFC4A88 FF700031 		      	bra  	ctype_215
                        	endpublic
                        	
                        		code
FFFC4A8C 00000000 		align	1
                        	
                        	;====================================================
                        	; Basic Block 0
                        	;====================================================
                        	public code _memcpy:
	      	     	
FFFC4A90 01000531 				beq		r20,r0,.xit
FFFC4A94 FFF8FFC4 				sub		sp,sp,#8
FFFC4A98 00001FD6 				sw		r3,[sp]
FFFC4A9C FFFF1504 				sub		r2,r20,#1
FFFC4AA0 00000809 				ldi		r1,#0
                        				.again:
FFFC4AA4 4C039842 				lb		r3,[r1+r19]
FFFC4AA8 54039042 				sb		r3,[r1+r18]
FFFC4AAC FFBC1067 				ibne	r1,r2,.again
FFFC4AB0 00001FD2 				lw		r3,[sp]
FFFC4AB4 0008FFC4 				add		sp,sp,#8
                        				.xit:
FFFC4AB8 8B880C82 				mov		r1,r18
FFFC4ABC 0000EFE9 				ret
endpublic
                        	
                        	;====================================================
                        	; Basic Block 0
                        	;====================================================
                        	public code _memcpyC:
	      	     	
FFFC4AC0 01000531 				beq		r20,r0,.xit
FFFC4AC4 FFF8FFC4 				sub		sp,sp,#8
FFFC4AC8 00001FD6 				sw		r3,[sp]
FFFC4ACC FFFF1504 				sub		r2,r20,#1
FFFC4AD0 00000809 				ldi		r1,#0
                        				.again:
FFFC4AD4 80230CC2 				lc		r3,[r19+r1*2]
FFFC4AD8 90230C82 				sc		r3,[r18+r1*2]
FFFC4ADC FFBC1067 				ibne	r1,r2,.again
FFFC4AE0 00001FD2 				lw		r3,[sp]
FFFC4AE4 0008FFC4 				add		sp,sp,#8
                        				.xit:
FFFC4AE8 8B880C82 				mov		r1,r18
FFFC4AEC 0000EFE9 				ret
endpublic
                        	
                        	;====================================================
                        	; Basic Block 0
                        	;====================================================
                        	public code _memcpyW:
	      	     	
FFFC4AF0 01000531 				beq		r20,r0,.xit
FFFC4AF4 FFF8FFC4 				sub		sp,sp,#8
FFFC4AF8 00001FD6 				sw		r3,[sp]
FFFC4AFC FFFF1504 				sub		r2,r20,#1
FFFC4B00 00000809 				ldi		r1,#0
                        				.again:
FFFC4B04 48630CC2 				lw		r3,[r19+r1*8]
FFFC4B08 58630C82 				sw		r3,[r18+r1*8]
FFFC4B0C FFBC1067 				ibne	r1,r2,.again
FFFC4B10 00001FD2 				lw		r3,[sp]
FFFC4B14 0008FFC4 				add		sp,sp,#8
                        				.xit:
FFFC4B18 8B880C82 				mov		r1,r18
FFFC4B1C 0000EFE9 				ret
endpublic
                        	
                        	;====================================================
                        	; Basic Block 0
                        	;====================================================
                        	public code _memset:
	      	     	
FFFC4B20 00800530 				beq		r20,r0,.xit
FFFC4B24 FFFF1504 				sub		r2,r20,#1
FFFC4B28 00000809 				ldi		r1,#0
                        				.again:
FFFC4B2C 54139042 				sb		r19,[r1+r18]
FFFC4B30 FFFC1066 				ibne	r1,r2,.again
                        				.xit:
FFFC4B34 8B880C82 				mov		r1,r18
FFFC4B38 0000EFE9 				ret
endpublic
                        	
                        	;====================================================
                        	; Basic Block 0
                        	;====================================================
                        	public code _memsetC:
	      	     	
FFFC4B3C 00800530 				beq		r20,r0,.xit
FFFC4B40 8B880802 				mov		r1,r0
                        				.again:
FFFC4B44 90330C82 				sc		r19,[r18+r1*2]
FFFC4B48 00010844 				add		r1,r1,#1
FFFC4B4C FF84A071 				bltu	r1,r20,.again
                        				.xit:
FFFC4B50 8B880C82 				mov		r1,r18
FFFC4B54 0000EFE9 				ret
endpublic
                        	
                        	;====================================================
                        	; Basic Block 0
                        	;====================================================
                        	public code _memsetH:
	      	     	
FFFC4B58 00800530 				beq		r20,r0,.xit
FFFC4B5C 8B880802 				mov		r1,r0
                        				.again:
FFFC4B60 50530C82 				sh		r19,[r18+r1*4]
FFFC4B64 00010844 				add		r1,r1,#1
FFFC4B68 FF84A071 				bltu	r1,r20,.again
                        				.xit:
FFFC4B6C 8B880C82 				mov		r1,r18
FFFC4B70 0000EFE9 				ret
endpublic
                        	
                        	;====================================================
                        	; Basic Block 0
                        	;====================================================
FFFC4B74 FFE0FFC4 	public code _memmove:
	      	sub  	$sp,$sp,#32
FFFC4B78 000807D6 		      	sw   	$r0,8[$sp]
FFFC4B7C 0000F7D6 		      	sw   	$fp,[$sp]
FFFC4B80 8B88F7C2 		      	mov  	$fp,$sp
FFFC4B84 FFE8FFC4 		      	sub  	$sp,$sp,#24
FFFC4B88 FFF8FFC4 		      	sub  	$sp,$sp,#8
FFFC4B8C 00005FD6 		      	sw   	$r11,0[$sp]
FFFC4B90 FFF85F92 		      	lw   	$r11,-8[$fp]
FFFC4B94 00C39CB1 		      	bge  	$a0,$a1,string_63,#0
                        	;====================================================
                        	; Basic Block 1
                        	;====================================================
FFFC4B98 00005809 		      	ldi  	$r11,#0
                        	string_65:
FFFC4B9C 00A3A2F0 		      	bge  	$r11,$a2,string_66,#2
                        	;====================================================
                        	; Basic Block 2
                        	;====================================================
FFFC4BA0 4C015CC2 		      	lb   	$v0,[$a1+$r11]
FFFC4BA4 54015C82 		      	sb   	$v0,[$a0+$r11]
FFFC4BA8 00015AC4 		      	add  	$r11,$r11,#1
FFFC4BAC FF700031 		      	bra  	string_65
                        	string_66:
                        	;====================================================
                        	; Basic Block 3
                        	;====================================================
FFFC4BB0 00F00030 		      	bra  	string_64
                        	string_63:
                        	;====================================================
                        	; Basic Block 4
                        	;====================================================
FFFC4BB4 FFFFA504 		      	sub  	$a2,$a2,#1
                        	string_68:
FFFC4BB8 00820530 		      	blt  	$a2,$r0,string_69
                        	;====================================================
                        	; Basic Block 5
                        	;====================================================
FFFC4BBC 4C01A4C2 		      	lb   	$v0,[$a1+$a2]
FFFC4BC0 5401A482 		      	sb   	$v0,[$a0+$a2]
FFFC4BC4 FFFFA504 		      	sub  	$a2,$a2,#1
FFFC4BC8 FF700031 		      	bra  	string_68
                        	string_69:
                        	string_64:
                        	;====================================================
                        	; Basic Block 6
                        	;====================================================
FFFC4BCC 8B880C82 		      	mov  	$v0,$a0
FFFC4BD0 00005FD2 		      	lw   	$r11,0[$sp]
FFFC4BD4 8B88FF82 		      	mov  	$sp,$fp
FFFC4BD8 0000F7D2 		      	lw   	$fp,[$sp]
FFFC4BDC 0020EFE9 		      	ret  	#32
                        	endpublic
                        	
                        	;====================================================
                        	; Basic Block 0
                        	;====================================================
FFFC4BE0 FFE0FFC4 	public code _memmoveC:
	      	sub  	$sp,$sp,#32
FFFC4BE4 000807D6 		      	sw   	$r0,8[$sp]
FFFC4BE8 0000F7D6 		      	sw   	$fp,[$sp]
FFFC4BEC 8B88F7C2 		      	mov  	$fp,$sp
FFFC4BF0 FFE8FFC4 		      	sub  	$sp,$sp,#24
FFFC4BF4 FFF8FFC4 		      	sub  	$sp,$sp,#8
FFFC4BF8 00005FD6 		      	sw   	$r11,0[$sp]
FFFC4BFC FFF85F92 		      	lw   	$r11,-8[$fp]
FFFC4C00 01039CB0 		      	bge  	$a0,$a1,string_87,#0
                        	;====================================================
                        	; Basic Block 1
                        	;====================================================
FFFC4C04 00005809 		      	ldi  	$r11,#0
                        	string_89:
FFFC4C08 00A3A2F1 		      	bge  	$r11,$a2,string_90,#2
                        	;====================================================
                        	; Basic Block 2
                        	;====================================================
FFFC4C0C 3E010AC2 		      	shl  	$v0,$r11,#1
FFFC4C10 80235CC2 		      	lc   	$v2,[$a1+$r11*2]
FFFC4C14 90030C82 		      	sc   	$v2,[$a0+$v0]
FFFC4C18 00015AC4 		      	add  	$r11,$r11,#1
FFFC4C1C FF700030 		      	bra  	string_89
                        	string_90:
                        	;====================================================
                        	; Basic Block 3
                        	;====================================================
FFFC4C20 00F00031 		      	bra  	string_88
                        	string_87:
                        	;====================================================
                        	; Basic Block 4
                        	;====================================================
FFFC4C24 FFFFA504 		      	sub  	$a2,$a2,#1
                        	string_92:
FFFC4C28 00820531 		      	blt  	$a2,$r0,string_93
                        	;====================================================
                        	; Basic Block 5
                        	;====================================================
FFFC4C2C 3E010D02 		      	shl  	$v0,$a2,#1
FFFC4C30 8023A4C2 		      	lc   	$v2,[$a1+$a2*2]
FFFC4C34 90030C82 		      	sc   	$v2,[$a0+$v0]
FFFC4C38 FFFFA504 		      	sub  	$a2,$a2,#1
FFFC4C3C FF700030 		      	bra  	string_92
                        	string_93:
                        	string_88:
                        	;====================================================
                        	; Basic Block 6
                        	;====================================================
FFFC4C40 8B880C82 		      	mov  	$v0,$a0
FFFC4C44 00005FD2 		      	lw   	$r11,0[$sp]
FFFC4C48 8B88FF82 		      	mov  	$sp,$fp
FFFC4C4C 0000F7D2 		      	lw   	$fp,[$sp]
FFFC4C50 0020EFE9 		      	ret  	#32
                        	endpublic
                        	
                        	;====================================================
                        	; Basic Block 0
                        	;====================================================
FFFC4C54 FFE0FFC4 	public code _memchr:
	      	sub  	$sp,$sp,#32
FFFC4C58 000807D6 		      	sw   	$r0,8[$sp]
FFFC4C5C 0000F7D6 		      	sw   	$fp,[$sp]
FFFC4C60 8B88F7C2 		      	mov  	$fp,$sp
FFFC4C64 FFE8FFC4 		      	sub  	$sp,$sp,#24
FFFC4C68 FFF8FFC4 		      	sub  	$sp,$sp,#8
FFFC4C6C 00005FD6 		      	sw   	$r11,0[$sp]
FFFC4C70 8B885C82 		      	mov  	$r11,$a0
                        	string_108:
FFFC4C74 0143A030 		      	bge  	$r0,$a2,string_109
                        	;====================================================
                        	; Basic Block 1
                        	;====================================================
FFFC4C78 00000AD3 		      	lb   	$v0,[$r11]
FFFC4C7C 00819871 		      	bne  	$v0,$a1,string_111,#0
                        	;====================================================
                        	; Basic Block 2
                        	;====================================================
FFFC4C80 8B880AC2 		      	mov  	$v0,$r11
                        	string_113:
FFFC4C84 00005FD2 		      	lw   	$r11,0[$sp]
FFFC4C88 8B88FF82 		      	mov  	$sp,$fp
FFFC4C8C 0000F7D2 		      	lw   	$fp,[$sp]
FFFC4C90 0020EFE9 		      	ret  	#32
                        	string_111:
                        	;====================================================
                        	; Basic Block 3
                        	;====================================================
FFFC4C94 00015AC4 		      	add  	$r11,$r11,#1
FFFC4C98 FFFFA504 		      	sub  	$a2,$a2,#1
FFFC4C9C FEB00031 		      	bra  	string_108
                        	string_109:
                        	;====================================================
                        	; Basic Block 4
                        	;====================================================
FFFC4CA0 00000809 		      	ldi  	$v0,#0
FFFC4CA4 FEF00031 		      	bra  	string_113
                        	endpublic
                        	
                        	;====================================================
                        	; Basic Block 0
                        	;====================================================
                        	public code _strlen:
	      	     	
FFFC4CA8 8B880802 				mov		r1,r0			// length = 0
FFFC4CAC 010004B0 				beq		r18,r0,.xit2
FFFC4CB0 FFF8FFC4 				sub		sp,sp,#8
FFFC4CB4 00001FD6 				sw		r3,[sp]
                        				.j1:
FFFC4CB8 80230C82 				lc		r3,[r18+r1*2]
FFFC4CBC 00010844 				add 	r1,r1,#1
FFFC4CC0 FF8100F1 				bne		r3,r0,.j1
FFFC4CC4 FFFF0844 				sub		r1,r1,#1
FFFC4CC8 00001FD2 				lw		r3,[sp]
FFFC4CCC 0008FFC4 				add		sp,sp,#8
                        				.xit2:
FFFC4CD0 0000EFE9 				ret
endpublic
                        	
                        	;====================================================
                        	; Basic Block 0
                        	;====================================================
FFFC4CD4 FFE0FFC4 	public code _strcpy:
	      	sub  	$sp,$sp,#32
FFFC4CD8 000807D6 		      	sw   	$r0,8[$sp]
FFFC4CDC 0000F7D6 		      	sw   	$fp,[$sp]
FFFC4CE0 8B88F7C2 		      	mov  	$fp,$sp
FFFC4CE4 FFF8FFC4 		      	sub  	$sp,$sp,#8
FFFC4CE8 FFF8FFC4 		      	sub  	$sp,$sp,#8
FFFC4CEC 00005FD6 		      	sw   	$r11,0[$sp]
FFFC4CF0 00005809 		      	ldi  	$r11,#0
                        	string_132:
FFFC4CF4 80215CC2 		      	lc   	$v0,[$a1+$r11*2]
FFFC4CF8 00800071 		      	beq  	$v0,$r0,string_133
                        	;====================================================
                        	; Basic Block 1
                        	;====================================================
FFFC4CFC 3E010AC2 		      	shl  	$v0,$r11,#1
FFFC4D00 80235CC2 		      	lc   	$v2,[$a1+$r11*2]
FFFC4D04 90030C82 		      	sc   	$v2,[$a0+$v0]
FFFC4D08 00015AC4 		      	add  	$r11,$r11,#1
FFFC4D0C FF300031 		      	bra  	string_132
                        	string_133:
                        	;====================================================
                        	; Basic Block 2
                        	;====================================================
FFFC4D10 90205C82 		      	sc   	$r0,[$a0+$r11*2]
FFFC4D14 8B880C82 		      	mov  	$v0,$a0
FFFC4D18 00005FD2 		      	lw   	$r11,0[$sp]
FFFC4D1C 8B88FF82 		      	mov  	$sp,$fp
FFFC4D20 0000F7D2 		      	lw   	$fp,[$sp]
FFFC4D24 0020EFE9 		      	ret  	#32
                        	endpublic
                        	
                        	;====================================================
                        	; Basic Block 0
                        	;====================================================
FFFC4D28 FFE0FFC4 	public code _strncpy:
	      	sub  	$sp,$sp,#32
FFFC4D2C 000807D6 		      	sw   	$r0,8[$sp]
FFFC4D30 0000F7D6 		      	sw   	$fp,[$sp]
FFFC4D34 8B88F7C2 		      	mov  	$fp,$sp
FFFC4D38 FFE8FFC4 		      	sub  	$sp,$sp,#24
FFFC4D3C FFF8FFC4 		      	sub  	$sp,$sp,#8
FFFC4D40 00005FD6 		      	sw   	$r11,0[$sp]
FFFC4D44 00005809 		      	ldi  	$r11,#0
                        	string_151:
FFFC4D48 0123A2F0 		      	bge  	$r11,$a2,string_152,#2
                        	;====================================================
                        	; Basic Block 1
                        	;====================================================
FFFC4D4C 3E010AC2 		      	shl  	$v0,$r11,#1
FFFC4D50 80235CC2 		      	lc   	$v2,[$a1+$r11*2]
FFFC4D54 90030C82 		      	sc   	$v2,[$a0+$v0]
FFFC4D58 80215CC2 		      	lc   	$v0,[$a1+$r11*2]
FFFC4D5C 00010071 		      	bne  	$v0,$r0,string_154
                        	;====================================================
                        	; Basic Block 2
                        	;====================================================
FFFC4D60 00700030 		      	bra  	string_152
                        	string_154:
                        	;====================================================
                        	; Basic Block 3
                        	;====================================================
FFFC4D64 00015AC4 		      	add  	$r11,$r11,#1
FFFC4D68 FEF00031 		      	bra  	string_151
                        	string_152:
                        	string_156:
                        	;====================================================
                        	; Basic Block 4
                        	;====================================================
FFFC4D6C 0063A2F1 		      	bge  	$r11,$a2,string_157,#2
                        	;====================================================
                        	; Basic Block 5
                        	;====================================================
FFFC4D70 90205C82 		      	sc   	$r0,[$a0+$r11*2]
FFFC4D74 00015AC4 		      	add  	$r11,$r11,#1
FFFC4D78 FFB00030 		      	bra  	string_156
                        	string_157:
                        	;====================================================
                        	; Basic Block 6
                        	;====================================================
FFFC4D7C 8B880C82 		      	mov  	$v0,$a0
FFFC4D80 00005FD2 		      	lw   	$r11,0[$sp]
FFFC4D84 8B88FF82 		      	mov  	$sp,$fp
FFFC4D88 0000F7D2 		      	lw   	$fp,[$sp]
FFFC4D8C 0020EFE9 		      	ret  	#32
                        	endpublic
                        	
                        	;====================================================
                        	; Basic Block 0
                        	;====================================================
FFFC4D90 FFE0FFC4 	public code _strncmp:
	      	sub  	$sp,$sp,#32
FFFC4D94 000807D6 		      	sw   	$r0,8[$sp]
FFFC4D98 0000F7D6 		      	sw   	$fp,[$sp]
FFFC4D9C 8B88F7C2 		      	mov  	$fp,$sp
FFFC4DA0 FFE0FFC4 		      	sub  	$sp,$sp,#32
FFFC4DA4 FFF0FFC4 		      	sub  	$sp,$sp,#16
FFFC4DA8 00005FD6 		      	sw   	$r11,0[$sp]
FFFC4DAC 000867D6 		      	sw   	$r12,8[$sp]
FFFC4DB0 FFF85F92 		      	lw   	$r11,-8[$fp]
FFFC4DB4 FFF06792 		      	lw   	$r12,-16[$fp]
FFFC4DB8 8B885C82 		      	mov  	$r11,$a0
FFFC4DBC 8B8864C2 		      	mov  	$r12,$a1
FFFC4DC0 00C162F0 		      	bne  	$r11,$r12,string_178,#0
                        	;====================================================
                        	; Basic Block 1
                        	;====================================================
FFFC4DC4 00000809 		      	ldi  	$v0,#0
                        	string_180:
FFFC4DC8 00005FD2 		      	lw   	$r11,0[$sp]
FFFC4DCC 000867D2 		      	lw   	$r12,8[$sp]
FFFC4DD0 8B88FF82 		      	mov  	$sp,$fp
FFFC4DD4 0000F7D2 		      	lw   	$fp,[$sp]
FFFC4DD8 0020EFE9 		      	ret  	#32
                        	string_178:
                        	string_181:
                        	;====================================================
                        	; Basic Block 2
                        	;====================================================
FFFC4DDC 0203A031 		      	bge  	$r0,$a2,string_182
                        	;====================================================
                        	; Basic Block 3
                        	;====================================================
FFFC4DE0 00000AE0 		      	lc   	$v0,[$r11]
FFFC4DE4 00001320 		      	lc   	$v1,[$r12]
FFFC4DE8 00C01070 		      	beq  	$v0,$v1,string_184,#0
                        	;====================================================
                        	; Basic Block 4
                        	;====================================================
FFFC4DEC 00010809 		      	ldi  	$v0,#1
FFFC4DF0 000012E0 		      	lc   	$v1,[$r11]
FFFC4DF4 00001B20 		      	lc   	$v2,[$r12]
FFFC4DF8 000518B1 		      	bgeu 	$v1,$v2,string_186
                        	;====================================================
                        	; Basic Block 5
                        	;====================================================
FFFC4DFC FFFF0809 		      	ldi  	$v0,#-1
                        	string_186:
FFFC4E00 FE300031 		      	bra  	string_180
                        	string_184:
                        	;====================================================
                        	; Basic Block 6
                        	;====================================================
FFFC4E04 00000AE0 		      	lc   	$v0,[$r11]
FFFC4E08 00410070 		      	bne  	$v0,$r0,string_188
                        	;====================================================
                        	; Basic Block 7
                        	;====================================================
FFFC4E0C 00000809 		      	ldi  	$v0,#0
FFFC4E10 FDB00031 		      	bra  	string_180
                        	string_188:
                        	;====================================================
                        	; Basic Block 8
                        	;====================================================
FFFC4E14 00025AC4 		      	add  	$r11,$r11,#2
FFFC4E18 00026304 		      	add  	$r12,$r12,#2
FFFC4E1C FFFFA504 		      	sub  	$a2,$a2,#1
FFFC4E20 FDF00030 		      	bra  	string_181
                        	string_182:
                        	;====================================================
                        	; Basic Block 9
                        	;====================================================
FFFC4E24 00000809 		      	ldi  	$v0,#0
FFFC4E28 FCF00031 		      	bra  	string_180
                        	endpublic
                        	
                        	;====================================================
                        	; Basic Block 0
                        	;====================================================
FFFC4E2C FFE0FFC4 	public code _strchr:
	      	sub  	$sp,$sp,#32
FFFC4E30 000807D6 		      	sw   	$r0,8[$sp]
FFFC4E34 0000F7D6 		      	sw   	$fp,[$sp]
FFFC4E38 8B88F7C2 		      	mov  	$fp,$sp
FFFC4E3C FFE8FFC4 		      	sub  	$sp,$sp,#24
FFFC4E40 FFF8FFC4 		      	sub  	$sp,$sp,#8
FFFC4E44 00005FD6 		      	sw   	$r11,0[$sp]
FFFC4E48 8B885C82 		      	mov  	$r11,$a0
                        	string_202:
FFFC4E4C 0143A030 		      	bge  	$r0,$a2,string_203
                        	;====================================================
                        	; Basic Block 1
                        	;====================================================
FFFC4E50 00000AE0 		      	lc   	$v0,[$r11]
FFFC4E54 00819871 		      	bne  	$v0,$a1,string_205,#0
                        	;====================================================
                        	; Basic Block 2
                        	;====================================================
FFFC4E58 8B880AC2 		      	mov  	$v0,$r11
                        	string_207:
FFFC4E5C 00005FD2 		      	lw   	$r11,0[$sp]
FFFC4E60 8B88FF82 		      	mov  	$sp,$fp
FFFC4E64 0000F7D2 		      	lw   	$fp,[$sp]
FFFC4E68 0020EFE9 		      	ret  	#32
                        	string_205:
                        	;====================================================
                        	; Basic Block 3
                        	;====================================================
FFFC4E6C 00025AC4 		      	add  	$r11,$r11,#2
FFFC4E70 FFFFA504 		      	sub  	$a2,$a2,#1
FFFC4E74 FEB00031 		      	bra  	string_202
                        	string_203:
                        	;====================================================
                        	; Basic Block 4
                        	;====================================================
FFFC4E78 00000809 		      	ldi  	$v0,#0
FFFC4E7C FEF00031 		      	bra  	string_207
                        	endpublic
                        	
                        		code
                        		align	16                        	
                        	;====================================================
                        	; Basic Block 0
                        	;====================================================
FFFC4E80 FFE0FFC4 	public code _round8:
	      	sub  	$sp,$sp,#32
FFFC4E84 000807D6 		      	sw   	$r0,8[$sp]
FFFC4E88 0000F7D6 		      	sw   	$fp,[$sp]
FFFC4E8C 8B88F7C2 		      	mov  	$fp,$sp
FFFC4E90 0000FFC4 		      	sub  	$sp,$sp,#0
FFFC4E94 FFF8FFC4 		      	sub  	$sp,$sp,#8
FFFC4E98 00005FD6 		      	sw   	$r11,0[$sp]
FFFC4E9C 00105F92 		      	lw   	$r11,16[$fp]
FFFC4EA0 000712C4 		      	add  	$v1,$r11,#7
FFFC4EA4 FFF80888 		      	and  	$v0,$v1,#-8
                        	malloc_7:
FFFC4EA8 00005FD2 		      	lw   	$r11,0[$sp]
FFFC4EAC 8B88FF82 		      	mov  	$sp,$fp
FFFC4EB0 0000F7D2 		      	lw   	$fp,[$sp]
FFFC4EB4 0020EFE9 		      	ret  	#32
                        	endpublic
                        	
                        	;====================================================
                        	; Basic Block 0
                        	;====================================================
FFFC4EB8 FFE0FFC4 	public code _malloc:
	      	sub  	$sp,$sp,#32
FFFC4EBC 0018EFD6 		      	sw   	$lr,24[$sp]
FFFC4EC0 0010E7D6 		      	sw   	$xlr,16[$sp]
FFFC4EC4 000807D6 		      	sw   	$r0,8[$sp]
FFFC4EC8 0000F7D6 		      	sw   	$fp,[$sp]
FFFC4ECC 5014E009 		      	ldi  	$xlr,#malloc_23
FFFC4ED0 FFFCE05A 
FFFC4ED4 8B88F7C2 		      	mov  	$fp,$sp
FFFC4ED8 FFF0FFC4 		      	sub  	$sp,$sp,#16
FFFC4EDC FFE0FFC4 		      	sub  	$sp,$sp,#32
FFFC4EE0 00005FD6 		      	sw   	$r11,0[$sp]
FFFC4EE4 000867D6 		      	sw   	$r12,8[$sp]
FFFC4EE8 00106FD6 		      	sw   	$r13,16[$sp]
FFFC4EEC 001877D6 		      	sw   	$r14,24[$sp]
FFFC4EF0 FFF85F92 		      	lw   	$r11,-8[$fp]
FFFC4EF4 00186792 		      	lw   	$r12,24[$fp]
FFFC4EF8 FFF06F92 		      	lw   	$r13,-16[$fp]
FFFC4EFC 4C007009 		      	ldi  	$r14,#1296190464
FFFC4F00 4D42705A 
                        	; 	n = rount8(n);
FFFC4F04 FFF8FFC4 		      	sub  	$sp,$sp,#8
FFFC4F08 000067D6 		      	sw   	$r12,0[$sp]
FFFC4F0C 0000E818 		      	call 	_rount8
FFFC4F10 0008FFC4 		      	add  	$sp,$sp,#8
FFFC4F14 8B886042 		      	mov  	$r12,$v0
                        	; 	for (p = FirstMBLK; p; p = p->next)	{
FFFC4F18 0008B809 		      	lw   	$r11,_FirstMBLK
FFFC4F1C FFFDB85A 
FFFC4F20 480BB802 
                        	malloc_26:
FFFC4F24 070002F1 		      	beq  	$r11,$r0,malloc_27
                        	;====================================================
                        	; Basic Block 1
                        	;====================================================
                        	; 		if (p->magic==('M' << 24) + ('B' << 16) + ('L' << 8) + 'K') {
FFFC4F28 00001AD0 		      	lh   	$v2,[$r11]
FFFC4F2C 004B3809 		      	ldi  	$t2,#75
FFFC4F30 53C039E2 		      	bfext	$t2,$t2,#0,#15
FFFC4F34 10643B82 		      	add  	$v3,$r14,$t2
	      	bne  	$v2,$v3,malloc_29,#0
FFFC4F38 064120F0 
                        	;====================================================
                        	; Basic Block 2
                        	;====================================================
                        	; 			if (p->size >= n) {
FFFC4F3C 00041AD0 		      	lh   	$v2,4[$r11]
FFFC4F40 060260F0 		      	blt  	$v2,$r12,malloc_31,#0
                        	;====================================================
                        	; Basic Block 3
                        	;====================================================
                        	; 				if (p->size > n + sizeof(MBLK)+16) {
FFFC4F44 00041AD0 		      	lh   	$v2,4[$r11]
FFFC4F48 00183B04 		      	add  	$t2,$r12,#24
FFFC4F4C 001021C4 		      	add  	$v3,$t2,#16
FFFC4F50 03431930 		      	bge  	$v3,$v2,malloc_33,#0
                        	;====================================================
                        	; Basic Block 4
                        	;====================================================
                        	; 					q = p->next;
FFFC4F54 00086AD2 		      	lw   	$r13,8[$r11]
                        	; 					p->size = n + sizeof(MBLK);
FFFC4F58 00181B04 		      	add  	$v2,$r12,#24
FFFC4F5C 00041AD4 		      	sh   	$v2,4[$r11]
FFFC4F60 67C018E2 		      	bfextu	$v2,$v2,#0,#31
                        	; 					p->next = (byte *)p + n + sizeof(MBLK);
FFFC4F64 106462C2 		      	add  	$v3,$r11,$r12
	      	add  	$v2,$v3,#24
FFFC4F68 00181904 
FFFC4F6C 00081AD6 		      	sw   	$v2,8[$r11]
                        	; 					p->next->size = p->size - n - sizeof(MBLK);
FFFC4F70 00081AD2 		      	lw   	$v2,8[$r11]
FFFC4F74 000442D0 		      	lh   	$t3,4[$r11]
FFFC4F78 14676202 		      	sub  	$t2,$t3,$r12
	      	sub  	$v3,$t2,#24
FFFC4F7C FFE821C4 
FFFC4F80 000420D4 		      	sh   	$v3,4[$v2]
FFFC4F84 67C02122 		      	bfextu	$v3,$v3,#0,#31
                        	; 					p->next->prev = p;
FFFC4F88 00081AD2 		      	lw   	$v2,8[$r11]
FFFC4F8C 001058D6 		      	sw   	$r11,16[$v2]
                        	; 					p->next->next = q;
FFFC4F90 00081AD2 		      	lw   	$v2,8[$r11]
FFFC4F94 000868D6 		      	sw   	$r13,8[$v2]
                        	; 					p->next->magic = ('M' << 24) + ('B' << 16) + ('L' << 8) + 'K';
FFFC4F98 00081AD2 		      	lw   	$v2,8[$r11]
FFFC4F9C 004B3809 		      	ldi  	$t2,#75
FFFC4FA0 53C039E2 		      	bfext	$t2,$t2,#0,#15
FFFC4FA4 10643B82 		      	add  	$v3,$r14,$t2
	      	sh   	$v3,[$v2]
FFFC4FA8 000020D4 
FFFC4FAC 67C02122 		      	bfextu	$v3,$v3,#0,#31
                        	; 					if (q)
FFFC4FB0 00400370 		      	beq  	$r13,$r0,malloc_35
                        	;====================================================
                        	; Basic Block 5
                        	;====================================================
                        	; 					q->prev = p->next;
FFFC4FB4 00081AD2 		      	lw   	$v2,8[$r11]
FFFC4FB8 00101B56 		      	sw   	$v2,16[$r13]
                        	malloc_35:
                        	malloc_33:
                        	; 				p->magic = ('m' << 24) + ('b' << 16) + ('l' << 8) + 'k';
FFFC4FBC 6C002009 		      	ldi  	$v3,#1835166720
FFFC4FC0 6D62205A 
FFFC4FC4 006B3809 		      	ldi  	$t2,#107
FFFC4FC8 53C039E2 		      	bfext	$t2,$t2,#0,#15
FFFC4FCC 10633902 		      	add  	$v2,$v3,$t2
	      	sh   	$v2,[$r11]
FFFC4FD0 00001AD4 
FFFC4FD4 67C018E2 		      	bfextu	$v2,$v2,#0,#31
                        	; 				return (&p[1]);
FFFC4FD8 00182009 		      	ldi  	$v3,#24
FFFC4FDC 10615902 		      	add  	$v0,$v3,$r11
malloc_37:
FFFC4FE0 00005FD2 		      	lw   	$r11,0[$sp]
FFFC4FE4 000867D2 		      	lw   	$r12,8[$sp]
FFFC4FE8 00106FD2 		      	lw   	$r13,16[$sp]
FFFC4FEC 001877D2 		      	lw   	$r14,24[$sp]
FFFC4FF0 8B88FF82 		      	mov  	$sp,$fp
FFFC4FF4 0000F7D2 		      	lw   	$fp,[$sp]
FFFC4FF8 0010E7D2 		      	lw   	$xlr,16[$sp]
FFFC4FFC 0018EFD2 		      	lw   	$lr,24[$sp]
FFFC5000 0020EFE9 		      	ret  	#32
                        	malloc_31:
                        	malloc_29:
                        	;====================================================
                        	; Basic Block 6
                        	;====================================================
FFFC5004 00085AD2 		      	lw   	$r11,8[$r11]
FFFC5008 F8F00030 		      	bra  	malloc_26
                        	malloc_27:
                        	;====================================================
                        	; Basic Block 7
                        	;====================================================
                        	; 	return (null);
FFFC500C 00000809 		      	ldi  	$v0,#0
FFFC5010 FE700031 		      	bra  	malloc_37
                        	malloc_23:
                        	;====================================================
                        	; Basic Block 8
                        	;====================================================
FFFC5014 0010EF92 		      	lw   	$lr,16[$fp]
FFFC5018 0018EF96 		      	sw   	$lr,24[$fp]
FFFC501C FE300030 		      	bra  	malloc_37
                        	endpublic
                        	
                        	;====================================================
                        	; Basic Block 0
                        	;====================================================
FFFC5020 FFE0FFC4 	public code _free:
	      	sub  	$sp,$sp,#32
FFFC5024 000807D6 		      	sw   	$r0,8[$sp]
FFFC5028 0000F7D6 		      	sw   	$fp,[$sp]
FFFC502C 8B88F7C2 		      	mov  	$fp,$sp
FFFC5030 FFE8FFC4 		      	sub  	$sp,$sp,#24
FFFC5034 FFD8FFC4 		      	sub  	$sp,$sp,#40
FFFC5038 00005FD6 		      	sw   	$r11,0[$sp]
FFFC503C 000867D6 		      	sw   	$r12,8[$sp]
FFFC5040 00106FD6 		      	sw   	$r13,16[$sp]
FFFC5044 001877D6 		      	sw   	$r14,24[$sp]
FFFC5048 00207FD6 		      	sw   	$r15,32[$sp]
FFFC504C FFE85F92 		      	lw   	$r11,-24[$fp]
FFFC5050 FFF06792 		      	lw   	$r12,-16[$fp]
FFFC5054 FFF86F92 		      	lw   	$r13,-8[$fp]
FFFC5058 4C007009 		      	ldi  	$r14,#1296190464
FFFC505C 4D42705A 
FFFC5060 00107F92 		      	lw   	$r15,16[$fp]
                        	; 	MBLK *q, *n;
FFFC5064 FFFF1009 		      	ldi  	$v1,#-1
FFFC5068 106B7882 		      	add  	$r11,$v1,$r15
; 	p->magic = ('M' << 24) + ('B' << 16) + ('L' << 8) + 'K';
FFFC506C 004B1009 		      	ldi  	$v1,#75
FFFC5070 53C010A2 		      	bfext	$v1,$v1,#0,#15
FFFC5074 10611382 		      	add  	$v0,$r14,$v1
	      	sh   	$v0,[$r11]
FFFC5078 00000AD4 
FFFC507C 67C00862 		      	bfextu	$v0,$v0,#0,#31
                        	; 	n = p->next;
FFFC5080 000862D2 		      	lw   	$r12,8[$r11]
                        	; 	if (n) {
FFFC5084 02000330 		      	beq  	$r12,$r0,malloc_59
                        	;====================================================
                        	; Basic Block 1
                        	;====================================================
                        	; 		if (n->magic==('M' << 24) + ('B' << 16) + ('L' << 8) + 'K') {
FFFC5088 00000B10 		      	lh   	$v0,[$r12]
FFFC508C 004B1809 		      	ldi  	$v2,#75
FFFC5090 53C018E2 		      	bfext	$v2,$v2,#0,#15
FFFC5094 10621B82 		      	add  	$v1,$r14,$v2
	      	bne  	$v0,$v1,malloc_61,#0
FFFC5098 01411071 
                        	;====================================================
                        	; Basic Block 2
                        	;====================================================
                        	; 			if (n->next)
FFFC509C 00080B12 		      	lw   	$v0,8[$r12]
FFFC50A0 00400070 		      	beq  	$v0,$r0,malloc_63
                        	;====================================================
                        	; Basic Block 3
                        	;====================================================
                        	; 				n->next->prev = p;
FFFC50A4 00080B12 		      	lw   	$v0,8[$r12]
FFFC50A8 00105856 		      	sw   	$r11,16[$v0]
                        	malloc_63:
                        	; 			p->next = n->next;
FFFC50AC 00080B12 		      	lw   	$v0,8[$r12]
FFFC50B0 00080AD6 		      	sw   	$v0,8[$r11]
                        	; 			p->size += n->size + sizeof(MBLK);
FFFC50B4 00041310 		      	lh   	$v1,4[$r12]
FFFC50B8 00180884 		      	add  	$v0,$v1,#24
FFFC50BC 000412D0 		      	lh   	$v1,4[$r11]
FFFC50C0 10620882 		      	add  	$v1,$v1,$v0
	      	sh   	$v1,4[$r11]
FFFC50C4 000412D4 
                        	malloc_61:
                        	malloc_59:
                        	; 	q = p->prev;
FFFC50C8 00106AD2 		      	lw   	$r13,16[$r11]
                        	; 	if (q) {
FFFC50CC 02800370 		      	beq  	$r13,$r0,malloc_65
                        	;====================================================
                        	; Basic Block 4
                        	;====================================================
                        	; 		if (q->magic==('M' << 24) + ('B' << 16) + ('L' << 8) + 'K') {
FFFC50D0 00000B50 		      	lh   	$v0,[$r13]
FFFC50D4 004B1809 		      	ldi  	$v2,#75
FFFC50D8 53C018E2 		      	bfext	$v2,$v2,#0,#15
FFFC50DC 10621B82 		      	add  	$v1,$r14,$v2
	      	bne  	$v0,$v1,malloc_67,#0
FFFC50E0 01C11071 
                        	;====================================================
                        	; Basic Block 5
                        	;====================================================
                        	; 			if (q->prev)
FFFC50E4 00100B52 		      	lw   	$v0,16[$r13]
FFFC50E8 00400071 		      	beq  	$v0,$r0,malloc_69
                        	;====================================================
                        	; Basic Block 6
                        	;====================================================
                        	; 				q->prev->next = p->next;
FFFC50EC 00100B52 		      	lw   	$v0,16[$r13]
FFFC50F0 000812D2 		      	lw   	$v1,8[$r11]
FFFC50F4 00081056 		      	sw   	$v1,8[$v0]
                        	malloc_69:
                        	; 			if (p->next)
FFFC50F8 00080AD2 		      	lw   	$v0,8[$r11]
FFFC50FC 00400071 		      	beq  	$v0,$r0,malloc_71
                        	;====================================================
                        	; Basic Block 7
                        	;====================================================
                        	; 				p->next->prev = q->prev;
FFFC5100 00080AD2 		      	lw   	$v0,8[$r11]
FFFC5104 00101352 		      	lw   	$v1,16[$r13]
FFFC5108 00101056 		      	sw   	$v1,16[$v0]
                        	malloc_71:
                        	; 			q->size += p->size + sizeof(MBLK);
FFFC510C 000412D0 		      	lh   	$v1,4[$r11]
FFFC5110 00180884 		      	add  	$v0,$v1,#24
FFFC5114 00041350 		      	lh   	$v1,4[$r13]
FFFC5118 10620882 		      	add  	$v1,$v1,$v0
	      	sh   	$v1,4[$r13]
FFFC511C 00041354 
                        	malloc_67:
                        	malloc_65:
FFFC5120 00005FD2 		      	lw   	$r11,0[$sp]
FFFC5124 000867D2 		      	lw   	$r12,8[$sp]
FFFC5128 00106FD2 		      	lw   	$r13,16[$sp]
FFFC512C 001877D2 		      	lw   	$r14,24[$sp]
FFFC5130 00207FD2 		      	lw   	$r15,32[$sp]
FFFC5134 8B88FF82 		      	mov  	$sp,$fp
FFFC5138 0000F7D2 		      	lw   	$fp,[$sp]
FFFC513C 0020EFE9 		      	ret  	#32
                        	endpublic
                        	
                        	;====================================================
                        	; Basic Block 0
                        	;====================================================
FFFC5140 FFE0FFC4 	public code _InitHeap:
	      	sub  	$sp,$sp,#32
FFFC5144 000807D6 		      	sw   	$r0,8[$sp]
FFFC5148 0000F7D6 		      	sw   	$fp,[$sp]
FFFC514C 8B88F7C2 		      	mov  	$fp,$sp
FFFC5150 0000FFC4 		      	sub  	$sp,$sp,#0
FFFC5154 FFF0FFC4 		      	sub  	$sp,$sp,#16
FFFC5158 00005FD6 		      	sw   	$r11,0[$sp]
FFFC515C 000867D6 		      	sw   	$r12,8[$sp]
FFFC5160 00105F92 		      	lw   	$r11,16[$fp]
FFFC5164 00186792 		      	lw   	$r12,24[$fp]
                        	; 	FirstMBLK = (MBLK *)pHeapStart;
FFFC5168 0008B809 		      	sw   	$r11,_FirstMBLK
FFFC516C FFFDB85A 
FFFC5170 580BB802 
                        	; 	FirstMBLK->magic = ('M' << 24) + ('B' << 16) + ('L' << 8) + 'K';
FFFC5174 0008B809 		      	lw   	$v0,_FirstMBLK
FFFC5178 FFFDB85A 
FFFC517C 4801B802 
FFFC5180 4C001809 		      	ldi  	$v2,#1296190464
FFFC5184 4D42185A 
FFFC5188 004B2009 		      	ldi  	$v3,#75
FFFC518C 53C02122 		      	bfext	$v3,$v3,#0,#15
FFFC5190 106220C2 		      	add  	$v1,$v2,$v3
	      	sh   	$v1,[$v0]
FFFC5194 00001054 
FFFC5198 67C010A2 		      	bfextu	$v1,$v1,#0,#31
                        	; 	FirstMBLK->size = size - sizeof(MBLK) * 2;
FFFC519C 0008B809 		      	lw   	$v0,_FirstMBLK
FFFC51A0 FFFDB85A 
FFFC51A4 4801B802 
FFFC51A8 FFD01304 		      	sub  	$v1,$r12,#48
FFFC51AC 00041054 		      	sh   	$v1,4[$v0]
FFFC51B0 67C010A2 		      	bfextu	$v1,$v1,#0,#31
                        	; 	FirstMBLK->next = null;
FFFC51B4 0008B809 		      	lw   	$v0,_FirstMBLK
FFFC51B8 FFFDB85A 
FFFC51BC 4801B802 
FFFC51C0 00001009 		      	ldi  	$v1,#0
FFFC51C4 00081056 		      	sw   	$v1,8[$v0]
                        	; 	FirstMBLK->prev = null;
FFFC51C8 0008B809 		      	lw   	$v0,_FirstMBLK
FFFC51CC FFFDB85A 
FFFC51D0 4801B802 
FFFC51D4 00001009 		      	ldi  	$v1,#0
FFFC51D8 00101056 		      	sw   	$v1,16[$v0]
FFFC51DC 00005FD2 		      	lw   	$r11,0[$sp]
FFFC51E0 000867D2 		      	lw   	$r12,8[$sp]
FFFC51E4 8B88FF82 		      	mov  	$sp,$fp
FFFC51E8 0000F7D2 		      	lw   	$fp,[$sp]
FFFC51EC 0020EFE9 		      	ret  	#32
                        	endpublic
                        	
                        		code
                        		align	16                        	
                        		code
                        		align	16                        	
                        	;====================================================
                        	; Basic Block 0
                        	;====================================================
                        	_IsNan80:
FFFC51F0 FFE0FFC4 		      	sub  	$sp,$sp,#32
FFFC51F4 000807D6 		      	sw   	$r0,8[$sp]
FFFC51F8 0000F7D6 		      	sw   	$fp,[$sp]
FFFC51FC 8B88F7C2 		      	mov  	$fp,$sp
FFFC5200 FFF0FFC4 		      	sub  	$sp,$sp,#16
FFFC5204 FFF8FFC4 		      	sub  	$sp,$sp,#8
FFFC5208 00005FD6 		      	sw   	$r11,0[$sp]
                        	; 	uf.flt = n;
FFFC520C 000092D6 		      	sw   	$a0,[$r11]
                        	; 	if (uf.w[0]==0 && uf.w[1]==0 && uf.w[2]==0 && uf.w[3]==0)
FFFC5210 00000AE0 		      	lc   	$v0,[$r11]
FFFC5214 01410071 		      	bne  	$v0,$r0,prtflt_12
                        	;====================================================
                        	; Basic Block 1
                        	;====================================================
FFFC5218 00020AE0 		      	lc   	$v0,2[$r11]
FFFC521C 01010071 		      	bne  	$v0,$r0,prtflt_12
                        	;====================================================
                        	; Basic Block 2
                        	;====================================================
FFFC5220 00040AE0 		      	lc   	$v0,4[$r11]
FFFC5224 00C10071 		      	bne  	$v0,$r0,prtflt_12
                        	;====================================================
                        	; Basic Block 3
                        	;====================================================
FFFC5228 00060AE0 		      	lc   	$v0,6[$r11]
FFFC522C 00810071 		      	bne  	$v0,$r0,prtflt_12
                        	;====================================================
                        	; Basic Block 4
                        	;====================================================
                        	; 		return (0);
FFFC5230 00000809 		      	ldi  	$v0,#0
                        	prtflt_14:
FFFC5234 00005FD2 		      	lw   	$r11,0[$sp]
FFFC5238 8B88FF82 		      	mov  	$sp,$fp
FFFC523C 0000F7D2 		      	lw   	$fp,[$sp]
FFFC5240 0020EFE9 		      	ret  	#32
                        	prtflt_12:
                        	;====================================================
                        	; Basic Block 5
                        	;====================================================
                        	; 	if ((uf.w[4] & 0x7fff)==0x7fff)
FFFC5244 000812E0 		      	lc   	$v1,8[$r11]
FFFC5248 7FFF0888 		      	and  	$v0,$v1,#32767
FFFC524C 7FFF1046 		      	cmp  	$v1,$v0,#32767
FFFC5250 004100B0 		      	bne  	$v1,$r0,prtflt_15,#0
                        	;====================================================
                        	; Basic Block 6
                        	;====================================================
                        	; 		return (1);
FFFC5254 00010809 		      	ldi  	$v0,#1
FFFC5258 FEF00030 		      	bra  	prtflt_14
                        	prtflt_15:
                        	;====================================================
                        	; Basic Block 7
                        	;====================================================
                        	; 	return (0);
FFFC525C 00000809 		      	ldi  	$v0,#0
FFFC5260 FEB00030 		      	bra  	prtflt_14
                        	prtflt_9:
                        	;====================================================
                        	; Basic Block 8
                        	;====================================================
FFFC5264 FE700031 		      	bra  	prtflt_14
                        	;====================================================
                        	; Basic Block 0
                        	;====================================================
                        	_IsInf80:
FFFC5268 FFE0FFC4 		      	sub  	$sp,$sp,#32
FFFC526C 000807D6 		      	sw   	$r0,8[$sp]
FFFC5270 0000F7D6 		      	sw   	$fp,[$sp]
FFFC5274 8B88F7C2 		      	mov  	$fp,$sp
FFFC5278 FFF0FFC4 		      	sub  	$sp,$sp,#16
FFFC527C FFF8FFC4 		      	sub  	$sp,$sp,#8
FFFC5280 00005FD6 		      	sw   	$r11,0[$sp]
                        	; 	uf.flt = n;
FFFC5284 000092D6 		      	sw   	$a0,[$r11]
                        	; 	if (uf.w[0]!=0 || uf.w[1]!=0 || uf.w[2]!= 0 || uf.w[3]!=0)
FFFC5288 00000AE0 		      	lc   	$v0,[$r11]
FFFC528C 00C10070 		      	bne  	$v0,$r0,prtflt_32
                        	;====================================================
                        	; Basic Block 1
                        	;====================================================
FFFC5290 00020AE0 		      	lc   	$v0,2[$r11]
FFFC5294 00810070 		      	bne  	$v0,$r0,prtflt_32
                        	;====================================================
                        	; Basic Block 2
                        	;====================================================
FFFC5298 00040AE0 		      	lc   	$v0,4[$r11]
FFFC529C 00410070 		      	bne  	$v0,$r0,prtflt_32
                        	;====================================================
                        	; Basic Block 3
                        	;====================================================
FFFC52A0 00060AE0 		      	lc   	$v0,6[$r11]
FFFC52A4 00800073 		      	beqi 	$v0,#0,prtflt_30
                        	prtflt_32:
                        	;====================================================
                        	; Basic Block 4
                        	;====================================================
                        	; 		return (0);
FFFC52A8 00000809 		      	ldi  	$v0,#0
                        	prtflt_33:
FFFC52AC 00005FD2 		      	lw   	$r11,0[$sp]
FFFC52B0 8B88FF82 		      	mov  	$sp,$fp
FFFC52B4 0000F7D2 		      	lw   	$fp,[$sp]
FFFC52B8 0020EFE9 		      	ret  	#32
                        	prtflt_30:
                        	;====================================================
                        	; Basic Block 5
                        	;====================================================
                        	; 	if ((uf.w[4] & 0x7fff)==0x7fff)
FFFC52BC 000812E0 		      	lc   	$v1,8[$r11]
FFFC52C0 7FFF0888 		      	and  	$v0,$v1,#32767
FFFC52C4 7FFF1046 		      	cmp  	$v1,$v0,#32767
FFFC52C8 004100B0 		      	bne  	$v1,$r0,prtflt_34,#0
                        	;====================================================
                        	; Basic Block 6
                        	;====================================================
                        	; 		return (1);
FFFC52CC 00010809 		      	ldi  	$v0,#1
FFFC52D0 FEF00030 		      	bra  	prtflt_33
                        	prtflt_34:
                        	;====================================================
                        	; Basic Block 7
                        	;====================================================
                        	; 	return (0);
FFFC52D4 00000809 		      	ldi  	$v0,#0
FFFC52D8 FEB00030 		      	bra  	prtflt_33
                        	;====================================================
                        	; Basic Block 0
                        	;====================================================
FFFC52DC FFE0FFC4 	public code _sprtflt:
	      	sub  	$sp,$sp,#32
FFFC52E0 0018EFD6 		      	sw   	$lr,24[$sp]
FFFC52E4 0010E7D6 		      	sw   	$xlr,16[$sp]
FFFC52E8 000807D6 		      	sw   	$r0,8[$sp]
FFFC52EC 0000F7D6 		      	sw   	$fp,[$sp]
FFFC52F0 5774E009 		      	ldi  	$xlr,#prtflt_120
FFFC52F4 FFFCE05A 
FFFC52F8 8B88F7C2 		      	mov  	$fp,$sp
FFFC52FC FF80FFC4 		      	sub  	$sp,$sp,#128
FFFC5300 FFC8FFC4 		      	sub  	$sp,$sp,#56
FFFC5304 00005FD6 		      	sw   	$r11,0[$sp]
FFFC5308 000867D6 		      	sw   	$r12,8[$sp]
FFFC530C 00106FD6 		      	sw   	$r13,16[$sp]
FFFC5310 001877D6 		      	sw   	$r14,24[$sp]
FFFC5314 00207FD6 		      	sw   	$r15,32[$sp]
FFFC5318 002887D6 		      	sw   	$r16,40[$sp]
FFFC531C 00308FD6 		      	sw   	$r17,48[$sp]
FFFC5320 FFF85F92 		      	lw   	$r11,-8[$fp]
FFFC5324 FFF06792 		      	lw   	$r12,-16[$fp]
FFFC5328 FFE06F92 		      	lw   	$r13,-32[$fp]
FFFC532C FFE87792 		      	lw   	$r14,-24[$fp]
FFFC5330 FFA07F92 		      	lw   	$r15,-96[$fp]
FFFC5334 FFD88792 		      	lw   	$r16,-40[$fp]
FFFC5338 FFA88F92 		      	lw   	$r17,-88[$fp]
                        	; 	if (bufsz < 40 || bufsz < width)
FFFC533C 00281CC6 		      	cmp  	$v2,$a1,#40
FFFC5340 000200F1 		      	blt  	$v2,$r0,prtflt_125,#0
                        	;====================================================
                        	; Basic Block 1
                        	;====================================================
FFFC5344 0193ACF0 		      	bge  	$a1,$a3,prtflt_123,#1
                        	prtflt_125:
                        	prtflt_126:
                        	;====================================================
                        	; Basic Block 2
                        	;====================================================
FFFC5348 00005FD2 		      	lw   	$r11,0[$sp]
FFFC534C 000867D2 		      	lw   	$r12,8[$sp]
FFFC5350 00106FD2 		      	lw   	$r13,16[$sp]
FFFC5354 001877D2 		      	lw   	$r14,24[$sp]
FFFC5358 00207FD2 		      	lw   	$r15,32[$sp]
FFFC535C 002887D2 		      	lw   	$r16,40[$sp]
FFFC5360 00308FD2 		      	lw   	$r17,48[$sp]
FFFC5364 8B88FF82 		      	mov  	$sp,$fp
FFFC5368 0000F7D2 		      	lw   	$fp,[$sp]
FFFC536C 0010E7D2 		      	lw   	$xlr,16[$sp]
FFFC5370 0018EFD2 		      	lw   	$lr,24[$sp]
FFFC5374 0028EFE9 		      	ret  	#40
                        	prtflt_123:
                        	;====================================================
                        	; Basic Block 3
                        	;====================================================
                        	;     ndx = 0;
FFFC5378 00005809 		      	ldi  	$r11,#0
                        	; 	if (IsNan80(dbl)) {
FFFC537C 8B889502 		      	mov  	$a0,$a2
FFFC5380 FFC51F19 		      	call 	_IsNan80
FFFC5384 01000070 		      	beq  	$v0,$r0,prtflt_127
                        	;====================================================
                        	; Basic Block 4
                        	;====================================================
                        	; 		buf[0] = 'N';
FFFC5388 004E1809 		      	ldi  	$v2,#78
FFFC538C 00001CA4 		      	sc   	$v2,[$a0]
                        	; 		buf[1] = 'a';
FFFC5390 00611809 		      	ldi  	$v2,#97
FFFC5394 00021CA4 		      	sc   	$v2,2[$a0]
                        	; 		buf[2] = 'N';
FFFC5398 004E1809 		      	ldi  	$v2,#78
FFFC539C 00041CA4 		      	sc   	$v2,4[$a0]
                        	; 		buf[3] = '\0';
FFFC53A0 000604A4 		      	sc   	$r0,6[$a0]
                        	; 		goto prt;
FFFC53A4 1AB00031 		      	bra  	prtflt_36
                        	prtflt_127:
                        	;====================================================
                        	; Basic Block 5
                        	;====================================================
                        	; 	if (IsInf80(dbl)) {
FFFC53A8 8B889502 		      	mov  	$a0,$a2
FFFC53AC FFC52699 		      	call 	_IsInf80
FFFC53B0 01C00071 		      	beq  	$v0,$r0,prtflt_129
                        	;====================================================
                        	; Basic Block 6
                        	;====================================================
                        	; 		buf[0] = dbl < 0.0 ? '-' : '+';
FFFC53B4 002B1809 		      	ldi  	$v2,#43
FFFC53B8 0000B809 		      	lw   	$v3,prtflt_37
FFFC53BC 9558B81A 
FFFC53C0 FFFCB85A 
FFFC53C4 4804B802 
                        		      	fbge.d	$a2,$v3,prtflt_131
FFFC53C8 002D1809 		      	ldi  	$v2,#45
                        	prtflt_131:
FFFC53CC 00001CA4 		      	sc   	$v2,[$a0]
                        	; 		buf[1] = 'I';
FFFC53D0 00491809 		      	ldi  	$v2,#73
FFFC53D4 00021CA4 		      	sc   	$v2,2[$a0]
                        	; 		buf[2] = 'n';
FFFC53D8 006E1809 		      	ldi  	$v2,#110
FFFC53DC 00041CA4 		      	sc   	$v2,4[$a0]
                        	; 		buf[3] = 'f';
FFFC53E0 00661809 		      	ldi  	$v2,#102
FFFC53E4 00061CA4 		      	sc   	$v2,6[$a0]
                        	; 		buf[4] = '\0';
FFFC53E8 000804A4 		      	sc   	$r0,8[$a0]
                        	; 		goto prt;
FFFC53EC 18700031 		      	bra  	prtflt_36
                        	prtflt_129:
                        	;====================================================
                        	; Basic Block 7
                        	;====================================================
                        	;     if (dbl < 0.0) {
FFFC53F0 0000B809 		      	lw   	$v2,prtflt_37
FFFC53F4 9558B81A 
FFFC53F8 FFFCB85A 
FFFC53FC 4803B802 
                        		      	fbge.d	$a2,$v2,prtflt_133
                        	;         dbl = -dbl;
                        		      	fneg.d	$v2,$a2
FFFC5400 8B88A0C2 		      	mov  	$a2,$v2
                        	;         buf[0] = '-';
FFFC5404 002D1809 		      	ldi  	$v2,#45
FFFC5408 00001CA4 		      	sc   	$v2,[$a0]
                        	;         ndx++;
FFFC540C 00015AC4 		      	add  	$r11,$r11,#1
                        	prtflt_133:
                        	;     if (dbl==0.0) {
FFFC5410 0000B809 		      	lw   	$v2,prtflt_37
FFFC5414 9558B81A 
FFFC5418 FFFCB85A 
FFFC541C 4803B802 
                        		      	fbne.d	$a2,$v2,prtflt_135
                        	;         buf[ndx]='0';
FFFC5420 3E011AC2 		      	shl  	$v2,$r11,#1
FFFC5424 00302009 		      	ldi  	$v3,#48
FFFC5428 90041C82 		      	sc   	$v3,[$a0+$v2]
                        	;         ndx++;
FFFC542C 00015AC4 		      	add  	$r11,$r11,#1
                        	;         buf[ndx]='\0';
FFFC5430 90205C82 		      	sc   	$r0,[$a0+$r11*2]
                        	;         goto prt;
FFFC5434 16300031 		      	bra  	prtflt_36
                        	prtflt_135:
                        	;====================================================
                        	; Basic Block 8
                        	;====================================================
                        	;     exp = 0;
FFFC5438 00006009 		      	ldi  	$r12,#0
                        	; 	if (dbl < 1.0) {
FFFC543C 0000B809 		      	lw   	$v2,prtflt_38
FFFC5440 9550B81A 
FFFC5444 FFFCB85A 
FFFC5448 4803B802 
                        		      	fbge.d	$a2,$v2,prtflt_137
                        	prtflt_139:
FFFC544C 0000B809 		      	lw   	$v2,prtflt_38
FFFC5450 9550B81A 
FFFC5454 FFFCB85A 
FFFC5458 4803B802 
                        		      	fbge.d	$a2,$v2,prtflt_140
                        	; 			dbl *= 1000000.0;
FFFC545C 0000B809 		      	lw   	$v2,prtflt_39
FFFC5460 9548B81A 
FFFC5464 FFFCB85A 
FFFC5468 4803B802 
                        		      	fmul 	$a2,$a2,$v2
                        	; 			exp -= 6;
FFFC546C FFFA6304 		      	sub  	$r12,$r12,#6
FFFC5470 FEF00030 		      	bra  	prtflt_139
                        	prtflt_140:
                        	prtflt_137:
                        	;====================================================
                        	; Basic Block 9
                        	;====================================================
                        	; 	dbl2 = 1.0;
FFFC5474 0000B809 		      	lw   	$r15,prtflt_38
FFFC5478 9550B81A 
FFFC547C FFFCB85A 
FFFC5480 480FB802 
                        	; 	dbla = dbl2;
FFFC5484 8B888BC2 		      	mov  	$r17,$r15
                        	; 	if (dbl > dbl2) {	// dbl > 1.0 ?
                        		      	fbge.d	$r15,$a2,prtflt_141
                        	prtflt_143:
                        		      	fblt.d	$a2,$r15,prtflt_144
                        	; 			dbla = dbl2;
FFFC5488 8B888BC2 		      	mov  	$r17,$r15
                        	; 			dbl2 *= 10.0;	// increase power of 10
FFFC548C 0000B809 		      	lw   	$v2,prtflt_40
FFFC5490 9540B81A 
FFFC5494 FFFCB85A 
FFFC5498 4803B802 
                        		      	fmul 	$r15,$r15,$v2
                        	; 			exp++;
FFFC549C 00016304 		      	add  	$r12,$r12,#1
FFFC54A0 FF300031 		      	bra  	prtflt_143
                        	prtflt_144:
                        	;====================================================
                        	; Basic Block 10
                        	;====================================================
                        	; 		dbl2 = dbla;
FFFC54A4 8B887C42 		      	mov  	$r15,$r17
                        	; 		exp--;
FFFC54A8 FFFF6304 		      	sub  	$r12,$r12,#1
                        	prtflt_141:
                        	;     if (exp >= 0 && exp < 6) {
FFFC54AC 00820331 		      	blt  	$r12,$r0,prtflt_145
                        	;====================================================
                        	; Basic Block 11
                        	;====================================================
FFFC54B0 00061B06 		      	cmp  	$v2,$r12,#6
FFFC54B4 005300F1 		      	bge  	$v2,$r0,prtflt_145,#1
                        	;====================================================
                        	; Basic Block 12
                        	;====================================================
                        	;         digits_before_decpt = exp+1;
FFFC54B8 00018304 		      	add  	$r16,$r12,#1
                        	; 		exp = 0;
FFFC54BC 00006009 		      	ldi  	$r12,#0
FFFC54C0 00B00031 		      	bra  	prtflt_146
                        	prtflt_145:
                        	;====================================================
                        	; Basic Block 13
                        	;====================================================
                        	; 	else if (exp >= -6)
FFFC54C4 FFFA1B06 		      	cmp  	$v2,$r12,#-6
FFFC54C8 004200F0 		      	blt  	$v2,$r0,prtflt_147,#0
                        	;====================================================
                        	; Basic Block 14
                        	;====================================================
                        	; 		digits_before_decpt = 1;
FFFC54CC 00018009 		      	ldi  	$r16,#1
FFFC54D0 00300031 		      	bra  	prtflt_148
                        	prtflt_147:
                        	;====================================================
                        	; Basic Block 15
                        	;====================================================
                        	; 		digits_before_decpt = -1;
FFFC54D4 FFFF8009 		      	ldi  	$r16,#-1
                        	prtflt_148:
                        	prtflt_146:
                        	;     if (exp < -6) {
FFFC54D8 FFFA1B06 		      	cmp  	$v2,$r12,#-6
FFFC54DC 010300F0 		      	bge  	$v2,$r0,prtflt_149,#0
                        	;====================================================
                        	; Basic Block 16
                        	;====================================================
                        	; 		buf[ndx] = '0';
FFFC54E0 3E011AC2 		      	shl  	$v2,$r11,#1
FFFC54E4 00302009 		      	ldi  	$v3,#48
FFFC54E8 90041C82 		      	sc   	$v3,[$a0+$v2]
                        	; 		ndx++;
FFFC54EC 00015AC4 		      	add  	$r11,$r11,#1
                        	;         buf[ndx] = '.';
FFFC54F0 3E011AC2 		      	shl  	$v2,$r11,#1
FFFC54F4 002E2009 		      	ldi  	$v3,#46
FFFC54F8 90041C82 		      	sc   	$v3,[$a0+$v2]
                        	;         ndx++;
FFFC54FC 00015AC4 		      	add  	$r11,$r11,#1
                        	prtflt_149:
                        	;     for (nn = 0; nn < 30 && precision > 0; nn++) {
FFFC5500 00006809 		      	ldi  	$r13,#0
                        	prtflt_151:
FFFC5504 001E1B46 		      	cmp  	$v2,$r13,#30
FFFC5508 03B300F1 		      	bge  	$v2,$r0,prtflt_152,#3
                        	;====================================================
                        	; Basic Block 17
                        	;====================================================
FFFC550C 0383B030 		      	bge  	$r0,$a4,prtflt_152
                        	;====================================================
                        	; Basic Block 18
                        	;====================================================
                        	;         digit = 0;
FFFC5510 00007009 		      	ldi  	$r14,#0
                        	; 		dbla = dbl;
FFFC5514 8B888D02 		      	mov  	$r17,$a2
                        	prtflt_154:
                        		      	fblt.d	$a2,$r15,prtflt_155
                        	;             dbl -= dbl2;
                        		      	fsub 	$a2,$a2,$r15
                        	;             digit++;
FFFC5518 00017384 		      	add  	$r14,$r14,#1
FFFC551C FFF00030 		      	bra  	prtflt_154
                        	prtflt_155:
                        	;====================================================
                        	; Basic Block 19
                        	;====================================================
                        	;         buf[ndx] = digit + '0';
FFFC5520 3E011AC2 		      	shl  	$v2,$r11,#1
FFFC5524 00303809 		      	ldi  	$t2,#48
FFFC5528 53C039E2 		      	bfext	$t2,$t2,#0,#15
FFFC552C 10643B82 		      	add  	$v3,$r14,$t2
	      	sc   	$v3,[$a0+$v2]
FFFC5530 90041C82 
                        	; 		if (digit > 2)
FFFC5534 00021B86 		      	cmp  	$v2,$r14,#2
FFFC5538 00031831 		      	bge  	$r0,$v2,prtflt_156,#0
                        	;====================================================
                        	; Basic Block 20
                        	;====================================================
                        	; 			dbl = dbla - dbl2 * digit;
                        		      	itof.d	$t2,$r14
                        		      	fmul.d	$v3,$r15,$t2
                        		      	fsub.d	$v2,$r17,$v3
FFFC553C 8B88A0C2 		      	mov  	$a2,$v2
                        	prtflt_156:
                        	;         ndx++;
FFFC5540 00015AC4 		      	add  	$r11,$r11,#1
                        	;         digits_before_decpt--;
FFFC5544 FFFF8404 		      	sub  	$r16,$r16,#1
                        	;         if (digits_before_decpt==0) {
FFFC5548 00810431 		      	bne  	$r16,$r0,prtflt_158
                        	;====================================================
                        	; Basic Block 21
                        	;====================================================
                        	;            buf[ndx] = '.';
FFFC554C 3E011AC2 		      	shl  	$v2,$r11,#1
FFFC5550 002E2009 		      	ldi  	$v3,#46
FFFC5554 90041C82 		      	sc   	$v3,[$a0+$v2]
                        	;            ndx++;
FFFC5558 00015AC4 		      	add  	$r11,$r11,#1
FFFC555C 00700030 		      	bra  	prtflt_159
                        	prtflt_158:
                        	;====================================================
                        	; Basic Block 22
                        	;====================================================
                        	;         else if (digits_before_decpt < 0)
FFFC5560 00030431 		      	bge  	$r16,$r0,prtflt_160
                        	;====================================================
                        	; Basic Block 23
                        	;====================================================
                        	;             precision--;
FFFC5564 FFFFB584 		      	sub  	$a4,$a4,#1
                        	prtflt_160:
                        	prtflt_159:
                        	;         dbl *= 10.0;
FFFC5568 0000B809 		      	lw   	$v2,prtflt_40
FFFC556C 9540B81A 
FFFC5570 FFFCB85A 
FFFC5574 4803B802 
                        		      	fmul 	$a2,$a2,$v2
FFFC5578 00016B44 		      	add  	$r13,$r13,#1
FFFC557C FC300031 		      	bra  	prtflt_151
                        	prtflt_152:
                        	prtflt_162:
                        	;====================================================
                        	; Basic Block 24
                        	;====================================================
                        	;         ndx--;
FFFC5580 FFFF5AC4 		      	sub  	$r11,$r11,#1
FFFC5584 80235C82 		      	lc   	$v2,[$a0+$r11*2]
FFFC5588 FF8180F3 		      	beqi 	$v2,#48,prtflt_162
                        	;====================================================
                        	; Basic Block 25
                        	;====================================================
                        	;     ndx++;
FFFC558C 00015AC4 		      	add  	$r11,$r11,#1
                        	; 	if (buf[ndx]=='.') {
FFFC5590 80235C82 		      	lc   	$v2,[$a0+$r11*2]
FFFC5594 002E20C6 		      	cmp  	$v3,$v2,#46
FFFC5598 00C10130 		      	bne  	$v3,$r0,prtflt_164,#0
                        	;====================================================
                        	; Basic Block 26
                        	;====================================================
                        	; 		ndx++;
FFFC559C 00015AC4 		      	add  	$r11,$r11,#1
                        	; 		buf[ndx]='0';
FFFC55A0 3E011AC2 		      	shl  	$v2,$r11,#1
FFFC55A4 00302009 		      	ldi  	$v3,#48
FFFC55A8 90041C82 		      	sc   	$v3,[$a0+$v2]
                        	; 		ndx++;
FFFC55AC 00015AC4 		      	add  	$r11,$r11,#1
                        	;         buf[ndx]='\0';
FFFC55B0 90205C82 		      	sc   	$r0,[$a0+$r11*2]
                        	prtflt_164:
                        	;     if (exp==0) {
FFFC55B4 00410330 		      	bne  	$r12,$r0,prtflt_166
                        	;====================================================
                        	; Basic Block 27
                        	;====================================================
                        	;         buf[ndx]='\0';
FFFC55B8 90205C82 		      	sc   	$r0,[$a0+$r11*2]
                        	;         goto prt;
FFFC55BC 09F00031 		      	bra  	prtflt_36
                        	prtflt_166:
                        	;====================================================
                        	; Basic Block 28
                        	;====================================================
                        	;     buf[ndx] = E;
FFFC55C0 3E011AC2 		      	shl  	$v2,$r11,#1
FFFC55C4 001827A0 		      	lc   	$v3,24[$fp]
FFFC55C8 90041C82 		      	sc   	$v3,[$a0+$v2]
                        	;     ndx++;
FFFC55CC 00015AC4 		      	add  	$r11,$r11,#1
                        	;     if (exp < 0) {
FFFC55D0 00C30331 		      	bge  	$r12,$r0,prtflt_168
                        	;====================================================
                        	; Basic Block 29
                        	;====================================================
                        	;         buf[ndx]='-';
FFFC55D4 3E011AC2 		      	shl  	$v2,$r11,#1
FFFC55D8 002D2009 		      	ldi  	$v3,#45
FFFC55DC 90041C82 		      	sc   	$v3,[$a0+$v2]
                        	;         ndx++;
FFFC55E0 00015AC4 		      	add  	$r11,$r11,#1
                        	;         exp = -exp;
FFFC55E4 14036002 		      	neg  	$v2,$r12
FFFC55E8 8B8860C2 		      	mov  	$r12,$v2
FFFC55EC 00B00030 		      	bra  	prtflt_169
                        	prtflt_168:
                        	;====================================================
                        	; Basic Block 30
                        	;====================================================
                        	;          buf[ndx]='+';
FFFC55F0 3E011AC2 		      	shl  	$v2,$r11,#1
FFFC55F4 002B2009 		      	ldi  	$v3,#43
FFFC55F8 90041C82 		      	sc   	$v3,[$a0+$v2]
                        	;          ndx++;
FFFC55FC 00015AC4 		      	add  	$r11,$r11,#1
                        	prtflt_169:
                        	;     digit = 0;
FFFC5600 00007009 		      	ldi  	$r14,#0
                        	prtflt_170:
FFFC5604 03E81B06 		      	cmp  	$v2,$r12,#1000
FFFC5608 006200F1 		      	blt  	$v2,$r0,prtflt_171,#2
                        	;====================================================
                        	; Basic Block 31
                        	;====================================================
                        	;         exp -= 1000;
FFFC560C FC186304 		      	sub  	$r12,$r12,#1000
                        	;         digit++;
FFFC5610 00017384 		      	add  	$r14,$r14,#1
FFFC5614 FF700031 		      	bra  	prtflt_170
                        	prtflt_171:
                        	;====================================================
                        	; Basic Block 32
                        	;====================================================
                        	; 	d1 = digit;
FFFC5618 FFD07796 		      	sw   	$r14,-48[$fp]
                        	; 	if (digit) {
FFFC561C 00C003B0 		      	beq  	$r14,$r0,prtflt_172
                        	;====================================================
                        	; Basic Block 33
                        	;====================================================
                        	; 		buf[ndx] = digit + '0';
FFFC5620 3E011AC2 		      	shl  	$v2,$r11,#1
FFFC5624 00303809 		      	ldi  	$t2,#48
FFFC5628 53C039E2 		      	bfext	$t2,$t2,#0,#15
FFFC562C 10643B82 		      	add  	$v3,$r14,$t2
	      	sc   	$v3,[$a0+$v2]
FFFC5630 90041C82 
                        	; 		ndx++;
FFFC5634 00015AC4 		      	add  	$r11,$r11,#1
                        	prtflt_172:
                        	; 	digit = 0;
FFFC5638 00007009 		      	ldi  	$r14,#0
                        	prtflt_174:
FFFC563C 00641B06 		      	cmp  	$v2,$r12,#100
FFFC5640 006200F1 		      	blt  	$v2,$r0,prtflt_175,#2
                        	;====================================================
                        	; Basic Block 34
                        	;====================================================
                        	;         exp -= 100;
FFFC5644 FF9C6304 		      	sub  	$r12,$r12,#100
                        	;         digit++;
FFFC5648 00017384 		      	add  	$r14,$r14,#1
FFFC564C FF700031 		      	bra  	prtflt_174
                        	prtflt_175:
                        	;====================================================
                        	; Basic Block 35
                        	;====================================================
                        	; 	d2 = digit;
FFFC5650 FFC87796 		      	sw   	$r14,-56[$fp]
                        	; 	if (digit==0 && d1==0)
FFFC5654 004103B1 		      	bne  	$r14,$r0,prtflt_176
                        	;====================================================
                        	; Basic Block 36
                        	;====================================================
FFFC5658 FFD01F92 		      	lw   	$v2,-48[$fp]
FFFC565C 000100F1 		      	bne  	$v2,$r0,prtflt_176
                        	;====================================================
                        	; Basic Block 37
                        	;====================================================
                        	; 		;
FFFC5660 00F00030 		      	bra  	prtflt_177
                        	prtflt_176:
                        	;====================================================
                        	; Basic Block 38
                        	;====================================================
                        	; 		buf[ndx] = digit + '0';
FFFC5664 3E011AC2 		      	shl  	$v2,$r11,#1
FFFC5668 00303809 		      	ldi  	$t2,#48
FFFC566C 53C039E2 		      	bfext	$t2,$t2,#0,#15
FFFC5670 10643B82 		      	add  	$v3,$r14,$t2
	      	sc   	$v3,[$a0+$v2]
FFFC5674 90041C82 
                        	; 		ndx++;
FFFC5678 00015AC4 		      	add  	$r11,$r11,#1
                        	prtflt_177:
                        	; 	digit = 0;
FFFC567C 00007009 		      	ldi  	$r14,#0
                        	prtflt_178:
FFFC5680 000A1B06 		      	cmp  	$v2,$r12,#10
FFFC5684 006200F1 		      	blt  	$v2,$r0,prtflt_179,#2
                        	;====================================================
                        	; Basic Block 39
                        	;====================================================
                        	;         exp -= 10;
FFFC5688 FFF66304 		      	sub  	$r12,$r12,#10
                        	;         digit++;
FFFC568C 00017384 		      	add  	$r14,$r14,#1
FFFC5690 FF700031 		      	bra  	prtflt_178
                        	prtflt_179:
                        	;====================================================
                        	; Basic Block 40
                        	;====================================================
                        	; 	d3 = digit;
FFFC5694 FFC07796 		      	sw   	$r14,-64[$fp]
                        	; 	if (digit==0 && d1==0 && d2==0)
FFFC5698 008103B1 		      	bne  	$r14,$r0,prtflt_180
                        	;====================================================
                        	; Basic Block 41
                        	;====================================================
FFFC569C FFD01F92 		      	lw   	$v2,-48[$fp]
FFFC56A0 004100F1 		      	bne  	$v2,$r0,prtflt_180
                        	;====================================================
                        	; Basic Block 42
                        	;====================================================
FFFC56A4 FFC81F92 		      	lw   	$v2,-56[$fp]
FFFC56A8 000100F1 		      	bne  	$v2,$r0,prtflt_180
                        	;====================================================
                        	; Basic Block 43
                        	;====================================================
                        	; 		;
FFFC56AC 00F00030 		      	bra  	prtflt_181
                        	prtflt_180:
                        	;====================================================
                        	; Basic Block 44
                        	;====================================================
                        	; 		buf[ndx] = digit + '0';
FFFC56B0 3E011AC2 		      	shl  	$v2,$r11,#1
FFFC56B4 00303809 		      	ldi  	$t2,#48
FFFC56B8 53C039E2 		      	bfext	$t2,$t2,#0,#15
FFFC56BC 10643B82 		      	add  	$v3,$r14,$t2
	      	sc   	$v3,[$a0+$v2]
FFFC56C0 90041C82 
                        	; 		ndx++;
FFFC56C4 00015AC4 		      	add  	$r11,$r11,#1
                        	prtflt_181:
                        	; 	digit = 0;
FFFC56C8 00007009 		      	ldi  	$r14,#0
                        	prtflt_182:
FFFC56CC 00011B06 		      	cmp  	$v2,$r12,#1
FFFC56D0 006200F1 		      	blt  	$v2,$r0,prtflt_183,#2
                        	;====================================================
                        	; Basic Block 45
                        	;====================================================
                        	;         exp -= 1;
FFFC56D4 FFFF6304 		      	sub  	$r12,$r12,#1
                        	;         digit++;
FFFC56D8 00017384 		      	add  	$r14,$r14,#1
FFFC56DC FF700031 		      	bra  	prtflt_182
                        	prtflt_183:
                        	;====================================================
                        	; Basic Block 46
                        	;====================================================
                        	;     buf[ndx] = digit + '0';
FFFC56E0 3E011AC2 		      	shl  	$v2,$r11,#1
FFFC56E4 00303809 		      	ldi  	$t2,#48
FFFC56E8 53C039E2 		      	bfext	$t2,$t2,#0,#15
FFFC56EC 10643B82 		      	add  	$v3,$r14,$t2
	      	sc   	$v3,[$a0+$v2]
FFFC56F0 90041C82 
                        	;     ndx++;
FFFC56F4 00015AC4 		      	add  	$r11,$r11,#1
                        	;     buf[ndx] = '\0';
FFFC56F8 90205C82 		      	sc   	$r0,[$a0+$r11*2]
                        	prtflt_36:
                        	;     if (width > 0) {
FFFC56FC 0203A831 		      	bge  	$r0,$a3,prtflt_184
                        	;====================================================
                        	; Basic Block 47
                        	;====================================================
                        	;         if (ndx < width) {
FFFC5700 0203AAF0 		      	bge  	$r11,$a3,prtflt_186,#0
                        	;====================================================
                        	; Basic Block 48
                        	;====================================================
                        	;             for (nn = 39; nn >= width-ndx; nn--)
FFFC5704 00276809 		      	ldi  	$r13,#39
                        	prtflt_188:
FFFC5708 14635D42 		      	sub  	$v2,$a3,$r11
	      	blt  	$r13,$v2,prtflt_189,#2
FFFC570C 00E21B71 
                        	;====================================================
                        	; Basic Block 49
                        	;====================================================
                        	;                 buf[nn] = buf[nn-(width-ndx)];
FFFC5710 3E011B42 		      	shl  	$v2,$r13,#1
FFFC5714 14685D42 		      	sub  	$t3,$a3,$r11
	      	sub  	$t2,$r13,$t3
	      	lc   	$t2,[$a0+$t2*2]
FFFC5718 14674342 
FFFC571C 80273C82 
FFFC5720 90071C82 		      	sc   	$t2,[$a0+$v2]
FFFC5724 FFFF6B44 		      	sub  	$r13,$r13,#1
FFFC5728 FEF00031 		      	bra  	prtflt_188
                        	prtflt_189:
                        	prtflt_191:
                        	;====================================================
                        	; Basic Block 50
                        	;====================================================
FFFC572C 00820371 		      	blt  	$r13,$r0,prtflt_192
                        	;====================================================
                        	; Basic Block 51
                        	;====================================================
                        	;                 buf[nn] = ' ';
FFFC5730 3E011B42 		      	shl  	$v2,$r13,#1
FFFC5734 00202009 		      	ldi  	$v3,#32
FFFC5738 90041C82 		      	sc   	$v3,[$a0+$v2]
FFFC573C FFFF6B44 		      	sub  	$r13,$r13,#1
FFFC5740 FF700030 		      	bra  	prtflt_191
                        	prtflt_192:
                        	prtflt_186:
                        	prtflt_184:
                        	;====================================================
                        	; Basic Block 52
                        	;====================================================
                        	;     if (width < 0) {
FFFC5744 01030571 		      	bge  	$a3,$r0,prtflt_194
                        	;====================================================
                        	; Basic Block 53
                        	;====================================================
                        	;         width = -width;
FFFC5748 1403A802 		      	neg  	$v2,$a3
FFFC574C 8B88A8C2 		      	mov  	$a3,$v2
                        	prtflt_196:
FFFC5750 00A3AAF1 		      	bge  	$r11,$a3,prtflt_197,#2
                        	;====================================================
                        	; Basic Block 54
                        	;====================================================
                        	;             buf[ndx]=' ';
FFFC5754 3E011AC2 		      	shl  	$v2,$r11,#1
FFFC5758 00202009 		      	ldi  	$v3,#32
FFFC575C 90041C82 		      	sc   	$v3,[$a0+$v2]
                        	;             ndx++;
FFFC5760 00015AC4 		      	add  	$r11,$r11,#1
FFFC5764 FF700030 		      	bra  	prtflt_196
                        	prtflt_197:
                        	;====================================================
                        	; Basic Block 55
                        	;====================================================
                        	;         buf[ndx]='\0';
FFFC5768 90205C82 		      	sc   	$r0,[$a0+$r11*2]
                        	prtflt_194:
                        	;     return (ndx);
FFFC576C 8B880AC2 		      	mov  	$v0,$r11
FFFC5770 DEB00031 		      	bra  	prtflt_126
                        	prtflt_120:
                        	;====================================================
                        	; Basic Block 56
                        	;====================================================
FFFC5774 0010EF92 		      	lw   	$lr,16[$fp]
FFFC5778 0018EF96 		      	sw   	$lr,24[$fp]
FFFC577C DE700030 		      	bra  	prtflt_126
                        	endpublic
                        	
                        		code
                        		align	16                        	
                        	;====================================================
                        	; Basic Block 0
                        	;====================================================
FFFC5780 FFE0FFC4 	public code _prtflt:
	      	sub  	$sp,$sp,#32
FFFC5784 0018EFD6 		      	sw   	$lr,24[$sp]
FFFC5788 0010E7D6 		      	sw   	$xlr,16[$sp]
FFFC578C 000807D6 		      	sw   	$r0,8[$sp]
FFFC5790 0000F7D6 		      	sw   	$fp,[$sp]
FFFC5794 5824E009 		      	ldi  	$xlr,#prtflt_206
FFFC5798 FFFCE05A 
FFFC579C 8B88F7C2 		      	mov  	$fp,$sp
FFFC57A0 FF70FFC4 		      	sub  	$sp,$sp,#144
FFFC57A4 FFF0FFC4 		      	sub  	$sp,$sp,#16
FFFC57A8 00005FD6 		      	sw   	$r11,0[$sp]
FFFC57AC 000867D6 		      	sw   	$r12,8[$sp]
FFFC57B0 FF905F92 		      	lw   	$r11,-112[$fp]
FFFC57B4 FF9C1F84 		      	lea  	$v2,-100[$fp]
FFFC57B8 8B8860C2 		      	mov  	$r12,$v2
                        	;     if (width > 49)
FFFC57BC 00311CC6 		      	cmp  	$v2,$a1,#49
FFFC57C0 00031831 		      	bge  	$r0,$v2,prtflt_209,#0
                        	;====================================================
                        	; Basic Block 1
                        	;====================================================
                        	;        width = 49;
FFFC57C4 00319809 		      	ldi  	$a1,#49
                        	prtflt_209:
                        	;     if (width < -49)
FFFC57C8 FFCF1CC6 		      	cmp  	$v2,$a1,#-49
FFFC57CC 000300F1 		      	bge  	$v2,$r0,prtflt_211,#0
                        	;====================================================
                        	; Basic Block 2
                        	;====================================================
                        	;        width = -49;
FFFC57D0 FFCF9809 		      	ldi  	$a1,#-49
                        	prtflt_211:
                        	;     nn = sprtflt(buf, 50, dbl, width, precision, E);
FFFC57D4 FFF8FFC4 		      	sub  	$sp,$sp,#8
FFFC57D8 8B889302 		      	mov  	$a0,$r12
FFFC57DC 00329809 		      	ldi  	$a1,#50
FFFC57E0 8B88A482 		      	mov  	$a2,$a0
FFFC57E4 8B88ACC2 		      	mov  	$a3,$a1
FFFC57E8 8B88B502 		      	mov  	$a4,$a2
FFFC57EC 0000AFD6 		      	sw   	$a3,0[$sp]
FFFC57F0 FFC52DD9 		      	call 	_sprtflt
FFFC57F4 8B885842 		      	mov  	$r11,$v0
                        	;     putstr(buf,49);
FFFC57F8 8B889302 		      	mov  	$a0,$r12
FFFC57FC 00319809 		      	ldi  	$a1,#49
FFFC5800 FFC41499 		      	call 	_putstr
                        	;     return (nn);
FFFC5804 8B880AC2 		      	mov  	$v0,$r11
                        	prtflt_213:
FFFC5808 00005FD2 		      	lw   	$r11,0[$sp]
FFFC580C 000867D2 		      	lw   	$r12,8[$sp]
FFFC5810 8B88FF82 		      	mov  	$sp,$fp
FFFC5814 0000F7D2 		      	lw   	$fp,[$sp]
FFFC5818 0010E7D2 		      	lw   	$xlr,16[$sp]
FFFC581C 0018EFD2 		      	lw   	$lr,24[$sp]
FFFC5820 0020EFE9 		      	ret  	#32
                        	prtflt_206:
                        	;====================================================
                        	; Basic Block 3
                        	;====================================================
FFFC5824 0010EF92 		      	lw   	$lr,16[$fp]
FFFC5828 0018EF96 		      	sw   	$lr,24[$fp]
FFFC582C FEF00030 		      	bra  	prtflt_213
                        	endpublic
                        	
                        		code
                        		align	16                        	
                        	;====================================================
                        	; Basic Block 0
                        	;====================================================
                        	_neval:
FFFC5830 FFE0FFC4 		      	sub  	$sp,$sp,#32
FFFC5834 000807D6 		      	sw   	$r0,8[$sp]
FFFC5838 0000F7D6 		      	sw   	$fp,[$sp]
FFFC583C 8B88F7C2 		      	mov  	$fp,$sp
FFFC5840 FFE8FFC4 		      	sub  	$sp,$sp,#24
FFFC5844 FFF8FFC4 		      	sub  	$sp,$sp,#8
FFFC5848 00005FD6 		      	sw   	$r11,0[$sp]
FFFC584C FFF85F92 		      	lw   	$r11,-8[$fp]
                        	;   p += n;
FFFC5850 3E030D02 		      	shl  	$v0,$a2,#3
FFFC5854 10730CC2 		      	add  	$a1,$a1,$v0
;   y = *p;
FFFC5858 00005CD2 		      	lw   	$r11,[$a1]
                        	;   p--;
FFFC585C FFF89CC4 		      	sub  	$a1,$a1,#8
                        	log10q_69:
                        	;       y = y * x + *p;
                        		      	fmul.d	$v1,$r11,$a0
FFFC5860 00001CD2 		      	lw   	$v2,[$a1]
                        		      	fadd.d	$v0,$v1,$v2
FFFC5864 8B885842 		      	mov  	$r11,$v0
                        	; 	  p--;
FFFC5868 FFF89CC4 		      	sub  	$a1,$a1,#8
FFFC586C FFFFA504 		      	sub  	$a2,$a2,#1
FFFC5870 FF42A031 		      	blt  	$r0,$a2,log10q_69
                        	;====================================================
                        	; Basic Block 1
                        	;====================================================
                        	;   return y;
FFFC5874 8B880AC2 		      	mov  	$v0,$r11
FFFC5878 00005FD2 		      	lw   	$r11,0[$sp]
FFFC587C 8B88FF82 		      	mov  	$sp,$fp
FFFC5880 0000F7D2 		      	lw   	$fp,[$sp]
FFFC5884 0020EFE9 		      	ret  	#32
                        	;====================================================
                        	; Basic Block 0
                        	;====================================================
                        	_deval:
FFFC5888 FFE0FFC4 		      	sub  	$sp,$sp,#32
FFFC588C 000807D6 		      	sw   	$r0,8[$sp]
FFFC5890 0000F7D6 		      	sw   	$fp,[$sp]
FFFC5894 8B88F7C2 		      	mov  	$fp,$sp
FFFC5898 FFE8FFC4 		      	sub  	$sp,$sp,#24
FFFC589C FFF8FFC4 		      	sub  	$sp,$sp,#8
FFFC58A0 00005FD6 		      	sw   	$r11,0[$sp]
FFFC58A4 FFF85F92 		      	lw   	$r11,-8[$fp]
                        	;   p += n;
FFFC58A8 3E030D02 		      	shl  	$v0,$a2,#3
FFFC58AC 10730CC2 		      	add  	$a1,$a1,$v0
;   y = x + *p;
FFFC58B0 000014D2 		      	lw   	$v1,[$a1]
                        		      	fadd.d	$v0,$a0,$v1
FFFC58B4 8B885842 		      	mov  	$r11,$v0
                        	;   p--;
FFFC58B8 FFF89CC4 		      	sub  	$a1,$a1,#8
                        	log10q_82:
                        	;       y = y * x + *p;
                        		      	fmul.d	$v1,$r11,$a0
FFFC58BC 00001CD2 		      	lw   	$v2,[$a1]
                        		      	fadd.d	$v0,$v1,$v2
FFFC58C0 8B885842 		      	mov  	$r11,$v0
                        	; 	  p--;
FFFC58C4 FFF89CC4 		      	sub  	$a1,$a1,#8
FFFC58C8 FFFFA504 		      	sub  	$a2,$a2,#1
FFFC58CC FF42A031 		      	blt  	$r0,$a2,log10q_82
                        	;====================================================
                        	; Basic Block 1
                        	;====================================================
                        	;   return y;
FFFC58D0 8B880AC2 		      	mov  	$v0,$r11
FFFC58D4 00005FD2 		      	lw   	$r11,0[$sp]
FFFC58D8 8B88FF82 		      	mov  	$sp,$fp
FFFC58DC 0000F7D2 		      	lw   	$fp,[$sp]
FFFC58E0 0020EFE9 		      	ret  	#32
                        	;====================================================
                        	; Basic Block 0
                        	;====================================================
FFFC58E4 FFE0FFC4 	public code _log10q:
	      	sub  	$sp,$sp,#32
FFFC58E8 0018EFD6 		      	sw   	$lr,24[$sp]
FFFC58EC 0010E7D6 		      	sw   	$xlr,16[$sp]
FFFC58F0 000807D6 		      	sw   	$r0,8[$sp]
FFFC58F4 0000F7D6 		      	sw   	$fp,[$sp]
FFFC58F8 5B58E009 		      	ldi  	$xlr,#log10q_99
FFFC58FC FFFCE05A 
FFFC5900 8B88F7C2 		      	mov  	$fp,$sp
FFFC5904 FFB8FFC4 		      	sub  	$sp,$sp,#72
FFFC5908 FFC8FFC4 		      	sub  	$sp,$sp,#56
FFFC590C 00005FD6 		      	sw   	$r11,0[$sp]
FFFC5910 000867D6 		      	sw   	$r12,8[$sp]
FFFC5914 00106FD6 		      	sw   	$r13,16[$sp]
FFFC5918 001877D6 		      	sw   	$r14,24[$sp]
FFFC591C 00207FD6 		      	sw   	$r15,32[$sp]
FFFC5920 002887D6 		      	sw   	$r16,40[$sp]
FFFC5924 00308FD6 		      	sw   	$r17,48[$sp]
FFFC5928 FFF85F92 		      	lw   	$r11,-8[$fp]
FFFC592C FFF06792 		      	lw   	$r12,-16[$fp]
FFFC5930 FFE86F92 		      	lw   	$r13,-24[$fp]
FFFC5934 0000B809 		      	lw   	$r15,log10q_53
FFFC5938 9588B81A 
FFFC593C FFFCB85A 
FFFC5940 480FB802 
FFFC5944 00008009 		      	ldi  	$r16,#log10q_54
FFFC5948 CF68801A 
FFFC594C FFFC805A 
FFFC5950 00008809 		      	ldi  	$r17,#log10q_52
FFFC5954 CF60881A 
FFFC5958 FFFC885A 
                        	;   uf.flt = x;
FFFC595C 00009396 		      	sw   	$a0,[$r14]
                        	;   e = uf.w[2] & 0x7fff;
FFFC5960 00102392 		      	lw   	$v3,16[$r14]
FFFC5964 7FFF6908 		      	and  	$r13,$v3,#32767
                        	;   uf.w[2] &= 0x8000FFFF;
FFFC5968 00101B92 		      	lw   	$v2,16[$r14]
FFFC596C FFFFB809 		      	and  	$v2,$v2,#2147549183
FFFC5970 8000B85A 
FFFC5974 2063B8C2 
FFFC5978 00101B96 		      	sw   	$v2,16[$r14]
                        	;   uf.w[2] |= 0x3ffe0000;
FFFC597C 00101B92 		      	lw   	$v2,16[$r14]
FFFC5980 0000B809 		      	or   	$v2,$v2,#1073610752
FFFC5984 3FFEB85A 
FFFC5988 2463B8C2 
FFFC598C 00101B96 		      	sw   	$v2,16[$r14]
                        	;   x = uf.flt;
FFFC5990 00009392 		      	lw   	$a0,[$r14]
                        	;   if ((e > 2) || (e < -2))
FFFC5994 00021B46 		      	cmp  	$v2,$r13,#2
FFFC5998 00421830 		      	blt  	$r0,$v2,log10q_104,#0
                        	;====================================================
                        	; Basic Block 1
                        	;====================================================
FFFC599C FFFE1B46 		      	cmp  	$v2,$r13,#-2
FFFC59A0 04D300F0 		      	bge  	$v2,$r0,log10q_102,#1
                        	log10q_104:
                        	;====================================================
                        	; Basic Block 2
                        	;====================================================
                        	;       if (x < SQRTH)
FFFC59A4 0000B809 		      	lw   	$v2,log10q_57
FFFC59A8 CF70B81A 
FFFC59AC FFFCB85A 
FFFC59B0 4803B802 
                        		      	fbge.d	$a0,$v2,log10q_105
                        	; 	  e -= 1;
FFFC59B4 FFFF6B44 		      	sub  	$r13,$r13,#1
                        	; 	  z = x - 0.5Q;
                        		      	fsub.d	$v2,$a0,$r15
FFFC59B8 8B8858C2 		      	mov  	$r11,$v2
                        	; 	  y = 0.5Q * z + 0.5Q;
                        		      	fmul.d	$v3,$r15,$r11
                        		      	fadd.d	$v2,$v3,$r15
FFFC59BC 8B8860C2 		      	mov  	$r12,$v2
FFFC59C0 00700030 		      	bra  	log10q_106
                        	log10q_105:
                        	;====================================================
                        	; Basic Block 3
                        	;====================================================
                        	; 	  z = x - 0.5Q;
                        		      	fsub.d	$v2,$a0,$r15
FFFC59C4 8B8858C2 		      	mov  	$r11,$v2
                        	; 	  z -= 0.5Q;
                        		      	fsub 	$r11,$r11,$r15
                        	; 	  y = 0.5Q * x + 0.5Q;
                        		      	fmul.d	$v3,$r15,$a0
                        		      	fadd.d	$v2,$v3,$r15
FFFC59C8 8B8860C2 		      	mov  	$r12,$v2
                        	log10q_106:
                        	;       x = z / y;
                        		      	fdiv.d	$v2,$r11,$r12
FFFC59CC 8B8890C2 		      	mov  	$a0,$v2
                        	;       z = x * x;
                        		      	fmul.d	$v2,$a0,$a0
FFFC59D0 8B8858C2 		      	mov  	$r11,$v2
                        	;       y = x * (z * neval (z, R, 5) / deval (z, S, 5));
FFFC59D4 FFB81F96 		      	sw   	$v2,-72[$fp]
FFFC59D8 FFB02796 		      	sw   	$v3,-80[$fp]
FFFC59DC FFA83F96 		      	sw   	$t2,-88[$fp]
FFFC59E0 8B8892C2 		      	mov  	$a0,$r11
FFFC59E4 00009809 		      	ldi  	$a1,#log10q_27
FFFC59E8 CEF0981A 
FFFC59EC FFFC985A 
FFFC59F0 0005A009 		      	ldi  	$a2,#5
FFFC59F4 FFC58319 		      	call 	_neval
FFFC59F8 FFA83F92 		      	lw   	$t2,-88[$fp]
FFFC59FC FFB02792 		      	lw   	$v3,-80[$fp]
FFFC5A00 FFB81F92 		      	lw   	$v2,-72[$fp]
                        		      	fmul.d	$t2,$r11,$v0
FFFC5A04 FFB81F96 		      	sw   	$v2,-72[$fp]
FFFC5A08 FFB02796 		      	sw   	$v3,-80[$fp]
FFFC5A0C FFA83F96 		      	sw   	$t2,-88[$fp]
FFFC5A10 8B8892C2 		      	mov  	$a0,$r11
FFFC5A14 00009809 		      	ldi  	$a1,#log10q_37
FFFC5A18 CF20981A 
FFFC5A1C FFFC985A 
FFFC5A20 0005A009 		      	ldi  	$a2,#5
FFFC5A24 FFC58899 		      	call 	_deval
FFFC5A28 FFA83F92 		      	lw   	$t2,-88[$fp]
FFFC5A2C FFB02792 		      	lw   	$v3,-80[$fp]
FFFC5A30 FFB81F92 		      	lw   	$v2,-72[$fp]
                        		      	fdiv.d	$v3,$t2,$v0
                        		      	fmul.d	$v2,$a0,$v3
FFFC5A34 8B8860C2 		      	mov  	$r12,$v2
                        	;       goto done;
FFFC5A38 05B00031 		      	bra  	log10q_85
                        	log10q_102:
                        	;====================================================
                        	; Basic Block 4
                        	;====================================================
                        	;   if (x < SQRTH)
FFFC5A3C 0000B809 		      	lw   	$v2,log10q_57
FFFC5A40 CF70B81A 
FFFC5A44 FFFCB85A 
FFFC5A48 4803B802 
                        		      	fbge.d	$a0,$v2,log10q_107
                        	;       e -= 1;
FFFC5A4C FFFF6B44 		      	sub  	$r13,$r13,#1
                        	;       x = 2.0 * x - 1.0Q;	/*  2x - 1  */
FFFC5A50 0000B809 		      	lw   	$t2,log10q_86
FFFC5A54 9568B81A 
FFFC5A58 FFFCB85A 
FFFC5A5C 4807B802 
                        		      	fmul.t	$v3,$t2,$a0
FFFC5A60 0000B809 		      	lw   	$t2,log10q_87
FFFC5A64 9560B81A 
FFFC5A68 FFFCB85A 
FFFC5A6C 4807B802 
                        		      	fsub.d	$v2,$v3,$t2
FFFC5A70 8B8890C2 		      	mov  	$a0,$v2
FFFC5A74 00B00031 		      	bra  	log10q_108
                        	log10q_107:
                        	;====================================================
                        	; Basic Block 5
                        	;====================================================
                        	;       x = x - 1.0Q;
FFFC5A78 0000B809 		      	lw   	$v3,log10q_87
FFFC5A7C 9560B81A 
FFFC5A80 FFFCB85A 
FFFC5A84 4804B802 
                        		      	fsub.d	$v2,$a0,$v3
FFFC5A88 8B8890C2 		      	mov  	$a0,$v2
                        	log10q_108:
                        	;   z = x * x;
                        		      	fmul.d	$v2,$a0,$a0
FFFC5A8C 8B8858C2 		      	mov  	$r11,$v2
                        	;   y = x * (z * neval (x, P, 12) / deval (x, Q, 11));
FFFC5A90 FFB81F96 		      	sw   	$v2,-72[$fp]
FFFC5A94 FFB02796 		      	sw   	$v3,-80[$fp]
FFFC5A98 FFA83F96 		      	sw   	$t2,-88[$fp]
FFFC5A9C 00009809 		      	ldi  	$a1,#log10q_0
FFFC5AA0 CE28981A 
FFFC5AA4 FFFC985A 
FFFC5AA8 000CA009 		      	ldi  	$a2,#12
FFFC5AAC FFC58319 		      	call 	_neval
FFFC5AB0 FFA83F92 		      	lw   	$t2,-88[$fp]
FFFC5AB4 FFB02792 		      	lw   	$v3,-80[$fp]
FFFC5AB8 FFB81F92 		      	lw   	$v2,-72[$fp]
                        		      	fmul.d	$t2,$r11,$v0
FFFC5ABC FFB81F96 		      	sw   	$v2,-72[$fp]
FFFC5AC0 FFB02796 		      	sw   	$v3,-80[$fp]
FFFC5AC4 FFA83F96 		      	sw   	$t2,-88[$fp]
FFFC5AC8 00009809 		      	ldi  	$a1,#log10q_14
FFFC5ACC CE90981A 
FFFC5AD0 FFFC985A 
FFFC5AD4 000BA009 		      	ldi  	$a2,#11
FFFC5AD8 FFC58899 		      	call 	_deval
FFFC5ADC FFA83F92 		      	lw   	$t2,-88[$fp]
FFFC5AE0 FFB02792 		      	lw   	$v3,-80[$fp]
FFFC5AE4 FFB81F92 		      	lw   	$v2,-72[$fp]
                        		      	fdiv.d	$v3,$t2,$v0
                        		      	fmul.d	$v2,$a0,$v3
FFFC5AE8 8B8860C2 		      	mov  	$r12,$v2
                        	;   y = y - 0.5 * z;
                        		      	fmul.d	$v3,$r15,$r11
                        		      	fsub.d	$v2,$r12,$v3
FFFC5AEC 8B8860C2 		      	mov  	$r12,$v2
                        	log10q_85:
                        	;   z = y * L10EB;
FFFC5AF0 00002412 		      	lw   	$v3,[$r16]
                        		      	fmul.d	$v2,$r12,$v3
FFFC5AF4 8B8858C2 		      	mov  	$r11,$v2
                        	;   z += x * L10EB;
FFFC5AF8 00002412 		      	lw   	$v3,[$r16]
                        		      	fmul.d	$v2,$a0,$v3
                        		      	fadd 	$r11,$r11,$v2
                        	;   z += e * L102B;
                        		      	itof.d	$v3,$r13
FFFC5AFC 0000B809 		      	lw   	$t2,log10q_49
FFFC5B00 CF58B81A 
FFFC5B04 FFFCB85A 
FFFC5B08 4807B802 
                        		      	fmul.d	$v2,$v3,$t2
                        		      	fadd 	$r11,$r11,$v2
                        	;   z += y * L10EA;
FFFC5B0C 00002452 		      	lw   	$v3,[$r17]
                        		      	fmul.d	$v2,$r12,$v3
                        		      	fadd 	$r11,$r11,$v2
                        	;   z += x * L10EA;
FFFC5B10 00002452 		      	lw   	$v3,[$r17]
                        		      	fmul.d	$v2,$a0,$v3
                        		      	fadd 	$r11,$r11,$v2
                        	;   z += e * L102A;
                        		      	itof.d	$v3,$r13
FFFC5B14 0000B809 		      	lw   	$t2,log10q_47
FFFC5B18 CF50B81A 
FFFC5B1C FFFCB85A 
FFFC5B20 4807B802 
                        		      	fmul.d	$v2,$v3,$t2
                        		      	fadd 	$r11,$r11,$v2
                        	;   return (z);
FFFC5B24 8B880AC2 		      	mov  	$v0,$r11
                        	log10q_109:
FFFC5B28 00005FD2 		      	lw   	$r11,0[$sp]
FFFC5B2C 000867D2 		      	lw   	$r12,8[$sp]
FFFC5B30 00106FD2 		      	lw   	$r13,16[$sp]
FFFC5B34 001877D2 		      	lw   	$r14,24[$sp]
FFFC5B38 00207FD2 		      	lw   	$r15,32[$sp]
FFFC5B3C 002887D2 		      	lw   	$r16,40[$sp]
FFFC5B40 00308FD2 		      	lw   	$r17,48[$sp]
FFFC5B44 8B88FF82 		      	mov  	$sp,$fp
FFFC5B48 0000F7D2 		      	lw   	$fp,[$sp]
FFFC5B4C 0010E7D2 		      	lw   	$xlr,16[$sp]
FFFC5B50 0018EFD2 		      	lw   	$lr,24[$sp]
FFFC5B54 0020EFE9 		      	ret  	#32
                        	log10q_99:
                        	;====================================================
                        	; Basic Block 6
                        	;====================================================
FFFC5B58 0010EF92 		      	lw   	$lr,16[$fp]
FFFC5B5C 0018EF96 		      	sw   	$lr,24[$fp]
FFFC5B60 FE300031 		      	bra  	log10q_109
                        	endpublic
                        	
                        		code
FFFC5B64 00000000 		align	1
FFFC5B68 00000000 
FFFC5B6C 00000000 
                        	
                        	;====================================================
                        	; Basic Block 0
                        	;====================================================
FFFC5B70 FFE0FFC4 	public code _LockSemaphore:
	      	sub  	$sp,$sp,#32
FFFC5B74 000807D6 		      	sw   	$r0,8[$sp]
FFFC5B78 0000F7D6 		      	sw   	$fp,[$sp]
FFFC5B7C 8B88F7C2 		      	mov  	$fp,$sp
FFFC5B80 0000FFC4 		      	sub  	$sp,$sp,#0
                        		      	     	
FFFC5B84 00800809 				ldi		r1,#128
                        				.0001:
FFFC5B88 38C39831 				ble     r19,r0,.0004
FFFC5B8C FFFF9CC4 				sub		r19,r19,#1  
FFFC5B90 4010200E 				csrrw	r4,#$10,r0			// get task register
                        				lwr  	r3,[r18]
FFFC5B94 010020F0 				beq     r3,r4,.0002			// test if already locked by this task
FFFC5B98 388100F0 				bne     r3,r0,.0001         // branch if not free
                        				//chk     r3,r0,#256         ; check if locked by a valid task
                        				.0003:
FFFC5B9C 0600B809 				sc		r1,$FFDC0600
FFFC5BA0 FFDCB85A 
FFFC5BA4 9001B802 
FFFC5BA8 0080084A 				xor		r1,r1,#$80
                        				swc     r4,[r18]            // try and lock it
FFFC5BAC 04120002 				sync                        // cr0 needs time to update???
FFFC5BB0 000C180E 				csrrd   r3,#$00C,r0			// status is bit 0 of csr $00C
FFFC5BB4 378200E7 				bbc     r3,#0,.0001         // lock failed, go try again
                        				.0002:
FFFC5BB8 00010809 				ld      r1,#1
FFFC5BBC 00300031 				bra     .0005
                        				.0004:
FFFC5BC0 00000809 				ld		r1,#0
                        				.0005:
FFFC5BC4 8B88FF82 		      	mov  	$sp,$fp
FFFC5BC8 0000F7D2 		      	lw   	$fp,[$sp]
FFFC5BCC 0020EFE9 		      	ret  	#32
                        	endpublic
                        	
                        		code
                        		align	16                        	
                        	;====================================================
                        	; Basic Block 0
                        	;====================================================
FFFC5BD0 FFE0FFC4 	public code _UnlockSemaphore:
	      	sub  	$sp,$sp,#32
FFFC5BD4 000807D6 		      	sw   	$r0,8[$sp]
FFFC5BD8 0000F7D6 		      	sw   	$fp,[$sp]
FFFC5BDC 8B88F7C2 		      	mov  	$fp,$sp
FFFC5BE0 0000FFC4 		      	sub  	$sp,$sp,#0
                        		      	     	
                        				std		r0,[r18]
FFFC5BE4 8B88FF82 		      	mov  	$sp,$fp
FFFC5BE8 0000F7D2 		      	lw   	$fp,[$sp]
FFFC5BEC 0020EFE9 		      	ret  	#32
                        	endpublic
                        	
                        		code
                        		align	16                        	
                        	;====================================================
                        	; Basic Block 0
                        	;====================================================
FFFC5BF0 FFE0FFC4 	public code _TestFunc:
	      	sub  	$sp,$sp,#32
FFFC5BF4 000807D6 		      	sw   	$r0,8[$sp]
FFFC5BF8 0000F7D6 		      	sw   	$fp,[$sp]
FFFC5BFC 8B88F7C2 		      	mov  	$fp,$sp
FFFC5C00 FFF0FFC4 		      	sub  	$sp,$sp,#16
FFFC5C04 FFF0FFC4 		      	sub  	$sp,$sp,#16
FFFC5C08 00005FD6 		      	sw   	$r11,0[$sp]
FFFC5C0C 000867D6 		      	sw   	$r12,8[$sp]
FFFC5C10 FFF80F92 		      	lw   	$v0,-8[$fp]
FFFC5C14 57C00862 		      	bfext	$v0,$v0,#0,#31
FFFC5C18 8B885842 		      	mov  	$r11,$v0
                        	; 	a = *ptr;
FFFC5C1C 000062D2 		      	lw   	$r12,[$r11]
                        	; 	ptr++;
FFFC5C20 00015AC4 		      	add  	$r11,$r11,#1
                        	; 	a = *ptr;
FFFC5C24 000062D2 		      	lw   	$r12,[$r11]
FFFC5C28 00005FD2 		      	lw   	$r11,0[$sp]
FFFC5C2C 000867D2 		      	lw   	$r12,8[$sp]
FFFC5C30 8B88FF82 		      	mov  	$sp,$fp
FFFC5C34 0000F7D2 		      	lw   	$fp,[$sp]
FFFC5C38 0020EFE9 		      	ret  	#32
                        	endpublic
                        	
                        	;====================================================
                        	; Basic Block 0
                        	;====================================================
FFFC5C3C FFE0FFC4 	public code _DBGClearScreen:
	      	sub  	$sp,$sp,#32
FFFC5C40 0018EFD6 		      	sw   	$lr,24[$sp]
FFFC5C44 0010E7D6 		      	sw   	$xlr,16[$sp]
FFFC5C48 000807D6 		      	sw   	$r0,8[$sp]
FFFC5C4C 0000F7D6 		      	sw   	$fp,[$sp]
FFFC5C50 5CD8E009 		      	ldi  	$xlr,#console_12
FFFC5C54 FFFCE05A 
FFFC5C58 8B88F7C2 		      	mov  	$fp,$sp
FFFC5C5C FFE0FFC4 		      	sub  	$sp,$sp,#32
FFFC5C60 FFF0FFC4 		      	sub  	$sp,$sp,#16
FFFC5C64 00005FD6 		      	sw   	$r11,0[$sp]
FFFC5C68 000867D6 		      	sw   	$r12,8[$sp]
FFFC5C6C FFF45F90 		      	lh   	$r11,-12[$fp]
FFFC5C70 FFF86792 		      	lw   	$r12,-8[$fp]
                        	; 	asm {
                        		      	     	
FFFC5C74 00260809 				ldi	r1,#$26
FFFC5C78 0600B809 				sb	r1,LEDS
FFFC5C7C FFDCB85A 
FFFC5C80 5401B802 
                        	;      p = (__int32 *)0xFFD00000;
FFFC5C84 00006009 		      	ldi  	$r12,#4291821568
FFFC5C88 FFD0605A 
                        	;      vc = AsciiToScreen(' ') | 0x87fc00;
FFFC5C8C FFE01F96 		      	sw   	$v2,-32[$fp]
FFFC5C90 FFF8FFC4 		      	sub  	$sp,$sp,#8
FFFC5C94 00202009 		      	ldi  	$v3,#32
FFFC5C98 000027D6 		      	sw   	$v3,0[$sp]
FFFC5C9C 0000E818 		      	call 	_AsciiToScreen
FFFC5CA0 0008FFC4 		      	add  	$sp,$sp,#8
FFFC5CA4 FFE01F92 		      	lw   	$v2,-32[$fp]
FFFC5CA8 FC00B809 		      	or   	$r11,$v0,#8911872
FFFC5CAC 0087B85A 
FFFC5CB0 246BB842 
                        	;      memsetH(p, (int)vc, 20); //2604);
FFFC5CB4 8B889302 		      	mov  	$a0,$r12
FFFC5CB8 8B889AC2 		      	mov  	$a1,$r11
FFFC5CBC 0014A009 		      	ldi  	$a2,#20
FFFC5CC0 FFC4B599 		      	call 	_memsetH
                        	; 	asm {
                        		      	     	
FFFC5CC4 00270809 				ldi	r1,#$27
FFFC5CC8 0600B809 				sb	r1,LEDS
FFFC5CCC FFDCB85A 
FFFC5CD0 5401B802 
                        	; 	}
FFFC5CD4 00700030 		      	bra  	console_14
                        	console_12:
                        	;====================================================
                        	; Basic Block 1
                        	;====================================================
FFFC5CD8 0010EF92 		      	lw   	$lr,16[$fp]
FFFC5CDC 0018EF96 		      	sw   	$lr,24[$fp]
                        	console_14:
FFFC5CE0 00005FD2 		      	lw   	$r11,0[$sp]
FFFC5CE4 000867D2 		      	lw   	$r12,8[$sp]
FFFC5CE8 8B88FF82 		      	mov  	$sp,$fp
FFFC5CEC 0000F7D2 		      	lw   	$fp,[$sp]
FFFC5CF0 0010E7D2 		      	lw   	$xlr,16[$sp]
FFFC5CF4 0018EFD2 		      	lw   	$lr,24[$sp]
FFFC5CF8 0020EFE9 		      	ret  	#32
                        	endpublic
                        	
                        		code
FFFC5CFC 00000000 		align	1
                        	
                        	;====================================================
                        	; Basic Block 0
                        	;====================================================
FFFC5D00 FFE0FFC4 	public code _set_vector:
	      	sub  	$sp,$sp,#32
FFFC5D04 000807D6 		      	sw   	$r0,8[$sp]
FFFC5D08 0000F7D6 		      	sw   	$fp,[$sp]
FFFC5D0C 8B88F7C2 		      	mov  	$fp,$sp
FFFC5D10 FFF8FFC4 		      	sub  	$sp,$sp,#8
FFFC5D14 01FF0C87 		      	cmpu 	$v0,$a0,#511
FFFC5D18 00430831 		      	bge  	$r0,$v0,PIC_11,#0
                        	PIC_13:
                        	;====================================================
                        	; Basic Block 1
                        	;====================================================
FFFC5D1C 8B88FF82 		      	mov  	$sp,$fp
FFFC5D20 0000F7D2 		      	lw   	$fp,[$sp]
FFFC5D24 0020EFE9 		      	ret  	#32
                        	PIC_11:
                        	;====================================================
                        	; Basic Block 2
                        	;====================================================
FFFC5D28 000104F1 		      	bne  	$a1,$r0,PIC_14
                        	;====================================================
                        	; Basic Block 3
                        	;====================================================
FFFC5D2C FF700031 		      	bra  	PIC_13
                        	PIC_14:
                        	;====================================================
                        	; Basic Block 4
                        	;====================================================
FFFC5D30 00009C96 		      	sw   	$a1,_interrupt_table[$a0]
                        	PIC_8:
FFFC5D34 FF300031 		      	bra  	PIC_13
                        	endpublic
                        	
                        	;====================================================
                        	; Basic Block 0
                        	;====================================================
FFFC5D38 FFE0FFC4 	public code _InitPIC:
	      	sub  	$sp,$sp,#32
FFFC5D3C 0018EFD6 		      	sw   	$lr,24[$sp]
FFFC5D40 0010E7D6 		      	sw   	$xlr,16[$sp]
FFFC5D44 000807D6 		      	sw   	$r0,8[$sp]
FFFC5D48 0000F7D6 		      	sw   	$fp,[$sp]
FFFC5D4C 5DD8E009 		      	ldi  	$xlr,#PIC_45
FFFC5D50 FFFCE05A 
FFFC5D54 8B88F7C2 		      	mov  	$fp,$sp
FFFC5D58 FFF0FFC4 		      	sub  	$sp,$sp,#16
FFFC5D5C FFF0FFC4 		      	sub  	$sp,$sp,#16
FFFC5D60 00005FD6 		      	sw   	$r11,0[$sp]
FFFC5D64 000867D6 		      	sw   	$r12,8[$sp]
FFFC5D68 FFF85F92 		      	lw   	$r11,-8[$fp]
FFFC5D6C 0F046009 		      	ldi  	$r12,#4292611844
FFFC5D70 FFDC605A 
FFFC5D74 00005809 		      	ldi  	$r11,#0
                        	PIC_48:
FFFC5D78 00201AC6 		      	cmp  	$v2,$r11,#32
FFFC5D7C 00E300F1 		      	bge  	$v2,$r0,PIC_49,#2
                        	;====================================================
                        	; Basic Block 1
                        	;====================================================
FFFC5D80 0F802009 		      	ldi  	$v3,#4292611968
FFFC5D84 FFDC205A 
FFFC5D88 3E823AC2 		      	asl  	$t2,$r11,#2
FFFC5D8C 10723902 		      	add  	$a0,$v3,$t2
	      	ldi  	$a1,#4
FFFC5D90 00049809 
                        		      	     	
                        				stt   r19,[r18]
FFFC5D94 00015AC4 		      	add  	$r11,$r11,#1
FFFC5D98 FEF00031 		      	bra  	PIC_48
                        	PIC_49:
                        	;====================================================
                        	; Basic Block 2
                        	;====================================================
FFFC5D9C 0F109009 		      	ldi  	$a0,#4292611856
FFFC5DA0 FFDC905A 
FFFC5DA4 000C9809 		      	ldi  	$a1,#1073741836
FFFC5DA8 4000985A 
                        		      	     	
                        				stt   r19,[r18]
                        		      	     	
FFFC5DAC 4001080E 				csrrw	r1,#1,r0
FFFC5DB0 00011846 		      	cmp  	$v2,$v0,#1
FFFC5DB4 008100F0 		      	bne  	$v2,$r0,PIC_59,#0
                        	;====================================================
                        	; Basic Block 3
                        	;====================================================
FFFC5DB8 8B889302 		      	mov  	$a0,$r12
FFFC5DBC 00009809 		      	ldi  	$a1,#3221225472
FFFC5DC0 C000985A 
                        		      	     	
                        				stt   r19,[r18]
FFFC5DC4 00700031 		      	bra  	PIC_60
                        	PIC_59:
                        	;====================================================
                        	; Basic Block 4
                        	;====================================================
FFFC5DC8 8B889302 		      	mov  	$a0,$r12
FFFC5DCC 000B9809 		      	ldi  	$a1,#1073741835
FFFC5DD0 4000985A 
                        		      	     	
                        				stt   r19,[r18]
                        	PIC_60:
FFFC5DD4 00700030 		      	bra  	PIC_47
                        	PIC_45:
                        	;====================================================
                        	; Basic Block 5
                        	;====================================================
FFFC5DD8 0010EF92 		      	lw   	$lr,16[$fp]
FFFC5DDC 0018EF96 		      	sw   	$lr,24[$fp]
                        	PIC_47:
FFFC5DE0 00005FD2 		      	lw   	$r11,0[$sp]
FFFC5DE4 000867D2 		      	lw   	$r12,8[$sp]
FFFC5DE8 8B88FF82 		      	mov  	$sp,$fp
FFFC5DEC 0000F7D2 		      	lw   	$fp,[$sp]
FFFC5DF0 0010E7D2 		      	lw   	$xlr,16[$sp]
FFFC5DF4 0018EFD2 		      	lw   	$lr,24[$sp]
FFFC5DF8 0020EFE9 		      	ret  	#32
                        	endpublic
                        	
                        		code
FFFC5DFC 00000000 		align	1
                        	
                        		code
                        		align	16                        	
                        	;====================================================
                        	; Basic Block 0
                        	;====================================================
                        	public code _FMTK_FuncTbl:
;       asm {
                        		      	     	
FFFC5E00 000002C7 				dw  _FMTKInitialize
FFFC5E04 80000000 
FFFC5E08 FFFC6C30 				dw  _FMTK_StartThread
FFFC5E0C 00000000 
FFFC5E10 FFFC6BBC 				dw  _FMTK_ExitThread
FFFC5E14 00000000 
FFFC5E18 FFFC69A0 				dw  _FMTK_KillThread
FFFC5E1C 00000000 
FFFC5E20 FFFC6F78 				dw  _FMTK_SetThreadPriority
FFFC5E24 00000000 
FFFC5E28 FFFC6ECC 				dw  _FMTK_Sleep
FFFC5E2C 00000000 
FFFC5E30 FFFC764C 				dw  _FMTK_AllocMbx
FFFC5E34 00000000 
FFFC5E38 FFFC77E8 				dw  _FMTK_FreeMbx
FFFC5E3C 00000000 
FFFC5E40 000002CE 				dw  _FMTK_PostMsg
FFFC5E44 80000000 
FFFC5E48 000002CF 				dw  _FMTK_SendMsg
FFFC5E4C 80000000 
FFFC5E50 00000000 				dw  _FMTK_WaitMsg
FFFC5E54 00000000 
FFFC5E58 000002D1 				dw  _FMTK_CheckMsg
FFFC5E5C 80000000 
                        	endpublic
                        	
                        	;====================================================
                        	; Basic Block 0
                        	;====================================================
                        	public code _DisplayIRQLive:
;      asm {
                        		      	     	
FFFC5E60 00DCB809 				lhu      r1,$FFD00000+220
FFFC5E64 FFD0B85A 
FFFC5E68 4401B802 
FFFC5E6C 00010844 				addi     r1,r1,#1
FFFC5E70 00DCB809 				sh       r1,$FFD00000+220
FFFC5E74 FFD0B85A 
FFFC5E78 5001B802 
FFFC5E7C 0000EFE9 				ret
endpublic
                        	
                        	;====================================================
                        	; Basic Block 0
                        	;====================================================
FFFC5E80 FFE0FFC4 	public code _SafeGetACBPtr:
	      	sub  	$sp,$sp,#32
FFFC5E84 000807D6 		      	sw   	$r0,8[$sp]
FFFC5E88 0000F7D6 		      	sw   	$fp,[$sp]
FFFC5E8C 8B88F7C2 		      	mov  	$fp,$sp
FFFC5E90 0000FFC4 		      	sub  	$sp,$sp,#0
                        	; 	if (n < 0 || n >= 64)
FFFC5E94 004204B0 		      	blt  	$a0,$r0,FMTKc_28
                        	;====================================================
                        	; Basic Block 1
                        	;====================================================
FFFC5E98 00400C86 		      	cmp  	$v0,$a0,#64
FFFC5E9C 00520071 		      	blt  	$v0,$r0,FMTKc_26,#1
                        	FMTKc_28:
                        	FMTKc_29:
                        	;====================================================
                        	; Basic Block 2
                        	;====================================================
FFFC5EA0 8B88FF82 		      	mov  	$sp,$fp
FFFC5EA4 0000F7D2 		      	lw   	$fp,[$sp]
FFFC5EA8 0020EFE9 		      	ret  	#32
                        	FMTKc_26:
                        	;====================================================
                        	; Basic Block 3
                        	;====================================================
                        	;     return (ACBPtrs[n]);
FFFC5EAC 0000B809 		      	lw   	$v0,_ACBPtrs[$a0]
FFFC5EB0 D000B81A 
FFFC5EB4 1FFDB85A 
FFFC5EB8 4801BC82 
FFFC5EBC FF300030 		      	bra  	FMTKc_29
                        	endpublic
                        	
                        	;====================================================
                        	; Basic Block 0
                        	;====================================================
FFFC5EC0 FFE0FFC4 	public code _GetACBPtr:
	      	sub  	$sp,$sp,#32
FFFC5EC4 000807D6 		      	sw   	$r0,8[$sp]
FFFC5EC8 0000F7D6 		      	sw   	$fp,[$sp]
FFFC5ECC 8B88F7C2 		      	mov  	$fp,$sp
FFFC5ED0 0000FFC4 		      	sub  	$sp,$sp,#0
FFFC5ED4 0000B809 		      	lw   	$v0,_ACBPtrs[$a0]
FFFC5ED8 D000B81A 
FFFC5EDC 1FFDB85A 
FFFC5EE0 4801BC82 
FFFC5EE4 8B88FF82 		      	mov  	$sp,$fp
FFFC5EE8 0000F7D2 		      	lw   	$fp,[$sp]
FFFC5EEC 0020EFE9 		      	ret  	#32
                        	endpublic
                        	
                        	;====================================================
                        	; Basic Block 0
                        	;====================================================
                        	public code _LockSysSemaphore:
; 	__asm {
                        		      	     	
FFFC5EF0 8B881482 				mov		r2,r18
                        				.loop:
FFFC5EF4 00040809 				ldi		r1,#4
FFFC5EF8 800C084E 				csrrs	r1,#12,r1
FFFC5EFC 60820862 				bfextu	r1,r1,#2,#2	// extract the previous lock status
FFFC5F00 0001084A 				xor		r1,r1,#1	// return true if semaphore wasn't locked
FFFC5F04 00010071 				bne		r1,r0,.xit
FFFC5F08 FF7E00A6 				dbnz	r2,.loop
                        				// r1 = 0
                        				.xit:
FFFC5F0C 0000EFE9 				ret
endpublic
                        	
                        	;====================================================
                        	; Basic Block 0
                        	;====================================================
                        	public code _LockIOFSemaphore:
; 	__asm {
                        		      	     	
FFFC5F10 00080809 				ldi		r1,#8
FFFC5F14 800C084E 				csrrs	r1,#12,r1
FFFC5F18 60C30862 				bfextu	r1,r1,3,3
FFFC5F1C 0001084A 				xor		r1,r1,#1
FFFC5F20 0000EFE9 				ret
endpublic
                        	
                        	;====================================================
                        	; Basic Block 0
                        	;====================================================
                        	public code _LockKbdSemaphore:
; 	__asm {
                        		      	     	
FFFC5F24 00100809 				ldi		r1,#16
FFFC5F28 800C084E 				csrrs	r1,#12,r1
FFFC5F2C 61040862 				bfextu	r1,r1,4,4
FFFC5F30 0001084A 				xor		r1,r1,#1
FFFC5F34 0000EFE9 				ret
endpublic
                        	
                        	;====================================================
                        	; Basic Block 0
                        	;====================================================
                        	public code _FMTK_IRQDispatch:
; 	asm {
                        		      	     	
FFFC5F38 FFC5F3E8 				jmp		_FMTK_IRQDispatch2
                        	endpublic
                        	
                        	;====================================================
                        	; Basic Block 0
                        	;====================================================
                        	public code _FMTK_IRQDispatch2:
; 	asm {
                        		      	     	
FFFC5F3C 0006080E 				csrrd	r1,#6,r0	// get the cause code
FFFC5F40 3E030842 				shl		r1,r1,#3
FFFC5F44 02D9B809 				lw		r1,interrupt_table[r1]
FFFC5F48 0000B85A 
FFFC5F4C 0000B89A 
FFFC5F50 8000B8DA 
FFFC5F54 4801B842 
FFFC5F58 00000018 				jmp		[r1]
                        	endpublic
                        	
                        	;====================================================
                        	; Basic Block 0
                        	;====================================================
                        	public code _SwapContext:
; 	octx->regs[1] = GetRegx1();
FFFC5F5C 0000E818 		      	call 	_GetRegx1
FFFC5F60 00080C96 		      	sw   	$v0,8[$a0]
                        	; 	octx->regs[2] = GetRegx2();
FFFC5F64 0000E818 		      	call 	_GetRegx2
FFFC5F68 00100C96 		      	sw   	$v0,16[$a0]
                        	; 	octx->regs[3] = GetRegx3();
FFFC5F6C 0000E818 		      	call 	_GetRegx3
FFFC5F70 00180C96 		      	sw   	$v0,24[$a0]
                        	; 	octx->regs[4] = GetRegx4();
FFFC5F74 0000E818 		      	call 	_GetRegx4
FFFC5F78 00200C96 		      	sw   	$v0,32[$a0]
                        	; 	octx->regs[5] = GetRegx5();
FFFC5F7C 0000E818 		      	call 	_GetRegx5
FFFC5F80 00280C96 		      	sw   	$v0,40[$a0]
                        	; 	octx->regs[6] = GetRegx6();
FFFC5F84 0000E818 		      	call 	_GetRegx6
FFFC5F88 00300C96 		      	sw   	$v0,48[$a0]
                        	; 	octx->regs[7] = GetRegx7();
FFFC5F8C 0000E818 		      	call 	_GetRegx7
FFFC5F90 00380C96 		      	sw   	$v0,56[$a0]
                        	; 	octx->regs[8] = GetRegx8();
FFFC5F94 0000E818 		      	call 	_GetRegx8
FFFC5F98 00400C96 		      	sw   	$v0,64[$a0]
                        	; 	octx->regs[9] = GetRegx9();
FFFC5F9C 0000E818 		      	call 	_GetRegx9
FFFC5FA0 00480C96 		      	sw   	$v0,72[$a0]
                        	; 	octx->regs[10] = GetRegx10();
FFFC5FA4 0000E818 		      	call 	_GetRegx10
FFFC5FA8 00500C96 		      	sw   	$v0,80[$a0]
                        	; 	octx->regs[11] = GetRegx11();
FFFC5FAC 0000E818 		      	call 	_GetRegx11
FFFC5FB0 00580C96 		      	sw   	$v0,88[$a0]
                        	; 	octx->regs[12] = GetRegx12();
FFFC5FB4 0000E818 		      	call 	_GetRegx12
FFFC5FB8 00600C96 		      	sw   	$v0,96[$a0]
                        	; 	octx->regs[13] = GetRegx13();
FFFC5FBC 0000E818 		      	call 	_GetRegx13
FFFC5FC0 00680C96 		      	sw   	$v0,104[$a0]
                        	; 	octx->regs[14] = GetRegx14();
FFFC5FC4 0000E818 		      	call 	_GetRegx14
FFFC5FC8 00700C96 		      	sw   	$v0,112[$a0]
                        	; 	octx->regs[15] = GetRegx15();
FFFC5FCC 0000E818 		      	call 	_GetRegx15
FFFC5FD0 00780C96 		      	sw   	$v0,120[$a0]
                        	; 	octx->regs[16] = GetRegx16();
FFFC5FD4 0000E818 		      	call 	_GetRegx16
FFFC5FD8 00800C96 		      	sw   	$v0,128[$a0]
                        	; 	octx->regs[17] = GetRegx17();
FFFC5FDC 0000E818 		      	call 	_GetRegx17
FFFC5FE0 00880C96 		      	sw   	$v0,136[$a0]
                        	; 	octx->regs[18] = GetRegx18();
FFFC5FE4 0000E818 		      	call 	_GetRegx18
FFFC5FE8 00900C96 		      	sw   	$v0,144[$a0]
                        	; 	octx->regs[19] = GetRegx19();
FFFC5FEC 0000E818 		      	call 	_GetRegx19
FFFC5FF0 00980C96 		      	sw   	$v0,152[$a0]
                        	; 	octx->regs[20] = GetRegx20();
FFFC5FF4 0000E818 		      	call 	_GetRegx20
FFFC5FF8 00A00C96 		      	sw   	$v0,160[$a0]
                        	; 	octx->regs[21] = GetRegx21();
FFFC5FFC 0000E818 		      	call 	_GetRegx21
FFFC6000 00A80C96 		      	sw   	$v0,168[$a0]
                        	; 	octx->regs[22] = GetRegx22();
FFFC6004 0000E818 		      	call 	_GetRegx22
FFFC6008 00B00C96 		      	sw   	$v0,176[$a0]
                        	; 	octx->regs[23] = GetRegx23();
FFFC600C 0000E818 		      	call 	_GetRegx23
FFFC6010 00B80C96 		      	sw   	$v0,184[$a0]
                        	; 	octx->regs[24] = GetRegx24();
FFFC6014 0000E818 		      	call 	_GetRegx24
FFFC6018 00C00C96 		      	sw   	$v0,192[$a0]
                        	; 	octx->regs[25] = GetRegx25();
FFFC601C 0000E818 		      	call 	_GetRegx25
FFFC6020 00C80C96 		      	sw   	$v0,200[$a0]
                        	; 	octx->regs[26] = GetRegx26();
FFFC6024 0000E818 		      	call 	_GetRegx26
FFFC6028 00D00C96 		      	sw   	$v0,208[$a0]
                        	; 	octx->regs[27] = GetRegx27();
FFFC602C 0000E818 		      	call 	_GetRegx27
FFFC6030 00D80C96 		      	sw   	$v0,216[$a0]
                        	; 	octx->regs[28] = GetRegx28();
FFFC6034 0000E818 		      	call 	_GetRegx28
FFFC6038 00E00C96 		      	sw   	$v0,224[$a0]
                        	; 	octx->regs[29] = GetRegx29();
FFFC603C 0000E818 		      	call 	_GetRegx29
FFFC6040 00E80C96 		      	sw   	$v0,232[$a0]
                        	; 	octx->regs[30] = GetRegx30();
FFFC6044 0000E818 		      	call 	_GetRegx30
FFFC6048 00F00C96 		      	sw   	$v0,240[$a0]
                        	; 	octx->regs[31] = GetRegx31();
FFFC604C 0000E818 		      	call 	_GetRegx31
FFFC6050 00F80C96 		      	sw   	$v0,248[$a0]
                        	; 	octx->epc = SetEpc(nctx->epc);
FFFC6054 020094D2 		      	lw   	$a0,512[$a1]
                        	; 	__asm {
                        		      	     	
FFFC6058 40480C8E 				csrrw	r1,#$48,r18
                        	; 	}
FFFC605C 02000C96 		      	sw   	$v0,512[$a0]
                        	; 	SetRegx1(nctx->regs[1]);
FFFC6060 FFF8FFC4 		      	sub  	$sp,$sp,#8
FFFC6064 00081CD2 		      	lw   	$v2,8[$a1]
FFFC6068 00001FD6 		      	sw   	$v2,0[$sp]
FFFC606C 0000E818 		      	call 	_SetRegx1
FFFC6070 0008FFC4 		      	add  	$sp,$sp,#8
                        	; 	SetRegx2(nctx->regs[2]);
FFFC6074 FFF8FFC4 		      	sub  	$sp,$sp,#8
FFFC6078 00101CD2 		      	lw   	$v2,16[$a1]
FFFC607C 00001FD6 		      	sw   	$v2,0[$sp]
FFFC6080 0000E818 		      	call 	_SetRegx2
FFFC6084 0008FFC4 		      	add  	$sp,$sp,#8
                        	; 	SetRegx3(nctx->regs[3]);
FFFC6088 FFF8FFC4 		      	sub  	$sp,$sp,#8
FFFC608C 00181CD2 		      	lw   	$v2,24[$a1]
FFFC6090 00001FD6 		      	sw   	$v2,0[$sp]
FFFC6094 0000E818 		      	call 	_SetRegx3
FFFC6098 0008FFC4 		      	add  	$sp,$sp,#8
                        	; 	SetRegx4(nctx->regs[4]);
FFFC609C FFF8FFC4 		      	sub  	$sp,$sp,#8
FFFC60A0 00201CD2 		      	lw   	$v2,32[$a1]
FFFC60A4 00001FD6 		      	sw   	$v2,0[$sp]
FFFC60A8 0000E818 		      	call 	_SetRegx4
FFFC60AC 0008FFC4 		      	add  	$sp,$sp,#8
                        	; 	SetRegx5(nctx->regs[5]);
FFFC60B0 FFF8FFC4 		      	sub  	$sp,$sp,#8
FFFC60B4 00281CD2 		      	lw   	$v2,40[$a1]
FFFC60B8 00001FD6 		      	sw   	$v2,0[$sp]
FFFC60BC 0000E818 		      	call 	_SetRegx5
FFFC60C0 0008FFC4 		      	add  	$sp,$sp,#8
                        	; 	SetRegx6(nctx->regs[6]);
FFFC60C4 FFF8FFC4 		      	sub  	$sp,$sp,#8
FFFC60C8 00301CD2 		      	lw   	$v2,48[$a1]
FFFC60CC 00001FD6 		      	sw   	$v2,0[$sp]
FFFC60D0 0000E818 		      	call 	_SetRegx6
FFFC60D4 0008FFC4 		      	add  	$sp,$sp,#8
                        	; 	SetRegx7(nctx->regs[7]);
FFFC60D8 FFF8FFC4 		      	sub  	$sp,$sp,#8
FFFC60DC 00381CD2 		      	lw   	$v2,56[$a1]
FFFC60E0 00001FD6 		      	sw   	$v2,0[$sp]
FFFC60E4 0000E818 		      	call 	_SetRegx7
FFFC60E8 0008FFC4 		      	add  	$sp,$sp,#8
                        	; 	SetRegx8(nctx->regs[8]);
FFFC60EC FFF8FFC4 		      	sub  	$sp,$sp,#8
FFFC60F0 00401CD2 		      	lw   	$v2,64[$a1]
FFFC60F4 00001FD6 		      	sw   	$v2,0[$sp]
FFFC60F8 0000E818 		      	call 	_SetRegx8
FFFC60FC 0008FFC4 		      	add  	$sp,$sp,#8
                        	; 	SetRegx9(nctx->regs[9]);
FFFC6100 FFF8FFC4 		      	sub  	$sp,$sp,#8
FFFC6104 00481CD2 		      	lw   	$v2,72[$a1]
FFFC6108 00001FD6 		      	sw   	$v2,0[$sp]
FFFC610C 0000E818 		      	call 	_SetRegx9
FFFC6110 0008FFC4 		      	add  	$sp,$sp,#8
                        	; 	SetRegx10(nctx->regs[10]);
FFFC6114 FFF8FFC4 		      	sub  	$sp,$sp,#8
FFFC6118 00501CD2 		      	lw   	$v2,80[$a1]
FFFC611C 00001FD6 		      	sw   	$v2,0[$sp]
FFFC6120 0000E818 		      	call 	_SetRegx10
FFFC6124 0008FFC4 		      	add  	$sp,$sp,#8
                        	; 	SetRegx11(nctx->regs[11]);
FFFC6128 FFF8FFC4 		      	sub  	$sp,$sp,#8
FFFC612C 00581CD2 		      	lw   	$v2,88[$a1]
FFFC6130 00001FD6 		      	sw   	$v2,0[$sp]
FFFC6134 0000E818 		      	call 	_SetRegx11
FFFC6138 0008FFC4 		      	add  	$sp,$sp,#8
                        	; 	SetRegx12(nctx->regs[12]);
FFFC613C FFF8FFC4 		      	sub  	$sp,$sp,#8
FFFC6140 00601CD2 		      	lw   	$v2,96[$a1]
FFFC6144 00001FD6 		      	sw   	$v2,0[$sp]
FFFC6148 0000E818 		      	call 	_SetRegx12
FFFC614C 0008FFC4 		      	add  	$sp,$sp,#8
                        	; 	SetRegx13(nctx->regs[13]);
FFFC6150 FFF8FFC4 		      	sub  	$sp,$sp,#8
FFFC6154 00681CD2 		      	lw   	$v2,104[$a1]
FFFC6158 00001FD6 		      	sw   	$v2,0[$sp]
FFFC615C 0000E818 		      	call 	_SetRegx13
FFFC6160 0008FFC4 		      	add  	$sp,$sp,#8
                        	; 	SetRegx14(nctx->regs[14]);
FFFC6164 FFF8FFC4 		      	sub  	$sp,$sp,#8
FFFC6168 00701CD2 		      	lw   	$v2,112[$a1]
FFFC616C 00001FD6 		      	sw   	$v2,0[$sp]
FFFC6170 0000E818 		      	call 	_SetRegx14
FFFC6174 0008FFC4 		      	add  	$sp,$sp,#8
                        	; 	SetRegx15(nctx->regs[15]);
FFFC6178 FFF8FFC4 		      	sub  	$sp,$sp,#8
FFFC617C 00781CD2 		      	lw   	$v2,120[$a1]
FFFC6180 00001FD6 		      	sw   	$v2,0[$sp]
FFFC6184 0000E818 		      	call 	_SetRegx15
FFFC6188 0008FFC4 		      	add  	$sp,$sp,#8
                        	; 	SetRegx16(nctx->regs[16]);
FFFC618C FFF8FFC4 		      	sub  	$sp,$sp,#8
FFFC6190 00801CD2 		      	lw   	$v2,128[$a1]
FFFC6194 00001FD6 		      	sw   	$v2,0[$sp]
FFFC6198 0000E818 		      	call 	_SetRegx16
FFFC619C 0008FFC4 		      	add  	$sp,$sp,#8
                        	; 	SetRegx17(nctx->regs[17]);
FFFC61A0 FFF8FFC4 		      	sub  	$sp,$sp,#8
FFFC61A4 00881CD2 		      	lw   	$v2,136[$a1]
FFFC61A8 00001FD6 		      	sw   	$v2,0[$sp]
FFFC61AC 0000E818 		      	call 	_SetRegx17
FFFC61B0 0008FFC4 		      	add  	$sp,$sp,#8
                        	; 	SetRegx18(nctx->regs[18]);
FFFC61B4 FFF8FFC4 		      	sub  	$sp,$sp,#8
FFFC61B8 00901CD2 		      	lw   	$v2,144[$a1]
FFFC61BC 00001FD6 		      	sw   	$v2,0[$sp]
FFFC61C0 0000E818 		      	call 	_SetRegx18
FFFC61C4 0008FFC4 		      	add  	$sp,$sp,#8
                        	; 	SetRegx19(nctx->regs[19]);
FFFC61C8 FFF8FFC4 		      	sub  	$sp,$sp,#8
FFFC61CC 00981CD2 		      	lw   	$v2,152[$a1]
FFFC61D0 00001FD6 		      	sw   	$v2,0[$sp]
FFFC61D4 0000E818 		      	call 	_SetRegx19
FFFC61D8 0008FFC4 		      	add  	$sp,$sp,#8
                        	; 	SetRegx20(nctx->regs[20]);
FFFC61DC FFF8FFC4 		      	sub  	$sp,$sp,#8
FFFC61E0 00A01CD2 		      	lw   	$v2,160[$a1]
FFFC61E4 00001FD6 		      	sw   	$v2,0[$sp]
FFFC61E8 0000E818 		      	call 	_SetRegx20
FFFC61EC 0008FFC4 		      	add  	$sp,$sp,#8
                        	; 	SetRegx21(nctx->regs[21]);
FFFC61F0 FFF8FFC4 		      	sub  	$sp,$sp,#8
FFFC61F4 00A81CD2 		      	lw   	$v2,168[$a1]
FFFC61F8 00001FD6 		      	sw   	$v2,0[$sp]
FFFC61FC 0000E818 		      	call 	_SetRegx21
FFFC6200 0008FFC4 		      	add  	$sp,$sp,#8
                        	; 	SetRegx22(nctx->regs[22]);
FFFC6204 FFF8FFC4 		      	sub  	$sp,$sp,#8
FFFC6208 00B01CD2 		      	lw   	$v2,176[$a1]
FFFC620C 00001FD6 		      	sw   	$v2,0[$sp]
FFFC6210 0000E818 		      	call 	_SetRegx22
FFFC6214 0008FFC4 		      	add  	$sp,$sp,#8
                        	; 	SetRegx23(nctx->regs[23]);
FFFC6218 FFF8FFC4 		      	sub  	$sp,$sp,#8
FFFC621C 00B81CD2 		      	lw   	$v2,184[$a1]
FFFC6220 00001FD6 		      	sw   	$v2,0[$sp]
FFFC6224 0000E818 		      	call 	_SetRegx23
FFFC6228 0008FFC4 		      	add  	$sp,$sp,#8
                        	; 	SetRegx24(nctx->regs[24]);
FFFC622C FFF8FFC4 		      	sub  	$sp,$sp,#8
FFFC6230 00C01CD2 		      	lw   	$v2,192[$a1]
FFFC6234 00001FD6 		      	sw   	$v2,0[$sp]
FFFC6238 0000E818 		      	call 	_SetRegx24
FFFC623C 0008FFC4 		      	add  	$sp,$sp,#8
                        	; 	SetRegx25(nctx->regs[25]);
FFFC6240 FFF8FFC4 		      	sub  	$sp,$sp,#8
FFFC6244 00C81CD2 		      	lw   	$v2,200[$a1]
FFFC6248 00001FD6 		      	sw   	$v2,0[$sp]
FFFC624C 0000E818 		      	call 	_SetRegx25
FFFC6250 0008FFC4 		      	add  	$sp,$sp,#8
                        	; 	SetRegx26(nctx->regs[26]);
FFFC6254 FFF8FFC4 		      	sub  	$sp,$sp,#8
FFFC6258 00D01CD2 		      	lw   	$v2,208[$a1]
FFFC625C 00001FD6 		      	sw   	$v2,0[$sp]
FFFC6260 0000E818 		      	call 	_SetRegx26
FFFC6264 0008FFC4 		      	add  	$sp,$sp,#8
                        	; 	SetRegx27(nctx->regs[27]);
FFFC6268 FFF8FFC4 		      	sub  	$sp,$sp,#8
FFFC626C 00D81CD2 		      	lw   	$v2,216[$a1]
FFFC6270 00001FD6 		      	sw   	$v2,0[$sp]
FFFC6274 0000E818 		      	call 	_SetRegx27
FFFC6278 0008FFC4 		      	add  	$sp,$sp,#8
                        	; 	SetRegx28(nctx->regs[28]);
FFFC627C FFF8FFC4 		      	sub  	$sp,$sp,#8
FFFC6280 00E01CD2 		      	lw   	$v2,224[$a1]
FFFC6284 00001FD6 		      	sw   	$v2,0[$sp]
FFFC6288 0000E818 		      	call 	_SetRegx28
FFFC628C 0008FFC4 		      	add  	$sp,$sp,#8
                        	; 	SetRegx29(nctx->regs[29]);
FFFC6290 FFF8FFC4 		      	sub  	$sp,$sp,#8
FFFC6294 00E81CD2 		      	lw   	$v2,232[$a1]
FFFC6298 00001FD6 		      	sw   	$v2,0[$sp]
FFFC629C 0000E818 		      	call 	_SetRegx29
FFFC62A0 0008FFC4 		      	add  	$sp,$sp,#8
                        	; 	SetRegx30(nctx->regs[30]);
FFFC62A4 FFF8FFC4 		      	sub  	$sp,$sp,#8
FFFC62A8 00F01CD2 		      	lw   	$v2,240[$a1]
FFFC62AC 00001FD6 		      	sw   	$v2,0[$sp]
FFFC62B0 0000E818 		      	call 	_SetRegx30
FFFC62B4 0008FFC4 		      	add  	$sp,$sp,#8
                        	; 	SetRegx31(nctx->regs[31]);
FFFC62B8 FFF8FFC4 		      	sub  	$sp,$sp,#8
FFFC62BC 00F81CD2 		      	lw   	$v2,248[$a1]
FFFC62C0 00001FD6 		      	sw   	$v2,0[$sp]
FFFC62C4 0000E818 		      	call 	_SetRegx31
FFFC62C8 0008FFC4 		      	add  	$sp,$sp,#8
                        	; 	__asm {
                        		      	     	
FFFC62CC C8020002 				rti		#2
                        	; 	}
FFFC62D0 02300031 		      	bra  	FMTKc_88
                        	FMTKc_86:
                        	;====================================================
                        	; Basic Block 1
                        	;====================================================
FFFC62D4 0010EF92 		      	lw   	$lr,16[$fp]
FFFC62D8 0018EF96 		      	sw   	$lr,24[$fp]
                        	endpublic
                        	
                        		code
FFFC62DC 00000000 		align	1
                        	
                        	;====================================================
                        	; Basic Block 0
                        	;====================================================
                        	_SelectTaskToRun:
FFFC62E0 FFE0FFC4 		      	sub  	$sp,$sp,#32
FFFC62E4 0018EFD6 		      	sw   	$lr,24[$sp]
FFFC62E8 0010E7D6 		      	sw   	$xlr,16[$sp]
FFFC62EC 000807D6 		      	sw   	$r0,8[$sp]
FFFC62F0 0000F7D6 		      	sw   	$fp,[$sp]
FFFC62F4 64E4E009 		      	ldi  	$xlr,#FMTKc_124
FFFC62F8 FFFCE05A 
FFFC62FC 8B88F7C2 		      	mov  	$fp,$sp
FFFC6300 FFD0FFC4 		      	sub  	$sp,$sp,#48
FFFC6304 FFC8FFC4 		      	sub  	$sp,$sp,#56
FFFC6308 00005FD6 		      	sw   	$r11,0[$sp]
FFFC630C 000867D6 		      	sw   	$r12,8[$sp]
FFFC6310 00106FD6 		      	sw   	$r13,16[$sp]
FFFC6314 001877D6 		      	sw   	$r14,24[$sp]
FFFC6318 00207FD6 		      	sw   	$r15,32[$sp]
FFFC631C 002887D6 		      	sw   	$r16,40[$sp]
FFFC6320 00308FD6 		      	sw   	$r17,48[$sp]
FFFC6324 FFE05F92 		      	lw   	$r11,-32[$fp]
FFFC6328 FFF86792 		      	lw   	$r12,-8[$fp]
FFFC632C FFF06F92 		      	lw   	$r13,-16[$fp]
FFFC6330 FFE87792 		      	lw   	$r14,-24[$fp]
FFFC6334 FFD87F92 		      	lw   	$r15,-40[$fp]
FFFC6338 FFD687A0 		      	lc   	$r16,-42[$fp]
FFFC633C 00008809 		      	ldi  	$r17,#FMTKc_95
FFFC6340 DED6881A 
FFFC6344 FFFC885A 
                        	; 	startQNdx++;
FFFC6348 00001C60 		      	lc   	$v2,[$r17]
FFFC634C 000118C4 		      	add  	$v2,$v2,#1
FFFC6350 00001C64 		      	sc   	$v2,[$r17]
                        	; 	startQNdx &= 31;
FFFC6354 00001C60 		      	lc   	$v2,[$r17]
FFFC6358 001F18C8 		      	and  	$v2,$v2,#31
FFFC635C 00001C64 		      	sc   	$v2,[$r17]
                        	; 	qToCheck = startQ[startQNdx];
FFFC6360 00002460 		      	lc   	$v3,[$r17]
FFFC6364 0000B809 		      	lw   	$r15,FMTKc_94[$v3]
FFFC6368 9700B81A 
FFFC636C FFFCB85A 
FFFC6370 480FB902 
                        	; 	qToCheck &= 7;
FFFC6374 00077BC8 		      	and  	$r15,$r15,#7
                        	; 	for (nn = 0; nn < 8; nn++) {
FFFC6378 00006009 		      	ldi  	$r12,#0
                        	FMTKc_127:
FFFC637C 00081B06 		      	cmp  	$v2,$r12,#8
FFFC6380 0A2300F0 		      	bge  	$v2,$r0,FMTKc_128,#2
                        	;====================================================
                        	; Basic Block 1
                        	;====================================================
                        	; 		h = readyQ[qToCheck];
FFFC6384 0000B809 		      	lw   	$r16,_readyQ[$r15]
FFFC6388 D268B81A 
FFFC638C 1FFDB85A 
FFFC6390 4810BBC2 
                        	; 		if (h >= 0 && h < 256) {
FFFC6394 08C20431 		      	blt  	$r16,$r0,FMTKc_130
                        	;====================================================
                        	; Basic Block 2
                        	;====================================================
FFFC6398 01001C06 		      	cmp  	$v2,$r16,#256
FFFC639C 089300F1 		      	bge  	$v2,$r0,FMTKc_130,#1
                        	;====================================================
                        	; Basic Block 3
                        	;====================================================
                        	;     		p = &tcbs[h];
FFFC63A0 3E0A2402 		      	shl  	$v3,$r16,#10
FFFC63A4 5400B809 		      	add  	$r14,$v3,#_tcbs
FFFC63A8 004DB85A 
FFFC63AC 0001B89A 
FFFC63B0 106EB902 
                        	;             kk = 0;
FFFC63B4 00006809 		      	ldi  	$r13,#0
                        	;     asm {
                        		      	     	
FFFC63B8 4010080E 				csrrw	r1,#$10,r0
FFFC63BC AC00B809 				sub 	r1,r1,#_tcbs
FFFC63C0 FFB2B85A 
FFFC63C4 FFFEB89A 
FFFC63C8 FFFFB8DA 
FFFC63CC 1061B842 
FFFC63D0 3E490842 				shru 	r1,r1,#9
                        	;     }
FFFC63D4 00400C30 		      	beq  	$r16,$v0,FMTKc_132,#0
                        	;====================================================
                        	; Basic Block 4
                        	;====================================================
                        	;            		q = p;
FFFC63D8 8B885B82 		      	mov  	$r11,$r14
FFFC63DC 00F00030 		      	bra  	FMTKc_133
                        	FMTKc_132:
                        	;====================================================
                        	; Basic Block 5
                        	;====================================================
                        	;            		q = &tcbs[p->next];
FFFC63E0 021A3BA0 		      	lc   	$t2,538[$r14]
FFFC63E4 3E0A21C2 		      	shl  	$v3,$t2,#10
FFFC63E8 5400B809 		      	add  	$r11,$v3,#_tcbs
FFFC63EC 004DB85A 
FFFC63F0 0001B89A 
FFFC63F4 106BB902 
                        	FMTKc_133:
                        	FMTKc_138:
                        	;                 if (!(q->status & 8)) {
FFFC63F8 028F22D3 		      	lb   	$v3,655[$r11]
FFFC63FC 00081908 		      	and  	$v2,$v3,#8
FFFC6400 044100F0 		      	bne  	$v2,$r0,FMTKc_140
                        	;====================================================
                        	; Basic Block 6
                        	;====================================================
                        	;                     if (q->affinity == getCPU()) {
FFFC6404 02901AD0 		      	lh   	$v2,656[$r11]
FFFC6408 FFD01F96 		      	sw   	$v2,-48[$fp]
FFFC640C 0000E818 		      	call 	_getCPU
FFFC6410 FFD01F92 		      	lw   	$v2,-48[$fp]
FFFC6414 038108F1 		      	bne  	$v2,$v0,FMTKc_142,#0
                        	;====================================================
                        	; Basic Block 7
                        	;====================================================
                        	;         			   readyQ[qToCheck] = q - tcbs;
FFFC6418 3E011BC2 		      	shl  	$v2,$r15,#1
FFFC641C AC00B809 		      	sub  	$t2,$r11,#_tcbs
FFFC6420 FFB2B85A 
FFFC6424 FFFEB89A 
FFFC6428 FFFFB8DA 
FFFC642C 1067BAC2 
FFFC6430 3E4A21C2 		      	shru.c	$v3,$t2,#10
FFFC6434 0000B809 		      	sc   	$v3,_readyQ[$v2]
FFFC6438 D268B81A 
FFFC643C 1FFDB85A 
FFFC6440 9004B8C2 
                        	;         			   return (q - tcbs);
FFFC6444 AC00B809 		      	sub  	$v3,$r11,#_tcbs
FFFC6448 FFB2B85A 
FFFC644C FFFEB89A 
FFFC6450 FFFFB8DA 
FFFC6454 1064BAC2 
FFFC6458 3E4A0902 		      	shru 	$v0,$v3,#10
                        	FMTKc_144:
FFFC645C 00005FD2 		      	lw   	$r11,0[$sp]
FFFC6460 000867D2 		      	lw   	$r12,8[$sp]
FFFC6464 00106FD2 		      	lw   	$r13,16[$sp]
FFFC6468 001877D2 		      	lw   	$r14,24[$sp]
FFFC646C 00207FD2 		      	lw   	$r15,32[$sp]
FFFC6470 002887D2 		      	lw   	$r16,40[$sp]
FFFC6474 00308FD2 		      	lw   	$r17,48[$sp]
FFFC6478 8B88FF82 		      	mov  	$sp,$fp
FFFC647C 0000F7D2 		      	lw   	$fp,[$sp]
FFFC6480 0010E7D2 		      	lw   	$xlr,16[$sp]
FFFC6484 0018EFD2 		      	lw   	$lr,24[$sp]
FFFC6488 0020EFE9 		      	ret  	#32
                        	FMTKc_142:
                        	FMTKc_140:
                        	;====================================================
                        	; Basic Block 8
                        	;====================================================
                        	;                 q = &tcbs[q->next];
FFFC648C 021A3AE0 		      	lc   	$t2,538[$r11]
FFFC6490 3E0A21C2 		      	shl  	$v3,$t2,#10
FFFC6494 5400B809 		      	add  	$r11,$v3,#_tcbs
FFFC6498 004DB85A 
FFFC649C 0001B89A 
FFFC64A0 106BB902 
                        	;                 kk = kk + 1;
FFFC64A4 00016B44 		      	add  	$r13,$r13,#1
FFFC64A8 007072F0 		      	beq  	$r11,$r14,FMTKc_145,#3
                        	;====================================================
                        	; Basic Block 9
                        	;====================================================
FFFC64AC 01001B46 		      	cmp  	$v2,$r13,#256
FFFC64B0 FA2200F1 		      	blt  	$v2,$r0,FMTKc_138,#2
                        	FMTKc_145:
                        	FMTKc_130:
                        	;====================================================
                        	; Basic Block 10
                        	;====================================================
                        	; 		qToCheck++;
FFFC64B4 00017BC4 		      	add  	$r15,$r15,#1
                        	; 		qToCheck &= 7;
FFFC64B8 00077BC8 		      	and  	$r15,$r15,#7
FFFC64BC 00016304 		      	add  	$r12,$r12,#1
FFFC64C0 F5F00030 		      	bra  	FMTKc_127
                        	FMTKc_128:
                        	;====================================================
                        	; Basic Block 11
                        	;====================================================
                        	;     asm {
                        		      	     	
FFFC64C4 4010080E 				csrrw	r1,#$10,r0
FFFC64C8 AC00B809 				sub 	r1,r1,#_tcbs
FFFC64CC FFB2B85A 
FFFC64D0 FFFEB89A 
FFFC64D4 FFFFB8DA 
FFFC64D8 1061B842 
FFFC64DC 3E490842 				shru 	r1,r1,#9
                        	;     }
FFFC64E0 FBF00030 		      	bra  	FMTKc_144
                        	FMTKc_124:
                        	;====================================================
                        	; Basic Block 12
                        	;====================================================
FFFC64E4 0010EF92 		      	lw   	$lr,16[$fp]
FFFC64E8 0018EF96 		      	sw   	$lr,24[$fp]
FFFC64EC FB700031 		      	bra  	FMTKc_144
                        	;====================================================
                        	; Basic Block 0
                        	;====================================================
                        	public code _FMTK_SystemCall:
;     __asm {
                        		      	     	
FFFC64F0 00040809 				ldi    r1,#4
FFFC64F4 800C084E 				csrrs  r1,#$0C,r1			// read status bit and set it
FFFC64F8 01421066 				bbc    r1,#2,.0002			// if it wasn't already set, okay to process
FFFC64FC 0048080E 				csrrd	r1,#$48,r0			// get exceptioned PC
FFFC6500 00040844 				add	r1,r1,#4			// increment to skip over static parameter
FFFC6504 4048004E 				csrrw  r0,#$48,r1			// write it back
FFFC6508 04120002 				sync
FFFC650C 032C0809 				ldi	r1,#E_Busy			// busy status to be returned in r1
FFFC6510 0000085A 
FFFC6514 0000089A 
FFFC6518 800008DA 
FFFC651C 89080842 				mov	r1:x,r1
FFFC6520 C8000002 				rti
			.0002:
FFFC6524 0048500E 				csrrd	r10,#$48,r0			// get return address into r10
FFFC6528 00045A91 				lhu    r11,4[r10]			// get static call number parameter into r11
FFFC652C 00045284 				add    r10,r10,#4			// update return address
FFFC6530 4048028E 				csrrw	r0,#$48,r10			// set return address
FFFC6534 00140809 				ldi	r1,#20
FFFC6538 01845870 				bgtu   r11,r1,.bad_callno	// check the call number
                        				// 'C' uses r18 to r22 in order to pass parameters to a function
                        				// in registers. Copy registers from the exceptioned register set.
FFFC653C 89889482 				mov	r18,r18:x
FFFC6540 89889CC2 				mov	r19,r19:x
FFFC6544 8988A502 				mov	r20,r20:x
FFFC6548 8988AD42 				mov	r21,r21:x
FFFC654C 8988B582 				mov	r22,r22:x
FFFC6550 3E035AC2 				shl    r11,r11,#3
FFFC6554 5E00B809 				lw		r11,_FMTK_FuncTbl[r11]
FFFC6558 FFFCB85A 
FFFC655C 480BBAC2 
FFFC6560 0000E818 				call   [r11]				// do the system function
FFFC6564 89080842 				mov	r1:x,r1				// return value in r1
FFFC6568 C8020002 				rti	#2
                        				.bad_callno:
FFFC656C FFFC0809 				ldi	r1,#E_BadCallno
FFFC6570 89080842 				mov	r1:x,r1
FFFC6574 C8020002 				rti	#2
                        	endpublic
                        	
                        	;====================================================
                        	; Basic Block 0
                        	;====================================================
                        	public code _FMTK_SchedulerIRQ:
; 		__asm {
                        		      	     	
FFFC6578 00040809 				ldi    r1,#4
FFFC657C 800C084E 				csrrs  r1,#$0C,r1			// read status bit and set it
FFFC6580 00021067 				bbc    r1,#2,.0002			// check bit #1
FFFC6584 C8000002 				iret
			.0002:
                        	; 		}
FFFC6588 FFF0FFC4 		      	sub  	$sp,$sp,#16
FFFC658C 00005FD6 		      	sw   	$r11,0[$sp]
FFFC6590 000867D6 		      	sw   	$r12,8[$sp]
FFFC6594 FFF85F92 		      	lw   	$r11,-8[$fp]
FFFC6598 FFF06792 		      	lw   	$r12,-16[$fp]
                        	;     asm {
                        		      	     	
FFFC659C 4010080E 				csrrw	r1,#$10,r0
                        	;     }
FFFC65A0 8B886042 		      	mov  	$r12,$v0
                        	; 	asm	{
                        		      	     	
FFFC65A4 0002080E 				csrrd	r1,#2,r0
                        	; 	}
FFFC65A8 02A00AD6 		      	sw   	$v0,672[$r11]
                        	;     asm {
                        		      	     	
FFFC65AC 0006080E 				csrrd	r1,#6,r0
                        	; 	case 131:
FFFC65B0 00441872 		      	beqi 	$v0,#131,FMTKc_242
                        	;====================================================
                        	; Basic Block 1
                        	;====================================================
                        	; 	case 2:
FFFC65B4 0DC00866 		      	bbs  	$v0,#1,FMTKc_247
                        	;====================================================
                        	; Basic Block 2
                        	;====================================================
                        	; 	default:  ;
FFFC65B8 10300031 		      	bra  	FMTKc_248
                        	FMTKc_242:
                        	;====================================================
                        	; Basic Block 3
                        	;====================================================
                        	; 		if (getCPU()==0) DisplayIRQLive();
FFFC65BC 0000E818 		      	call 	_getCPU
FFFC65C0 00010071 		      	bne  	$v0,$r0,FMTKc_249
                        	;====================================================
                        	; Basic Block 4
                        	;====================================================
FFFC65C4 FFC5E619 		      	call 	_DisplayIRQLive
                        	FMTKc_249:
                        	; 		if (LockSysSemaphore(20)) {
FFFC65C8 00149009 		      	ldi  	$a0,#20
FFFC65CC FFC5EF19 		      	call 	_LockSysSemaphore
FFFC65D0 0B800071 		      	beq  	$v0,$r0,FMTKc_251
                        	;====================================================
                        	; Basic Block 5
                        	;====================================================
                        	; 			t->ticks = t->ticks + (t->endTick - t->startTick);
FFFC65D4 02A822D2 		      	lw   	$v3,680[$r11]
FFFC65D8 02A042D2 		      	lw   	$t3,672[$r11]
FFFC65DC 02984AD2 		      	lw   	$t4,664[$r11]
FFFC65E0 14674A02 		      	sub  	$t2,$t3,$t4
	      	add  	$v2,$v3,$t2
	      	sw   	$v2,680[$r11]
FFFC65E4 10633902 
FFFC65E8 02A81AD6 
                        	; 			if (t->priority != 000) {
FFFC65EC 028E1AD3 		      	lb   	$v2,654[$r11]
FFFC65F0 090000F3 		      	beqi 	$v2,#0,FMTKc_253
                        	;====================================================
                        	; Basic Block 6
                        	;====================================================
                        	; 				t->status = 4;
FFFC65F4 00041809 		      	ldi  	$v2,#4
FFFC65F8 61C018E2 		      	bfextu	$v2,$v2,#0,#7
FFFC65FC 028F1AD5 		      	sb   	$v2,655[$r11]
                        	FMTKc_255:
FFFC6600 5402B809 		      	lc   	$v2,_TimeoutList
FFFC6604 0051B85A 
FFFC6608 0001B89A 
FFFC660C 8003B802 
FFFC6610 064200F0 		      	blt  	$v2,$r0,FMTKc_256
                        	;====================================================
                        	; Basic Block 7
                        	;====================================================
FFFC6614 5402B809 		      	lc   	$v2,_TimeoutList
FFFC6618 0051B85A 
FFFC661C 0001B89A 
FFFC6620 8003B802 
FFFC6624 010020C6 		      	cmp  	$v3,$v2,#256
FFFC6628 05B30130 		      	bge  	$v3,$r0,FMTKc_256,#3
                        	;====================================================
                        	; Basic Block 8
                        	;====================================================
                        	; 					if (tcbs[TimeoutList].timeout<=0)
FFFC662C 5402B809 		      	lc   	$v3,_TimeoutList
FFFC6630 0051B85A 
FFFC6634 0001B89A 
FFFC6638 8004B802 
                        		      	mulu 	$v2,$v3,#1024
FFFC663C 5400B809 		      	lw   	$v2,_tcbs[$v2]
FFFC6640 004DB85A 
FFFC6644 0001B89A 
FFFC6648 4803B8C2 
FFFC664C 024818D2 		      	lw   	$v2,584[$v2]
FFFC6650 00821830 		      	blt  	$r0,$v2,FMTKc_257
                        	;====================================================
                        	; Basic Block 9
                        	;====================================================
                        	; 						InsertIntoReadyList(PopTimeoutList());
FFFC6654 FFC7FA99 		      	call 	_PopTimeoutList
FFFC6658 8B889042 		      	mov  	$a0,$v0
FFFC665C FFC7A919 		      	call 	_InsertIntoReadyList
FFFC6660 03B00031 		      	bra  	FMTKc_258
                        	FMTKc_257:
                        	;====================================================
                        	; Basic Block 10
                        	;====================================================
                        	; 						tcbs[TimeoutList].timeout = tcbs[TimeoutList].timeout - missed_ticks - 1;
FFFC6664 5402B809 		      	lc   	$v3,_TimeoutList
FFFC6668 0051B85A 
FFFC666C 0001B89A 
FFFC6670 8004B802 
                        		      	mulu 	$v2,$v3,#1024
FFFC6674 5400B809 		      	lw   	$v2,_tcbs[$v2]
FFFC6678 004DB85A 
FFFC667C 0001B89A 
FFFC6680 4803B8C2 
FFFC6684 5402B809 		      	lc   	$t4,_TimeoutList
FFFC6688 0051B85A 
FFFC668C 0001B89A 
FFFC6690 8009B802 
                        		      	mulu 	$t3,$t4,#1024
FFFC6694 5400B809 		      	lw   	$t3,_tcbs[$t3]
FFFC6698 004DB85A 
FFFC669C 0001B89A 
FFFC66A0 4808BA02 
FFFC66A4 02484212 		      	lw   	$t3,584[$t3]
FFFC66A8 0000B809 		      	lw   	$t4,_missed_ticks
FFFC66AC D208B81A 
FFFC66B0 1FFDB85A 
FFFC66B4 4809B802 
FFFC66B8 14674A02 		      	sub  	$t2,$t3,$t4
	      	sub  	$v3,$t2,#1
FFFC66BC FFFF21C4 
FFFC66C0 024820D6 		      	sw   	$v3,584[$v2]
                        	; 						missed_ticks = 0;
FFFC66C4 0000B809 		      	sw   	$r0,_missed_ticks
FFFC66C8 D208B81A 
FFFC66CC 1FFDB85A 
FFFC66D0 5800B802 
                        	; 						break;
FFFC66D4 00300031 		      	bra  	FMTKc_256
                        	FMTKc_258:
                        	;====================================================
                        	; Basic Block 11
                        	;====================================================
FFFC66D8 F9300031 		      	bra  	FMTKc_255
                        	FMTKc_256:
                        	;====================================================
                        	; Basic Block 12
                        	;====================================================
                        	; 				if (t->priority > 002)
FFFC66DC 028E1AD3 		      	lb   	$v2,654[$r11]
FFFC66E0 000220C6 		      	cmp  	$v3,$v2,#2
FFFC66E4 01032030 		      	bge  	$r0,$v3,FMTKc_259,#0
                        	;====================================================
                        	; Basic Block 13
                        	;====================================================
                        	; 				SetRunningTCB(SelectTaskToRun());
FFFC66E8 FFC62E19 		      	call 	_SelectTaskToRun
FFFC66EC 8B889042 		      	mov  	$a0,$v0
                        	;      asm {
                        		      	     	
FFFC66F0 3E090C82 				shl     r1,r18,#9
FFFC66F4 5400B809 				add     r1,r1,#_tcbs
FFFC66F8 004DB85A 
FFFC66FC 0001B89A 
FFFC6700 1061B842 
FFFC6704 4010004E 				csrrw	 r0,#$10,r1
                        	FMTKc_259:
                        	;     asm {
                        		      	     	
FFFC6708 4010080E 				csrrw	r1,#$10,r0
                        	;     }
FFFC670C 00081809 		      	ldi  	$v2,#8
FFFC6710 028F1855 		      	sb   	$v2,655[$v0]
FFFC6714 01300031 		      	bra  	FMTKc_254
                        	FMTKc_253:
                        	;====================================================
                        	; Basic Block 14
                        	;====================================================
                        	; 				missed_ticks++;
FFFC6718 0000B809 		      	lw   	$v2,_missed_ticks
FFFC671C D208B81A 
FFFC6720 1FFDB85A 
FFFC6724 4803B802 
FFFC6728 000118C4 		      	add  	$v2,$v2,#1
FFFC672C 0000B809 		      	sw   	$v2,_missed_ticks
FFFC6730 D208B81A 
FFFC6734 1FFDB85A 
FFFC6738 5803B802 
                        	FMTKc_254:
                        	; 	__asm {
                        		      	     	
FFFC673C 00040809 				ldi		r1,#4
FFFC6740 C00C004E 				csrrc	r0,#12,r1
                        	; 	}
FFFC6744 01300031 		      	bra  	FMTKc_252
                        	FMTKc_251:
                        	;====================================================
                        	; Basic Block 15
                        	;====================================================
                        	; 			missed_ticks++;
FFFC6748 0000B809 		      	lw   	$v2,_missed_ticks
FFFC674C D208B81A 
FFFC6750 1FFDB85A 
FFFC6754 4803B802 
FFFC6758 000118C4 		      	add  	$v2,$v2,#1
FFFC675C 0000B809 		      	sw   	$v2,_missed_ticks
FFFC6760 D208B81A 
FFFC6764 1FFDB85A 
FFFC6768 5803B802 
                        	FMTKc_252:
                        	; 		break;
FFFC676C 02B00030 		      	bra  	FMTKc_237
                        	FMTKc_247:
                        	;====================================================
                        	; Basic Block 16
                        	;====================================================
                        	; 		t->ticks = t->ticks + (t->endTick - t->startTick);
FFFC6770 02A822D2 		      	lw   	$v3,680[$r11]
FFFC6774 02A042D2 		      	lw   	$t3,672[$r11]
FFFC6778 02984AD2 		      	lw   	$t4,664[$r11]
FFFC677C 14674A02 		      	sub  	$t2,$t3,$t4
	      	add  	$v2,$v3,$t2
	      	sw   	$v2,680[$r11]
FFFC6780 10633902 
FFFC6784 02A81AD6 
                        	; 		t->status = 4;
FFFC6788 00041809 		      	ldi  	$v2,#4
FFFC678C 61C018E2 		      	bfextu	$v2,$v2,#0,#7
FFFC6790 028F1AD5 		      	sb   	$v2,655[$r11]
                        	; 		SetRunningTCB(SelectTaskToRun());
FFFC6794 FFC62E19 		      	call 	_SelectTaskToRun
FFFC6798 8B889042 		      	mov  	$a0,$v0
                        	;      asm {
                        		      	     	
FFFC679C 3E090C82 				shl     r1,r18,#9
FFFC67A0 5400B809 				add     r1,r1,#_tcbs
FFFC67A4 004DB85A 
FFFC67A8 0001B89A 
FFFC67AC 1061B842 
FFFC67B0 4010004E 				csrrw	 r0,#$10,r1
                        	;     asm {
                        		      	     	
FFFC67B4 4010080E 				csrrw	r1,#$10,r0
                        	;     }
FFFC67B8 00081809 		      	ldi  	$v2,#8
FFFC67BC 028F1855 		      	sb   	$v2,655[$v0]
                        	FMTKc_248:
                        	FMTKc_237:
                        	;     asm {
                        		      	     	
FFFC67C0 4010080E 				csrrw	r1,#$10,r0
                        	;     }
FFFC67C4 8B885842 		      	mov  	$r11,$v0
                        	; 	if (t->exception) {
FFFC67C8 02B01AD2 		      	lw   	$v2,688[$r11]
FFFC67CC 014000F0 		      	beq  	$v2,$r0,FMTKc_285
                        	;====================================================
                        	; Basic Block 17
                        	;====================================================
                        	; 		t->regs[29] = t->regs[28];   // set link register to catch handler
FFFC67D0 00E01AD2 		      	lw   	$v2,224[$r11]
FFFC67D4 00E81AD6 		      	sw   	$v2,232[$r11]
                        	; 		t->epc = t->regs[28];        // and the PC register
FFFC67D8 00E01AD2 		      	lw   	$v2,224[$r11]
FFFC67DC 02001AD6 		      	sw   	$v2,512[$r11]
                        	; 		t->regs[1] = t->exception;    // r1 = exception value
FFFC67E0 02B01AD2 		      	lw   	$v2,688[$r11]
FFFC67E4 00081AD6 		      	sw   	$v2,8[$r11]
                        	; 		t->exception = 0;
FFFC67E8 00001809 		      	ldi  	$v2,#0
FFFC67EC 02B01AD6 		      	sw   	$v2,688[$r11]
                        	; 		t->regs[2] = 24;              // r2 = exception type
FFFC67F0 00181809 		      	ldi  	$v2,#24
FFFC67F4 00101AD6 		      	sw   	$v2,16[$r11]
                        	FMTKc_285:
                        	; 	asm	{
                        		      	     	
FFFC67F8 0002080E 				csrrd	r1,#2,r0
                        	; 	}
FFFC67FC 02980AD6 		      	sw   	$v0,664[$r11]
                        	; 	if (ot != t)
FFFC6800 00405B31 		      	beq  	$r12,$r11,FMTKc_291,#0
                        	;====================================================
                        	; Basic Block 18
                        	;====================================================
                        	; 		SwapContext(ot,t);
FFFC6804 8B889302 		      	mov  	$a0,$r12
FFFC6808 8B889AC2 		      	mov  	$a1,$r11
FFFC680C FFC5F5D9 		      	call 	_SwapContext
                        	FMTKc_291:
                        	; 	__asm {
                        		      	     	
FFFC6810 C8020002 				rti		#2
                        	; 	}
FFFC6814 00700030 		      	bra  	FMTKc_228
                        	FMTKc_226:
                        	;====================================================
                        	; Basic Block 19
                        	;====================================================
FFFC6818 0010EF92 		      	lw   	$lr,16[$fp]
FFFC681C 0018EF96 		      	sw   	$lr,24[$fp]
                        	FMTKc_228:
FFFC6820 00005FD2 		      	lw   	$r11,0[$sp]
FFFC6824 000867D2 		      	lw   	$r12,8[$sp]
FFFC6828 0010FFC4 		      	add  	$sp,$sp,#16
                        	endpublic
                        	
                        	;====================================================
                        	; Basic Block 0
                        	;====================================================
FFFC682C FFE0FFC4 	public code _panic:
	      	sub  	$sp,$sp,#32
FFFC6830 0018EFD6 		      	sw   	$lr,24[$sp]
FFFC6834 0010E7D6 		      	sw   	$xlr,16[$sp]
FFFC6838 000807D6 		      	sw   	$r0,8[$sp]
FFFC683C 0000F7D6 		      	sw   	$fp,[$sp]
FFFC6840 6870E009 		      	ldi  	$xlr,#FMTKc_299
FFFC6844 FFFCE05A 
FFFC6848 8B88F7C2 		      	mov  	$fp,$sp
FFFC684C 0000FFC4 		      	sub  	$sp,$sp,#0
FFFC6850 FFF8FFC4 		      	sub  	$sp,$sp,#8
FFFC6854 00005FD6 		      	sw   	$r11,0[$sp]
FFFC6858 00185F92 		      	lw   	$r11,24[$fp]
                        	;      putstr(msg);
FFFC685C FFF8FFC4 		      	sub  	$sp,$sp,#8
FFFC6860 00005FD6 		      	sw   	$r11,0[$sp]
FFFC6864 FFC41499 		      	call 	_putstr
FFFC6868 0008FFC4 		      	add  	$sp,$sp,#8
                        	FMTKc_294:
FFFC686C FFF00031 		      	bra  	FMTKc_294
                        	FMTKc_299:
                        	;====================================================
                        	; Basic Block 1
                        	;====================================================
FFFC6870 0010EF92 		      	lw   	$lr,16[$fp]
FFFC6874 0018EF96 		      	sw   	$lr,24[$fp]
FFFC6878 00005FD2 		      	lw   	$r11,0[$sp]
FFFC687C 8B88FF82 		      	mov  	$sp,$fp
FFFC6880 0000F7D2 		      	lw   	$fp,[$sp]
FFFC6884 0010E7D2 		      	lw   	$xlr,16[$sp]
FFFC6888 0018EFD2 		      	lw   	$lr,24[$sp]
FFFC688C 0020EFE9 		      	ret  	#32
                        	endpublic
                        	
                        		code
                        		align	16                        	
                        	;====================================================
                        	; Basic Block 0
                        	;====================================================
FFFC6890 FFE0FFC4 	public code _IdleThread:
	      	sub  	$sp,$sp,#32
FFFC6894 0018EFD6 		      	sw   	$lr,24[$sp]
FFFC6898 0010E7D6 		      	sw   	$xlr,16[$sp]
FFFC689C 000807D6 		      	sw   	$r0,8[$sp]
FFFC68A0 0000F7D6 		      	sw   	$fp,[$sp]
FFFC68A4 6978E009 		      	ldi  	$xlr,#FMTKc_322
FFFC68A8 FFFCE05A 
FFFC68AC 8B88F7C2 		      	mov  	$fp,$sp
FFFC68B0 FFF0FFC4 		      	sub  	$sp,$sp,#16
FFFC68B4 FFF8FFC4 		      	sub  	$sp,$sp,#8
FFFC68B8 00005FD6 		      	sw   	$r11,0[$sp]
                        	;      int ii;
FFFC68BC 00005809 		      	ldi  	$r11,#4291821568
FFFC68C0 FFD0585A 
                        	FMTKc_325:
                        	;              try {
FFFC68C4 68F0E009 		      	ldi  	$xlr,#FMTKc_328
FFFC68C8 FFFCE05A 
                        	;                  ii++;
FFFC68CC FFF81F92 		      	lw   	$v2,-8[$fp]
FFFC68D0 000118C4 		      	add  	$v2,$v2,#1
FFFC68D4 FFF81F96 		      	sw   	$v2,-8[$fp]
                        	;                  if (getCPU()==0) {
FFFC68D8 0000E818 		      	call 	_getCPU
FFFC68DC 00410071 		      	bne  	$v0,$r0,FMTKc_329
                        	;====================================================
                        	; Basic Block 1
                        	;====================================================
                        	;                      screen[57] = ii;
FFFC68E0 00042009 		      	ldi  	$v3,#4
                        		      	mulu 	$v2,$v3,#57
FFFC68E4 FFF82790 		      	lh   	$v3,-8[$fp]
FFFC68E8 50041AC2 		      	sh   	$v3,[$r11+$v2]
                        	FMTKc_329:
FFFC68EC 03F00031 		      	bra  	FMTKc_327
                        	FMTKc_328:
                        	;====================================================
                        	; Basic Block 2
                        	;====================================================
                        	;              catch(static __exception ex=0) {
FFFC68F0 002D1809 		      	ldi  	$v2,#45
FFFC68F4 02C118B1 		      	bne  	$v1,$v2,FMTKc_332
                        	;====================================================
                        	; Basic Block 3
                        	;====================================================
FFFC68F8 0000B809 		      	sw   	$v0,FMTKc_304
FFFC68FC DED8B81A 
FFFC6900 FFFCB85A 
FFFC6904 5801B802 
                        	;                  if (ex&0xFFFFFFFFL==515) {
FFFC6908 0000B809 		      	lw   	$v3,FMTKc_304
FFFC690C DED8B81A 
FFFC6910 FFFCB85A 
FFFC6914 4804B802 
FFFC6918 00004009 		      	ldi  	$t3,#4294967295
FFFC691C FFFF401A 
FFFC6920 FFFF405A 
FFFC6924 02033A06 		      	cmp  	$t2,$t3,#515
FFFC6928 04A701C2 		      	not  	$t2,$t2
FFFC692C 20633902 		      	and  	$v2,$v3,$t2
	      	beq  	$v2,$r0,FMTKc_332
FFFC6930 010000F0 
                        	;====================================================
                        	; Basic Block 4
                        	;====================================================
                        	;                      printf("IdleTask: CTRL-C pressed.\r\n");
FFFC6934 FFF8FFC4 		      	sub  	$sp,$sp,#8
FFFC6938 00001809 		      	ldi  	$v2,#FMTKc_305
FFFC693C 9740181A 
FFFC6940 FFFC185A 
FFFC6944 00001FD6 		      	sw   	$v2,0[$sp]
FFFC6948 FFC431D9 		      	call 	_printf
FFFC694C 0008FFC4 		      	add  	$sp,$sp,#8
FFFC6950 00F00030 		      	bra  	FMTKc_333
                        	FMTKc_332:
                        	;====================================================
                        	; Basic Block 5
                        	;====================================================
                        	;                      throw ex;
FFFC6954 0000B809 		      	lw   	$v0,FMTKc_304
FFFC6958 DED8B81A 
FFFC695C FFFCB85A 
FFFC6960 4801B802 
FFFC6964 002D1009 		      	ldi  	$v1,#45
FFFC6968 00700031 		      	bra  	FMTKc_322
                        	FMTKc_333:
                        	FMTKc_327:
                        	;====================================================
                        	; Basic Block 6
                        	;====================================================
FFFC696C 6978E009 		      	ldi  	$xlr,#FMTKc_322
FFFC6970 FFFCE05A 
FFFC6974 FA700031 		      	bra  	FMTKc_325
                        	FMTKc_322:
                        	;====================================================
                        	; Basic Block 7
                        	;====================================================
FFFC6978 0010EF92 		      	lw   	$lr,16[$fp]
FFFC697C 0018EF96 		      	sw   	$lr,24[$fp]
FFFC6980 00005FD2 		      	lw   	$r11,0[$sp]
FFFC6984 8B88FF82 		      	mov  	$sp,$fp
FFFC6988 0000F7D2 		      	lw   	$fp,[$sp]
FFFC698C 0010E7D2 		      	lw   	$xlr,16[$sp]
FFFC6990 0018EFD2 		      	lw   	$lr,24[$sp]
FFFC6994 0020EFE9 		      	ret  	#32
                        	endpublic
                        	
                        		code
FFFC6998 00000000 		align	1
FFFC699C 00000000 
                        	
                        	;====================================================
                        	; Basic Block 0
                        	;====================================================
FFFC69A0 FFE0FFC4 	public code _FMTK_KillThread:
	      	sub  	$sp,$sp,#32
FFFC69A4 0018EFD6 		      	sw   	$lr,24[$sp]
FFFC69A8 0010E7D6 		      	sw   	$xlr,16[$sp]
FFFC69AC 000807D6 		      	sw   	$r0,8[$sp]
FFFC69B0 0000F7D6 		      	sw   	$fp,[$sp]
FFFC69B4 6B8CE009 		      	ldi  	$xlr,#FMTKc_361
FFFC69B8 FFFCE05A 
FFFC69BC 8B88F7C2 		      	mov  	$fp,$sp
FFFC69C0 FFE8FFC4 		      	sub  	$sp,$sp,#24
FFFC69C4 FFD8FFC4 		      	sub  	$sp,$sp,#40
FFFC69C8 00005FD6 		      	sw   	$r11,0[$sp]
FFFC69CC 000867D6 		      	sw   	$r12,8[$sp]
FFFC69D0 00106FD6 		      	sw   	$r13,16[$sp]
FFFC69D4 001877D6 		      	sw   	$r14,24[$sp]
FFFC69D8 00207FD6 		      	sw   	$r15,32[$sp]
FFFC69DC FFFE5FA0 		      	lc   	$r11,-2[$fp]
FFFC69E0 FFF06792 		      	lw   	$r12,-16[$fp]
FFFC69E4 FFE86F92 		      	lw   	$r13,-24[$fp]
FFFC69E8 FFFA77A0 		      	lc   	$r14,-6[$fp]
FFFC69EC FFFC7FA0 		      	lc   	$r15,-4[$fp]
                        	;     asm { };
                        		      	     	
                        	;     ht = threadno;
FFFC69F0 8B885C82 		      	mov  	$r11,$a0
                        	;     if (LockSysSemaphore(-1)) {
FFFC69F4 FFFF9009 		      	ldi  	$a0,#-1
FFFC69F8 FFC5EF19 		      	call 	_LockSysSemaphore
FFFC69FC 0C400070 		      	beq  	$v0,$r0,FMTKc_364
                        	;====================================================
                        	; Basic Block 1
                        	;====================================================
                        	;         RemoveFromReadyList(ht);
FFFC6A00 8B8892C2 		      	mov  	$a0,$r11
FFFC6A04 FFC7C0D9 		      	call 	_RemoveFromReadyList
                        	;         RemoveFromTimeoutList(ht);
FFFC6A08 8B8892C2 		      	mov  	$a0,$r11
FFFC6A0C FFC7ED59 		      	call 	_RemoveFromTimeoutList
                        	;         for (nn = 0; nn < 4; nn++)
FFFC6A10 00006009 		      	ldi  	$r12,#0
                        	FMTKc_366:
FFFC6A14 00041B06 		      	cmp  	$v2,$r12,#4
FFFC6A18 04E300F0 		      	bge  	$v2,$r0,FMTKc_367,#2
                        	;====================================================
                        	; Basic Block 2
                        	;====================================================
                        	;             if (tcbs[ht].hMailboxes[nn] >= 0 && tcbs[ht].hMailboxes[nn] < 1024) {
FFFC6A1C 3E011B02 		      	shl  	$v2,$r12,#1
                        		      	mulu 	$t2,$r11,#1024
FFFC6A20 5400B809 		      	lw   	$t2,_tcbs[$t2]
FFFC6A24 004DB85A 
FFFC6A28 0001B89A 
FFFC6A2C 4807B9C2 
FFFC6A30 028021C4 		      	add  	$v3,$t2,#640
FFFC6A34 80031902 		      	lc   	$v2,[$v3+$v2]
FFFC6A38 038200F0 		      	blt  	$v2,$r0,FMTKc_369
                        	;====================================================
                        	; Basic Block 3
                        	;====================================================
FFFC6A3C 3E011B02 		      	shl  	$v2,$r12,#1
                        		      	mulu 	$t2,$r11,#1024
FFFC6A40 5400B809 		      	lw   	$t2,_tcbs[$t2]
FFFC6A44 004DB85A 
FFFC6A48 0001B89A 
FFFC6A4C 4807B9C2 
FFFC6A50 028021C4 		      	add  	$v3,$t2,#640
FFFC6A54 80031902 		      	lc   	$v2,[$v3+$v2]
FFFC6A58 040020C6 		      	cmp  	$v3,$v2,#1024
FFFC6A5C 02530131 		      	bge  	$v3,$r0,FMTKc_369,#1
                        	;====================================================
                        	; Basic Block 4
                        	;====================================================
                        	;                 FMTK_FreeMbx(tcbs[ht].hMailboxes[nn]);
FFFC6A60 FFF8FFC4 		      	sub  	$sp,$sp,#8
FFFC6A64 3E012302 		      	shl  	$v3,$r12,#1
                        		      	mulu 	$t2,$r11,#1024
FFFC6A68 5400B809 		      	lw   	$t2,_tcbs[$t2]
FFFC6A6C 004DB85A 
FFFC6A70 0001B89A 
FFFC6A74 4807B9C2 
FFFC6A78 10633902 		      	add  	$v2,$v3,$t2
	      	lc   	$v2,640[$v2]
FFFC6A7C 028018E0 
FFFC6A80 00001FD6 		      	sw   	$v2,0[$sp]
FFFC6A84 FFC77E99 		      	call 	_FMTK_FreeMbx
FFFC6A88 0008FFC4 		      	add  	$sp,$sp,#8
                        	;                 tcbs[ht].hMailboxes[nn] = -1;
FFFC6A8C 3E012302 		      	shl  	$v3,$r12,#1
                        		      	mulu 	$t2,$r11,#1024
FFFC6A90 5400B809 		      	lw   	$t2,_tcbs[$t2]
FFFC6A94 004DB85A 
FFFC6A98 0001B89A 
FFFC6A9C 4807B9C2 
FFFC6AA0 10633902 		      	add  	$v2,$v3,$t2
	      	ldi  	$v3,#-1
FFFC6AA4 FFFF2009 
FFFC6AA8 028020E4 		      	sc   	$v3,640[$v2]
                        	FMTKc_369:
FFFC6AAC 00016304 		      	add  	$r12,$r12,#1
FFFC6AB0 FB300030 		      	bra  	FMTKc_366
                        	FMTKc_367:
                        	;====================================================
                        	; Basic Block 5
                        	;====================================================
                        	;         hApp = tcbs[ht].hApp;
                        		      	mulu 	$v2,$r11,#1024
FFFC6AB4 5400B809 		      	lw   	$v2,_tcbs[$v2]
FFFC6AB8 004DB85A 
FFFC6ABC 0001B89A 
FFFC6AC0 4803B8C2 
FFFC6AC4 028C70D2 		      	lw   	$r14,652[$v2]
                        	;         j = GetACBPtr(hApp);
FFFC6AC8 8B889382 		      	mov  	$a0,$r14
FFFC6ACC FFC5EC19 		      	call 	_GetACBPtr
FFFC6AD0 8B886842 		      	mov  	$r13,$v0
                        	;         ht = j->thrd;
FFFC6AD4 06D25B52 		      	lw   	$r11,1746[$r13]
                        	;         if (ht==threadno)
FFFC6AD8 00C192F1 		      	bne  	$r11,$a0,FMTKc_371,#0
                        	;====================================================
                        	; Basic Block 6
                        	;====================================================
                        	;         	j->thrd = tcbs[ht].acbnext;
                        		      	mulu 	$v2,$r11,#1024
FFFC6ADC 5400B809 		      	lw   	$v2,_tcbs[$v2]
FFFC6AE0 004DB85A 
FFFC6AE4 0001B89A 
FFFC6AE8 4803B8C2 
FFFC6AEC 021820E0 		      	lc   	$v3,536[$v2]
FFFC6AF0 06D22364 		      	sc   	$v3,1746[$r13]
FFFC6AF4 02B00030 		      	bra  	FMTKc_372
                        	FMTKc_371:
                        	FMTKc_373:
                        	;====================================================
                        	; Basic Block 7
                        	;====================================================
FFFC6AF8 024202F1 		      	blt  	$r11,$r0,FMTKc_374
                        	;====================================================
                        	; Basic Block 8
                        	;====================================================
                        	;         		pht = ht;
FFFC6AFC 8B887AC2 		      	mov  	$r15,$r11
                        	;         		ht = tcbs[ht].acbnext;
                        		      	mulu 	$v2,$r11,#1024
FFFC6B00 5400B809 		      	lw   	$v2,_tcbs[$v2]
FFFC6B04 004DB85A 
FFFC6B08 0001B89A 
FFFC6B0C 4803B8C2 
FFFC6B10 021858D2 		      	lw   	$r11,536[$v2]
                        	;         		if (ht==threadno) {
FFFC6B14 014192F1 		      	bne  	$r11,$a0,FMTKc_375,#0
                        	;====================================================
                        	; Basic Block 9
                        	;====================================================
                        	;         			tcbs[pht].acbnext = tcbs[ht].acbnext;
                        		      	mulu 	$v2,$r15,#1024
FFFC6B18 5400B809 		      	lw   	$v2,_tcbs[$v2]
FFFC6B1C 004DB85A 
FFFC6B20 0001B89A 
FFFC6B24 4803B8C2 
                        		      	mulu 	$v3,$r11,#1024
FFFC6B28 5400B809 		      	lw   	$v3,_tcbs[$v3]
FFFC6B2C 004DB85A 
FFFC6B30 0001B89A 
FFFC6B34 4804B902 
FFFC6B38 02183920 		      	lc   	$t2,536[$v3]
FFFC6B3C 021838E4 		      	sc   	$t2,536[$v2]
                        	;         			break;
FFFC6B40 00300031 		      	bra  	FMTKc_374
                        	FMTKc_375:
                        	;====================================================
                        	; Basic Block 10
                        	;====================================================
FFFC6B44 FDB00030 		      	bra  	FMTKc_373
                        	FMTKc_374:
                        	FMTKc_372:
                        	;====================================================
                        	; Basic Block 11
                        	;====================================================
                        	; 		tcbs[ht].acbnext = -1;
                        		      	mulu 	$v2,$r11,#1024
FFFC6B48 5400B809 		      	lw   	$v2,_tcbs[$v2]
FFFC6B4C 004DB85A 
FFFC6B50 0001B89A 
FFFC6B54 4803B8C2 
FFFC6B58 FFFF2009 		      	ldi  	$v3,#-1
FFFC6B5C 63C02122 		      	bfextu	$v3,$v3,#0,#15
FFFC6B60 021820E4 		      	sc   	$v3,536[$v2]
                        	;         if (j->thrd == -1) {
FFFC6B64 06D21B60 		      	lc   	$v2,1746[$r13]
FFFC6B68 FFFF20C6 		      	cmp  	$v3,$v2,#-1
FFFC6B6C 00810130 		      	bne  	$v3,$r0,FMTKc_377,#0
                        	;====================================================
                        	; Basic Block 12
                        	;====================================================
                        	;         	j->magic = 0;
FFFC6B70 00001809 		      	ldi  	$v2,#0
FFFC6B74 00001B56 		      	sw   	$v2,[$r13]
                        	;         	mmu_FreeMap(hApp);
FFFC6B78 8B889382 		      	mov  	$a0,$r14
FFFC6B7C 0000E818 		      	call 	_mmu_FreeMap
                        	FMTKc_377:
                        	; 	__asm {
                        		      	     	
FFFC6B80 00040809 				ldi		r1,#4
FFFC6B84 C00C004E 				csrrc	r0,#12,r1
                        	FMTKc_364:
FFFC6B88 00700030 		      	bra  	FMTKc_363
                        	FMTKc_361:
                        	;====================================================
                        	; Basic Block 13
                        	;====================================================
FFFC6B8C 0010EF92 		      	lw   	$lr,16[$fp]
FFFC6B90 0018EF96 		      	sw   	$lr,24[$fp]
                        	FMTKc_363:
FFFC6B94 00005FD2 		      	lw   	$r11,0[$sp]
FFFC6B98 000867D2 		      	lw   	$r12,8[$sp]
FFFC6B9C 00106FD2 		      	lw   	$r13,16[$sp]
FFFC6BA0 001877D2 		      	lw   	$r14,24[$sp]
FFFC6BA4 00207FD2 		      	lw   	$r15,32[$sp]
FFFC6BA8 8B88FF82 		      	mov  	$sp,$fp
FFFC6BAC 0000F7D2 		      	lw   	$fp,[$sp]
FFFC6BB0 0010E7D2 		      	lw   	$xlr,16[$sp]
FFFC6BB4 0018EFD2 		      	lw   	$lr,24[$sp]
FFFC6BB8 0020EFE9 		      	ret  	#32
                        	endpublic
                        	
                        	;====================================================
                        	; Basic Block 0
                        	;====================================================
FFFC6BBC FFE0FFC4 	public code _FMTK_ExitThread:
	      	sub  	$sp,$sp,#32
FFFC6BC0 0018EFD6 		      	sw   	$lr,24[$sp]
FFFC6BC4 0010E7D6 		      	sw   	$xlr,16[$sp]
FFFC6BC8 000807D6 		      	sw   	$r0,8[$sp]
FFFC6BCC 0000F7D6 		      	sw   	$fp,[$sp]
FFFC6BD0 6C10E009 		      	ldi  	$xlr,#FMTKc_393
FFFC6BD4 FFFCE05A 
FFFC6BD8 8B88F7C2 		      	mov  	$fp,$sp
FFFC6BDC 0000FFC4 		      	sub  	$sp,$sp,#0
                        	;     asm { };
                        		      	     	
                        	;     KillThread(GetRunningTCB());
FFFC6BE0 FFF8FFC4 		      	sub  	$sp,$sp,#8
                        	;     asm {
                        		      	     	
FFFC6BE4 4010080E 				csrrw	r1,#$10,r0
FFFC6BE8 AC00B809 				sub 	r1,r1,#_tcbs
FFFC6BEC FFB2B85A 
FFFC6BF0 FFFEB89A 
FFFC6BF4 FFFFB8DA 
FFFC6BF8 1061B842 
FFFC6BFC 3E490842 				shru 	r1,r1,#9
                        	;     }
FFFC6C00 00000FD6 		      	sw   	$v0,0[$sp]
FFFC6C04 0000E818 		      	call 	_KillThread
FFFC6C08 0008FFC4 		      	add  	$sp,$sp,#8
                        	FMTKc_384:
FFFC6C0C FFF00031 		      	bra  	FMTKc_384
                        	FMTKc_393:
                        	;====================================================
                        	; Basic Block 1
                        	;====================================================
FFFC6C10 0010EF92 		      	lw   	$lr,16[$fp]
FFFC6C14 0018EF96 		      	sw   	$lr,24[$fp]
FFFC6C18 8B88FF82 		      	mov  	$sp,$fp
FFFC6C1C 0000F7D2 		      	lw   	$fp,[$sp]
FFFC6C20 0010E7D2 		      	lw   	$xlr,16[$sp]
FFFC6C24 0018EFD2 		      	lw   	$lr,24[$sp]
FFFC6C28 0020EFE9 		      	ret  	#32
                        	endpublic
                        	
                        		code
FFFC6C2C 00000000 		align	1
                        	
                        	;====================================================
                        	; Basic Block 0
                        	;====================================================
FFFC6C30 FFE0FFC4 	public code _FMTK_StartThread:
	      	sub  	$sp,$sp,#32
FFFC6C34 0018EFD6 		      	sw   	$lr,24[$sp]
FFFC6C38 0010E7D6 		      	sw   	$xlr,16[$sp]
FFFC6C3C 000807D6 		      	sw   	$r0,8[$sp]
FFFC6C40 0000F7D6 		      	sw   	$fp,[$sp]
FFFC6C44 6EC0E009 		      	ldi  	$xlr,#FMTKc_432
FFFC6C48 FFFCE05A 
FFFC6C4C 8B88F7C2 		      	mov  	$fp,$sp
FFFC6C50 FFC0FFC4 		      	sub  	$sp,$sp,#64
FFFC6C54 FFD0FFC4 		      	sub  	$sp,$sp,#48
FFFC6C58 00005FD6 		      	sw   	$r11,0[$sp]
FFFC6C5C 000867D6 		      	sw   	$r12,8[$sp]
FFFC6C60 00106FD6 		      	sw   	$r13,16[$sp]
FFFC6C64 001877D6 		      	sw   	$r14,24[$sp]
FFFC6C68 00207FD6 		      	sw   	$r15,32[$sp]
FFFC6C6C 002887D6 		      	sw   	$r16,40[$sp]
FFFC6C70 FFF05F92 		      	lw   	$r11,-16[$fp]
FFFC6C74 FFFE67A0 		      	lc   	$r12,-2[$fp]
FFFC6C78 FFE26FA0 		      	lc   	$r13,-30[$fp]
FFFC6C7C FFE47790 		      	lh   	$r14,-28[$fp]
FFFC6C80 FFE17F93 		      	lb   	$r15,-31[$fp]
FFFC6C84 00008009 		      	ldi  	$r16,#100000
FFFC6C88 86A0801A 
FFFC6C8C 0001805A 
                        	;     asm {
                        		      	     	
FFFC6C90 003C0809 				ldi   r1,#60
FFFC6C94 0600B809 				sb    r1,$FFDC0600
FFFC6C98 FFDCB85A 
FFFC6C9C 5401B802 
                        	;     asm { };
                        		      	     	
                        	;     affinity = info & 0xffffffffL;
FFFC6CA0 FFFFB809 		      	and  	$r14,$a4,#4294967295
FFFC6CA4 FFFFB85A 
FFFC6CA8 206EBD82 
                        	; 	hApp = (info >> 32) & 0xffffL;
FFFC6CAC 3EE02582 		      	asr  	$v3,$a4,#32
FFFC6CB0 FFFFB809 		      	and  	$r13,$v3,#65535
FFFC6CB4 0000B85A 
FFFC6CB8 206DB902 
                        	; 	priority = (info >> 48) & 0xff;
FFFC6CBC 3EF02582 		      	asr  	$v3,$a4,#48
FFFC6CC0 00FF7908 		      	and  	$r15,$v3,#255
                        	;     if (LockSysSemaphore(100000)) {
FFFC6CC4 8B889402 		      	mov  	$a0,$r16
FFFC6CC8 FFC5EF19 		      	call 	_LockSysSemaphore
FFFC6CCC 04800071 		      	beq  	$v0,$r0,FMTKc_435
                        	;====================================================
                        	; Basic Block 1
                        	;====================================================
                        	; 	    asm {
                        		      	     	
FFFC6CD0 003D0809 				ldi   r1,#61
FFFC6CD4 0600B809 				sb    r1,$FFDC0600
FFFC6CD8 FFDCB85A 
FFFC6CDC 5401B802 
                        	;         ht = freeTCB;
FFFC6CE0 5400B809 		      	lw   	$r12,_freeTCB
FFFC6CE4 0051B85A 
FFFC6CE8 0001B89A 
FFFC6CEC 480CB802 
                        	;         if (ht < 0 || ht >= NT_TCB) {
FFFC6CF0 00420330 		      	blt  	$r12,$r0,FMTKc_439
                        	;====================================================
                        	; Basic Block 2
                        	;====================================================
FFFC6CF4 53C06322 		      	bfext	$r12,$r12,#0,#15
FFFC6CF8 01C00330 		      	beq  	$r12,$r0,FMTKc_437
                        	FMTKc_439:
                        	;====================================================
                        	; Basic Block 3
                        	;====================================================
                        	; 	__asm {
                        		      	     	
FFFC6CFC 00040809 				ldi		r1,#4
FFFC6D00 C00C004E 				csrrc	r0,#12,r1
                        	;         	return (E_NoMoreTCBs);
FFFC6D04 001B0812 		      	lw   	$v0,27
                        	FMTKc_444:
FFFC6D08 00005FD2 		      	lw   	$r11,0[$sp]
FFFC6D0C 000867D2 		      	lw   	$r12,8[$sp]
FFFC6D10 00106FD2 		      	lw   	$r13,16[$sp]
FFFC6D14 001877D2 		      	lw   	$r14,24[$sp]
FFFC6D18 00207FD2 		      	lw   	$r15,32[$sp]
FFFC6D1C 002887D2 		      	lw   	$r16,40[$sp]
FFFC6D20 8B88FF82 		      	mov  	$sp,$fp
FFFC6D24 0000F7D2 		      	lw   	$fp,[$sp]
FFFC6D28 0010E7D2 		      	lw   	$xlr,16[$sp]
FFFC6D2C 0018EFD2 		      	lw   	$lr,24[$sp]
FFFC6D30 0020EFE9 		      	ret  	#32
                        	FMTKc_437:
                        	;====================================================
                        	; Basic Block 4
                        	;====================================================
                        	;         freeTCB = tcbs[ht].next;
                        		      	mulu 	$v2,$r12,#1024
FFFC6D34 5400B809 		      	lw   	$v2,_tcbs[$v2]
FFFC6D38 004DB85A 
FFFC6D3C 0001B89A 
FFFC6D40 4803B8C2 
FFFC6D44 021A20E0 		      	lc   	$v3,538[$v2]
FFFC6D48 5400B809 		      	sc   	$v3,_freeTCB
FFFC6D4C 0051B85A 
FFFC6D50 0001B89A 
FFFC6D54 9004B802 
                        	; 	__asm {
                        		      	     	
FFFC6D58 00040809 				ldi		r1,#4
FFFC6D5C C00C004E 				csrrc	r0,#12,r1
                        	; 	}
FFFC6D60 00F00030 		      	bra  	FMTKc_436
                        	FMTKc_435:
                        	;====================================================
                        	; Basic Block 5
                        	;====================================================
                        	; 		asm {
                        		      	     	
FFFC6D64 00450809 				ldi   r1,#69
FFFC6D68 0600B809 				sb    r1,$FFDC0600
FFFC6D6C FFDCB85A 
FFFC6D70 5401B802 
                        	; 		return (E_Busy);
FFFC6D74 000F0812 		      	lw   	$v0,15
FFFC6D78 FC700031 		      	bra  	FMTKc_444
                        	FMTKc_436:
                        	;====================================================
                        	; Basic Block 6
                        	;====================================================
                        	;     asm {
                        		      	     	
FFFC6D7C 003E0809 				ldi   r1,#62
FFFC6D80 0600B809 				sb    r1,$FFDC0600
FFFC6D84 FFDCB85A 
FFFC6D88 5401B802 
                        	;     t = &tcbs[ht];
FFFC6D8C 3E0A2302 		      	shl  	$v3,$r12,#10
FFFC6D90 5400B809 		      	add  	$r11,$v3,#_tcbs
FFFC6D94 004DB85A 
FFFC6D98 0001B89A 
FFFC6D9C 106BB902 
                        	;     t->affinity = affinity;
FFFC6DA0 029072D4 		      	sh   	$r14,656[$r11]
FFFC6DA4 67C073A2 		      	bfextu	$r14,$r14,#0,#31
                        	;     t->priority = priority;
FFFC6DA8 61C07BE2 		      	bfextu	$r15,$r15,#0,#7
FFFC6DAC 028E7AD5 		      	sb   	$r15,654[$r11]
                        	;     t->hApp = hApp;
FFFC6DB0 63C06B62 		      	bfextu	$r13,$r13,#0,#15
FFFC6DB4 028C6AE4 		      	sc   	$r13,652[$r11]
                        	;     asm {
                        		      	     	
FFFC6DB8 003F0809 				ldi   r1,#63
FFFC6DBC 0600B809 				sb    r1,$FFDC0600
FFFC6DC0 FFDCB85A 
FFFC6DC4 5401B802 
                        	;     tcbs[ht].acbnext = ACBPtrs[hApp]->thrd;
                        		      	mulu 	$v2,$r12,#1024
FFFC6DC8 5400B809 		      	lw   	$v2,_tcbs[$v2]
FFFC6DCC 004DB85A 
FFFC6DD0 0001B89A 
FFFC6DD4 4803B8C2 
FFFC6DD8 0000B809 		      	lw   	$v3,_ACBPtrs[$r13]
FFFC6DDC D000B81A 
FFFC6DE0 1FFDB85A 
FFFC6DE4 4804BB42 
FFFC6DE8 06D23920 		      	lc   	$t2,1746[$v3]
FFFC6DEC 021838E4 		      	sc   	$t2,536[$v2]
                        	;     ACBPtrs[hApp]->thrd = ht;
FFFC6DF0 0000B809 		      	lw   	$v2,_ACBPtrs[$r13]
FFFC6DF4 D000B81A 
FFFC6DF8 1FFDB85A 
FFFC6DFC 4803BB42 
FFFC6E00 63C06322 		      	bfextu	$r12,$r12,#0,#15
FFFC6E04 06D260E4 		      	sc   	$r12,1746[$v2]
                        	;     t->regs[1] = parm;
FFFC6E08 0008AAD6 		      	sw   	$a3,8[$r11]
                        	;     t->regs[28] = FMTK_ExitThread;
FFFC6E0C 6BBC1809 		      	ldi  	$v2,#_FMTK_ExitThread
FFFC6E10 FFFC185A 
FFFC6E14 00E01AD6 		      	sw   	$v2,224[$r11]
                        	;     t->regs[31] = (int)pStack + stacksize - 2048;
FFFC6E18 10649D02 		      	add  	$v3,$a2,$a1
	      	sub  	$v2,$v3,#2048
FFFC6E1C F8001904 
FFFC6E20 00F81AD6 		      	sw   	$v2,248[$r11]
                        	;     t->bios_stack = (int)pStack + stacksize - 8;
FFFC6E24 10649D02 		      	add  	$v3,$a2,$a1
	      	sub  	$v2,$v3,#8
FFFC6E28 FFF81904 
FFFC6E2C 02381AD6 		      	sw   	$v2,568[$r11]
                        	;     t->sys_stack = (int)pStack + stacksize - 1024;
FFFC6E30 10649D02 		      	add  	$v3,$a2,$a1
	      	sub  	$v2,$v3,#1024
FFFC6E34 FC001904 
FFFC6E38 02301AD6 		      	sw   	$v2,560[$r11]
                        	;     t->epc = StartAddr;
FFFC6E3C 020092D6 		      	sw   	$a0,512[$r11]
                        	;     t->cr0 = 0x140000000L;				// enable data cache and branch predictor
FFFC6E40 00001809 		      	ldi  	$v2,#5368709120
FFFC6E44 4000185A 
FFFC6E48 0001189A 
FFFC6E4C 02101AD6 		      	sw   	$v2,528[$r11]
                        	; 	asm	{
                        		      	     	
FFFC6E50 0002080E 				csrrd	r1,#2,r0
                        	; 	}
FFFC6E54 02980AD6 		      	sw   	$v0,664[$r11]
                        	; 	asm	{
                        		      	     	
FFFC6E58 0002080E 				csrrd	r1,#2,r0
                        	; 	}
FFFC6E5C 02A00AD6 		      	sw   	$v0,672[$r11]
                        	;     t->ticks = 0;
FFFC6E60 00001809 		      	ldi  	$v2,#0
FFFC6E64 02A81AD6 		      	sw   	$v2,680[$r11]
                        	;     t->exception = 0;
FFFC6E68 00001809 		      	ldi  	$v2,#0
FFFC6E6C 02B01AD6 		      	sw   	$v2,688[$r11]
                        	;     asm {
                        		      	     	
FFFC6E70 00410809 				ldi   r1,#65
FFFC6E74 0600B809 				sb    r1,$FFDC0600
FFFC6E78 FFDCB85A 
FFFC6E7C 5401B802 
                        	;     if (LockSysSemaphore(100000)) {
FFFC6E80 8B889402 		      	mov  	$a0,$r16
FFFC6E84 FFC5EF19 		      	call 	_LockSysSemaphore
FFFC6E88 00800071 		      	beq  	$v0,$r0,FMTKc_457
                        	;====================================================
                        	; Basic Block 7
                        	;====================================================
                        	;         InsertIntoReadyList(ht);
FFFC6E8C 8B889302 		      	mov  	$a0,$r12
FFFC6E90 FFC7A919 		      	call 	_InsertIntoReadyList
                        	; 	__asm {
                        		      	     	
FFFC6E94 00040809 				ldi		r1,#4
FFFC6E98 C00C004E 				csrrc	r0,#12,r1
                        	; 	}
FFFC6E9C 00700030 		      	bra  	FMTKc_458
                        	FMTKc_457:
                        	;====================================================
                        	; Basic Block 8
                        	;====================================================
                        	; 		return (E_Busy);
FFFC6EA0 000F0812 		      	lw   	$v0,15
FFFC6EA4 F3300030 		      	bra  	FMTKc_444
                        	FMTKc_458:
                        	;====================================================
                        	; Basic Block 9
                        	;====================================================
                        	;     asm {
                        		      	     	
FFFC6EA8 00430809 				ldi   r1,#67
FFFC6EAC 0600B809 				sb    r1,$FFDC0600
FFFC6EB0 FFDCB85A 
FFFC6EB4 5401B802 
                        	;     return (ht);
FFFC6EB8 8B880B02 		      	mov  	$v0,$r12
FFFC6EBC F2700030 		      	bra  	FMTKc_444
                        	FMTKc_432:
                        	;====================================================
                        	; Basic Block 10
                        	;====================================================
FFFC6EC0 0010EF92 		      	lw   	$lr,16[$fp]
FFFC6EC4 0018EF96 		      	sw   	$lr,24[$fp]
FFFC6EC8 F1F00031 		      	bra  	FMTKc_444
                        	endpublic
                        	
                        	;====================================================
                        	; Basic Block 0
                        	;====================================================
FFFC6ECC FFE0FFC4 	public code _FMTK_Sleep:
	      	sub  	$sp,$sp,#32
FFFC6ED0 0018EFD6 		      	sw   	$lr,24[$sp]
FFFC6ED4 0010E7D6 		      	sw   	$xlr,16[$sp]
FFFC6ED8 000807D6 		      	sw   	$r0,8[$sp]
FFFC6EDC 0000F7D6 		      	sw   	$fp,[$sp]
FFFC6EE0 6F6CE009 		      	ldi  	$xlr,#FMTKc_478
FFFC6EE4 FFFCE05A 
FFFC6EE8 8B88F7C2 		      	mov  	$fp,$sp
FFFC6EEC FFF0FFC4 		      	sub  	$sp,$sp,#16
FFFC6EF0 FFF8FFC4 		      	sub  	$sp,$sp,#8
FFFC6EF4 00005FD6 		      	sw   	$r11,0[$sp]
FFFC6EF8 FFFE5FA0 		      	lc   	$r11,-2[$fp]
                        	;     asm { };
                        		      	     	
                        	;     if (LockSysSemaphore(100000)) {
FFFC6EFC 00009009 		      	ldi  	$a0,#100000
FFFC6F00 86A0901A 
FFFC6F04 0001905A 
FFFC6F08 FFC5EF19 		      	call 	_LockSysSemaphore
FFFC6F0C 01C00071 		      	beq  	$v0,$r0,FMTKc_481
                        	;====================================================
                        	; Basic Block 1
                        	;====================================================
                        	;     asm {
                        		      	     	
FFFC6F10 4010080E 				csrrw	r1,#$10,r0
FFFC6F14 AC00B809 				sub 	r1,r1,#_tcbs
FFFC6F18 FFB2B85A 
FFFC6F1C FFFEB89A 
FFFC6F20 FFFFB8DA 
FFFC6F24 1061B842 
FFFC6F28 3E490842 				shru 	r1,r1,#9
                        	;     }
FFFC6F2C 8B885842 		      	mov  	$r11,$v0
                        	;         RemoveFromReadyList(ht);
FFFC6F30 8B8892C2 		      	mov  	$a0,$r11
FFFC6F34 FFC7C0D9 		      	call 	_RemoveFromReadyList
                        	;         InsertIntoTimeoutList(ht, timeout);
FFFC6F38 8B889AC2 		      	mov  	$a1,$r11
FFFC6F3C FFC7D459 		      	call 	_InsertIntoTimeoutList
                        	; 	__asm {
                        		      	     	
FFFC6F40 00040809 				ldi		r1,#4
FFFC6F44 C00C004E 				csrrc	r0,#12,r1
                        	; 	}
FFFC6F48 00F00031 		      	bra  	FMTKc_482
                        	FMTKc_481:
                        	;====================================================
                        	; Basic Block 2
                        	;====================================================
                        	; 		return (E_Busy);
FFFC6F4C 000F0812 		      	lw   	$v0,15
                        	FMTKc_491:
FFFC6F50 00005FD2 		      	lw   	$r11,0[$sp]
FFFC6F54 8B88FF82 		      	mov  	$sp,$fp
FFFC6F58 0000F7D2 		      	lw   	$fp,[$sp]
FFFC6F5C 0010E7D2 		      	lw   	$xlr,16[$sp]
FFFC6F60 0018EFD2 		      	lw   	$lr,24[$sp]
FFFC6F64 0020EFE9 		      	ret  	#32
                        	FMTKc_482:
                        	FMTKc_463:
                        	;====================================================
                        	; Basic Block 3
                        	;====================================================
FFFC6F68 FFF00031 		      	bra  	FMTKc_463
                        	FMTKc_478:
                        	;====================================================
                        	; Basic Block 4
                        	;====================================================
FFFC6F6C 0010EF92 		      	lw   	$lr,16[$fp]
FFFC6F70 0018EF96 		      	sw   	$lr,24[$fp]
FFFC6F74 FEF00030 		      	bra  	FMTKc_491
                        	endpublic
                        	
                        	;====================================================
                        	; Basic Block 0
                        	;====================================================
FFFC6F78 FFE0FFC4 	public code _FMTK_SetThreadPriority:
	      	sub  	$sp,$sp,#32
FFFC6F7C 0018EFD6 		      	sw   	$lr,24[$sp]
FFFC6F80 0010E7D6 		      	sw   	$xlr,16[$sp]
FFFC6F84 000807D6 		      	sw   	$r0,8[$sp]
FFFC6F88 0000F7D6 		      	sw   	$fp,[$sp]
FFFC6F8C 7028E009 		      	ldi  	$xlr,#FMTKc_507
FFFC6F90 FFFCE05A 
FFFC6F94 8B88F7C2 		      	mov  	$fp,$sp
FFFC6F98 FFF0FFC4 		      	sub  	$sp,$sp,#16
FFFC6F9C FFF8FFC4 		      	sub  	$sp,$sp,#8
FFFC6FA0 00005FD6 		      	sw   	$r11,0[$sp]
FFFC6FA4 FFF85F92 		      	lw   	$r11,-8[$fp]
                        	;     asm { };
                        		      	     	
                        	;     if (priority > 077 || priority < 000)
FFFC6FA8 003F1CC6 		      	cmp  	$v2,$a1,#63
FFFC6FAC 00021831 		      	blt  	$r0,$v2,FMTKc_512,#0
                        	;====================================================
                        	; Basic Block 1
                        	;====================================================
FFFC6FB0 00C304F1 		      	bge  	$a1,$r0,FMTKc_510
                        	FMTKc_512:
                        	;====================================================
                        	; Basic Block 2
                        	;====================================================
                        	;        return (E_Arg);
FFFC6FB4 00030812 		      	lw   	$v0,3
                        	FMTKc_513:
FFFC6FB8 00005FD2 		      	lw   	$r11,0[$sp]
FFFC6FBC 8B88FF82 		      	mov  	$sp,$fp
FFFC6FC0 0000F7D2 		      	lw   	$fp,[$sp]
FFFC6FC4 0010E7D2 		      	lw   	$xlr,16[$sp]
FFFC6FC8 0018EFD2 		      	lw   	$lr,24[$sp]
FFFC6FCC 0020EFE9 		      	ret  	#32
                        	FMTKc_510:
                        	;====================================================
                        	; Basic Block 3
                        	;====================================================
                        	;     if (LockSysSemaphore(-1)) {
FFFC6FD0 FFFF9009 		      	ldi  	$a0,#-1
FFFC6FD4 FFC5EF19 		      	call 	_LockSysSemaphore
FFFC6FD8 02000071 		      	beq  	$v0,$r0,FMTKc_514
                        	;====================================================
                        	; Basic Block 4
                        	;====================================================
                        	;         t = &tcbs[ht];
FFFC6FDC 3E0A2482 		      	shl  	$v3,$a0,#10
FFFC6FE0 5400B809 		      	add  	$r11,$v3,#_tcbs
FFFC6FE4 004DB85A 
FFFC6FE8 0001B89A 
FFFC6FEC 106BB902 
                        	;         if (t->status & (8 | 16)) {
FFFC6FF0 028F22D3 		      	lb   	$v3,655[$r11]
FFFC6FF4 00181908 		      	and  	$v2,$v3,#24
FFFC6FF8 008000F1 		      	beq  	$v2,$r0,FMTKc_516
                        	;====================================================
                        	; Basic Block 5
                        	;====================================================
                        	;             RemoveFromReadyList(ht);
FFFC6FFC FFC7C0D9 		      	call 	_RemoveFromReadyList
                        	;             t->priority = priority;
FFFC7000 61C09CE2 		      	bfextu	$a1,$a1,#0,#7
FFFC7004 028E9AD5 		      	sb   	$a1,654[$r11]
                        	;             InsertIntoReadyList(ht);
FFFC7008 FFC7A919 		      	call 	_InsertIntoReadyList
FFFC700C 00700030 		      	bra  	FMTKc_517
                        	FMTKc_516:
                        	;====================================================
                        	; Basic Block 6
                        	;====================================================
                        	;             t->priority = priority;
FFFC7010 61C09CE2 		      	bfextu	$a1,$a1,#0,#7
FFFC7014 028E9AD5 		      	sb   	$a1,654[$r11]
                        	FMTKc_517:
                        	; 	__asm {
                        		      	     	
FFFC7018 00040809 				ldi		r1,#4
FFFC701C C00C004E 				csrrc	r0,#12,r1
                        	FMTKc_514:
                        	;     return (E_Ok);
FFFC7020 00000812 		      	lw   	$v0,0
FFFC7024 FCB00030 		      	bra  	FMTKc_513
                        	FMTKc_507:
                        	;====================================================
                        	; Basic Block 7
                        	;====================================================
FFFC7028 0010EF92 		      	lw   	$lr,16[$fp]
FFFC702C 0018EF96 		      	sw   	$lr,24[$fp]
FFFC7030 FC300031 		      	bra  	FMTKc_513
                        	endpublic
                        	
                        		code
FFFC7034 00000000 		align	1
FFFC7038 00000000 
FFFC703C 00000000 
                        	
                        		code
                        		align	16                        	
                        	;====================================================
                        	; Basic Block 0
                        	;====================================================
                        	_QueueMsg:
FFFC7040 FFE0FFC4 		      	sub  	$sp,$sp,#32
FFFC7044 0018EFD6 		      	sw   	$lr,24[$sp]
FFFC7048 0010E7D6 		      	sw   	$xlr,16[$sp]
FFFC704C 000807D6 		      	sw   	$r0,8[$sp]
FFFC7050 0000F7D6 		      	sw   	$fp,[$sp]
FFFC7054 740CE009 		      	ldi  	$xlr,#FMTKmsg_41
FFFC7058 FFFCE05A 
FFFC705C 8B88F7C2 		      	mov  	$fp,$sp
FFFC7060 FFE0FFC4 		      	sub  	$sp,$sp,#32
FFFC7064 FFD0FFC4 		      	sub  	$sp,$sp,#48
FFFC7068 00005FD6 		      	sw   	$r11,0[$sp]
FFFC706C 000867D6 		      	sw   	$r12,8[$sp]
FFFC7070 00106FD6 		      	sw   	$r13,16[$sp]
FFFC7074 001877D6 		      	sw   	$r14,24[$sp]
FFFC7078 00207FD6 		      	sw   	$r15,32[$sp]
FFFC707C 002887D6 		      	sw   	$r16,40[$sp]
FFFC7080 00185F92 		      	lw   	$r11,24[$fp]
FFFC7084 FFF86792 		      	lw   	$r12,-8[$fp]
FFFC7088 00206F92 		      	lw   	$r13,32[$fp]
FFFC708C FFE87792 		      	lw   	$r14,-24[$fp]
FFFC7090 FFF67FA0 		      	lc   	$r15,-10[$fp]
FFFC7094 00008009 		      	ldi  	$r16,#4294967295
FFFC7098 FFFF801A 
FFFC709C FFFF805A 
FFFC70A0 00007012 		      	lw   	$r14,0
FFFC70A4 00009009 		      	ldi  	$a0,#_sys_sema
FFFC70A8 FFFF9809 		      	ldi  	$a1,#-1
FFFC70AC FFC5B719 		      	call 	_LockSemaphore
FFFC70B0 1A800070 		      	beq  	$v0,$r0,FMTKmsg_44
                        	;====================================================
                        	; Basic Block 1
                        	;====================================================
FFFC70B4 00201AD2 		      	lw   	$v2,32[$r11]
FFFC70B8 000118C4 		      	add  	$v2,$v2,#1
FFFC70BC 00201AD6 		      	sw   	$v2,32[$r11]
FFFC70C0 000C1AE0 		      	lc   	$v2,12[$r11]
FFFC70C4 004000F3 		      	beqi 	$v2,#0,FMTKmsg_51
                        	;====================================================
                        	; Basic Block 2
                        	;====================================================
FFFC70C8 004008E7 		      	bbs  	$v2,#1,FMTKmsg_52
                        	;====================================================
                        	; Basic Block 3
                        	;====================================================
FFFC70CC 064000E7 		      	bbs  	$v2,#0,FMTKmsg_53
                        	;====================================================
                        	; Basic Block 4
                        	;====================================================
FFFC70D0 15300031 		      	bra  	FMTKmsg_46
                        	FMTKmsg_51:
                        	;====================================================
                        	; Basic Block 5
                        	;====================================================
FFFC70D4 15300030 		      	bra  	FMTKmsg_46
                        	FMTKmsg_52:
                        	FMTKmsg_54:
                        	;====================================================
                        	; Basic Block 6
                        	;====================================================
FFFC70D8 00201AD2 		      	lw   	$v2,32[$r11]
FFFC70DC 001822D2 		      	lw   	$v3,24[$r11]
FFFC70E0 05A51931 		      	bgeu 	$v3,$v2,FMTKmsg_55,#2
                        	;====================================================
                        	; Basic Block 7
                        	;====================================================
FFFC70E4 000822E0 		      	lc   	$v3,8[$r11]
                        		      	mulu 	$v2,$v3,#32
FFFC70E8 0000B809 		      	lw   	$v2,_message[$v2]
FFFC70EC 1FF0B85A 
FFFC70F0 4803B8C2 
FFFC70F4 000078D2 		      	lw   	$r15,[$v2]
FFFC70F8 3E0523C2 		      	shl  	$v3,$r15,#5
FFFC70FC 0000B809 		      	add  	$r12,$v3,#_message
FFFC7100 1FF0B85A 
FFFC7104 106CB902 
FFFC7108 000822E0 		      	lc   	$v3,8[$r11]
                        		      	mulu 	$v2,$v3,#32
FFFC710C 0000B809 		      	lw   	$v2,_message[$v2]
FFFC7110 1FF0B85A 
FFFC7114 4803B8C2 
FFFC7118 5232B809 		      	lc   	$v3,_freeMSG
FFFC711C 003DB85A 
FFFC7120 0001B89A 
FFFC7124 8004B802 
FFFC7128 63C02122 		      	bfextu	$v3,$v3,#0,#15
FFFC712C 000020E4 		      	sc   	$v3,[$v2]
FFFC7130 00081AE0 		      	lc   	$v2,8[$r11]
FFFC7134 5232B809 		      	sc   	$v2,_freeMSG
FFFC7138 003DB85A 
FFFC713C 0001B89A 
FFFC7140 9003B802 
FFFC7144 0000B809 		      	lw   	$v2,_nMsgBlk
FFFC7148 D240B81A 
FFFC714C 1FFDB85A 
FFFC7150 4803B802 
FFFC7154 000118C4 		      	add  	$v2,$v2,#1
FFFC7158 0000B809 		      	sw   	$v2,_nMsgBlk
FFFC715C D240B81A 
FFFC7160 1FFDB85A 
FFFC7164 5803B802 
FFFC7168 00201AD2 		      	lw   	$v2,32[$r11]
FFFC716C FFFF18C4 		      	sub  	$v2,$v2,#1
FFFC7170 00201AD6 		      	sw   	$v2,32[$r11]
FFFC7174 63C07BE2 		      	bfextu	$r15,$r15,#0,#15
FFFC7178 00087AE4 		      	sc   	$r15,8[$r11]
FFFC717C 00281AD2 		      	lw   	$v2,40[$r11]
FFFC7180 004580F1 		      	bgeu 	$v2,$r16,FMTKmsg_56
                        	;====================================================
                        	; Basic Block 8
                        	;====================================================
FFFC7184 00281AD2 		      	lw   	$v2,40[$r11]
FFFC7188 000118C4 		      	add  	$v2,$v2,#1
FFFC718C 00281AD6 		      	sw   	$v2,40[$r11]
                        	FMTKmsg_56:
FFFC7190 00067012 		      	lw   	$r14,6
FFFC7194 FA300030 		      	bra  	FMTKmsg_54
                        	FMTKmsg_55:
                        	;====================================================
                        	; Basic Block 9
                        	;====================================================
FFFC7198 0EF00031 		      	bra  	FMTKmsg_46
                        	FMTKmsg_53:
                        	;====================================================
                        	; Basic Block 10
                        	;====================================================
FFFC719C 00201AD2 		      	lw   	$v2,32[$r11]
FFFC71A0 001822D2 		      	lw   	$v3,24[$r11]
FFFC71A4 04451930 		      	bgeu 	$v3,$v2,FMTKmsg_58,#0
                        	;====================================================
                        	; Basic Block 11
                        	;====================================================
FFFC71A8 5232B809 		      	lc   	$v2,_freeMSG
FFFC71AC 003DB85A 
FFFC71B0 0001B89A 
FFFC71B4 8003B802 
FFFC71B8 63C018E2 		      	bfextu	$v2,$v2,#0,#15
FFFC71BC 00001B64 		      	sc   	$v2,[$r13]
FFFC71C0 0000B809 		      	sub  	$v3,$r13,#_message
FFFC71C4 E010B85A 
FFFC71C8 FFFFB89A 
FFFC71CC FFFFB8DA 
FFFC71D0 1064BB42 
FFFC71D4 3E451902 		      	shru.c	$v2,$v3,#5
FFFC71D8 5232B809 		      	sc   	$v2,_freeMSG
FFFC71DC 003DB85A 
FFFC71E0 0001B89A 
FFFC71E4 9003B802 
FFFC71E8 0000B809 		      	lw   	$v2,_nMsgBlk
FFFC71EC D240B81A 
FFFC71F0 1FFDB85A 
FFFC71F4 4803B802 
FFFC71F8 000118C4 		      	add  	$v2,$v2,#1
FFFC71FC 0000B809 		      	sw   	$v2,_nMsgBlk
FFFC7200 D240B81A 
FFFC7204 1FFDB85A 
FFFC7208 5803B802 
FFFC720C 00281AD2 		      	lw   	$v2,40[$r11]
FFFC7210 004580F1 		      	bgeu 	$v2,$r16,FMTKmsg_60
                        	;====================================================
                        	; Basic Block 12
                        	;====================================================
FFFC7214 00281AD2 		      	lw   	$v2,40[$r11]
FFFC7218 000118C4 		      	add  	$v2,$v2,#1
FFFC721C 00281AD6 		      	sw   	$v2,40[$r11]
                        	FMTKmsg_60:
FFFC7220 00067012 		      	lw   	$r14,6
FFFC7224 00201AD2 		      	lw   	$v2,32[$r11]
FFFC7228 FFFF18C4 		      	sub  	$v2,$v2,#1
FFFC722C 00201AD6 		      	sw   	$v2,32[$r11]
                        	FMTKmsg_58:
                        	FMTKmsg_62:
FFFC7230 00201AD2 		      	lw   	$v2,32[$r11]
FFFC7234 001822D2 		      	lw   	$v3,24[$r11]
FFFC7238 08251930 		      	bgeu 	$v3,$v2,FMTKmsg_63,#2
                        	;====================================================
                        	; Basic Block 13
                        	;====================================================
FFFC723C 00083AE0 		      	lc   	$t2,8[$r11]
FFFC7240 3E0521C2 		      	shl  	$v3,$t2,#5
FFFC7244 0000B809 		      	add  	$r12,$v3,#_message
FFFC7248 1FF0B85A 
FFFC724C 106CB902 
                        	FMTKmsg_64:
FFFC7250 0000B809 		      	sub  	$v3,$r12,#_message
FFFC7254 E010B85A 
FFFC7258 FFFFB89A 
FFFC725C FFFFB8DA 
FFFC7260 1064BB02 
FFFC7264 3E451902 		      	shru 	$v2,$v3,#5
FFFC7268 000A22E0 		      	lc   	$v3,10[$r11]
FFFC726C 63C02122 		      	bfextu	$v3,$v3,#0,#15
FFFC7270 00E020F1 		      	beq  	$v2,$v3,FMTKmsg_65,#2
                        	;====================================================
                        	; Basic Block 14
                        	;====================================================
FFFC7274 8B886B02 		      	mov  	$r13,$r12
FFFC7278 00003B12 		      	lw   	$t2,[$r12]
FFFC727C 3E0521C2 		      	shl  	$v3,$t2,#5
FFFC7280 0000B809 		      	add  	$r12,$v3,#_message
FFFC7284 1FF0B85A 
FFFC7288 106CB902 
FFFC728C FE300030 		      	bra  	FMTKmsg_64
                        	FMTKmsg_65:
                        	;====================================================
                        	; Basic Block 15
                        	;====================================================
FFFC7290 0000B809 		      	sub  	$v3,$r13,#_message
FFFC7294 E010B85A 
FFFC7298 FFFFB89A 
FFFC729C FFFFB8DA 
FFFC72A0 1064BB42 
FFFC72A4 3E451902 		      	shru.c	$v2,$v3,#5
FFFC72A8 63C018E2 		      	bfextu	$v2,$v2,#0,#15
FFFC72AC 000A1AE4 		      	sc   	$v2,10[$r11]
FFFC72B0 5232B809 		      	lc   	$v2,_freeMSG
FFFC72B4 003DB85A 
FFFC72B8 0001B89A 
FFFC72BC 8003B802 
FFFC72C0 63C018E2 		      	bfextu	$v2,$v2,#0,#15
FFFC72C4 00001B24 		      	sc   	$v2,[$r12]
FFFC72C8 0000B809 		      	sub  	$v3,$r12,#_message
FFFC72CC E010B85A 
FFFC72D0 FFFFB89A 
FFFC72D4 FFFFB8DA 
FFFC72D8 1064BB02 
FFFC72DC 3E451902 		      	shru.c	$v2,$v3,#5
FFFC72E0 5232B809 		      	sc   	$v2,_freeMSG
FFFC72E4 003DB85A 
FFFC72E8 0001B89A 
FFFC72EC 9003B802 
FFFC72F0 0000B809 		      	lw   	$v2,_nMsgBlk
FFFC72F4 D240B81A 
FFFC72F8 1FFDB85A 
FFFC72FC 4803B802 
FFFC7300 000118C4 		      	add  	$v2,$v2,#1
FFFC7304 0000B809 		      	sw   	$v2,_nMsgBlk
FFFC7308 D240B81A 
FFFC730C 1FFDB85A 
FFFC7310 5803B802 
FFFC7314 00281AD2 		      	lw   	$v2,40[$r11]
FFFC7318 004580F1 		      	bgeu 	$v2,$r16,FMTKmsg_66
                        	;====================================================
                        	; Basic Block 16
                        	;====================================================
FFFC731C 00281AD2 		      	lw   	$v2,40[$r11]
FFFC7320 000118C4 		      	add  	$v2,$v2,#1
FFFC7324 00281AD6 		      	sw   	$v2,40[$r11]
                        	FMTKmsg_66:
FFFC7328 00201AD2 		      	lw   	$v2,32[$r11]
FFFC732C FFFF18C4 		      	sub  	$v2,$v2,#1
FFFC7330 00201AD6 		      	sw   	$v2,32[$r11]
FFFC7334 00067012 		      	lw   	$r14,6
FFFC7338 F7B00031 		      	bra  	FMTKmsg_62
                        	FMTKmsg_63:
                        	;====================================================
                        	; Basic Block 17
                        	;====================================================
FFFC733C 00061812 		      	lw   	$v2,6
FFFC7340 01811BB1 		      	bne  	$r14,$v2,FMTKmsg_68,#0
                        	;====================================================
                        	; Basic Block 18
                        	;====================================================
FFFC7344 00009009 		      	ldi  	$a0,#_sys_sema
                        		      	     	
                        				std	r0,[r18]
FFFC7348 8B880B82 		      	mov  	$v0,$r14
                        	FMTKmsg_74:
FFFC734C 00005FD2 		      	lw   	$r11,0[$sp]
FFFC7350 000867D2 		      	lw   	$r12,8[$sp]
FFFC7354 00106FD2 		      	lw   	$r13,16[$sp]
FFFC7358 001877D2 		      	lw   	$r14,24[$sp]
FFFC735C 00207FD2 		      	lw   	$r15,32[$sp]
FFFC7360 002887D2 		      	lw   	$r16,40[$sp]
FFFC7364 8B88FF82 		      	mov  	$sp,$fp
FFFC7368 0000F7D2 		      	lw   	$fp,[$sp]
FFFC736C 0010E7D2 		      	lw   	$xlr,16[$sp]
FFFC7370 0018EFD2 		      	lw   	$lr,24[$sp]
FFFC7374 0030EFE9 		      	ret  	#48
                        	FMTKmsg_68:
                        	FMTKmsg_46:
                        	;====================================================
                        	; Basic Block 19
                        	;====================================================
FFFC7378 000A1AE0 		      	lc   	$v2,10[$r11]
FFFC737C 018200F1 		      	blt  	$v2,$r0,FMTKmsg_75
                        	;====================================================
                        	; Basic Block 20
                        	;====================================================
FFFC7380 000A22E0 		      	lc   	$v3,10[$r11]
                        		      	mulu 	$v2,$v3,#32
FFFC7384 0000B809 		      	lw   	$v2,_message[$v2]
FFFC7388 1FF0B85A 
FFFC738C 4803B8C2 
FFFC7390 0000B809 		      	sub  	$t2,$r13,#_message
FFFC7394 E010B85A 
FFFC7398 FFFFB89A 
FFFC739C FFFFB8DA 
FFFC73A0 1067BB42 
FFFC73A4 3E4521C2 		      	shru.c	$v3,$t2,#5
FFFC73A8 63C02122 		      	bfextu	$v3,$v3,#0,#15
FFFC73AC 000020E4 		      	sc   	$v3,[$v2]
FFFC73B0 01300030 		      	bra  	FMTKmsg_76
                        	FMTKmsg_75:
                        	;====================================================
                        	; Basic Block 21
                        	;====================================================
FFFC73B4 0000B809 		      	sub  	$v3,$r13,#_message
FFFC73B8 E010B85A 
FFFC73BC FFFFB89A 
FFFC73C0 FFFFB8DA 
FFFC73C4 1064BB42 
FFFC73C8 3E451902 		      	shru.c	$v2,$v3,#5
FFFC73CC 63C018E2 		      	bfextu	$v2,$v2,#0,#15
FFFC73D0 00081AE4 		      	sc   	$v2,8[$r11]
                        	FMTKmsg_76:
FFFC73D4 0000B809 		      	sub  	$v3,$r13,#_message
FFFC73D8 E010B85A 
FFFC73DC FFFFB89A 
FFFC73E0 FFFFB8DA 
FFFC73E4 1064BB42 
FFFC73E8 3E451902 		      	shru.c	$v2,$v3,#5
FFFC73EC 63C018E2 		      	bfextu	$v2,$v2,#0,#15
FFFC73F0 000A1AE4 		      	sc   	$v2,10[$r11]
FFFC73F4 FFFF1809 		      	ldi  	$v2,#-1
FFFC73F8 63C018E2 		      	bfextu	$v2,$v2,#0,#15
FFFC73FC 00001B64 		      	sc   	$v2,[$r13]
FFFC7400 00009009 		      	ldi  	$a0,#_sys_sema
                        		      	     	
                        				std	r0,[r18]
                        	FMTKmsg_44:
FFFC7404 8B880B82 		      	mov  	$v0,$r14
FFFC7408 FA300030 		      	bra  	FMTKmsg_74
                        	FMTKmsg_41:
                        	;====================================================
                        	; Basic Block 22
                        	;====================================================
FFFC740C 0010EF92 		      	lw   	$lr,16[$fp]
FFFC7410 0018EF96 		      	sw   	$lr,24[$fp]
FFFC7414 F9B00031 		      	bra  	FMTKmsg_74
                        	;====================================================
                        	; Basic Block 0
                        	;====================================================
                        	_DequeueMsg:
FFFC7418 FFE0FFC4 		      	sub  	$sp,$sp,#32
FFFC741C 000807D6 		      	sw   	$r0,8[$sp]
FFFC7420 0000F7D6 		      	sw   	$fp,[$sp]
FFFC7424 8B88F7C2 		      	mov  	$fp,$sp
FFFC7428 FFF0FFC4 		      	sub  	$sp,$sp,#16
FFFC742C FFE8FFC4 		      	sub  	$sp,$sp,#24
FFFC7430 00005FD6 		      	sw   	$r11,0[$sp]
FFFC7434 000867D6 		      	sw   	$r12,8[$sp]
FFFC7438 00106FD6 		      	sw   	$r13,16[$sp]
FFFC743C 00105F92 		      	lw   	$r11,16[$fp]
FFFC7440 FFF86792 		      	lw   	$r12,-8[$fp]
FFFC7444 FFF66FA0 		      	lc   	$r13,-10[$fp]
FFFC7448 00006009 		      	ldi  	$r12,#0
FFFC744C 00200AD2 		      	lw   	$v0,32[$r11]
FFFC7450 02400070 		      	beq  	$v0,$r0,FMTKmsg_95
                        	;====================================================
                        	; Basic Block 1
                        	;====================================================
FFFC7454 00200AD2 		      	lw   	$v0,32[$r11]
FFFC7458 FFFF0844 		      	sub  	$v0,$v0,#1
FFFC745C 00200AD6 		      	sw   	$v0,32[$r11]
FFFC7460 00086AD2 		      	lw   	$r13,8[$r11]
FFFC7464 01820371 		      	blt  	$r13,$r0,FMTKmsg_97
                        	;====================================================
                        	; Basic Block 2
                        	;====================================================
FFFC7468 3E051342 		      	shl  	$v1,$r13,#5
FFFC746C 0000B809 		      	add  	$r12,$v1,#_message
FFFC7470 1FF0B85A 
FFFC7474 106CB882 
FFFC7478 00000B20 		      	lc   	$v0,[$r12]
FFFC747C 00080AE4 		      	sc   	$v0,8[$r11]
FFFC7480 00080AE0 		      	lc   	$v0,8[$r11]
FFFC7484 00430071 		      	bge  	$v0,$r0,FMTKmsg_99
                        	;====================================================
                        	; Basic Block 3
                        	;====================================================
FFFC7488 FFFF0809 		      	ldi  	$v0,#-1
FFFC748C 63C00862 		      	bfextu	$v0,$v0,#0,#15
FFFC7490 000A0AE4 		      	sc   	$v0,10[$r11]
                        	FMTKmsg_99:
FFFC7494 63C06B62 		      	bfextu	$r13,$r13,#0,#15
FFFC7498 00006B24 		      	sc   	$r13,[$r12]
                        	FMTKmsg_97:
                        	FMTKmsg_95:
FFFC749C 8B880B02 		      	mov  	$v0,$r12
FFFC74A0 00005FD2 		      	lw   	$r11,0[$sp]
FFFC74A4 000867D2 		      	lw   	$r12,8[$sp]
FFFC74A8 00106FD2 		      	lw   	$r13,16[$sp]
FFFC74AC 8B88FF82 		      	mov  	$sp,$fp
FFFC74B0 0000F7D2 		      	lw   	$fp,[$sp]
FFFC74B4 0028EFE9 		      	ret  	#40
                        	;====================================================
                        	; Basic Block 0
                        	;====================================================
                        	_DequeThreadFromMbx:
FFFC74B8 FFE0FFC4 		      	sub  	$sp,$sp,#32
FFFC74BC 0018EFD6 		      	sw   	$lr,24[$sp]
FFFC74C0 0010E7D6 		      	sw   	$xlr,16[$sp]
FFFC74C4 000807D6 		      	sw   	$r0,8[$sp]
FFFC74C8 0000F7D6 		      	sw   	$fp,[$sp]
FFFC74CC 7640E009 		      	ldi  	$xlr,#FMTKmsg_126
FFFC74D0 FFFCE05A 
FFFC74D4 8B88F7C2 		      	mov  	$fp,$sp
FFFC74D8 FFF8FFC4 		      	sub  	$sp,$sp,#8
FFFC74DC FFF0FFC4 		      	sub  	$sp,$sp,#16
FFFC74E0 00005FD6 		      	sw   	$r11,0[$sp]
FFFC74E4 000867D6 		      	sw   	$r12,8[$sp]
FFFC74E8 00185F92 		      	lw   	$r11,24[$fp]
FFFC74EC 00206792 		      	lw   	$r12,32[$fp]
FFFC74F0 00000333 		      	beqi 	$r12,#0,FMTKmsg_131
                        	;====================================================
                        	; Basic Block 1
                        	;====================================================
FFFC74F4 010102F0 		      	bne  	$r11,$r0,FMTKmsg_129
                        	FMTKmsg_131:
                        	;====================================================
                        	; Basic Block 2
                        	;====================================================
FFFC74F8 00030812 		      	lw   	$v0,3
                        	FMTKmsg_132:
FFFC74FC 00005FD2 		      	lw   	$r11,0[$sp]
FFFC7500 000867D2 		      	lw   	$r12,8[$sp]
FFFC7504 8B88FF82 		      	mov  	$sp,$fp
FFFC7508 0000F7D2 		      	lw   	$fp,[$sp]
FFFC750C 0010E7D2 		      	lw   	$xlr,16[$sp]
FFFC7510 0018EFD2 		      	lw   	$lr,24[$sp]
FFFC7514 0020EFE9 		      	ret  	#32
                        	FMTKmsg_129:
                        	;====================================================
                        	; Basic Block 3
                        	;====================================================
FFFC7518 00009009 		      	ldi  	$a0,#_sys_sema
FFFC751C FFFF9809 		      	ldi  	$a1,#-1
FFFC7520 FFC5B719 		      	call 	_LockSemaphore
FFFC7524 05000070 		      	beq  	$v0,$r0,FMTKmsg_133
                        	;====================================================
                        	; Basic Block 4
                        	;====================================================
FFFC7528 00041AE0 		      	lc   	$v2,4[$r11]
FFFC752C FFFF20C6 		      	cmp  	$v3,$v2,#-1
FFFC7530 00810131 		      	bne  	$v3,$r0,FMTKmsg_135,#0
                        	;====================================================
                        	; Basic Block 5
                        	;====================================================
FFFC7534 00009009 		      	ldi  	$a0,#_sys_sema
                        		      	     	
                        				std	r0,[r18]
FFFC7538 00001809 		      	ldi  	$v2,#0
FFFC753C 00001B16 		      	sw   	$v2,[$r12]
FFFC7540 00070812 		      	lw   	$v0,7
FFFC7544 FDB00031 		      	bra  	FMTKmsg_132
                        	FMTKmsg_135:
                        	;====================================================
                        	; Basic Block 6
                        	;====================================================
FFFC7548 00101AD2 		      	lw   	$v2,16[$r11]
FFFC754C FFFF18C4 		      	sub  	$v2,$v2,#1
FFFC7550 00101AD6 		      	sw   	$v2,16[$r11]
FFFC7554 00043AE0 		      	lc   	$t2,4[$r11]
FFFC7558 3E0A21C2 		      	shl  	$v3,$t2,#10
FFFC755C 5400B809 		      	add  	$v2,$v3,#_tcbs
FFFC7560 004DB85A 
FFFC7564 0001B89A 
FFFC7568 1063B902 
FFFC756C 00001B16 		      	sw   	$v2,[$r12]
FFFC7570 000422E0 		      	lc   	$v3,4[$r11]
                        		      	mulu 	$v2,$v3,#1024
FFFC7574 5400B809 		      	lw   	$v2,_tcbs[$v2]
FFFC7578 004DB85A 
FFFC757C 0001B89A 
FFFC7580 4803B8C2 
FFFC7584 021E20E0 		      	lc   	$v3,542[$v2]
FFFC7588 000422E4 		      	sc   	$v3,4[$r11]
FFFC758C 00041AE0 		      	lc   	$v2,4[$r11]
FFFC7590 01031831 		      	bge  	$r0,$v2,FMTKmsg_141
                        	;====================================================
                        	; Basic Block 7
                        	;====================================================
FFFC7594 000422E0 		      	lc   	$v3,4[$r11]
                        		      	mulu 	$v2,$v3,#1024
FFFC7598 5400B809 		      	lw   	$v2,_tcbs[$v2]
FFFC759C 004DB85A 
FFFC75A0 0001B89A 
FFFC75A4 4803B8C2 
FFFC75A8 FFFF2009 		      	ldi  	$v3,#-1
FFFC75AC 63C02122 		      	bfextu	$v3,$v3,#0,#15
FFFC75B0 022020E4 		      	sc   	$v3,544[$v2]
FFFC75B4 00700031 		      	bra  	FMTKmsg_142
                        	FMTKmsg_141:
                        	;====================================================
                        	; Basic Block 8
                        	;====================================================
FFFC75B8 FFFF1809 		      	ldi  	$v2,#-1
FFFC75BC 63C018E2 		      	bfextu	$v2,$v2,#0,#15
FFFC75C0 00061AE4 		      	sc   	$v2,6[$r11]
                        	FMTKmsg_142:
FFFC75C4 00009009 		      	ldi  	$a0,#_sys_sema
                        		      	     	
                        				std	r0,[r18]
                        	FMTKmsg_133:
FFFC75C8 00002312 		      	lw   	$v3,[$r12]
FFFC75CC 028F2113 		      	lb   	$v3,655[$v3]
FFFC75D0 00011908 		      	and  	$v2,$v3,#1
FFFC75D4 008000F1 		      	beq  	$v2,$r0,FMTKmsg_147
                        	;====================================================
                        	; Basic Block 9
                        	;====================================================
FFFC75D8 FFF8FFC4 		      	sub  	$sp,$sp,#8
FFFC75DC 00001B12 		      	lw   	$v2,[$r12]
FFFC75E0 00001FD6 		      	sw   	$v2,0[$sp]
FFFC75E4 FFC7ED59 		      	call 	_RemoveFromTimeoutList
FFFC75E8 0008FFC4 		      	add  	$sp,$sp,#8
                        	FMTKmsg_147:
FFFC75EC 00001B12 		      	lw   	$v2,[$r12]
FFFC75F0 00002312 		      	lw   	$v3,[$r12]
FFFC75F4 FFFF3809 		      	ldi  	$t2,#-1
FFFC75F8 63C039E2 		      	bfextu	$t2,$t2,#0,#15
FFFC75FC 021E3924 		      	sc   	$t2,542[$v3]
FFFC7600 021E2120 		      	lc   	$v3,542[$v3]
FFFC7604 63C02122 		      	bfextu	$v3,$v3,#0,#15
FFFC7608 022020E4 		      	sc   	$v3,544[$v2]
FFFC760C 00001B12 		      	lw   	$v2,[$r12]
FFFC7610 FFFF2009 		      	ldi  	$v3,#-1
FFFC7614 63C02122 		      	bfextu	$v3,$v3,#0,#15
FFFC7618 028820E4 		      	sc   	$v3,648[$v2]
FFFC761C 00001B12 		      	lw   	$v2,[$r12]
FFFC7620 028F20D3 		      	lb   	$v3,655[$v2]
FFFC7624 FFFD2108 		      	and  	$v3,$v3,#-3
FFFC7628 028F20D5 		      	sb   	$v3,655[$v2]
FFFC762C 028F20D3 		      	lb   	$v3,655[$v2]
FFFC7630 51C02122 		      	bfext	$v3,$v3,#0,#7
FFFC7634 028F20E4 		      	sc   	$v3,655[$v2]
FFFC7638 00000812 		      	lw   	$v0,0
FFFC763C F5F00031 		      	bra  	FMTKmsg_132
                        	FMTKmsg_126:
                        	;====================================================
                        	; Basic Block 10
                        	;====================================================
FFFC7640 0010EF92 		      	lw   	$lr,16[$fp]
FFFC7644 0018EF96 		      	sw   	$lr,24[$fp]
FFFC7648 F5B00030 		      	bra  	FMTKmsg_132
                        	;====================================================
                        	; Basic Block 0
                        	;====================================================
FFFC764C FFE0FFC4 	public code _FMTK_AllocMbx:
	      	sub  	$sp,$sp,#32
FFFC7650 0018EFD6 		      	sw   	$lr,24[$sp]
FFFC7654 0010E7D6 		      	sw   	$xlr,16[$sp]
FFFC7658 000807D6 		      	sw   	$r0,8[$sp]
FFFC765C 0000F7D6 		      	sw   	$fp,[$sp]
FFFC7660 77DCE009 		      	ldi  	$xlr,#FMTKmsg_168
FFFC7664 FFFCE05A 
FFFC7668 8B88F7C2 		      	mov  	$fp,$sp
FFFC766C FFF0FFC4 		      	sub  	$sp,$sp,#16
FFFC7670 FFF0FFC4 		      	sub  	$sp,$sp,#16
FFFC7674 00005FD6 		      	sw   	$r11,0[$sp]
FFFC7678 000867D6 		      	sw   	$r12,8[$sp]
FFFC767C FFF85F92 		      	lw   	$r11,-8[$fp]
FFFC7680 00186792 		      	lw   	$r12,24[$fp]
                        		      	     	
FFFC7684 01010330 		      	bne  	$r12,$r0,FMTKmsg_171
                        	;====================================================
                        	; Basic Block 1
                        	;====================================================
FFFC7688 00030812 		      	lw   	$v0,3
                        	FMTKmsg_173:
FFFC768C 00005FD2 		      	lw   	$r11,0[$sp]
FFFC7690 000867D2 		      	lw   	$r12,8[$sp]
FFFC7694 8B88FF82 		      	mov  	$sp,$fp
FFFC7698 0000F7D2 		      	lw   	$fp,[$sp]
FFFC769C 0010E7D2 		      	lw   	$xlr,16[$sp]
FFFC76A0 0018EFD2 		      	lw   	$lr,24[$sp]
FFFC76A4 0020EFE9 		      	ret  	#32
                        	FMTKmsg_171:
                        	;====================================================
                        	; Basic Block 2
                        	;====================================================
FFFC76A8 00009009 		      	ldi  	$a0,#_sys_sema
FFFC76AC FFFF9809 		      	ldi  	$a1,#-1
FFFC76B0 FFC5B719 		      	call 	_LockSemaphore
FFFC76B4 04800071 		      	beq  	$v0,$r0,FMTKmsg_174
                        	;====================================================
                        	; Basic Block 3
                        	;====================================================
FFFC76B8 5234B809 		      	lc   	$v2,_freeMBX
FFFC76BC 003DB85A 
FFFC76C0 0001B89A 
FFFC76C4 8003B802 
FFFC76C8 00C200F0 		      	blt  	$v2,$r0,FMTKmsg_178
                        	;====================================================
                        	; Basic Block 4
                        	;====================================================
FFFC76CC 5234B809 		      	lc   	$v2,_freeMBX
FFFC76D0 003DB85A 
FFFC76D4 0001B89A 
FFFC76D8 8003B802 
FFFC76DC 040020C6 		      	cmp  	$v3,$v2,#1024
FFFC76E0 00520131 		      	blt  	$v3,$r0,FMTKmsg_176,#1
                        	FMTKmsg_178:
                        	;====================================================
                        	; Basic Block 5
                        	;====================================================
FFFC76E4 00009009 		      	ldi  	$a0,#_sys_sema
                        		      	     	
                        				std	r0,[r18]
FFFC76E8 00170812 		      	lw   	$v0,23
FFFC76EC FCF00031 		      	bra  	FMTKmsg_173
                        	FMTKmsg_176:
                        	;====================================================
                        	; Basic Block 6
                        	;====================================================
FFFC76F0 5234B809 		      	lc   	$t2,_freeMBX
FFFC76F4 003DB85A 
FFFC76F8 0001B89A 
FFFC76FC 8007B802 
FFFC7700 3E0621C2 		      	shl  	$v3,$t2,#6
FFFC7704 0000B809 		      	add  	$r11,$v3,#_mailbox
FFFC7708 1FFCB85A 
FFFC770C 106BB902 
FFFC7710 00001AE0 		      	lc   	$v2,[$r11]
FFFC7714 5234B809 		      	sc   	$v2,_freeMBX
FFFC7718 003DB85A 
FFFC771C 0001B89A 
FFFC7720 9003B802 
FFFC7724 0000B809 		      	lw   	$v2,_nMailbox
FFFC7728 D248B81A 
FFFC772C 1FFDB85A 
FFFC7730 4803B802 
FFFC7734 FFFF18C4 		      	sub  	$v2,$v2,#1
FFFC7738 0000B809 		      	sw   	$v2,_nMailbox
FFFC773C D248B81A 
FFFC7740 1FFDB85A 
FFFC7744 5803B802 
FFFC7748 00009009 		      	ldi  	$a0,#_sys_sema
                        		      	     	
                        				std	r0,[r18]
                        	FMTKmsg_174:
FFFC774C 0000B809 		      	sub  	$v3,$r11,#_mailbox
FFFC7750 E004B85A 
FFFC7754 FFFFB89A 
FFFC7758 FFFFB8DA 
FFFC775C 1064BAC2 
FFFC7760 3E461902 		      	shru.c	$v2,$v3,#6
FFFC7764 63C018E2 		      	bfextu	$v2,$v2,#0,#15
FFFC7768 00001B24 		      	sc   	$v2,[$r12]
FFFC776C FFC5EC19 		      	call 	_GetACBPtr
FFFC7770 63C00862 		      	bfextu	$v0,$v0,#0,#15
FFFC7774 00020AE4 		      	sc   	$v0,2[$r11]
FFFC7778 FFFF1809 		      	ldi  	$v2,#-1
FFFC777C 63C018E2 		      	bfextu	$v2,$v2,#0,#15
FFFC7780 00041AE4 		      	sc   	$v2,4[$r11]
FFFC7784 FFFF1809 		      	ldi  	$v2,#-1
FFFC7788 63C018E2 		      	bfextu	$v2,$v2,#0,#15
FFFC778C 00061AE4 		      	sc   	$v2,6[$r11]
FFFC7790 FFFF1809 		      	ldi  	$v2,#-1
FFFC7794 63C018E2 		      	bfextu	$v2,$v2,#0,#15
FFFC7798 00081AE4 		      	sc   	$v2,8[$r11]
FFFC779C FFFF1809 		      	ldi  	$v2,#-1
FFFC77A0 63C018E2 		      	bfextu	$v2,$v2,#0,#15
FFFC77A4 000A1AE4 		      	sc   	$v2,10[$r11]
FFFC77A8 00001809 		      	ldi  	$v2,#0
FFFC77AC 00101AD6 		      	sw   	$v2,16[$r11]
FFFC77B0 00001809 		      	ldi  	$v2,#0
FFFC77B4 00201AD6 		      	sw   	$v2,32[$r11]
FFFC77B8 00001809 		      	ldi  	$v2,#0
FFFC77BC 00281AD6 		      	sw   	$v2,40[$r11]
FFFC77C0 00081809 		      	ldi  	$v2,#8
FFFC77C4 00181AD6 		      	sw   	$v2,24[$r11]
FFFC77C8 00021809 		      	ldi  	$v2,#2
FFFC77CC 63C018E2 		      	bfextu	$v2,$v2,#0,#15
FFFC77D0 000C1AE4 		      	sc   	$v2,12[$r11]
FFFC77D4 00000812 		      	lw   	$v0,0
FFFC77D8 F5B00030 		      	bra  	FMTKmsg_173
                        	FMTKmsg_168:
                        	;====================================================
                        	; Basic Block 7
                        	;====================================================
FFFC77DC 0010EF92 		      	lw   	$lr,16[$fp]
FFFC77E0 0018EF96 		      	sw   	$lr,24[$fp]
FFFC77E4 F5300031 		      	bra  	FMTKmsg_173
                        	endpublic
                        	
                        	;====================================================
                        	; Basic Block 0
                        	;====================================================
FFFC77E8 FFE0FFC4 	public code _FMTK_FreeMbx:
	      	sub  	$sp,$sp,#32
FFFC77EC 0018EFD6 		      	sw   	$lr,24[$sp]
FFFC77F0 0010E7D6 		      	sw   	$xlr,16[$sp]
FFFC77F4 000807D6 		      	sw   	$r0,8[$sp]
FFFC77F8 0000F7D6 		      	sw   	$fp,[$sp]
FFFC77FC 7A4CE009 		      	ldi  	$xlr,#FMTKmsg_211
FFFC7800 FFFCE05A 
FFFC7804 8B88F7C2 		      	mov  	$fp,$sp
FFFC7808 FFE0FFC4 		      	sub  	$sp,$sp,#32
FFFC780C FFE0FFC4 		      	sub  	$sp,$sp,#32
FFFC7810 00005FD6 		      	sw   	$r11,0[$sp]
FFFC7814 000867D6 		      	sw   	$r12,8[$sp]
FFFC7818 00106FD6 		      	sw   	$r13,16[$sp]
FFFC781C 001877D6 		      	sw   	$r14,24[$sp]
FFFC7820 FFE81F84 		      	lea  	$v2,-24[$fp]
FFFC7824 8B8858C2 		      	mov  	$r11,$v2
FFFC7828 FFF06792 		      	lw   	$r12,-16[$fp]
FFFC782C FFF86F92 		      	lw   	$r13,-8[$fp]
FFFC7830 001877A0 		      	lc   	$r14,24[$fp]
                        		      	     	
                        		      	chki 	$r14,$r0,#1024
FFFC7834 3E062382 		      	shl  	$v3,$r14,#6
FFFC7838 0000B809 		      	add  	$r13,$v3,#_mailbox
FFFC783C 1FFCB85A 
FFFC7840 106DB902 
FFFC7844 00009009 		      	ldi  	$a0,#_sys_sema
FFFC7848 FFFF9809 		      	ldi  	$a1,#-1
FFFC784C FFC5B719 		      	call 	_LockSemaphore
FFFC7850 0F800070 		      	beq  	$v0,$r0,FMTKmsg_214
                        	;====================================================
                        	; Basic Block 1
                        	;====================================================
FFFC7854 00021B60 		      	lc   	$v2,2[$r13]
FFFC7858 FFE01F96 		      	sw   	$v2,-32[$fp]
FFFC785C 0000E818 		      	call 	_GetJCBPtr
FFFC7860 FFE01F92 		      	lw   	$v2,-32[$fp]
FFFC7864 019008F1 		      	beq  	$v2,$v0,FMTKmsg_216,#1
                        	;====================================================
                        	; Basic Block 2
                        	;====================================================
FFFC7868 0000E818 		      	call 	_GetJCBPtr
FFFC786C 01400071 		      	beq  	$v0,$r0,FMTKmsg_216
                        	;====================================================
                        	; Basic Block 3
                        	;====================================================
FFFC7870 00009009 		      	ldi  	$a0,#_sys_sema
                        		      	     	
                        				std	r0,[r18]
FFFC7874 000C0812 		      	lw   	$v0,12
                        	FMTKmsg_222:
FFFC7878 00005FD2 		      	lw   	$r11,0[$sp]
FFFC787C 000867D2 		      	lw   	$r12,8[$sp]
FFFC7880 00106FD2 		      	lw   	$r13,16[$sp]
FFFC7884 001877D2 		      	lw   	$r14,24[$sp]
FFFC7888 8B88FF82 		      	mov  	$sp,$fp
FFFC788C 0000F7D2 		      	lw   	$fp,[$sp]
FFFC7890 0010E7D2 		      	lw   	$xlr,16[$sp]
FFFC7894 0018EFD2 		      	lw   	$lr,24[$sp]
FFFC7898 0020EFE9 		      	ret  	#32
                        	FMTKmsg_216:
                        	FMTKmsg_223:
                        	;====================================================
                        	; Basic Block 4
                        	;====================================================
FFFC789C FFF8FFC4 		      	sub  	$sp,$sp,#8
FFFC78A0 00006FD6 		      	sw   	$r13,0[$sp]
FFFC78A4 FFC74199 		      	call 	_DequeueMsg
FFFC78A8 8B886042 		      	mov  	$r12,$v0
FFFC78AC 04400331 		      	beq  	$r12,$r0,FMTKmsg_224
                        	;====================================================
                        	; Basic Block 5
                        	;====================================================
FFFC78B0 00011809 		      	ldi  	$v2,#1
FFFC78B4 63C018E2 		      	bfextu	$v2,$v2,#0,#15
FFFC78B8 00061B24 		      	sc   	$v2,6[$r12]
FFFC78BC FFFF1809 		      	ldi  	$v2,#-1
FFFC78C0 63C018E2 		      	bfextu	$v2,$v2,#0,#15
FFFC78C4 00021B24 		      	sc   	$v2,2[$r12]
FFFC78C8 FFFF1809 		      	ldi  	$v2,#-1
FFFC78CC 63C018E2 		      	bfextu	$v2,$v2,#0,#15
FFFC78D0 00041B24 		      	sc   	$v2,4[$r12]
FFFC78D4 5232B809 		      	lc   	$v2,_freeMSG
FFFC78D8 003DB85A 
FFFC78DC 0001B89A 
FFFC78E0 8003B802 
FFFC78E4 63C018E2 		      	bfextu	$v2,$v2,#0,#15
FFFC78E8 00001B24 		      	sc   	$v2,[$r12]
FFFC78EC 0000B809 		      	sub  	$v3,$r12,#_message
FFFC78F0 E010B85A 
FFFC78F4 FFFFB89A 
FFFC78F8 FFFFB8DA 
FFFC78FC 1064BB02 
FFFC7900 3E451902 		      	shru.c	$v2,$v3,#5
FFFC7904 5232B809 		      	sc   	$v2,_freeMSG
FFFC7908 003DB85A 
FFFC790C 0001B89A 
FFFC7910 9003B802 
FFFC7914 0000B809 		      	lw   	$v2,_nMsgBlk
FFFC7918 D240B81A 
FFFC791C 1FFDB85A 
FFFC7920 4803B802 
FFFC7924 000118C4 		      	add  	$v2,$v2,#1
FFFC7928 0000B809 		      	sw   	$v2,_nMsgBlk
FFFC792C D240B81A 
FFFC7930 1FFDB85A 
FFFC7934 5803B802 
FFFC7938 FB300030 		      	bra  	FMTKmsg_223
                        	FMTKmsg_224:
                        	FMTKmsg_225:
                        	;====================================================
                        	; Basic Block 6
                        	;====================================================
FFFC793C FFF0FFC4 		      	sub  	$sp,$sp,#16
FFFC7940 00006FD6 		      	sw   	$r13,0[$sp]
FFFC7944 00085FD6 		      	sw   	$r11,8[$sp]
FFFC7948 FFC74B99 		      	call 	_DequeThreadFromMbx
FFFC794C 0010FFC4 		      	add  	$sp,$sp,#16
FFFC7950 00001AD2 		      	lw   	$v2,[$r11]
FFFC7954 000100F1 		      	bne  	$v2,$r0,FMTKmsg_227
                        	;====================================================
                        	; Basic Block 7
                        	;====================================================
FFFC7958 04300030 		      	bra  	FMTKmsg_226
                        	FMTKmsg_227:
                        	;====================================================
                        	; Basic Block 8
                        	;====================================================
FFFC795C 00001AD2 		      	lw   	$v2,[$r11]
FFFC7960 026018D2 		      	lw   	$v2,608[$v2]
FFFC7964 00002009 		      	ldi  	$v3,#0
FFFC7968 63C02122 		      	bfextu	$v3,$v3,#0,#15
FFFC796C 000620E4 		      	sc   	$v3,6[$v2]
FFFC7970 000022D2 		      	lw   	$v3,[$r11]
FFFC7974 028F2113 		      	lb   	$v3,655[$v3]
FFFC7978 00011908 		      	and  	$v2,$v3,#1
FFFC797C 014000F1 		      	beq  	$v2,$r0,FMTKmsg_229
                        	;====================================================
                        	; Basic Block 9
                        	;====================================================
FFFC7980 FFF8FFC4 		      	sub  	$sp,$sp,#8
FFFC7984 00003AD2 		      	lw   	$t2,[$r11]
FFFC7988 AC00B809 		      	sub  	$v3,$t2,#_tcbs
FFFC798C FFB2B85A 
FFFC7990 FFFEB89A 
FFFC7994 FFFFB8DA 
FFFC7998 1064B9C2 
FFFC799C 3E4A1902 		      	shru 	$v2,$v3,#10
FFFC79A0 00001FD6 		      	sw   	$v2,0[$sp]
FFFC79A4 FFC7ED59 		      	call 	_RemoveFromTimeoutList
FFFC79A8 0008FFC4 		      	add  	$sp,$sp,#8
                        	FMTKmsg_229:
FFFC79AC FFF8FFC4 		      	sub  	$sp,$sp,#8
FFFC79B0 00003AD2 		      	lw   	$t2,[$r11]
FFFC79B4 AC00B809 		      	sub  	$v3,$t2,#_tcbs
FFFC79B8 FFB2B85A 
FFFC79BC FFFEB89A 
FFFC79C0 FFFFB8DA 
FFFC79C4 1064B9C2 
FFFC79C8 3E4A1902 		      	shru 	$v2,$v3,#10
FFFC79CC 00001FD6 		      	sw   	$v2,0[$sp]
FFFC79D0 FFC7A919 		      	call 	_InsertIntoReadyList
FFFC79D4 0008FFC4 		      	add  	$sp,$sp,#8
FFFC79D8 FB300030 		      	bra  	FMTKmsg_225
                        	FMTKmsg_226:
                        	;====================================================
                        	; Basic Block 10
                        	;====================================================
FFFC79DC 5234B809 		      	lc   	$v2,_freeMBX
FFFC79E0 003DB85A 
FFFC79E4 0001B89A 
FFFC79E8 8003B802 
FFFC79EC 63C018E2 		      	bfextu	$v2,$v2,#0,#15
FFFC79F0 00001B64 		      	sc   	$v2,[$r13]
FFFC79F4 0000B809 		      	sub  	$v3,$r13,#_mailbox
FFFC79F8 E004B85A 
FFFC79FC FFFFB89A 
FFFC7A00 FFFFB8DA 
FFFC7A04 1064BB42 
FFFC7A08 3E461902 		      	shru.c	$v2,$v3,#6
FFFC7A0C 5234B809 		      	sc   	$v2,_freeMBX
FFFC7A10 003DB85A 
FFFC7A14 0001B89A 
FFFC7A18 9003B802 
FFFC7A1C 0000B809 		      	lw   	$v2,_nMailbox
FFFC7A20 D248B81A 
FFFC7A24 1FFDB85A 
FFFC7A28 4803B802 
FFFC7A2C 000118C4 		      	add  	$v2,$v2,#1
FFFC7A30 0000B809 		      	sw   	$v2,_nMailbox
FFFC7A34 D248B81A 
FFFC7A38 1FFDB85A 
FFFC7A3C 5803B802 
FFFC7A40 00009009 		      	ldi  	$a0,#_sys_sema
                        		      	     	
                        				std	r0,[r18]
                        	FMTKmsg_214:
FFFC7A44 00000812 		      	lw   	$v0,0
FFFC7A48 F1700031 		      	bra  	FMTKmsg_222
                        	FMTKmsg_211:
                        	;====================================================
                        	; Basic Block 11
                        	;====================================================
FFFC7A4C 0010EF92 		      	lw   	$lr,16[$fp]
FFFC7A50 0018EF96 		      	sw   	$lr,24[$fp]
FFFC7A54 F1300030 		      	bra  	FMTKmsg_222
                        	endpublic
                        	
                        		code
FFFC7A58 00000000 		align	1
FFFC7A5C 00000000 
                        	
                        		code
                        		align	16                        	
                        	;====================================================
                        	; Basic Block 0
                        	;====================================================
FFFC7A60 FFE0FFC4 	public code _chkTCB:
	      	sub  	$sp,$sp,#32
FFFC7A64 000807D6 		      	sw   	$r0,8[$sp]
FFFC7A68 0000F7D6 		      	sw   	$fp,[$sp]
FFFC7A6C 8B88F7C2 		      	mov  	$fp,$sp
FFFC7A70 0000FFC4 		      	sub  	$sp,$sp,#0
                        	;     asm {
                        		      	     	
FFFC7A74 FFFF9074 				chk   r1,r18,b48
                        	;     }
FFFC7A78 8B88FF82 		      	mov  	$sp,$fp
FFFC7A7C 0000F7D2 		      	lw   	$fp,[$sp]
FFFC7A80 0020EFE9 		      	ret  	#32
                        	endpublic
                        	
                        		code
FFFC7A84 00000000 		align	1
FFFC7A88 00000000 
FFFC7A8C 00000000 
                        	
                        	;====================================================
                        	; Basic Block 0
                        	;====================================================
FFFC7A90 FFE0FFC4 	public code _InsertIntoReadyList:
	      	sub  	$sp,$sp,#32
FFFC7A94 000807D6 		      	sw   	$r0,8[$sp]
FFFC7A98 0000F7D6 		      	sw   	$fp,[$sp]
FFFC7A9C 8B88F7C2 		      	mov  	$fp,$sp
FFFC7AA0 FFE8FFC4 		      	sub  	$sp,$sp,#24
FFFC7AA4 FFE8FFC4 		      	sub  	$sp,$sp,#24
FFFC7AA8 00005FD6 		      	sw   	$r11,0[$sp]
FFFC7AAC 000867D6 		      	sw   	$r12,8[$sp]
FFFC7AB0 00106FD6 		      	sw   	$r13,16[$sp]
FFFC7AB4 FFF05F92 		      	lw   	$r11,-16[$fp]
FFFC7AB8 FFFE67A0 		      	lc   	$r12,-2[$fp]
FFFC7ABC FFE86F92 		      	lw   	$r13,-24[$fp]
                        	;     __check(ht >=0 && ht < 256);
                        		      	chki 	$a0,$r0,#256
                        	;     p = &tcbs[ht];
FFFC7AC0 3E0A1482 		      	shl  	$v1,$a0,#10
FFFC7AC4 5400B809 		      	add  	$r11,$v1,#_tcbs
FFFC7AC8 004DB85A 
FFFC7ACC 0001B89A 
FFFC7AD0 106BB882 
                        	; 	if (p->priority > 077 || p->priority < 000)
FFFC7AD4 028E0AD3 		      	lb   	$v0,654[$r11]
FFFC7AD8 003F1046 		      	cmp  	$v1,$v0,#63
FFFC7ADC 00421030 		      	blt  	$r0,$v1,TCB_24,#0
                        	;====================================================
                        	; Basic Block 1
                        	;====================================================
FFFC7AE0 028E0AD3 		      	lb   	$v0,654[$r11]
FFFC7AE4 00C30071 		      	bge  	$v0,$r0,TCB_22
                        	TCB_24:
                        	;====================================================
                        	; Basic Block 2
                        	;====================================================
                        	; 		return E_BadPriority;
FFFC7AE8 00000812 		      	lw   	$v0,0
                        	TCB_25:
FFFC7AEC 00005FD2 		      	lw   	$r11,0[$sp]
FFFC7AF0 000867D2 		      	lw   	$r12,8[$sp]
FFFC7AF4 00106FD2 		      	lw   	$r13,16[$sp]
FFFC7AF8 8B88FF82 		      	mov  	$sp,$fp
FFFC7AFC 0000F7D2 		      	lw   	$fp,[$sp]
FFFC7B00 0020EFE9 		      	ret  	#32
                        	TCB_22:
                        	;====================================================
                        	; Basic Block 3
                        	;====================================================
                        	; 	if (p->priority < 003)
FFFC7B04 028E0AD3 		      	lb   	$v0,654[$r11]
FFFC7B08 00031046 		      	cmp  	$v1,$v0,#3
FFFC7B0C 028300B1 		      	bge  	$v1,$r0,TCB_26,#0
                        	;====================================================
                        	; Basic Block 4
                        	;====================================================
                        	; 	   hasUltraHighPriorityTasks |= (1 << p->priority);
FFFC7B10 00011009 		      	ldi  	$v1,#1
FFFC7B14 028E1AD3 		      	lb   	$v2,654[$r11]
FFFC7B18 51C018E2 		      	bfext	$v2,$v2,#0,#7
FFFC7B1C 3C811882 		      	asl  	$v0,$v1,$v2
	      	lc   	$v1,_hasUltraHighPriorityTasks
FFFC7B20 0000B809 
FFFC7B24 D258B81A 
FFFC7B28 1FFDB85A 
FFFC7B2C 8002B802 
FFFC7B30 24620882 		      	or   	$v1,$v1,$v0
	      	sc   	$v1,_hasUltraHighPriorityTasks
FFFC7B34 0000B809 
FFFC7B38 D258B81A 
FFFC7B3C 1FFDB85A 
FFFC7B40 9002B802 
FFFC7B44 0000B809 		      	lc   	$v0,_hasUltraHighPriorityTasks
FFFC7B48 D258B81A 
FFFC7B4C 1FFDB85A 
FFFC7B50 8001B802 
FFFC7B54 0000B809 		      	sw   	$v0,_hasUltraHighPriorityTasks
FFFC7B58 D258B81A 
FFFC7B5C 1FFDB85A 
FFFC7B60 5801B802 
                        	TCB_26:
                        	; 	p->status = 16;
FFFC7B64 00100809 		      	ldi  	$v0,#16
FFFC7B68 61C00862 		      	bfextu	$v0,$v0,#0,#7
FFFC7B6C 028F0AD5 		      	sb   	$v0,655[$r11]
                        	; 	hq = readyQ[p->priority>>3];
FFFC7B70 028E1AD3 		      	lb   	$v2,654[$r11]
FFFC7B74 3EC310C2 		      	asr  	$v1,$v2,#3
FFFC7B78 0000B809 		      	lw   	$r12,_readyQ[$v1]
FFFC7B7C D268B81A 
FFFC7B80 1FFDB85A 
FFFC7B84 480CB882 
                        	; 	if (hq<0) {
FFFC7B88 01830330 		      	bge  	$r12,$r0,TCB_28
                        	;====================================================
                        	; Basic Block 5
                        	;====================================================
                        	; 		p->next = ht;
FFFC7B8C 63C094A2 		      	bfextu	$a0,$a0,#0,#15
FFFC7B90 021A92E4 		      	sc   	$a0,538[$r11]
                        	; 		p->prev = ht;
FFFC7B94 63C094A2 		      	bfextu	$a0,$a0,#0,#15
FFFC7B98 021C92E4 		      	sc   	$a0,540[$r11]
                        	; 		readyQ[p->priority>>3] = ht;
FFFC7B9C 028E1AD3 		      	lb   	$v2,654[$r11]
FFFC7BA0 3EC310C2 		      	asr  	$v1,$v2,#3
FFFC7BA4 0000B809 		      	sc   	$a0,_readyQ[$v1]
FFFC7BA8 D268B81A 
FFFC7BAC 1FFDB85A 
FFFC7BB0 9012B882 
                        	; 		return E_Ok;
FFFC7BB4 00000812 		      	lw   	$v0,0
FFFC7BB8 F9B00030 		      	bra  	TCB_25
                        	TCB_28:
                        	;====================================================
                        	; Basic Block 6
                        	;====================================================
                        	; 	q = &tcbs[hq];
FFFC7BBC 3E0A1302 		      	shl  	$v1,$r12,#10
FFFC7BC0 5400B809 		      	add  	$r13,$v1,#_tcbs
FFFC7BC4 004DB85A 
FFFC7BC8 0001B89A 
FFFC7BCC 106DB882 
                        	; 	p->next = hq;
FFFC7BD0 63C06322 		      	bfextu	$r12,$r12,#0,#15
FFFC7BD4 021A62E4 		      	sc   	$r12,538[$r11]
                        	; 	p->prev = q->prev;
FFFC7BD8 021C0B60 		      	lc   	$v0,540[$r13]
FFFC7BDC 021C0AE4 		      	sc   	$v0,540[$r11]
                        	; 	tcbs[q->prev].next = ht;
FFFC7BE0 021C1360 		      	lc   	$v1,540[$r13]
                        		      	mulu 	$v0,$v1,#1024
FFFC7BE4 5400B809 		      	lw   	$v0,_tcbs[$v0]
FFFC7BE8 004DB85A 
FFFC7BEC 0001B89A 
FFFC7BF0 4801B842 
FFFC7BF4 63C094A2 		      	bfextu	$a0,$a0,#0,#15
FFFC7BF8 021A9064 		      	sc   	$a0,538[$v0]
                        	; 	q->prev = ht;
FFFC7BFC 63C094A2 		      	bfextu	$a0,$a0,#0,#15
FFFC7C00 021C9364 		      	sc   	$a0,540[$r13]
                        	; 	return E_Ok;
FFFC7C04 00000812 		      	lw   	$v0,0
FFFC7C08 F7300030 		      	bra  	TCB_25
                        	endpublic
                        	
                        	;====================================================
                        	; Basic Block 0
                        	;====================================================
FFFC7C0C FFE0FFC4 	public code _RemoveFromReadyList:
	      	sub  	$sp,$sp,#32
FFFC7C10 000807D6 		      	sw   	$r0,8[$sp]
FFFC7C14 0000F7D6 		      	sw   	$fp,[$sp]
FFFC7C18 8B88F7C2 		      	mov  	$fp,$sp
FFFC7C1C FFF8FFC4 		      	sub  	$sp,$sp,#8
FFFC7C20 FFF8FFC4 		      	sub  	$sp,$sp,#8
FFFC7C24 00005FD6 		      	sw   	$r11,0[$sp]
FFFC7C28 FFF85F92 		      	lw   	$r11,-8[$fp]
                        	;     __check(ht >=0 && ht < 256);
                        		      	chki 	$a0,$r0,#256
                        	;     t = &tcbs[ht];
FFFC7C2C 3E0A1482 		      	shl  	$v1,$a0,#10
FFFC7C30 5400B809 		      	add  	$r11,$v1,#_tcbs
FFFC7C34 004DB85A 
FFFC7C38 0001B89A 
FFFC7C3C 106BB882 
                        	; 	if (t->priority > 077 || t->priority < 000)
FFFC7C40 028E0AD3 		      	lb   	$v0,654[$r11]
FFFC7C44 003F1046 		      	cmp  	$v1,$v0,#63
FFFC7C48 00421030 		      	blt  	$r0,$v1,TCB_46,#0
                        	;====================================================
                        	; Basic Block 1
                        	;====================================================
FFFC7C4C 028E0AD3 		      	lb   	$v0,654[$r11]
FFFC7C50 00830071 		      	bge  	$v0,$r0,TCB_44
                        	TCB_46:
                        	;====================================================
                        	; Basic Block 2
                        	;====================================================
                        	; 		return E_BadPriority;
FFFC7C54 00000812 		      	lw   	$v0,0
                        	TCB_47:
FFFC7C58 00005FD2 		      	lw   	$r11,0[$sp]
FFFC7C5C 8B88FF82 		      	mov  	$sp,$fp
FFFC7C60 0000F7D2 		      	lw   	$fp,[$sp]
FFFC7C64 0020EFE9 		      	ret  	#32
                        	TCB_44:
                        	;====================================================
                        	; Basic Block 3
                        	;====================================================
                        	;     if (ht==readyQ[t->priority>>3])
FFFC7C68 028E1AD3 		      	lb   	$v2,654[$r11]
FFFC7C6C 3EC310C2 		      	asr  	$v1,$v2,#3
FFFC7C70 0000B809 		      	lc   	$v0,_readyQ[$v1]
FFFC7C74 D268B81A 
FFFC7C78 1FFDB85A 
FFFC7C7C 8001B882 
FFFC7C80 01010CB0 		      	bne  	$a0,$v0,TCB_48,#0
                        	;====================================================
                        	; Basic Block 4
                        	;====================================================
                        	;        readyQ[t->priority>>3] = t->next;
FFFC7C84 028E1AD3 		      	lb   	$v2,654[$r11]
FFFC7C88 3EC310C2 		      	asr  	$v1,$v2,#3
FFFC7C8C 3E010882 		      	shl  	$v0,$v1,#1
FFFC7C90 021A12E0 		      	lc   	$v1,538[$r11]
FFFC7C94 0000B809 		      	sc   	$v1,_readyQ[$v0]
FFFC7C98 D268B81A 
FFFC7C9C 1FFDB85A 
FFFC7CA0 9002B842 
                        	TCB_48:
                        	;     if (ht==readyQ[t->priority>>3])
FFFC7CA4 028E1AD3 		      	lb   	$v2,654[$r11]
FFFC7CA8 3EC310C2 		      	asr  	$v1,$v2,#3
FFFC7CAC 0000B809 		      	lc   	$v0,_readyQ[$v1]
FFFC7CB0 D268B81A 
FFFC7CB4 1FFDB85A 
FFFC7CB8 8001B882 
FFFC7CBC 01010CB0 		      	bne  	$a0,$v0,TCB_50,#0
                        	;====================================================
                        	; Basic Block 5
                        	;====================================================
                        	;        readyQ[t->priority>>3] = -1;
FFFC7CC0 028E1AD3 		      	lb   	$v2,654[$r11]
FFFC7CC4 3EC310C2 		      	asr  	$v1,$v2,#3
FFFC7CC8 3E010882 		      	shl  	$v0,$v1,#1
FFFC7CCC FFFF1009 		      	ldi  	$v1,#-1
FFFC7CD0 0000B809 		      	sc   	$v1,_readyQ[$v0]
FFFC7CD4 D268B81A 
FFFC7CD8 1FFDB85A 
FFFC7CDC 9002B842 
                        	TCB_50:
                        	;     tcbs[t->next].prev = t->prev;
FFFC7CE0 021A12E0 		      	lc   	$v1,538[$r11]
                        		      	mulu 	$v0,$v1,#1024
FFFC7CE4 5400B809 		      	lw   	$v0,_tcbs[$v0]
FFFC7CE8 004DB85A 
FFFC7CEC 0001B89A 
FFFC7CF0 4801B842 
FFFC7CF4 021C12E0 		      	lc   	$v1,540[$r11]
FFFC7CF8 021C1064 		      	sc   	$v1,540[$v0]
                        	;     tcbs[t->prev].next = t->next;
FFFC7CFC 021C12E0 		      	lc   	$v1,540[$r11]
                        		      	mulu 	$v0,$v1,#1024
FFFC7D00 5400B809 		      	lw   	$v0,_tcbs[$v0]
FFFC7D04 004DB85A 
FFFC7D08 0001B89A 
FFFC7D0C 4801B842 
FFFC7D10 021A12E0 		      	lc   	$v1,538[$r11]
FFFC7D14 021A1064 		      	sc   	$v1,538[$v0]
                        	;     t->next = -1;
FFFC7D18 FFFF0809 		      	ldi  	$v0,#-1
FFFC7D1C 63C00862 		      	bfextu	$v0,$v0,#0,#15
FFFC7D20 021A0AE4 		      	sc   	$v0,538[$r11]
                        	;     t->prev = -1;
FFFC7D24 FFFF0809 		      	ldi  	$v0,#-1
FFFC7D28 63C00862 		      	bfextu	$v0,$v0,#0,#15
FFFC7D2C 021C0AE4 		      	sc   	$v0,540[$r11]
                        	;     t->status = 0;
FFFC7D30 00000809 		      	ldi  	$v0,#0
FFFC7D34 61C00862 		      	bfextu	$v0,$v0,#0,#7
FFFC7D38 028F0AD5 		      	sb   	$v0,655[$r11]
                        	;     return E_Ok;
FFFC7D3C 00000812 		      	lw   	$v0,0
FFFC7D40 F8B00031 		      	bra  	TCB_47
                        	endpublic
                        	
                        	;====================================================
                        	; Basic Block 0
                        	;====================================================
FFFC7D44 FFE0FFC4 	public code _InsertIntoTimeoutList:
	      	sub  	$sp,$sp,#32
FFFC7D48 000807D6 		      	sw   	$r0,8[$sp]
FFFC7D4C 0000F7D6 		      	sw   	$fp,[$sp]
FFFC7D50 8B88F7C2 		      	mov  	$fp,$sp
FFFC7D54 FFE0FFC4 		      	sub  	$sp,$sp,#32
FFFC7D58 FFE8FFC4 		      	sub  	$sp,$sp,#24
FFFC7D5C 00005FD6 		      	sw   	$r11,0[$sp]
FFFC7D60 000867D6 		      	sw   	$r12,8[$sp]
FFFC7D64 00106FD6 		      	sw   	$r13,16[$sp]
FFFC7D68 FFF85F92 		      	lw   	$r11,-8[$fp]
FFFC7D6C FFE86792 		      	lw   	$r12,-24[$fp]
FFFC7D70 FFF06F92 		      	lw   	$r13,-16[$fp]
                        	;     __check(ht >=0 && ht < 256);
                        		      	chki 	$a0,$r0,#256
                        	;     t = &tcbs[ht];
FFFC7D74 3E0A1482 		      	shl  	$v1,$a0,#10
FFFC7D78 5400B809 		      	add  	$r12,$v1,#_tcbs
FFFC7D7C 004DB85A 
FFFC7D80 0001B89A 
FFFC7D84 106CB882 
                        	;     if (TimeoutList<0) {
FFFC7D88 5402B809 		      	lc   	$v0,_TimeoutList
FFFC7D8C 0051B85A 
FFFC7D90 0001B89A 
FFFC7D94 8001B802 
FFFC7D98 02430070 		      	bge  	$v0,$r0,TCB_67
                        	;====================================================
                        	; Basic Block 1
                        	;====================================================
                        	;         t->timeout = to;
FFFC7D9C 02489B16 		      	sw   	$a1,584[$r12]
                        	;         TimeoutList = ht;
FFFC7DA0 5402B809 		      	sc   	$a0,_TimeoutList
FFFC7DA4 0051B85A 
FFFC7DA8 0001B89A 
FFFC7DAC 9012B802 
                        	;         t->next = -1;
FFFC7DB0 FFFF0809 		      	ldi  	$v0,#-1
FFFC7DB4 63C00862 		      	bfextu	$v0,$v0,#0,#15
FFFC7DB8 021A0B24 		      	sc   	$v0,538[$r12]
                        	;         t->prev = -1;
FFFC7DBC FFFF0809 		      	ldi  	$v0,#-1
FFFC7DC0 63C00862 		      	bfextu	$v0,$v0,#0,#15
FFFC7DC4 021C0B24 		      	sc   	$v0,540[$r12]
                        	;         return E_Ok;
FFFC7DC8 00000812 		      	lw   	$v0,0
                        	TCB_69:
FFFC7DCC 00005FD2 		      	lw   	$r11,0[$sp]
FFFC7DD0 000867D2 		      	lw   	$r12,8[$sp]
FFFC7DD4 00106FD2 		      	lw   	$r13,16[$sp]
FFFC7DD8 8B88FF82 		      	mov  	$sp,$fp
FFFC7DDC 0000F7D2 		      	lw   	$fp,[$sp]
FFFC7DE0 0020EFE9 		      	ret  	#32
                        	TCB_67:
                        	;====================================================
                        	; Basic Block 2
                        	;====================================================
                        	;     q = (void *)0;
FFFC7DE4 00006809 		      	ldi  	$r13,#0
                        	;     p = &tcbs[TimeoutList];
FFFC7DE8 5402B809 		      	lc   	$v2,_TimeoutList
FFFC7DEC 0051B85A 
FFFC7DF0 0001B89A 
FFFC7DF4 8003B802 
FFFC7DF8 3E0A10C2 		      	shl  	$v1,$v2,#10
FFFC7DFC 5400B809 		      	add  	$r11,$v1,#_tcbs
FFFC7E00 004DB85A 
FFFC7E04 0001B89A 
FFFC7E08 106BB882 
                        	TCB_70:
FFFC7E0C 02480AD2 		      	lw   	$v0,584[$r11]
FFFC7E10 01639870 		      	bge  	$v0,$a1,TCB_71,#2
                        	;====================================================
                        	; Basic Block 3
                        	;====================================================
                        	;         to -= p->timeout;
FFFC7E14 02480AD2 		      	lw   	$v0,584[$r11]
FFFC7E18 14730CC2 		      	sub  	$a1,$a1,$v0
;         q = p;
FFFC7E1C 8B886AC2 		      	mov  	$r13,$r11
                        	;         p = &tcbs[p->next];
FFFC7E20 021A1AE0 		      	lc   	$v2,538[$r11]
FFFC7E24 3E0A10C2 		      	shl  	$v1,$v2,#10
FFFC7E28 5400B809 		      	add  	$r11,$v1,#_tcbs
FFFC7E2C 004DB85A 
FFFC7E30 0001B89A 
FFFC7E34 106BB882 
FFFC7E38 FEB00030 		      	bra  	TCB_70
                        	TCB_71:
                        	;====================================================
                        	; Basic Block 4
                        	;====================================================
                        	;     t->next = p - tcbs;
FFFC7E3C AC00B809 		      	sub  	$v1,$r11,#_tcbs
FFFC7E40 FFB2B85A 
FFFC7E44 FFFEB89A 
FFFC7E48 FFFFB8DA 
FFFC7E4C 1062BAC2 
FFFC7E50 3E4A0882 		      	shru.c	$v0,$v1,#10
FFFC7E54 63C00862 		      	bfextu	$v0,$v0,#0,#15
FFFC7E58 021A0B24 		      	sc   	$v0,538[$r12]
                        	;     t->prev = q - tcbs;
FFFC7E5C AC00B809 		      	sub  	$v1,$r13,#_tcbs
FFFC7E60 FFB2B85A 
FFFC7E64 FFFEB89A 
FFFC7E68 FFFFB8DA 
FFFC7E6C 1062BB42 
FFFC7E70 3E4A0882 		      	shru.c	$v0,$v1,#10
FFFC7E74 63C00862 		      	bfextu	$v0,$v0,#0,#15
FFFC7E78 021C0B24 		      	sc   	$v0,540[$r12]
                        	;     if (p) {
FFFC7E7C 008002F1 		      	beq  	$r11,$r0,TCB_72
                        	;====================================================
                        	; Basic Block 5
                        	;====================================================
                        	;         p->timeout -= to;
FFFC7E80 02480AD2 		      	lw   	$v0,584[$r11]
FFFC7E84 14619842 		      	sub  	$v0,$v0,$a1
	      	sw   	$v0,584[$r11]
FFFC7E88 02480AD6 
                        	;         p->prev = ht;
FFFC7E8C 63C094A2 		      	bfextu	$a0,$a0,#0,#15
FFFC7E90 021C92E4 		      	sc   	$a0,540[$r11]
                        	TCB_72:
                        	;     if (q)
FFFC7E94 00400371 		      	beq  	$r13,$r0,TCB_74
                        	;====================================================
                        	; Basic Block 6
                        	;====================================================
                        	;         q->next = ht;
FFFC7E98 63C094A2 		      	bfextu	$a0,$a0,#0,#15
FFFC7E9C 021A9364 		      	sc   	$a0,538[$r13]
FFFC7EA0 00B00030 		      	bra  	TCB_75
                        	TCB_74:
                        	;====================================================
                        	; Basic Block 7
                        	;====================================================
                        	;         TimeoutList = ht;
FFFC7EA4 5402B809 		      	sc   	$a0,_TimeoutList
FFFC7EA8 0051B85A 
FFFC7EAC 0001B89A 
FFFC7EB0 9012B802 
                        	TCB_75:
                        	;     t->status |= 1;
FFFC7EB4 028F0B13 		      	lb   	$v0,655[$r12]
FFFC7EB8 00010849 		      	or   	$v0,$v0,#1
FFFC7EBC 028F0B15 		      	sb   	$v0,655[$r12]
FFFC7EC0 028F0B13 		      	lb   	$v0,655[$r12]
FFFC7EC4 51C00862 		      	bfext	$v0,$v0,#0,#7
FFFC7EC8 028F0B24 		      	sc   	$v0,655[$r12]
                        	;     return E_Ok;
FFFC7ECC 00000812 		      	lw   	$v0,0
FFFC7ED0 F7F00030 		      	bra  	TCB_69
                        	endpublic
                        	
                        	;====================================================
                        	; Basic Block 0
                        	;====================================================
FFFC7ED4 FFE0FFC4 	public code _RemoveFromTimeoutList:
	      	sub  	$sp,$sp,#32
FFFC7ED8 000807D6 		      	sw   	$r0,8[$sp]
FFFC7EDC 0000F7D6 		      	sw   	$fp,[$sp]
FFFC7EE0 8B88F7C2 		      	mov  	$fp,$sp
FFFC7EE4 FFF8FFC4 		      	sub  	$sp,$sp,#8
FFFC7EE8 FFF8FFC4 		      	sub  	$sp,$sp,#8
FFFC7EEC 00005FD6 		      	sw   	$r11,0[$sp]
FFFC7EF0 FFF85F92 		      	lw   	$r11,-8[$fp]
                        	;     __check(ht >=0 && ht < 256);
                        		      	chki 	$a0,$r0,#256
                        	;     t = &tcbs[ht];
FFFC7EF4 3E0A1482 		      	shl  	$v1,$a0,#10
FFFC7EF8 5400B809 		      	add  	$r11,$v1,#_tcbs
FFFC7EFC 004DB85A 
FFFC7F00 0001B89A 
FFFC7F04 106BB882 
                        	;     if (t->next) {
FFFC7F08 021A0AE0 		      	lc   	$v0,538[$r11]
FFFC7F0C 02000070 		      	beq  	$v0,$r0,TCB_87
                        	;====================================================
                        	; Basic Block 1
                        	;====================================================
                        	;        tcbs[t->next].prev = t->prev;
FFFC7F10 021A12E0 		      	lc   	$v1,538[$r11]
                        		      	mulu 	$v0,$v1,#1024
FFFC7F14 5400B809 		      	lw   	$v0,_tcbs[$v0]
FFFC7F18 004DB85A 
FFFC7F1C 0001B89A 
FFFC7F20 4801B842 
FFFC7F24 021C12E0 		      	lc   	$v1,540[$r11]
FFFC7F28 021C1064 		      	sc   	$v1,540[$v0]
                        	;        tcbs[t->next].timeout += t->timeout;
FFFC7F2C 021A12E0 		      	lc   	$v1,538[$r11]
                        		      	mulu 	$v0,$v1,#1024
FFFC7F30 5400B809 		      	lw   	$v0,_tcbs[$v0]
FFFC7F34 004DB85A 
FFFC7F38 0001B89A 
FFFC7F3C 4801B842 
FFFC7F40 024812D2 		      	lw   	$v1,584[$r11]
FFFC7F44 02481852 		      	lw   	$v2,584[$v0]
FFFC7F48 106310C2 		      	add  	$v2,$v2,$v1
	      	sw   	$v2,584[$v0]
FFFC7F4C 02481856 
                        	TCB_87:
                        	;     if (t->prev >= 0)
FFFC7F50 021C0AE0 		      	lc   	$v0,540[$r11]
FFFC7F54 00C20071 		      	blt  	$v0,$r0,TCB_89
                        	;====================================================
                        	; Basic Block 2
                        	;====================================================
                        	;        tcbs[t->prev].next = t->next;
FFFC7F58 021C12E0 		      	lc   	$v1,540[$r11]
                        		      	mulu 	$v0,$v1,#1024
FFFC7F5C 5400B809 		      	lw   	$v0,_tcbs[$v0]
FFFC7F60 004DB85A 
FFFC7F64 0001B89A 
FFFC7F68 4801B842 
FFFC7F6C 021A12E0 		      	lc   	$v1,538[$r11]
FFFC7F70 021A1064 		      	sc   	$v1,538[$v0]
                        	TCB_89:
                        	;     t->status = 0;
FFFC7F74 00000809 		      	ldi  	$v0,#0
FFFC7F78 61C00862 		      	bfextu	$v0,$v0,#0,#7
FFFC7F7C 028F0AD5 		      	sb   	$v0,655[$r11]
                        	;     t->next = -1;
FFFC7F80 FFFF0809 		      	ldi  	$v0,#-1
FFFC7F84 63C00862 		      	bfextu	$v0,$v0,#0,#15
FFFC7F88 021A0AE4 		      	sc   	$v0,538[$r11]
                        	;     t->prev = -1;
FFFC7F8C FFFF0809 		      	ldi  	$v0,#-1
FFFC7F90 63C00862 		      	bfextu	$v0,$v0,#0,#15
FFFC7F94 021C0AE4 		      	sc   	$v0,540[$r11]
FFFC7F98 00005FD2 		      	lw   	$r11,0[$sp]
FFFC7F9C 8B88FF82 		      	mov  	$sp,$fp
FFFC7FA0 0000F7D2 		      	lw   	$fp,[$sp]
FFFC7FA4 0020EFE9 		      	ret  	#32
                        	endpublic
                        	
                        	;====================================================
                        	; Basic Block 0
                        	;====================================================
FFFC7FA8 FFE0FFC4 	public code _PopTimeoutList:
	      	sub  	$sp,$sp,#32
FFFC7FAC 000807D6 		      	sw   	$r0,8[$sp]
FFFC7FB0 0000F7D6 		      	sw   	$fp,[$sp]
FFFC7FB4 8B88F7C2 		      	mov  	$fp,$sp
FFFC7FB8 FFF0FFC4 		      	sub  	$sp,$sp,#16
FFFC7FBC FFF8FFC4 		      	sub  	$sp,$sp,#8
FFFC7FC0 00005FD6 		      	sw   	$r11,0[$sp]
                        	;     h = TimeoutList;
FFFC7FC4 5402B809 		      	lw   	$r11,_TimeoutList
FFFC7FC8 0051B85A 
FFFC7FCC 0001B89A 
FFFC7FD0 480BB802 
                        	;     if (TimeoutList >= 0 && TimeoutList < 256) {
FFFC7FD4 5402B809 		      	lc   	$v0,_TimeoutList
FFFC7FD8 0051B85A 
FFFC7FDC 0001B89A 
FFFC7FE0 8001B802 
FFFC7FE4 05020071 		      	blt  	$v0,$r0,TCB_103
                        	;====================================================
                        	; Basic Block 1
                        	;====================================================
FFFC7FE8 5402B809 		      	lc   	$v0,_TimeoutList
FFFC7FEC 0051B85A 
FFFC7FF0 0001B89A 
FFFC7FF4 8001B802 
FFFC7FF8 01001046 		      	cmp  	$v1,$v0,#256
FFFC7FFC 045300B1 		      	bge  	$v1,$r0,TCB_103,#1
                        	;====================================================
                        	; Basic Block 2
                        	;====================================================
                        	;         TimeoutList = tcbs[TimeoutList].next;
FFFC8000 5402B809 		      	lc   	$v1,_TimeoutList
FFFC8004 0051B85A 
FFFC8008 0001B89A 
FFFC800C 8002B802 
                        		      	mulu 	$v0,$v1,#1024
FFFC8010 5400B809 		      	lw   	$v0,_tcbs[$v0]
FFFC8014 004DB85A 
FFFC8018 0001B89A 
FFFC801C 4801B842 
FFFC8020 021A1060 		      	lc   	$v1,538[$v0]
FFFC8024 5402B809 		      	sc   	$v1,_TimeoutList
FFFC8028 0051B85A 
FFFC802C 0001B89A 
FFFC8030 9002B802 
                        	;         if (TimeoutList >= 0 && TimeoutList < 256)
FFFC8034 5402B809 		      	lc   	$v0,_TimeoutList
FFFC8038 0051B85A 
FFFC803C 0001B89A 
FFFC8040 8001B802 
FFFC8044 02020071 		      	blt  	$v0,$r0,TCB_105
                        	;====================================================
                        	; Basic Block 3
                        	;====================================================
FFFC8048 5402B809 		      	lc   	$v0,_TimeoutList
FFFC804C 0051B85A 
FFFC8050 0001B89A 
FFFC8054 8001B802 
FFFC8058 01001046 		      	cmp  	$v1,$v0,#256
FFFC805C 015300B1 		      	bge  	$v1,$r0,TCB_105,#1
                        	;====================================================
                        	; Basic Block 4
                        	;====================================================
                        	;             tcbs[TimeoutList].prev = -1;
FFFC8060 5402B809 		      	lc   	$v1,_TimeoutList
FFFC8064 0051B85A 
FFFC8068 0001B89A 
FFFC806C 8002B802 
                        		      	mulu 	$v0,$v1,#1024
FFFC8070 5400B809 		      	lw   	$v0,_tcbs[$v0]
FFFC8074 004DB85A 
FFFC8078 0001B89A 
FFFC807C 4801B842 
FFFC8080 FFFF1009 		      	ldi  	$v1,#-1
FFFC8084 63C010A2 		      	bfextu	$v1,$v1,#0,#15
FFFC8088 021C1064 		      	sc   	$v1,540[$v0]
                        	TCB_105:
                        	TCB_103:
                        	;     return h;
FFFC808C 8B880AC2 		      	mov  	$v0,$r11
FFFC8090 00005FD2 		      	lw   	$r11,0[$sp]
FFFC8094 8B88FF82 		      	mov  	$sp,$fp
FFFC8098 0000F7D2 		      	lw   	$fp,[$sp]
FFFC809C 0020EFE9 		      	ret  	#32
                        	endpublic
                        	
                        	;====================================================
                        	; Basic Block 0
                        	;====================================================
FFFC80A0 FFE0FFC4 	public code _DumpTaskList:
	      	sub  	$sp,$sp,#32
FFFC80A4 0018EFD6 		      	sw   	$lr,24[$sp]
FFFC80A8 0010E7D6 		      	sw   	$xlr,16[$sp]
FFFC80AC 000807D6 		      	sw   	$r0,8[$sp]
FFFC80B0 0000F7D6 		      	sw   	$fp,[$sp]
FFFC80B4 0000E009 		      	ldi  	$xlr,#TCB_134
FFFC80B8 82E0E01A 
FFFC80BC FFFCE05A 
FFFC80C0 8B88F7C2 		      	mov  	$fp,$sp
FFFC80C4 FFD8FFC4 		      	sub  	$sp,$sp,#40
FFFC80C8 FFD0FFC4 		      	sub  	$sp,$sp,#48
FFFC80CC 00005FD6 		      	sw   	$r11,0[$sp]
FFFC80D0 000867D6 		      	sw   	$r12,8[$sp]
FFFC80D4 00106FD6 		      	sw   	$r13,16[$sp]
FFFC80D8 001877D6 		      	sw   	$r14,24[$sp]
FFFC80DC 00207FD6 		      	sw   	$r15,32[$sp]
FFFC80E0 002887D6 		      	sw   	$r16,40[$sp]
FFFC80E4 FFF85F92 		      	lw   	$r11,-8[$fp]
FFFC80E8 FFE86792 		      	lw   	$r12,-24[$fp]
FFFC80EC FFDE6FA0 		      	lc   	$r13,-34[$fp]
FFFC80F0 FFE07792 		      	lw   	$r14,-32[$fp]
FFFC80F4 FFF07F92 		      	lw   	$r15,-16[$fp]
FFFC80F8 FFDC87A0 		      	lc   	$r16,-36[$fp]
                        	;      printf("CPU Pri Stat Task Prev Next Timeout\r\n");
FFFC80FC FFF8FFC4 		      	sub  	$sp,$sp,#8
FFFC8100 00001809 		      	ldi  	$v2,#TCB_108
FFFC8104 9878181A 
FFFC8108 FFFC185A 
FFFC810C 00001FD6 		      	sw   	$v2,0[$sp]
FFFC8110 FFC431D9 		      	call 	_printf
FFFC8114 0008FFC4 		      	add  	$sp,$sp,#8
                        	;      for (n = 0; n < 8; n++) {
FFFC8118 00006009 		      	ldi  	$r12,#0
                        	TCB_137:
FFFC811C 00081B06 		      	cmp  	$v2,$r12,#8
FFFC8120 07E300F1 		      	bge  	$v2,$r0,TCB_138,#2
                        	;====================================================
                        	; Basic Block 1
                        	;====================================================
                        	;          h = readyQ[n];
FFFC8124 0000B809 		      	lw   	$r13,_readyQ[$r12]
FFFC8128 D268B81A 
FFFC812C 1FFDB85A 
FFFC8130 480DBB02 
                        	;          if (h >= 0 && h < 256) {
FFFC8134 07020370 		      	blt  	$r13,$r0,TCB_140
                        	;====================================================
                        	; Basic Block 2
                        	;====================================================
FFFC8138 01001B46 		      	cmp  	$v2,$r13,#256
FFFC813C 06D300F0 		      	bge  	$v2,$r0,TCB_140,#1
                        	;====================================================
                        	; Basic Block 3
                        	;====================================================
                        	;              q = &tcbs[h];
FFFC8140 3E0A2342 		      	shl  	$v3,$r13,#10
FFFC8144 5400B809 		      	add  	$r11,$v3,#_tcbs
FFFC8148 004DB85A 
FFFC814C 0001B89A 
FFFC8150 106BB902 
                        	;              kk = 0;
FFFC8154 00007009 		      	ldi  	$r14,#0
                        	TCB_142:
                        	;                    j = p - tcbs;
FFFC8158 AC00B809 		      	sub  	$v3,$r11,#_tcbs
FFFC815C FFB2B85A 
FFFC8160 FFFEB89A 
FFFC8164 FFFFB8DA 
FFFC8168 1064BAC2 
FFFC816C 3E4A8102 		      	shru 	$r16,$v3,#10
                        	;                  printf("%3d %3d  %02X  %04X %04X %04X %08X %08X\r\n", p->affinity, p->priority, p->status, (int)j, p->prev, p->next, p->timeout, p->ticks);
FFFC8170 FFB8FFC4 		      	sub  	$sp,$sp,#72
FFFC8174 00001809 		      	ldi  	$v2,#TCB_109
FFFC8178 9824181A 
FFFC817C FFFC185A 
FFFC8180 00001FD6 		      	sw   	$v2,0[$sp]
FFFC8184 02901AD0 		      	lh   	$v2,656[$r11]
FFFC8188 00081FD6 		      	sw   	$v2,8[$sp]
FFFC818C 028E22D3 		      	lb   	$v3,654[$r11]
FFFC8190 001027D6 		      	sw   	$v3,16[$sp]
FFFC8194 028F3AD3 		      	lb   	$t2,655[$r11]
FFFC8198 00183FD6 		      	sw   	$t2,24[$sp]
FFFC819C 002087D6 		      	sw   	$r16,32[$sp]
FFFC81A0 021C42E0 		      	lc   	$t3,540[$r11]
FFFC81A4 002847D6 		      	sw   	$t3,40[$sp]
FFFC81A8 021A4AE0 		      	lc   	$t4,538[$r11]
FFFC81AC 00304FD6 		      	sw   	$t4,48[$sp]
FFFC81B0 024852D2 		      	lw   	$t5,584[$r11]
FFFC81B4 003857D6 		      	sw   	$t5,56[$sp]
FFFC81B8 02A85AD2 		      	lw   	$t6,680[$r11]
FFFC81BC 00405FD6 		      	sw   	$t6,64[$sp]
FFFC81C0 FFC431D9 		      	call 	_printf
FFFC81C4 0048FFC4 		      	add  	$sp,$sp,#72
                        	;                  if (p->next < 0 || p->next >= 256)
FFFC81C8 021A1AE0 		      	lc   	$v2,538[$r11]
FFFC81CC 004200F1 		      	blt  	$v2,$r0,TCB_146
                        	;====================================================
                        	; Basic Block 4
                        	;====================================================
FFFC81D0 021A1AE0 		      	lc   	$v2,538[$r11]
FFFC81D4 010020C6 		      	cmp  	$v3,$v2,#256
FFFC81D8 00120131 		      	blt  	$v3,$r0,TCB_144,#1
                        	TCB_146:
                        	;====================================================
                        	; Basic Block 5
                        	;====================================================
                        	;                      break;
FFFC81DC 01F00030 		      	bra  	TCB_143
                        	TCB_144:
                        	;====================================================
                        	; Basic Block 6
                        	;====================================================
                        	;                  p = &tcbs[p->next];
FFFC81E0 021A3AE0 		      	lc   	$t2,538[$r11]
FFFC81E4 3E0A21C2 		      	shl  	$v3,$t2,#10
FFFC81E8 5400B809 		      	add  	$r11,$v3,#_tcbs
FFFC81EC 004DB85A 
FFFC81F0 0001B89A 
FFFC81F4 106BB902 
                        	;                  if (getcharNoWait()==3)
FFFC81F8 FFC42719 		      	call 	_getcharNoWait
FFFC81FC 00031846 		      	cmp  	$v2,$v0,#3
FFFC8200 000100F1 		      	bne  	$v2,$r0,TCB_147,#0
                        	;====================================================
                        	; Basic Block 7
                        	;====================================================
                        	;                     goto j1;
FFFC8204 06B00031 		      	bra  	TCB_110
                        	TCB_147:
                        	;====================================================
                        	; Basic Block 8
                        	;====================================================
                        	;                  kk = kk + 1;
FFFC8208 00017384 		      	add  	$r14,$r14,#1
FFFC820C 00707AF0 		      	beq  	$r11,$r15,TCB_149,#3
                        	;====================================================
                        	; Basic Block 9
                        	;====================================================
FFFC8210 000A1B86 		      	cmp  	$v2,$r14,#10
FFFC8214 FA2200F0 		      	blt  	$v2,$r0,TCB_142,#2
                        	TCB_149:
                        	TCB_143:
                        	TCB_140:
                        	;====================================================
                        	; Basic Block 10
                        	;====================================================
FFFC8218 00016304 		      	add  	$r12,$r12,#1
FFFC821C F7F00031 		      	bra  	TCB_137
                        	TCB_138:
                        	;====================================================
                        	; Basic Block 11
                        	;====================================================
                        	;      printf("Waiting tasks\r\n");
FFFC8220 FFF8FFC4 		      	sub  	$sp,$sp,#8
FFFC8224 00001809 		      	ldi  	$v2,#TCB_111
FFFC8228 9804181A 
FFFC822C FFFC185A 
FFFC8230 00001FD6 		      	sw   	$v2,0[$sp]
FFFC8234 FFC431D9 		      	call 	_printf
FFFC8238 0008FFC4 		      	add  	$sp,$sp,#8
                        	;      h = TimeoutList;
FFFC823C 5402B809 		      	lw   	$r13,_TimeoutList
FFFC8240 0051B85A 
FFFC8244 0001B89A 
FFFC8248 480DB802 
                        	TCB_150:
FFFC824C 04420371 		      	blt  	$r13,$r0,TCB_151
                        	;====================================================
                        	; Basic Block 12
                        	;====================================================
FFFC8250 01001B46 		      	cmp  	$v2,$r13,#256
FFFC8254 043300F1 		      	bge  	$v2,$r0,TCB_151,#3
                        	;====================================================
                        	; Basic Block 13
                        	;====================================================
                        	;          p = &tcbs[h];
FFFC8258 3E0A2342 		      	shl  	$v3,$r13,#10
FFFC825C 5400B809 		      	add  	$r11,$v3,#_tcbs
FFFC8260 004DB85A 
FFFC8264 0001B89A 
FFFC8268 106BB902 
                        	;          printf("%3d %3d  %02X  %04X %04X %04X %08X %08X\r\n", p->affinity, p->priority, p->status, (int)j, p->prev, p->next, p->timeout, p->ticks);
FFFC826C FFB8FFC4 		      	sub  	$sp,$sp,#72
FFFC8270 00001809 		      	ldi  	$v2,#TCB_112
FFFC8274 97B0181A 
FFFC8278 FFFC185A 
FFFC827C 00001FD6 		      	sw   	$v2,0[$sp]
FFFC8280 02901AD0 		      	lh   	$v2,656[$r11]
FFFC8284 00081FD6 		      	sw   	$v2,8[$sp]
FFFC8288 028E22D3 		      	lb   	$v3,654[$r11]
FFFC828C 001027D6 		      	sw   	$v3,16[$sp]
FFFC8290 028F3AD3 		      	lb   	$t2,655[$r11]
FFFC8294 00183FD6 		      	sw   	$t2,24[$sp]
FFFC8298 002087D6 		      	sw   	$r16,32[$sp]
FFFC829C 021C42E0 		      	lc   	$t3,540[$r11]
FFFC82A0 002847D6 		      	sw   	$t3,40[$sp]
FFFC82A4 021A4AE0 		      	lc   	$t4,538[$r11]
FFFC82A8 00304FD6 		      	sw   	$t4,48[$sp]
FFFC82AC 024852D2 		      	lw   	$t5,584[$r11]
FFFC82B0 003857D6 		      	sw   	$t5,56[$sp]
FFFC82B4 02A85AD2 		      	lw   	$t6,680[$r11]
FFFC82B8 00405FD6 		      	sw   	$t6,64[$sp]
FFFC82BC FFC431D9 		      	call 	_printf
FFFC82C0 0048FFC4 		      	add  	$sp,$sp,#72
                        	;          h = p->next;
FFFC82C4 021A6AD2 		      	lw   	$r13,538[$r11]
                        	;          if (getcharNoWait()==3)
FFFC82C8 FFC42719 		      	call 	_getcharNoWait
FFFC82CC 00031846 		      	cmp  	$v2,$v0,#3
FFFC82D0 000100F1 		      	bne  	$v2,$r0,TCB_152,#0
                        	;====================================================
                        	; Basic Block 14
                        	;====================================================
                        	;             goto j1;
FFFC82D4 00300031 		      	bra  	TCB_110
                        	TCB_152:
                        	;====================================================
                        	; Basic Block 15
                        	;====================================================
FFFC82D8 FBB00030 		      	bra  	TCB_150
                        	TCB_151:
                        	TCB_110:
                        	;====================================================
                        	; Basic Block 16
                        	;====================================================
FFFC82DC 00700030 		      	bra  	TCB_136
                        	TCB_134:
                        	;====================================================
                        	; Basic Block 17
                        	;====================================================
FFFC82E0 0010EF92 		      	lw   	$lr,16[$fp]
FFFC82E4 0018EF96 		      	sw   	$lr,24[$fp]
                        	TCB_136:
FFFC82E8 00005FD2 		      	lw   	$r11,0[$sp]
FFFC82EC 000867D2 		      	lw   	$r12,8[$sp]
FFFC82F0 00106FD2 		      	lw   	$r13,16[$sp]
FFFC82F4 001877D2 		      	lw   	$r14,24[$sp]
FFFC82F8 00207FD2 		      	lw   	$r15,32[$sp]
FFFC82FC 002887D2 		      	lw   	$r16,40[$sp]
FFFC8300 8B88FF82 		      	mov  	$sp,$fp
FFFC8304 0000F7D2 		      	lw   	$fp,[$sp]
FFFC8308 0010E7D2 		      	lw   	$xlr,16[$sp]
FFFC830C 0018EFD2 		      	lw   	$lr,24[$sp]
FFFC8310 0020EFE9 		      	ret  	#32
                        	endpublic
                        	
                        		code
FFFC8314 00000000 		align	1
FFFC8318 00000000 
FFFC831C 00000000 
                        	
                        		code
                        		align	16                        	
                        		code
                        		align	16                        	
                        	;====================================================
                        	; Basic Block 0
                        	;====================================================
FFFC8320 FFE0FFC4 	public code _FocusSwitcher:
	      	sub  	$sp,$sp,#32
FFFC8324 0018EFD6 		      	sw   	$lr,24[$sp]
FFFC8328 0010E7D6 		      	sw   	$xlr,16[$sp]
FFFC832C 000807D6 		      	sw   	$r0,8[$sp]
FFFC8330 0000F7D6 		      	sw   	$fp,[$sp]
FFFC8334 0000E009 		      	ldi  	$xlr,#IOFocusc_9
FFFC8338 83D8E01A 
FFFC833C FFFCE05A 
FFFC8340 8B88F7C2 		      	mov  	$fp,$sp
FFFC8344 FFE8FFC4 		      	sub  	$sp,$sp,#24
                        	;      if firstcall {
FFFC8348 0000B809 		      	lh   	$v2,IOFocusc_0
FFFC834C F91AB81A 
FFFC8350 FFFCB85A 
FFFC8354 4003B802 
FFFC8358 014000F1 		      	beq  	$v2,$r0,IOFocusc_13
                        	;====================================================
                        	; Basic Block 1
                        	;====================================================
FFFC835C 0000B809 		      	sh   	$r0,IOFocusc_0
FFFC8360 F91AB81A 
FFFC8364 FFFCB85A 
FFFC8368 5000B802 
                        	;          FMTK_AllocMbx(&hFocusSwitchMbx);
FFFC836C FFF8FFC4 		      	sub  	$sp,$sp,#8
FFFC8370 00001809 		      	ldi  	$v2,#_hFocusSwitchMbx
FFFC8374 F918181A 
FFFC8378 FFFC185A 
FFFC837C 00001FD6 		      	sw   	$v2,0[$sp]
FFFC8380 FFC764D9 		      	call 	_FMTK_AllocMbx
FFFC8384 0008FFC4 		      	add  	$sp,$sp,#8
                        	IOFocusc_13:
                        	IOFocusc_14:
                        	;          FMTK_WaitMsg(hFocusSwitchMbx, &d1, &d2, &d3, 0x7FFFFFFFL);
FFFC8388 FFD8FFC4 		      	sub  	$sp,$sp,#40
FFFC838C 0000B809 		      	lc   	$v2,_hFocusSwitchMbx
FFFC8390 F918B81A 
FFFC8394 FFFCB85A 
FFFC8398 8003B802 
FFFC839C 00001FD6 		      	sw   	$v2,0[$sp]
FFFC83A0 FFF82784 		      	lea  	$v3,-8[$fp]
FFFC83A4 000827D6 		      	sw   	$v3,8[$sp]
FFFC83A8 FFF03F84 		      	lea  	$t2,-16[$fp]
FFFC83AC 00103FD6 		      	sw   	$t2,16[$sp]
FFFC83B0 FFE84784 		      	lea  	$t3,-24[$fp]
FFFC83B4 001847D6 		      	sw   	$t3,24[$sp]
FFFC83B8 00004809 		      	ldi  	$t4,#2147483647
FFFC83BC FFFF481A 
FFFC83C0 7FFF485A 
FFFC83C4 00204FD6 		      	sw   	$t4,32[$sp]
FFFC83C8 0000E818 		      	call 	_FMTK_WaitMsg
FFFC83CC 0028FFC4 		      	add  	$sp,$sp,#40
                        	;          SwitchIOFocus();
FFFC83D0 0000E818 		      	call 	_SwitchIOFocus
FFFC83D4 FDB00030 		      	bra  	IOFocusc_14
                        	IOFocusc_9:
                        	;====================================================
                        	; Basic Block 2
                        	;====================================================
FFFC83D8 0010EF92 		      	lw   	$lr,16[$fp]
FFFC83DC 0018EF96 		      	sw   	$lr,24[$fp]
FFFC83E0 8B88FF82 		      	mov  	$sp,$fp
FFFC83E4 0000F7D2 		      	lw   	$fp,[$sp]
FFFC83E8 0010E7D2 		      	lw   	$xlr,16[$sp]
FFFC83EC 0018EFD2 		      	lw   	$lr,24[$sp]
FFFC83F0 0020EFE9 		      	ret  	#32
                        	endpublic
                        	
                        		rodata
                        		align	16                        	
                        		extern	_free
;	global	__new
                        	;	global	__GarbageCollector
                        	;	global	_LockGCSemaphore
                        	;	global	_test
                        	;	global	__delete
                        	;	global	__GetMMUAccessKey
                        	;	global	__SetMMUAccessKey
                        		extern	_milliseconds
;	global	__AddGarbage
                        	;	global	__BrkHandler
                        	;	global	__GetMMUOperateKey
                        	;	global	__BrkHandler6
                        	;	global	__SetMMUOperateKey
                        		extern	_malloc
;	global	__SystemInit
                        		extern	_memset
;	global	_UnlockGCSemaphore
                        		rodata
                        		align	16                        	
                        		align	8                        	
                        	BIOSMain_21:
FFFC9000 54442D18 		dh	0x54442D18,0x400921FB
FFFC9002 400921FB 
                        		align	2                        	
                        	BIOSMain_156:	; PC History:
FFFC9008 00430050 		dc	80,67,32,72,105,115,116,111
FFFC900A 00480020 
FFFC900C 00730069 
FFFC900E 006F0074 
FFFC9018 00790072 		dc	114,121,58,13,10,0
FFFC901A 000D003A 
FFFC901C 0000000A 
                        	BIOSMain_155:	; Instruction Bus Error:
FFFC9024 000A000D 		dc	13,10,73,110,115,116,114,117
FFFC9026 006E0049 
FFFC9028 00740073 
FFFC902A 00750072 
FFFC9034 00740063 		dc	99,116,105,111,110,32,66,117
FFFC9036 006F0069 
FFFC9038 0020006E 
FFFC903A 00750042 
FFFC9044 00200073 		dc	115,32,69,114,114,111,114,58
FFFC9046 00720045 
FFFC9048 006F0072 
FFFC904A 003A0072 
FFFC9054 000A000D 		dc	13,10,0
FFFC9056 000D0000 
                        	BIOSMain_124:	; PC History:
FFFC905A 000A000D 		dc	13,10,80,67,32,72,105,115
FFFC905C 00430050 
FFFC905E 00480020 
FFFC9060 00730069 
FFFC906A 006F0074 		dc	116,111,114,121,58,13,10,0
FFFC906C 00790072 
FFFC906E 000D003A 
FFFC9070 0000000A 
                        	BIOSMain_23:	;   Menu  up = ramtest  down = graphics demo  left = float test  right=TinyBasic
FFFC907A 00200020 		dc	32,32,77,101,110,117,13,10
FFFC907C 0065004D 
FFFC907E 0075006E 
FFFC9080 000A000D 
FFFC908A 00200020 		dc	32,32,117,112,32,61,32,114
FFFC908C 00700075 
FFFC908E 003D0020 
FFFC9090 00720020 
FFFC909A 006D0061 		dc	97,109,116,101,115,116,13,10
FFFC909C 00650074 
FFFC909E 00740073 
FFFC90A0 000A000D 
FFFC90AA 00200020 		dc	32,32,100,111,119,110,32,61
FFFC90AC 006F0064 
FFFC90AE 006E0077 
FFFC90B0 003D0020 
FFFC90BA 00670020 		dc	32,103,114,97,112,104,105,99
FFFC90BC 00610072 
FFFC90BE 00680070 
FFFC90C0 00630069 
FFFC90CA 00200073 		dc	115,32,100,101,109,111,13,10
FFFC90CC 00650064 
FFFC90CE 006F006D 
FFFC90D0 000A000D 
FFFC90DA 00200020 		dc	32,32,108,101,102,116,32,61
FFFC90DC 0065006C 
FFFC90DE 00740066 
FFFC90E0 003D0020 
FFFC90EA 00660020 		dc	32,102,108,111,97,116,32,116
FFFC90EC 006F006C 
FFFC90EE 00740061 
FFFC90F0 00740020 
FFFC90FA 00730065 		dc	101,115,116,13,10,32,32,114
FFFC90FC 000D0074 
FFFC90FE 0020000A 
FFFC9100 00720020 
FFFC910A 00670069 		dc	105,103,104,116,61,84,105,110
FFFC910C 00740068 
FFFC910E 0054003D 
FFFC9110 006E0069 
FFFC911A 00420079 		dc	121,66,97,115,105,99,13,10
FFFC911C 00730061 
FFFC911E 00630069 
FFFC9120 000A000D 
FFFC912A 00200000 		dc	0
                        	BIOSMain_22:	;   FT64 Bios Started
FFFC912C 00200020 		dc	32,32,70,84,54,52,32,66
FFFC912E 00540046 
FFFC9130 00340036 
FFFC9132 00420020 
FFFC913C 006F0069 		dc	105,111,115,32,83,116,97,114
FFFC913E 00200073 
FFFC9140 00740053 
FFFC9142 00720061 
FFFC914C 00650074 		dc	116,101,100,13,10,0
FFFC914E 000D0064 
FFFC9150 0000000A 
                        	BIOSMain_0:	; Databus error: 
FFFC9158 000A000D 		dc	13,10,68,97,116,97,98,117
FFFC915A 00610044 
FFFC915C 00610074 
FFFC915E 00750062 
FFFC9168 00200073 		dc	115,32,101,114,114,111,114,58
FFFC916A 00720065 
FFFC916C 006F0072 
FFFC916E 003A0072 
FFFC9178 00000020 		dc	32,0
                        		extern	_GetRand
;	global	_BIOSMain
                        	;	global	_EnableSprite
                        	;	global	_GrDrawChar
                        	;	global	_GrFillRect
                        	;	global	_GrDrawLine
                        	;	global	_BTNCIRQHandler
                        		extern	_DBGHomeCursor
;	global	_SetSpritePos
                        	;	global	_RandomPoints
                        	;	global	_RandomizeSpritePositions
                        	;	global	_ColorBandMemory
                        		extern	_SetPCHNDX
	extern	_FMTK_StartThread
	extern	_FMTK_StartThread
;	global	_GrQueCmd
                        	;	global	_GrFlushCmdQue
                        	;	global	_GrResetCmdQue
                        	;	global	_SpriteDemo
                        		extern	_ramtest
;	global	_GrClearScreen
                        		extern	_randStream
	extern	_DBGClearScreen
	extern	_DBGDisplayString
	extern	_putch
;	global	_EnableSprites
                        	;	global	_RandomChars
                        	;	global	_RandomLines
                        	;	global	_GrPlotPoint
                        	;	global	_RandomRects
                        		extern	_DBGAttr
;	global	_DBERout
                        	;	global	_GrWaitQue
                        	;	global	_IBERout
                        	;	global	_InitAudio
                        	;	global	_RandomizeSpriteColors
                        	;	global	_AudioTest
                        		extern	_printf
	extern	_FloatTest
	extern	_prtflt
	extern	_puthex
	rodata
FFFC917C 00000000 		align	1
                        	
                        		align	8                        	
                        	FloatTest_76:
FFFC9180 00000000 		dh	0x00000000,0xBFF00000
FFFC9182 BFF00000 
                        	FloatTest_75:
FFFC9188 00000000 		dh	0x00000000,0x80000000
FFFC918A 80000000 
                        	FloatTest_73:
FFFC9190 00000000 		dh	0x00000000,0x40390000
FFFC9192 40390000 
                        	FloatTest_72:
FFFC9198 00000000 		dh	0x00000000,0x4072C000
FFFC919A 4072C000 
                        	FloatTest_69:
FFFC91A0 00000000 		dh	0x00000000,0x40240000
FFFC91A2 40240000 
                        	FloatTest_66:
FFFC91A8 6C4FA899 		dh	0x6C4FA899,0x44B78758
FFFC91AA 44B78758 
                        	FloatTest_64:
FFFC91B0 93BC71CF 		dh	0x93BC71CF,0xC3094384
FFFC91B2 C3094384 
                        	FloatTest_63:
FFFC91B8 93BC71CF 		dh	0x93BC71CF,0x43094384
FFFC91BA 43094384 
                        	FloatTest_61:
FFFC91C0 1C71C53F 		dh	0x1C71C53F,0x4120F447
FFFC91C2 4120F447 
                        	FloatTest_59:
FFFC91C8 81E7FFFF 		dh	0x81E7FFFF,0x42E476B0
FFFC91CA 42E476B0 
                        	FloatTest_56:
FFFC91D0 E3DF208C 		dh	0xE3DF208C,0x4132D687
FFFC91D2 4132D687 
                        	FloatTest_52:
FFFC91D8 00000000 		dh	0x00000000,0x40450000
FFFC91DA 40450000 
                        	FloatTest_50:
FFFC91E0 00000000 		dh	0x00000000,0x00000000
FFFC91E2 00000000 
                        	FloatTest_45:
FFFC91E8 54442D18 		dh	0x54442D18,0x400921FB
FFFC91EA 400921FB 
                        	FloatTest_32:
FFFC91F0 00000000 		dh	0x00000000,0x40F00000
FFFC91F2 40F00000 
                        	FloatTest_31:
FFFC91F8 00000000 		dh	0x00000000,0x3FF00000
FFFC91FA 3FF00000 
                        	FloatTest_29:
FFFC9200 FEE8E3A0 		dh	0xFEE8E3A0,0x4373FFFF
FFFC9202 4373FFFF 
                        		align	2                        	
                        	FloatTest_77:	; Signed zero fail.
FFFC9208 000A000D 		dc	13,10,83,105,103,110,101,100
FFFC920A 00690053 
FFFC920C 006E0067 
FFFC920E 00640065 
FFFC9218 007A0020 		dc	32,122,101,114,111,32,102,97
FFFC921A 00720065 
FFFC921C 0020006F 
FFFC921E 00610066 
FFFC9228 006C0069 		dc	105,108,46,0
FFFC922A 0000002E 
                        	FloatTest_74:
FFFC9230 000A000D 		dc	13,10,0
FFFC9232 000D0000 
                        	FloatTest_71:	; 300.0/25.0=
FFFC9236 000A000D 		dc	13,10,51,48,48,46,48,47
FFFC9238 00300033 
FFFC923A 002E0030 
FFFC923C 002F0030 
FFFC9246 00350032 		dc	50,53,46,48,61,0
FFFC9248 0030002E 
FFFC924A 0000003D 
                        	FloatTest_70:	; 10.0*10.0=
FFFC9252 000A000D 		dc	13,10,49,48,46,48,42,49
FFFC9254 00300031 
FFFC9256 0030002E 
FFFC9258 0031002A 
FFFC9262 002E0030 		dc	48,46,48,61,0
FFFC9264 003D0030 
FFFC9266 000D0000 
                        	FloatTest_68:	; 10.0+10.0=
FFFC926C 000A000D 		dc	13,10,49,48,46,48,43,49
FFFC926E 00300031 
FFFC9270 0030002E 
FFFC9272 0031002B 
FFFC927C 002E0030 		dc	48,46,48,61,0
FFFC927E 003D0030 
FFFC9280 00200000 
                        	FloatTest_67:	;   
FFFC9286 00200020 		dc	32,32,0
FFFC9288 000D0000 
                        	FloatTest_65:	; 1.11111111111111e+23=
FFFC928C 000A000D 		dc	13,10,49,46,49,49,49,49
FFFC928E 002E0031 
FFFC9290 00310031 
FFFC9292 00310031 
FFFC929C 00310031 		dc	49,49,49,49,49,49,49,49
FFFC929E 00310031 
FFFC92A0 00310031 
FFFC92A2 00310031 
FFFC92AC 00310031 		dc	49,49,101,43,50,51,61,0
FFFC92AE 002B0065 
FFFC92B0 00330032 
FFFC92B2 0000003D 
                        	FloatTest_62:	; -8.8888888888889e14=
FFFC92BC 000A000D 		dc	13,10,45,56,46,56,56,56
FFFC92BE 0038002D 
FFFC92C0 0038002E 
FFFC92C2 00380038 
FFFC92CC 00380038 		dc	56,56,56,56,56,56,56,56
FFFC92CE 00380038 
FFFC92D0 00380038 
FFFC92D2 00380038 
FFFC92DC 00390038 		dc	56,57,101,49,52,61,0
FFFC92DE 00310065 
FFFC92E0 003D0034 
FFFC92E2 000D0000 
                        	FloatTest_60:	; 555555.5555555=
FFFC92EA 000A000D 		dc	13,10,53,53,53,53,53,53
FFFC92EC 00350035 
FFFC92EE 00350035 
FFFC92F0 00350035 
FFFC92FA 0035002E 		dc	46,53,53,53,53,53,53,53
FFFC92FC 00350035 
FFFC92FE 00350035 
FFFC9300 00350035 
FFFC930A 0000003D 		dc	61,0
                        	FloatTest_58:	; 1.8e14=
FFFC930E 000A000D 		dc	13,10,49,46,56,101,49,52
FFFC9310 002E0031 
FFFC9312 00650038 
FFFC9314 00340031 
FFFC931E 0000003D 		dc	61,0
                        	FloatTest_57:	;   
FFFC9322 00200020 		dc	32,32,0
FFFC9324 000D0000 
                        	FloatTest_55:	; 1234567.8901234=
FFFC9328 000A000D 		dc	13,10,49,50,51,52,53,54
FFFC932A 00320031 
FFFC932C 00340033 
FFFC932E 00360035 
FFFC9338 002E0037 		dc	55,46,56,57,48,49,50,51
FFFC933A 00390038 
FFFC933C 00310030 
FFFC933E 00330032 
FFFC9348 003D0034 		dc	52,61,0
FFFC934A 000D0000 
                        	FloatTest_54:	; 12345. => int 
FFFC934E 000A000D 		dc	13,10,49,50,51,52,53,46
FFFC9350 00320031 
FFFC9352 00340033 
FFFC9354 002E0035 
FFFC935E 003D0020 		dc	32,61,62,32,105,110,116,32
FFFC9360 0020003E 
FFFC9362 006E0069 
FFFC9364 00200074 
FFFC936E 000D0000 		dc	0
                        	FloatTest_53:	; 12345 => float 
FFFC9370 000A000D 		dc	13,10,49,50,51,52,53,32
FFFC9372 00320031 
FFFC9374 00340033 
FFFC9376 00200035 
FFFC9380 003E003D 		dc	61,62,32,102,108,111,97,116
FFFC9382 00660020 
FFFC9384 006F006C 
FFFC9386 00740061 
FFFC9390 00000020 		dc	32,0
                        	FloatTest_51:	; 42.0=
FFFC9394 000A000D 		dc	13,10,52,50,46,48,61,0
FFFC9396 00320034 
FFFC9398 0030002E 
FFFC939A 0000003D 
                        	FloatTest_49:	; 0.0=
FFFC93A4 000A000D 		dc	13,10,48,46,48,61,0
FFFC93A6 002E0030 
FFFC93A8 003D0030 
FFFC93AA 00540000 
                        	FloatTest_48:	; Testing prtflt
FFFC93B2 00650054 		dc	84,101,115,116,105,110,103,32
FFFC93B4 00740073 
FFFC93B6 006E0069 
FFFC93B8 00200067 
FFFC93C2 00720070 		dc	112,114,116,102,108,116,0
FFFC93C4 00660074 
FFFC93C6 0074006C 
FFFC93C8 00200000 
                        	FloatTest_47:	;   PI is 
FFFC93D0 00200020 		dc	32,32,80,73,32,105,115,32
FFFC93D2 00490050 
FFFC93D4 00690020 
FFFC93D6 00200073 
FFFC93E0 00200000 		dc	0
                        	FloatTest_46:	;   Float Test
FFFC93E2 00200020 		dc	32,32,70,108,111,97,116,32
FFFC93E4 006C0046 
FFFC93E6 0061006F 
FFFC93E8 00200074 
FFFC93F2 00650054 		dc	84,101,115,116,13,10,0
FFFC93F4 00740073 
FFFC93F6 000A000D 
FFFC93F8 000D0000 
                        	FloatTest_36:	; IEEE-754 result: 90071992254740996.0 xdbl
FFFC9400 000A000D 		dc	13,10,73,69,69,69,45,55
FFFC9402 00450049 
FFFC9404 00450045 
FFFC9406 0037002D 
FFFC9410 00340035 		dc	53,52,32,114,101,115,117,108
FFFC9412 00720020 
FFFC9414 00730065 
FFFC9416 006C0075 
FFFC9420 003A0074 		dc	116,58,32,57,48,48,55,49
FFFC9422 00390020 
FFFC9424 00300030 
FFFC9426 00310037 
FFFC9430 00390039 		dc	57,57,50,50,53,52,55,52
FFFC9432 00320032 
FFFC9434 00340035 
FFFC9436 00340037 
FFFC9440 00390030 		dc	48,57,57,54,46,48,32,120
FFFC9442 00360039 
FFFC9444 0030002E 
FFFC9446 00780020 
FFFC9450 00620064 		dc	100,98,108,13,10,0
FFFC9452 000D006C 
FFFC9454 0000000A 
                        	FloatTest_35:	; IEEE-754 result: 90071992254740994.0 dbl
FFFC945C 000A000D 		dc	13,10,73,69,69,69,45,55
FFFC945E 00450049 
FFFC9460 00450045 
FFFC9462 0037002D 
FFFC946C 00340035 		dc	53,52,32,114,101,115,117,108
FFFC946E 00720020 
FFFC9470 00730065 
FFFC9472 006C0075 
FFFC947C 003A0074 		dc	116,58,32,57,48,48,55,49
FFFC947E 00390020 
FFFC9480 00300030 
FFFC9482 00310037 
FFFC948C 00390039 		dc	57,57,50,50,53,52,55,52
FFFC948E 00320032 
FFFC9490 00340035 
FFFC9492 00340037 
FFFC949C 00390030 		dc	48,57,57,52,46,48,32,100
FFFC949E 00340039 
FFFC94A0 0030002E 
FFFC94A2 00640020 
FFFC94AC 006C0062 		dc	98,108,13,10,0
FFFC94AE 000A000D 
FFFC94B0 000D0000 
                        	FloatTest_34:	; x+y= 
FFFC94B6 000A000D 		dc	13,10,120,43,121,61,32,0
FFFC94B8 002B0078 
FFFC94BA 003D0079 
FFFC94BC 00000020 
                        	FloatTest_33:	; y= 
FFFC94C6 000A000D 		dc	13,10,121,61,32,0
FFFC94C8 003D0079 
FFFC94CA 00000020 
                        	FloatTest_30:	; x= 
FFFC94D2 003D0078 		dc	120,61,32,0
FFFC94D4 00000020 
                        	FloatTest_19:
FFFC94DA 000A000D 		dc	13,10,0
FFFC94DC 00200000 
                        	FloatTest_18:	;  = 
FFFC94E0 003D0020 		dc	32,61,32,0
FFFC94E2 00000020 
                        	FloatTest_17:	;  * 
FFFC94E8 002A0020 		dc	32,42,32,0
FFFC94EA 00000020 
                        	FloatTest_7:
FFFC94F0 000A000D 		dc	13,10,0
FFFC94F2 00200000 
                        	FloatTest_6:	;  = 
FFFC94F6 003D0020 		dc	32,61,32,0
FFFC94F8 00000020 
                        	FloatTest_5:	;  - 
FFFC94FE 002D0020 		dc	32,45,32,0
FFFC9500 00000020 
                        	FloatTest_4:
FFFC9506 000A000D 		dc	13,10,0
FFFC9508 00200000 
                        	FloatTest_3:	;  = 
FFFC950C 003D0020 		dc	32,61,32,0
FFFC950E 00000020 
                        	FloatTest_2:	;  + 
FFFC9514 002B0020 		dc	32,43,32,0
FFFC9516 00000020 
                        		extern	_TestMul
	extern	_DBGHomeCursor
	extern	_TestAddsub
	extern	_log10q
	extern	_log10q
	extern	_DBGClearScreen
	extern	_DBGDisplayString
;	global	_FloatTest
                        		extern	_prtflt
	extern	_prtflt
	extern	_prtflt
	rodata
FFFC951C 00000000 		align	1
                        	
                        		align	2                        	
                        	ramtest_100:	;   RAM Test
FFFC9520 00200020 		dc	32,32,82,65,77,32,84,101
FFFC9522 00410052 
FFFC9524 0020004D 
FFFC9526 00650054 
FFFC9530 00740073 		dc	115,116,13,10,0
FFFC9532 000A000D 
FFFC9534 00000000 
                        		extern	_DBGHideCursor
	extern	_puthexnum
;	global	_ramtest
                        		extern	_DBGDisplayString
	extern	_putch
;	global	_dumpaddr
                        	;	global	_puthex
                        		rodata
FFFC953A 00000000 		align	1
FFFC953C 00000000 
                        	
                        	;	global	_putnum
                        	;	global	_putstr
                        		extern	_putstr
;	global	_getchar
                        	;	global	_putstr2
                        		extern	_isdigit
;	global	_puthexnum
                        	;	global	_putstrD
                        		extern	_KeybdGetBufferedCharNoWait
	extern	_DBGDisplayChar
;	global	_putch
                        	;	global	_LEDS
                        	;	global	_getcharNoWait
                        	;	global	_out_fh
                        	;	global	_printf
                        		extern	_prtflt
	rodata
                        		align	16                        	
                        	;	global	_isalpha
                        	;	global	_isspace
                        	;	global	_isdigit
                        	;	global	_isgraph
                        	;	global	_isalnum
                        	;	global	_iscntrl
                        	;	global	_islower
                        	;	global	_ispunct
                        	;	global	_isupper
                        	;	global	_isprint
                        	;	global	_tolower
                        	;	global	_toupper
                        	;	global	_isxdigit
                        		rodata
                        		align	16                        	
                        	;	global	_strcpy
                        	;	global	_memcpyC
                        	;	global	_memsetC
                        	;	global	_memsetH
                        	;	global	_memcpyW
                        	;	global	_memmove
                        	;	global	_strncmp
                        	;	global	_strncpy
                        	;	global	_memmoveC
                        	;	global	_memchr
                        	;	global	_memcpy
                        	;	global	_memset
                        	;	global	_strchr
                        	;	global	_strlen
                        		rodata
                        		align	16                        	
                        	;	global	_free
                        	;	global	_InitHeap
                        	;	global	_FirstMBLK
                        	;	global	_round8
                        		extern	_rount8
;	global	_malloc
                        		rodata
                        		align	16                        	
                        	;	global	_in32u
                        	;	global	_in16u
                        	;	global	_out32
                        	;	global	_out16
                        	;	global	_in8
                        	;	global	_getCPU
                        	;	global	_in32
                        	;	global	_in16
                        	;	global	_in8u
                        	;	global	_out8
                        		rodata
                        		align	16                        	
                        		align	8                        	
                        	prtflt_40:
FFFC9540 00000000 		dh	0x00000000,0x40240000
FFFC9542 40240000 
                        	prtflt_39:
FFFC9548 00000000 		dh	0x00000000,0x412E8480
FFFC954A 412E8480 
                        	prtflt_38:
FFFC9550 00000000 		dh	0x00000000,0x3FF00000
FFFC9552 3FF00000 
                        	prtflt_37:
FFFC9558 00000000 		dh	0x00000000,0x00000000
FFFC955A 00000000 
                        		extern	_putstr
	extern	_putstrD
;	global	_sprtflt
                        	;	global	_prtflt
                        		rodata
                        		align	16                        	
                        		align	8                        	
                        	log10q_87:
FFFC9560 00000000 		dh	0x00000000,0x3FF00000
FFFC9562 3FF00000 
                        	log10q_86:
FFFC9568 00000000 		dh	0x00000000,0x40000000
FFFC956A 40000000 
                        	log10q_58:
FFFC9570 667F3BCC 		dh	0x667F3BCC,0x3FE6A09E
FFFC9572 3FE6A09E 
                        	log10q_56:
FFFC9578 AB646BC7 		dh	0xAB646BC7,0xBFB0D213
FFFC957A BFB0D213 
                        	log10q_55:
FFFC9580 AB646BC7 		dh	0xAB646BC7,0x3FB0D213
FFFC9582 3FB0D213 
                        	log10q_53:
FFFC9588 00000000 		dh	0x00000000,0x3FE00000
FFFC958A 3FE00000 
                        	log10q_51:
FFFC9590 EC10C021 		dh	0xEC10C021,0xBF877D95
FFFC9592 BF877D95 
                        	log10q_50:
FFFC9598 EC10C021 		dh	0xEC10C021,0x3F877D95
FFFC959A 3F877D95 
                        	log10q_48:
FFFC95A0 00000000 		dh	0x00000000,0x3FD40000
FFFC95A2 3FD40000 
                        	log10q_46:
FFFC95A8 4108B632 		dh	0x4108B632,0xC05DA8B3
FFFC95AA C05DA8B3 
                        	log10q_45:
FFFC95B0 4108B632 		dh	0x4108B632,0x405DA8B3
FFFC95B2 405DA8B3 
                        	log10q_44:
FFFC95B8 B24DF089 		dh	0xB24DF089,0x40AF3D0D
FFFC95BA 40AF3D0D 
                        	log10q_43:
FFFC95C0 77CC51CE 		dh	0x77CC51CE,0xC0EC11AD
FFFC95C2 C0EC11AD 
                        	log10q_42:
FFFC95C8 77CC51CE 		dh	0x77CC51CE,0x40EC11AD
FFFC95CA 40EC11AD 
                        	log10q_41:
FFFC95D0 13DF72EA 		dh	0x13DF72EA,0x41186C6F
FFFC95D2 41186C6F 
                        	log10q_40:
FFFC95D8 1E04BC5E 		dh	0x1E04BC5E,0xC1345537
FFFC95DA C1345537 
                        	log10q_39:
FFFC95E0 1E04BC5E 		dh	0x1E04BC5E,0x41345537
FFFC95E2 41345537 
                        	log10q_38:
FFFC95E8 0D45D221 		dh	0x0D45D221,0x4139F781
FFFC95EA 4139F781 
                        	log10q_36:
FFFC95F0 C874F5A6 		dh	0xC874F5A6,0xBFEC40A1
FFFC95F2 BFEC40A1 
                        	log10q_35:
FFFC95F8 C874F5A6 		dh	0xC874F5A6,0x3FEC40A1
FFFC95FA 3FEC40A1 
                        	log10q_34:
FFFC9600 533971E5 		dh	0x533971E5,0x4054247B
FFFC9602 4054247B 
                        	log10q_33:
FFFC9608 0A9210EB 		dh	0x0A9210EB,0xC09FA135
FFFC960A C09FA135 
                        	log10q_32:
FFFC9610 0A9210EB 		dh	0x0A9210EB,0x409FA135
FFFC9612 409FA135 
                        	log10q_31:
FFFC9618 BB3C4EDE 		dh	0xBB3C4EDE,0x40D4020C
FFFC961A 40D4020C 
                        	log10q_30:
FFFC9620 4780E233 		dh	0x4780E233,0xC0F5EAC9
FFFC9622 C0F5EAC9 
                        	log10q_29:
FFFC9628 4780E233 		dh	0x4780E233,0x40F5EAC9
FFFC962A 40F5EAC9 
                        	log10q_28:
FFFC9630 5E2E8C16 		dh	0x5E2E8C16,0x41014FAB
FFFC9632 41014FAB 
                        	log10q_26:
FFFC9638 BDA4D3F4 		dh	0xBDA4D3F4,0x4048322F
FFFC963A 4048322F 
                        	log10q_25:
FFFC9640 4777E569 		dh	0x4777E569,0x408C73F1
FFFC9642 408C73F1 
                        	log10q_24:
FFFC9648 3EA5565F 		dh	0x3EA5565F,0x40C1DD93
FFFC964A 40C1DD93 
                        	log10q_23:
FFFC9650 77AED024 		dh	0x77AED024,0x40EB5F4D
FFFC9652 40EB5F4D 
                        	log10q_22:
FFFC9658 67F5EFF2 		dh	0x67F5EFF2,0x410B71BB
FFFC965A 410B71BB 
                        	log10q_21:
FFFC9660 DDAC3B8E 		dh	0xDDAC3B8E,0x4122B6C5
FFFC9662 4122B6C5 
                        	log10q_20:
FFFC9668 FA3B03B3 		dh	0xFA3B03B3,0x4131AB83
FFFC966A 4131AB83 
                        	log10q_19:
FFFC9670 73F762A0 		dh	0x73F762A0,0x41371D82
FFFC9672 41371D82 
                        	log10q_18:
FFFC9678 89D38E2E 		dh	0x89D38E2E,0x41348FBE
FFFC967A 41348FBE 
                        	log10q_17:
FFFC9680 11688C14 		dh	0x11688C14,0x4127BC52
FFFC9682 4127BC52 
                        	log10q_16:
FFFC9688 14003EA1 		dh	0x14003EA1,0x41100888
FFFC968A 41100888 
                        	log10q_15:
FFFC9690 8205CB3E 		dh	0x8205CB3E,0x40E33DE5
FFFC9692 40E33DE5 
                        	log10q_13:
FFFC9698 0D6ED829 		dh	0x0D6ED829,0x3EB9D04A
FFFC969A 3EB9D04A 
                        	log10q_12:
FFFC96A0 21347CC2 		dh	0x21347CC2,0x3FDFFD7E
FFFC96A2 3FDFFD7E 
                        	log10q_11:
FFFC96A8 178FE966 		dh	0x178FE966,0x40373615
FFFC96AA 40373615 
                        	log10q_10:
FFFC96B0 8639C28F 		dh	0x8639C28F,0x4079B73A
FFFC96B2 4079B73A 
                        	log10q_9:
FFFC96B8 9B3AE125 		dh	0x9B3AE125,0x40ADE1E7
FFFC96BA 40ADE1E7 
                        	log10q_8:
FFFC96C0 F0550CF6 		dh	0xF0550CF6,0x40D4CA24
FFFC96C2 40D4CA24 
                        	log10q_7:
FFFC96C8 1822D401 		dh	0x1822D401,0x40F28A79
FFFC96CA 40F28A79 
                        	log10q_6:
FFFC96D0 A49F1719 		dh	0xA49F1719,0x4105F196
FFFC96D2 4105F196 
                        	log10q_5:
FFFC96D8 A9F2757A 		dh	0xA9F2757A,0x41116CAB
FFFC96DA 41116CAB 
                        	log10q_4:
FFFC96E0 EB05BA7E 		dh	0xEB05BA7E,0x41125A72
FFFC96E2 41125A72 
                        	log10q_3:
FFFC96E8 319418D1 		dh	0x319418D1,0x410897CA
FFFC96EA 410897CA 
                        	log10q_2:
FFFC96F0 BFBF9A19 		dh	0xBFBF9A19,0x40F2F8F8
FFFC96F2 40F2F8F8 
                        	log10q_1:
FFFC96F8 AD5D0EFE 		dh	0xAD5D0EFE,0x40C9A7DC
FFFC96FA 40C9A7DC 
                        	;	global	_log10q
                        		rodata
                        		align	16                        	
                        	;	global	_LockSemaphore
                        		rodata
                        		align	16                        	
                        	;	global	_UnlockSemaphore
                        		rodata
                        		align	16                        	
                        	;	global	_GetScreenLocation
                        		extern	_outb
	extern	_outc
	extern	_outh
	extern	_IOFocusNdx
	extern	_DumpTaskList
	extern	_outw
	extern	_memsetH
;	global	_SetVBA
                        		extern	_AsciiToScreen
	extern	_DispChar
	extern	_chkTCB
;	global	_UnlockSemaphore
                        	;	global	_DBGClearScreen
                        		extern	_GetVecno
	extern	_GetACBPtr
	extern	_GetJCBPtr
	extern	_getCPU
;	global	_LEDS
                        	;	global	_TestFunc
                        		extern	_LockSemaphore
	extern	_set_vector
	extern	_FocusSwitcher
	extern	_mmu_FreeMap
	extern	_DBGAttr
	extern	_DBGCursorCol
	extern	_DBGCursorRow
	extern	_RemoveFromTimeoutList
	extern	_SetBound50
	extern	_SetBound51
	extern	_SetBound48
	extern	_SetBound49
	extern	_InsertIntoTimeoutList
	extern	_RemoveFromReadyList
	extern	_InsertIntoReadyList
	rodata
                        		align	16                        	
                        	;	global	_in32u
                        	;	global	_in16u
                        	;	global	_out32
                        	;	global	_out16
                        	;	global	_in8
                        	;	global	_getCPU
                        	;	global	_in32
                        	;	global	_in16
                        	;	global	_set_vector
                        		extern	_interrupt_table
;	global	_InitPIC
                        	;	global	_in8u
                        	;	global	_out8
                        		rodata
                        		align	2                        	
                        	FMTKc_94:	; _startQ
FFFC9700 00000000 		dc	0,0,0,1,0,0,0,2
FFFC9702 00010000 
FFFC9704 00000000 
FFFC9706 00020000 
FFFC9710 00000000 		dc	0,0,0,3,0,1,0,4
FFFC9712 00030000 
FFFC9714 00010000 
FFFC9716 00040000 
FFFC9720 00000000 		dc	0,0,0,5,0,0,0,6
FFFC9722 00050000 
FFFC9724 00000000 
FFFC9726 00060000 
FFFC9730 00010000 		dc	0,1,0,7,0,0,0,0
FFFC9732 00070000 
FFFC9734 00000000 
FFFC9736 00000000 
                        		rodata
                        		align	16                        	
                        		align	2                        	
                        	FMTKc_305:	; IdleTask: CTRL-C pressed.
FFFC9740 00640049 		dc	73,100,108,101,84,97,115,107
FFFC9742 0065006C 
FFFC9744 00610054 
FFFC9746 006B0073 
FFFC9750 0020003A 		dc	58,32,67,84,82,76,45,67
FFFC9752 00540043 
FFFC9754 004C0052 
FFFC9756 0043002D 
FFFC9760 00700020 		dc	32,112,114,101,115,115,101,100
FFFC9762 00650072 
FFFC9764 00730073 
FFFC9766 00640065 
FFFC9770 000D002E 		dc	46,13,10,0
FFFC9772 0000000A 
                        	FMTKc_97:	; No entries in ready queue.
FFFC9778 006F004E 		dc	78,111,32,101,110,116,114,105
FFFC977A 00650020 
FFFC977C 0074006E 
FFFC977E 00690072 
FFFC9788 00730065 		dc	101,115,32,105,110,32,114,101
FFFC978A 00690020 
FFFC978C 0020006E 
FFFC978E 00650072 
FFFC9798 00640061 		dc	97,100,121,32,113,117,101,117
FFFC979A 00200079 
FFFC979C 00750071 
FFFC979E 00750065 
FFFC97A8 002E0065 		dc	101,46,0
FFFC97AA 00000000 
                        	;	global	_GetTick
                        		extern	_tcbs
;	global	_FMTK_IRQDispatch
                        		extern	_nMsgBlk
;	global	_SetR1
                        		extern	_PopTimeoutList
	extern	_putstr
	extern	_outb
	extern	_IOFocusTbl
	extern	_outc
	extern	_outh
	extern	_FMTK_StartApp
	extern	_irq_stack
	extern	_IOFocusNdx
	extern	_DumpTaskList
	extern	_outw
;	global	_SetSP
                        		extern	_fmtk_irq_stack
;	global	_IdleThread
                        	;	global	_GetRunningTCB
                        	;	global	_FMTK_IRQDispatch2
                        		extern	_KillThread
	extern	_fmtk_sys_stack
	extern	_message
;	global	_SetRunningTCB
                        	;	global	_GetReg1x
                        		extern	_GetRegx1
;	global	_GetReg2x
                        		extern	_GetRegx2
;	global	_GetReg3x
                        		extern	_GetRegx3
;	global	_GetReg4x
                        		extern	_GetRegx4
;	global	_GetReg5x
                        		extern	_GetRegx5
	extern	_mailbox
;	global	_GetReg6x
                        		extern	_GetRegx6
;	global	_GetReg7x
                        		extern	_GetRegx7
	extern	_FMTK_Inited
;	global	_UnlockIOFSemaphore
                        	;	global	_GetReg8x
                        		extern	_GetRegx8
;	global	_GetReg9x
                        		extern	_GetRegx9
;	global	_SetReg1x
                        		extern	_SetRegx1
;	global	_SetReg2x
                        		extern	_SetRegx2
;	global	_SetReg3x
                        		extern	_SetRegx3
;	global	_SetReg4x
                        		extern	_SetRegx4
;	global	_SetReg5x
                        		extern	_SetRegx5
;	global	_FMTK_StartThread
                        	;	global	_SetReg6x
                        		extern	_SetRegx6
;	global	_SetReg7x
                        		extern	_SetRegx7
;	global	_SetReg8x
                        		extern	_SetRegx8
;	global	_SetReg9x
                        		extern	_SetRegx9
;	global	_AckTimerIRQ
                        		extern	_hFocusSwitchMbx
	extern	_missed_ticks
;	global	_SetVBA
                        	;	global	_LockIOFSemaphore
                        		extern	_panic
;	global	_panic
                        		extern	_chkTCB
;	global	_UnlockSemaphore
                        	;	global	_GetRunningTCBPtr
                        	;	global	_GetReg10x
                        		extern	_GetRegx10
	extern	_shell
;	global	_GetReg11x
                        	;	global	_GetReg20x
                        		extern	_GetRegx11
	extern	_GetRegx20
;	global	_GetReg12x
                        	;	global	_GetReg21x
                        	;	global	_GetReg30x
                        		extern	_GetRegx12
	extern	_GetRegx21
	extern	_GetRegx30
;	global	_GetReg13x
                        	;	global	_GetReg22x
                        	;	global	_GetReg31x
                        		extern	_GetRegx13
	extern	_GetRegx22
	extern	_GetRegx31
	extern	_GetVecno
;	global	_GetReg14x
                        	;	global	_GetReg23x
                        		extern	_GetRegx14
	extern	_GetRegx23
;	global	_GetACBPtr
                        	;	global	_GetReg15x
                        	;	global	_GetReg24x
                        		extern	_GetRegx15
	extern	_GetRegx24
;	global	_FMTK_SchedulerIRQ
                        	;	global	_GetReg16x
                        	;	global	_GetReg25x
                        		extern	_GetRegx16
	extern	_GetRegx25
;	global	_GetReg17x
                        	;	global	_GetReg26x
                        		extern	_GetRegx17
	extern	_GetRegx26
;	global	_GetReg18x
                        	;	global	_GetReg27x
                        		extern	_GetRegx18
	extern	_GetRegx27
;	global	_SevenSeg
                        	;	global	_GetReg19x
                        	;	global	_GetReg28x
                        		extern	_GetRegx19
	extern	_GetRegx28
;	global	_UnlockKbdSemaphore
                        	;	global	_GetReg29x
                        		extern	_GetRegx29
;	global	_SetReg10x
                        		extern	_SetRegx10
;	global	_SetReg11x
                        	;	global	_SetReg20x
                        		extern	_SetRegx11
	extern	_SetRegx20
;	global	_SetReg12x
                        	;	global	_SetReg21x
                        	;	global	_SetReg30x
                        		extern	_SetRegx12
	extern	_SetRegx21
	extern	_SetRegx30
	extern	_video_bufs
;	global	_SetReg13x
                        	;	global	_SetReg22x
                        	;	global	_SetReg31x
                        		extern	_SetRegx13
	extern	_SetRegx22
	extern	_SetRegx31
;	global	_SetReg14x
                        	;	global	_SetReg23x
                        		extern	_SetRegx14
	extern	_SetRegx23
	extern	_getCPU
;	global	_LEDS
                        	;	global	_SetReg15x
                        	;	global	_SetReg24x
                        		extern	_SetRegx15
	extern	_SetRegx24
;	global	_SetReg16x
                        	;	global	_SetReg25x
                        		extern	_SetRegx16
	extern	_SetRegx25
;	global	_SetReg17x
                        	;	global	_SetReg26x
                        		extern	_SetRegx17
	extern	_SetRegx26
;	global	_SetReg18x
                        	;	global	_SetReg27x
                        		extern	_SetRegx18
	extern	_SetRegx27
	extern	_hasUltraHighPriorityTasks
;	global	_SetReg19x
                        	;	global	_SetReg28x
                        		extern	_SetRegx19
	extern	_SetRegx28
	extern	_LockSemaphore
;	global	_SetReg29x
                        		extern	_SetRegx29
	extern	_iof_switch
	extern	_kbd_sema
;	global	_GetEpc
                        		extern	_ACBs
	extern	_nMailbox
	extern	_FMTK_FreeMbx
	extern	_set_vector
;	global	_LockKbdSemaphore
                        	;	global	_FMTK_FuncTbl
                        		extern	_iof_sema
;	global	_SetEpc
                        	;	global	_FMTKInitialize
                        		extern	_sys_stacks
	extern	_FocusSwitcher
	extern	_gfx_demo
	extern	_BIOS_RespMbx
	extern	_mmu_FreeMap
;	global	_UnlockSysSemaphore
                        	;	global	_DisplayIRQLive
                        		extern	_BIOS1_sema
	extern	_sys_sema
	extern	_readyQ
;	global	_freeACB
                        	;	global	_LockSysSemaphore
                        	;	global	_ACBPtrs
                        		extern	_sysstack
;	global	_FMTK_KillThread
                        	;	global	_FMTK_SetThreadPriority
                        		extern	_freeTCB
;	global	_SwapContext
                        		extern	_RequestIOFocus
	extern	_TimeoutList
;	global	_FMTK_ExitThread
                        		extern	_RemoveFromTimeoutList
	extern	_SetBound50
	extern	_stacks
	extern	_freeMSG
	extern	_freeMBX
	extern	_SetBound51
;	global	_FMTK_Sleep
                        	;	global	_GetCauseCode
                        		extern	_SetBound48
	extern	_SetBound49
	extern	_InsertIntoTimeoutList
;	global	_FMTK_SystemCall
                        		extern	_RemoveFromReadyList
;	global	_sp_tmp
                        		extern	_printf
	extern	_bios_stacks
;	global	_SafeGetACBPtr
                        		extern	_InsertIntoReadyList
	rodata
FFFC97AE 00250000 		align	1
                        	
                        	;	global	_FMTK_AllocMbx
                        		extern	_tcbs
	extern	_nMsgBlk
	extern	_outb
	extern	_IOFocusTbl
	extern	_outc
	extern	_outh
	extern	_irq_stack
	extern	_IOFocusNdx
	extern	_DumpTaskList
	extern	_outw
	extern	_fmtk_irq_stack
	extern	_fmtk_sys_stack
	extern	_message
	extern	_mailbox
	extern	_FMTK_Inited
;	global	_SetMbxMsgQueStrategy
                        		extern	_hFocusSwitchMbx
	extern	_missed_ticks
;	global	_SetVBA
                        		extern	_chkTCB
;	global	_UnlockSemaphore
                        		extern	_GetVecno
	extern	_GetACBPtr
	extern	_GetJCBPtr
	extern	_video_bufs
	extern	_getCPU
;	global	_LEDS
                        		extern	_hasUltraHighPriorityTasks
	extern	_LockSemaphore
	extern	_iof_switch
	extern	_kbd_sema
	extern	_ACBs
	extern	_nMailbox
;	global	_FMTK_FreeMbx
                        		extern	_set_vector
	extern	_iof_sema
	extern	_sys_stacks
	extern	_FocusSwitcher
	extern	_BIOS_RespMbx
	extern	_mmu_FreeMap
	extern	_BIOS1_sema
	extern	_sys_sema
	extern	_readyQ
	extern	_sysstack
	extern	_freeTCB
	extern	_TimeoutList
	extern	_RemoveFromTimeoutList
	extern	_RemoveFromTimeoutList
	extern	_SetBound50
	extern	_stacks
	extern	_freeMSG
	extern	_freeMBX
	extern	_SetBound51
	extern	_SetBound48
	extern	_SetBound49
	extern	_InsertIntoTimeoutList
	extern	_RemoveFromReadyList
	extern	_bios_stacks
	extern	_InsertIntoReadyList
	extern	_InsertIntoReadyList
	rodata
                        		align	16                        	
                        		align	2                        	
                        	TCB_112:	; %3d %3d  %02X  %04X %04X %04X %08X %08X
FFFC97B0 00330025 		dc	37,51,100,32,37,51,100,32
FFFC97B2 00200064 
FFFC97B4 00330025 
FFFC97B6 00200064 
FFFC97C0 00250020 		dc	32,37,48,50,88,32,32,37
FFFC97C2 00320030 
FFFC97C4 00200058 
FFFC97C6 00250020 
FFFC97D0 00340030 		dc	48,52,88,32,37,48,52,88
FFFC97D2 00200058 
FFFC97D4 00300025 
FFFC97D6 00580034 
FFFC97E0 00250020 		dc	32,37,48,52,88,32,37,48
FFFC97E2 00340030 
FFFC97E4 00200058 
FFFC97E6 00300025 
FFFC97F0 00580038 		dc	56,88,32,37,48,56,88,13
FFFC97F2 00250020 
FFFC97F4 00380030 
FFFC97F6 000D0058 
FFFC9800 0000000A 		dc	10,0
                        	TCB_111:	; Waiting tasks
FFFC9804 00610057 		dc	87,97,105,116,105,110,103,32
FFFC9806 00740069 
FFFC9808 006E0069 
FFFC980A 00200067 
FFFC9814 00610074 		dc	116,97,115,107,115,13,10,0
FFFC9816 006B0073 
FFFC9818 000D0073 
FFFC981A 0000000A 
                        	TCB_109:	; %3d %3d  %02X  %04X %04X %04X %08X %08X
FFFC9824 00330025 		dc	37,51,100,32,37,51,100,32
FFFC9826 00200064 
FFFC9828 00330025 
FFFC982A 00200064 
FFFC9834 00250020 		dc	32,37,48,50,88,32,32,37
FFFC9836 00320030 
FFFC9838 00200058 
FFFC983A 00250020 
FFFC9844 00340030 		dc	48,52,88,32,37,48,52,88
FFFC9846 00200058 
FFFC9848 00300025 
FFFC984A 00580034 
FFFC9854 00250020 		dc	32,37,48,52,88,32,37,48
FFFC9856 00340030 
FFFC9858 00200058 
FFFC985A 00300025 
FFFC9864 00580038 		dc	56,88,32,37,48,56,88,13
FFFC9866 00250020 
FFFC9868 00380030 
FFFC986A 000D0058 
FFFC9874 0000000A 		dc	10,0
                        	TCB_108:	; CPU Pri Stat Task Prev Next Timeout
FFFC9878 00500043 		dc	67,80,85,32,80,114,105,32
FFFC987A 00200055 
FFFC987C 00720050 
FFFC987E 00200069 
FFFC9888 00740053 		dc	83,116,97,116,32,84,97,115
FFFC988A 00740061 
FFFC988C 00540020 
FFFC988E 00730061 
FFFC9898 0020006B 		dc	107,32,80,114,101,118,32,78
FFFC989A 00720050 
FFFC989C 00760065 
FFFC989E 004E0020 
FFFC98A8 00780065 		dc	101,120,116,32,84,105,109,101
FFFC98AA 00200074 
FFFC98AC 00690054 
FFFC98AE 0065006D 
FFFC98B8 0075006F 		dc	111,117,116,13,10,0
FFFC98BA 000D0074 
FFFC98BC 0000000A 
                        	;	global	_tcbs
                        	;	global	_PopTimeoutList
                        		extern	_outb
	extern	_outc
	extern	_outh
;	global	_DumpTaskList
                        		extern	_outw
;	global	_GetRunningTCB
                        	;	global	_SetRunningTCB
                        	;	global	_SetVBA
                        		extern	_chkTCB
;	global	_chkTCB
                        	;	global	_UnlockSemaphore
                        	;	global	_GetRunningTCBPtr
                        		extern	_GetVecno
	extern	_GetACBPtr
	extern	_getCPU
;	global	_LEDS
                        		extern	_hasUltraHighPriorityTasks
	extern	_LockSemaphore
	extern	_getcharNoWait
	extern	_set_vector
	extern	_FocusSwitcher
	extern	_mmu_FreeMap
;	global	_readyQ
                        	;	global	_freeTCB
                        	;	global	_TimeoutList
                        		extern	_RemoveFromTimeoutList
;	global	_RemoveFromTimeoutList
                        		extern	_prtdbl
	extern	_SetBound50
	extern	_SetBound51
	extern	_SetBound48
	extern	_SetBound49
	extern	_InsertIntoTimeoutList
;	global	_InsertIntoTimeoutList
                        		extern	_RemoveFromReadyList
;	global	_RemoveFromReadyList
                        		extern	_printf
	extern	_printf
	extern	_InsertIntoReadyList
;	global	_InsertIntoReadyList
                        		rodata
FFFC98C4 00000000 		align	1
FFFC98C6 00000000 
FFFC98C8 00000000 
                        	
                        		extern	_jcbs
	extern	_FMTK_AllocMbx
	extern	_outb
	extern	_IOFocusTbl
	extern	_outc
	extern	_outh
	extern	_IOFocusNdx
	extern	_DumpTaskList
	extern	_outw
	extern	_JCB
;	global	_hFocusSwitchMbx
                        	;	global	_SetVBA
                        		extern	_CopyScreenToVirtualScreen
	extern	_CopyVirtualScreenToScreen
	extern	_SwitchIOFocus
	extern	_chkTCB
;	global	_UnlockSemaphore
                        		extern	_GetVecno
	extern	_GetACBPtr
	extern	_getCPU
;	global	_LEDS
                        		extern	_LockSemaphore
	extern	_set_vector
	extern	_iof_sema
;	global	_FocusSwitcher
                        		extern	_FMTK_WaitMsg
	extern	_mmu_FreeMap
	extern	_RequestIOFocus
	extern	_RemoveFromTimeoutList
;	global	_ForceIOFocus
                        		extern	_SetBound50
	extern	_SetBound51
	extern	_SetBound48
	extern	_SetBound49
	extern	_InsertIntoTimeoutList
	extern	_RemoveFromReadyList
	extern	_InsertIntoReadyList
; 000000 +---------+
                        	;        | 1 page  | JCB vars
                        	; 002000 +---------+
                        	;        | 4 pages | JCB video buffer
                        	; 00A000 +---------+
                        	
                        	
                        		rodata
                        		align 8                        	
                        	begin_init_data:
                        		data
                        		align	2                        	
                        	cc64rt_16:	; _id
FFFCA000 00000000 		fill.b	8,0x00
FFFCA002 00000000 
                        		data
                        		align	2                        	
                        	stdio_29:	; _numwka
FFFCA008 00000000 		fill.b	400,0x00
FFFCA00A 00000000 
FFFCA00C 00000000 
FFFCA00E 00000000 
FFFCA010 00000000 
FFFCA012 00000000 
FFFCA014 00000000 
FFFCA016 00000000 
FFFCA018 00000000 
FFFCA01A 00000000 
FFFCA01C 00000000 
FFFCA01E 00000000 
FFFCA020 00000000 
FFFCA022 00000000 
FFFCA024 00000000 
FFFCA026 00000000 
FFFCA028 00000000 
FFFCA02A 00000000 
FFFCA02C 00000000 
FFFCA02E 00000000 
FFFCA030 00000000 
FFFCA032 00000000 
FFFCA034 00000000 
FFFCA036 00000000 
FFFCA038 00000000 
FFFCA03A 00000000 
FFFCA03C 00000000 
FFFCA03E 00000000 
FFFCA040 00000000 
FFFCA042 00000000 
FFFCA044 00000000 
FFFCA046 00000000 
FFFCA048 00000000 
FFFCA04A 00000000 
FFFCA04C 00000000 
FFFCA04E 00000000 
FFFCA050 00000000 
FFFCA052 00000000 
FFFCA054 00000000 
FFFCA056 00000000 
FFFCA058 00000000 
FFFCA05A 00000000 
FFFCA05C 00000000 
FFFCA05E 00000000 
FFFCA060 00000000 
FFFCA062 00000000 
FFFCA064 00000000 
FFFCA066 00000000 
FFFCA068 00000000 
FFFCA06A 00000000 
FFFCA06C 00000000 
FFFCA06E 00000000 
FFFCA070 00000000 
FFFCA072 00000000 
FFFCA074 00000000 
FFFCA076 00000000 
FFFCA078 00000000 
FFFCA07A 00000000 
FFFCA07C 00000000 
FFFCA07E 00000000 
FFFCA080 00000000 
FFFCA082 00000000 
FFFCA084 00000000 
FFFCA086 00000000 
FFFCA088 00000000 
FFFCA08A 00000000 
FFFCA08C 00000000 
FFFCA08E 00000000 
FFFCA090 00000000 
FFFCA092 00000000 
FFFCA094 00000000 
FFFCA096 00000000 
FFFCA098 00000000 
FFFCA09A 00000000 
FFFCA09C 00000000 
FFFCA09E 00000000 
FFFCA0A0 00000000 
FFFCA0A2 00000000 
FFFCA0A4 00000000 
FFFCA0A6 00000000 
FFFCA0A8 00000000 
FFFCA0AA 00000000 
FFFCA0AC 00000000 
FFFCA0AE 00000000 
FFFCA0B0 00000000 
FFFCA0B2 00000000 
FFFCA0B4 00000000 
FFFCA0B6 00000000 
FFFCA0B8 00000000 
FFFCA0BA 00000000 
FFFCA0BC 00000000 
FFFCA0BE 00000000 
FFFCA0C0 00000000 
FFFCA0C2 00000000 
FFFCA0C4 00000000 
FFFCA0C6 00000000 
FFFCA0C8 00000000 
FFFCA0CA 00000000 
FFFCA0CC 00000000 
FFFCA0CE 00000000 
                        		data
                        		align	8                        	
                        		data
                        		align	2                        	
                        	log10q_0:	; _P
                        	
                        		align 8                        	
FFFCA198 AD5D0EFE 		dh	0xAD5D0EFE,0x40C9A7DC
FFFCA19A 40C9A7DC 
                        		align 8                        	
FFFCA1A0 BFBF9A19 		dh	0xBFBF9A19,0x40F2F8F8
FFFCA1A2 40F2F8F8 
                        		align 8                        	
FFFCA1A8 319418D1 		dh	0x319418D1,0x410897CA
FFFCA1AA 410897CA 
                        		align 8                        	
FFFCA1B0 EB05BA7E 		dh	0xEB05BA7E,0x41125A72
FFFCA1B2 41125A72 
                        		align 8                        	
FFFCA1B8 A9F2757A 		dh	0xA9F2757A,0x41116CAB
FFFCA1BA 41116CAB 
                        		align 8                        	
FFFCA1C0 A49F1719 		dh	0xA49F1719,0x4105F196
FFFCA1C2 4105F196 
                        		align 8                        	
FFFCA1C8 1822D401 		dh	0x1822D401,0x40F28A79
FFFCA1CA 40F28A79 
                        		align 8                        	
FFFCA1D0 F0550CF6 		dh	0xF0550CF6,0x40D4CA24
FFFCA1D2 40D4CA24 
                        		align 8                        	
FFFCA1D8 9B3AE125 		dh	0x9B3AE125,0x40ADE1E7
FFFCA1DA 40ADE1E7 
                        		align 8                        	
FFFCA1E0 8639C28F 		dh	0x8639C28F,0x4079B73A
FFFCA1E2 4079B73A 
                        		align 8                        	
FFFCA1E8 178FE966 		dh	0x178FE966,0x40373615
FFFCA1EA 40373615 
                        		align 8                        	
FFFCA1F0 21347CC2 		dh	0x21347CC2,0x3FDFFD7E
FFFCA1F2 3FDFFD7E 
                        		align 8                        	
FFFCA1F8 0D6ED829 		dh	0x0D6ED829,0x3EB9D04A
FFFCA1FA 3EB9D04A 
                        		align	2                        	
                        	log10q_14:	; _Q
                        	
                        		align 8                        	
FFFCA200 8205CB3E 		dh	0x8205CB3E,0x40E33DE5
FFFCA202 40E33DE5 
                        		align 8                        	
FFFCA208 14003EA1 		dh	0x14003EA1,0x41100888
FFFCA20A 41100888 
                        		align 8                        	
FFFCA210 11688C14 		dh	0x11688C14,0x4127BC52
FFFCA212 4127BC52 
                        		align 8                        	
FFFCA218 89D38E2E 		dh	0x89D38E2E,0x41348FBE
FFFCA21A 41348FBE 
                        		align 8                        	
FFFCA220 73F762A0 		dh	0x73F762A0,0x41371D82
FFFCA222 41371D82 
                        		align 8                        	
FFFCA228 FA3B03B3 		dh	0xFA3B03B3,0x4131AB83
FFFCA22A 4131AB83 
                        		align 8                        	
FFFCA230 DDAC3B8E 		dh	0xDDAC3B8E,0x4122B6C5
FFFCA232 4122B6C5 
                        		align 8                        	
FFFCA238 67F5EFF2 		dh	0x67F5EFF2,0x410B71BB
FFFCA23A 410B71BB 
                        		align 8                        	
FFFCA240 77AED024 		dh	0x77AED024,0x40EB5F4D
FFFCA242 40EB5F4D 
                        		align 8                        	
FFFCA248 3EA5565F 		dh	0x3EA5565F,0x40C1DD93
FFFCA24A 40C1DD93 
                        		align 8                        	
FFFCA250 4777E569 		dh	0x4777E569,0x408C73F1
FFFCA252 408C73F1 
                        		align 8                        	
FFFCA258 BDA4D3F4 		dh	0xBDA4D3F4,0x4048322F
FFFCA25A 4048322F 
                        		align	2                        	
                        	log10q_27:	; _R
                        	
                        		align 8                        	
FFFCA260 5E2E8C16 		dh	0x5E2E8C16,0x41014FAB
FFFCA262 41014FAB 
                        		align 8                        	
FFFCA268 4780E233 		dh	0x4780E233,0xC0F5EAC9
FFFCA26A C0F5EAC9 
                        		align 8                        	
FFFCA270 BB3C4EDE 		dh	0xBB3C4EDE,0x40D4020C
FFFCA272 40D4020C 
                        		align 8                        	
FFFCA278 0A9210EB 		dh	0x0A9210EB,0xC09FA135
FFFCA27A C09FA135 
                        		align 8                        	
FFFCA280 533971E5 		dh	0x533971E5,0x4054247B
FFFCA282 4054247B 
                        		align 8                        	
FFFCA288 C874F5A6 		dh	0xC874F5A6,0xBFEC40A1
FFFCA28A BFEC40A1 
                        		align	2                        	
                        	log10q_37:	; _S
                        	
                        		align 8                        	
FFFCA290 0D45D221 		dh	0x0D45D221,0x4139F781
FFFCA292 4139F781 
                        		align 8                        	
FFFCA298 1E04BC5E 		dh	0x1E04BC5E,0xC1345537
FFFCA29A C1345537 
                        		align 8                        	
FFFCA2A0 13DF72EA 		dh	0x13DF72EA,0x41186C6F
FFFCA2A2 41186C6F 
                        		align 8                        	
FFFCA2A8 77CC51CE 		dh	0x77CC51CE,0xC0EC11AD
FFFCA2AA C0EC11AD 
                        		align 8                        	
FFFCA2B0 B24DF089 		dh	0xB24DF089,0x40AF3D0D
FFFCA2B2 40AF3D0D 
                        		align 8                        	
FFFCA2B8 4108B632 		dh	0x4108B632,0xC05DA8B3
FFFCA2BA C05DA8B3 
                        		align	2                        	
                        	log10q_47:	; _L102A
                        	
                        		align 8                        	
FFFCA2C0 00000000 		dh	0x00000000,0x3FD40000
FFFCA2C2 3FD40000 
                        		align	2                        	
                        	log10q_49:	; _L102B
                        	
                        		align 8                        	
FFFCA2C8 EC10C021 		dh	0xEC10C021,0xBF877D95
FFFCA2CA BF877D95 
                        		align	2                        	
                        	log10q_52:	; _L10EA
                        	
                        		align 8                        	
FFFCA2D0 00000000 		dh	0x00000000,0x3FE00000
FFFCA2D2 3FE00000 
                        		align	2                        	
                        	log10q_54:	; _L10EB
                        	
                        		align 8                        	
FFFCA2D8 AB646BC7 		dh	0xAB646BC7,0xBFB0D213
FFFCA2DA BFB0D213 
                        		align	2                        	
                        	log10q_57:	; _SQRTH
                        	
                        		align 8                        	
FFFCA2E0 667F3BCC 		dh	0x667F3BCC,0x3FE6A09E
FFFCA2E2 3FE6A09E 
                        		data
                        		align	8                        	
FFFCA2E8 00000000 		fill.b	8,0x00
FFFCA2EA 00000000 
                        		align	8                        	
FFFCA2F0 00000000 		fill.b	1952,0x00
FFFCA2F2 00000000 
FFFCA2F4 00000000 
FFFCA2F6 00000000 
FFFCA2F8 00000000 
FFFCA2FA 00000000 
FFFCA2FC 00000000 
FFFCA2FE 00000000 
FFFCA300 00000000 
FFFCA302 00000000 
FFFCA304 00000000 
FFFCA306 00000000 
FFFCA308 00000000 
FFFCA30A 00000000 
FFFCA30C 00000000 
FFFCA30E 00000000 
FFFCA310 00000000 
FFFCA312 00000000 
FFFCA314 00000000 
FFFCA316 00000000 
FFFCA318 00000000 
FFFCA31A 00000000 
FFFCA31C 00000000 
FFFCA31E 00000000 
FFFCA320 00000000 
FFFCA322 00000000 
FFFCA324 00000000 
FFFCA326 00000000 
FFFCA328 00000000 
FFFCA32A 00000000 
FFFCA32C 00000000 
FFFCA32E 00000000 
FFFCA330 00000000 
FFFCA332 00000000 
FFFCA334 00000000 
FFFCA336 00000000 
FFFCA338 00000000 
FFFCA33A 00000000 
FFFCA33C 00000000 
FFFCA33E 00000000 
FFFCA340 00000000 
FFFCA342 00000000 
FFFCA344 00000000 
FFFCA346 00000000 
FFFCA348 00000000 
FFFCA34A 00000000 
FFFCA34C 00000000 
FFFCA34E 00000000 
FFFCA350 00000000 
FFFCA352 00000000 
FFFCA354 00000000 
FFFCA356 00000000 
FFFCA358 00000000 
FFFCA35A 00000000 
FFFCA35C 00000000 
FFFCA35E 00000000 
FFFCA360 00000000 
FFFCA362 00000000 
FFFCA364 00000000 
FFFCA366 00000000 
FFFCA368 00000000 
FFFCA36A 00000000 
FFFCA36C 00000000 
FFFCA36E 00000000 
FFFCA370 00000000 
FFFCA372 00000000 
FFFCA374 00000000 
FFFCA376 00000000 
FFFCA378 00000000 
FFFCA37A 00000000 
FFFCA37C 00000000 
FFFCA37E 00000000 
FFFCA380 00000000 
FFFCA382 00000000 
FFFCA384 00000000 
FFFCA386 00000000 
FFFCA388 00000000 
FFFCA38A 00000000 
FFFCA38C 00000000 
FFFCA38E 00000000 
FFFCA390 00000000 
FFFCA392 00000000 
FFFCA394 00000000 
FFFCA396 00000000 
FFFCA398 00000000 
FFFCA39A 00000000 
FFFCA39C 00000000 
FFFCA39E 00000000 
FFFCA3A0 00000000 
FFFCA3A2 00000000 
FFFCA3A4 00000000 
FFFCA3A6 00000000 
FFFCA3A8 00000000 
FFFCA3AA 00000000 
FFFCA3AC 00000000 
FFFCA3AE 00000000 
FFFCA3B0 00000000 
FFFCA3B2 00000000 
FFFCA3B4 00000000 
FFFCA3B6 00000000 
FFFCA3B8 00000000 
FFFCA3BA 00000000 
FFFCA3BC 00000000 
FFFCA3BE 00000000 
FFFCA3C0 00000000 
FFFCA3C2 00000000 
FFFCA3C4 00000000 
FFFCA3C6 00000000 
FFFCA3C8 00000000 
FFFCA3CA 00000000 
FFFCA3CC 00000000 
FFFCA3CE 00000000 
FFFCA3D0 00000000 
FFFCA3D2 00000000 
FFFCA3D4 00000000 
FFFCA3D6 00000000 
FFFCA3D8 00000000 
FFFCA3DA 00000000 
FFFCA3DC 00000000 
FFFCA3DE 00000000 
FFFCA3E0 00000000 
FFFCA3E2 00000000 
FFFCA3E4 00000000 
FFFCA3E6 00000000 
FFFCA3E8 00000000 
FFFCA3EA 00000000 
FFFCA3EC 00000000 
FFFCA3EE 00000000 
FFFCA3F0 00000000 
FFFCA3F2 00000000 
FFFCA3F4 00000000 
FFFCA3F6 00000000 
FFFCA3F8 00000000 
FFFCA3FA 00000000 
FFFCA3FC 00000000 
FFFCA3FE 00000000 
FFFCA400 00000000 
FFFCA402 00000000 
FFFCA404 00000000 
FFFCA406 00000000 
FFFCA408 00000000 
FFFCA40A 00000000 
FFFCA40C 00000000 
FFFCA40E 00000000 
FFFCA410 00000000 
FFFCA412 00000000 
FFFCA414 00000000 
FFFCA416 00000000 
FFFCA418 00000000 
FFFCA41A 00000000 
FFFCA41C 00000000 
FFFCA41E 00000000 
FFFCA420 00000000 
FFFCA422 00000000 
FFFCA424 00000000 
FFFCA426 00000000 
FFFCA428 00000000 
FFFCA42A 00000000 
FFFCA42C 00000000 
FFFCA42E 00000000 
FFFCA430 00000000 
FFFCA432 00000000 
FFFCA434 00000000 
FFFCA436 00000000 
FFFCA438 00000000 
FFFCA43A 00000000 
FFFCA43C 00000000 
FFFCA43E 00000000 
FFFCA440 00000000 
FFFCA442 00000000 
FFFCA444 00000000 
FFFCA446 00000000 
FFFCA448 00000000 
FFFCA44A 00000000 
FFFCA44C 00000000 
FFFCA44E 00000000 
FFFCA450 00000000 
FFFCA452 00000000 
FFFCA454 00000000 
FFFCA456 00000000 
FFFCA458 00000000 
FFFCA45A 00000000 
FFFCA45C 00000000 
FFFCA45E 00000000 
FFFCA460 00000000 
FFFCA462 00000000 
FFFCA464 00000000 
FFFCA466 00000000 
FFFCA468 00000000 
FFFCA46A 00000000 
FFFCA46C 00000000 
FFFCA46E 00000000 
FFFCA470 00000000 
FFFCA472 00000000 
FFFCA474 00000000 
FFFCA476 00000000 
FFFCA478 00000000 
FFFCA47A 00000000 
FFFCA47C 00000000 
FFFCA47E 00000000 
FFFCA480 00000000 
FFFCA482 00000000 
FFFCA484 00000000 
FFFCA486 00000000 
FFFCA488 00000000 
FFFCA48A 00000000 
FFFCA48C 00000000 
FFFCA48E 00000000 
FFFCA490 00000000 
FFFCA492 00000000 
FFFCA494 00000000 
FFFCA496 00000000 
FFFCA498 00000000 
FFFCA49A 00000000 
FFFCA49C 00000000 
FFFCA49E 00000000 
FFFCA4A0 00000000 
FFFCA4A2 00000000 
FFFCA4A4 00000000 
FFFCA4A6 00000000 
FFFCA4A8 00000000 
FFFCA4AA 00000000 
FFFCA4AC 00000000 
FFFCA4AE 00000000 
FFFCA4B0 00000000 
FFFCA4B2 00000000 
FFFCA4B4 00000000 
FFFCA4B6 00000000 
FFFCA4B8 00000000 
FFFCA4BA 00000000 
FFFCA4BC 00000000 
FFFCA4BE 00000000 
FFFCA4C0 00000000 
FFFCA4C2 00000000 
FFFCA4C4 00000000 
FFFCA4C6 00000000 
FFFCA4C8 00000000 
FFFCA4CA 00000000 
FFFCA4CC 00000000 
FFFCA4CE 00000000 
FFFCA4D0 00000000 
FFFCA4D2 00000000 
FFFCA4D4 00000000 
FFFCA4D6 00000000 
FFFCA4D8 00000000 
FFFCA4DA 00000000 
FFFCA4DC 00000000 
FFFCA4DE 00000000 
FFFCA4E0 00000000 
FFFCA4E2 00000000 
FFFCA4E4 00000000 
FFFCA4E6 00000000 
FFFCA4E8 00000000 
FFFCA4EA 00000000 
FFFCA4EC 00000000 
FFFCA4EE 00000000 
FFFCA4F0 00000000 
FFFCA4F2 00000000 
FFFCA4F4 00000000 
FFFCA4F6 00000000 
FFFCA4F8 00000000 
FFFCA4FA 00000000 
FFFCA4FC 00000000 
FFFCA4FE 00000000 
FFFCA500 00000000 
FFFCA502 00000000 
FFFCA504 00000000 
FFFCA506 00000000 
FFFCA508 00000000 
FFFCA50A 00000000 
FFFCA50C 00000000 
FFFCA50E 00000000 
FFFCA510 00000000 
FFFCA512 00000000 
FFFCA514 00000000 
FFFCA516 00000000 
FFFCA518 00000000 
FFFCA51A 00000000 
FFFCA51C 00000000 
FFFCA51E 00000000 
FFFCA520 00000000 
FFFCA522 00000000 
FFFCA524 00000000 
FFFCA526 00000000 
FFFCA528 00000000 
FFFCA52A 00000000 
FFFCA52C 00000000 
FFFCA52E 00000000 
FFFCA530 00000000 
FFFCA532 00000000 
FFFCA534 00000000 
FFFCA536 00000000 
FFFCA538 00000000 
FFFCA53A 00000000 
FFFCA53C 00000000 
FFFCA53E 00000000 
FFFCA540 00000000 
FFFCA542 00000000 
FFFCA544 00000000 
FFFCA546 00000000 
FFFCA548 00000000 
FFFCA54A 00000000 
FFFCA54C 00000000 
FFFCA54E 00000000 
FFFCA550 00000000 
FFFCA552 00000000 
FFFCA554 00000000 
FFFCA556 00000000 
FFFCA558 00000000 
FFFCA55A 00000000 
FFFCA55C 00000000 
FFFCA55E 00000000 
FFFCA560 00000000 
FFFCA562 00000000 
FFFCA564 00000000 
FFFCA566 00000000 
FFFCA568 00000000 
FFFCA56A 00000000 
FFFCA56C 00000000 
FFFCA56E 00000000 
FFFCA570 00000000 
FFFCA572 00000000 
FFFCA574 00000000 
FFFCA576 00000000 
FFFCA578 00000000 
FFFCA57A 00000000 
FFFCA57C 00000000 
FFFCA57E 00000000 
FFFCA580 00000000 
FFFCA582 00000000 
FFFCA584 00000000 
FFFCA586 00000000 
FFFCA588 00000000 
FFFCA58A 00000000 
FFFCA58C 00000000 
FFFCA58E 00000000 
FFFCA590 00000000 
FFFCA592 00000000 
FFFCA594 00000000 
FFFCA596 00000000 
FFFCA598 00000000 
FFFCA59A 00000000 
FFFCA59C 00000000 
FFFCA59E 00000000 
FFFCA5A0 00000000 
FFFCA5A2 00000000 
FFFCA5A4 00000000 
FFFCA5A6 00000000 
FFFCA5A8 00000000 
FFFCA5AA 00000000 
FFFCA5AC 00000000 
FFFCA5AE 00000000 
FFFCA5B0 00000000 
FFFCA5B2 00000000 
FFFCA5B4 00000000 
FFFCA5B6 00000000 
FFFCA5B8 00000000 
FFFCA5BA 00000000 
FFFCA5BC 00000000 
FFFCA5BE 00000000 
FFFCA5C0 00000000 
FFFCA5C2 00000000 
FFFCA5C4 00000000 
FFFCA5C6 00000000 
FFFCA5C8 00000000 
FFFCA5CA 00000000 
FFFCA5CC 00000000 
FFFCA5CE 00000000 
FFFCA5D0 00000000 
FFFCA5D2 00000000 
FFFCA5D4 00000000 
FFFCA5D6 00000000 
FFFCA5D8 00000000 
FFFCA5DA 00000000 
FFFCA5DC 00000000 
FFFCA5DE 00000000 
FFFCA5E0 00000000 
FFFCA5E2 00000000 
FFFCA5E4 00000000 
FFFCA5E6 00000000 
FFFCA5E8 00000000 
FFFCA5EA 00000000 
FFFCA5EC 00000000 
FFFCA5EE 00000000 
FFFCA5F0 00000000 
FFFCA5F2 00000000 
FFFCA5F4 00000000 
FFFCA5F6 00000000 
FFFCA5F8 00000000 
FFFCA5FA 00000000 
FFFCA5FC 00000000 
FFFCA5FE 00000000 
FFFCA600 00000000 
FFFCA602 00000000 
FFFCA604 00000000 
FFFCA606 00000000 
FFFCA608 00000000 
FFFCA60A 00000000 
FFFCA60C 00000000 
FFFCA60E 00000000 
FFFCA610 00000000 
FFFCA612 00000000 
FFFCA614 00000000 
FFFCA616 00000000 
FFFCA618 00000000 
FFFCA61A 00000000 
FFFCA61C 00000000 
FFFCA61E 00000000 
FFFCA620 00000000 
FFFCA622 00000000 
FFFCA624 00000000 
FFFCA626 00000000 
FFFCA628 00000000 
FFFCA62A 00000000 
FFFCA62C 00000000 
FFFCA62E 00000000 
FFFCA630 00000000 
FFFCA632 00000000 
FFFCA634 00000000 
FFFCA636 00000000 
FFFCA638 00000000 
FFFCA63A 00000000 
FFFCA63C 00000000 
FFFCA63E 00000000 
FFFCA640 00000000 
FFFCA642 00000000 
FFFCA644 00000000 
FFFCA646 00000000 
FFFCA648 00000000 
FFFCA64A 00000000 
FFFCA64C 00000000 
FFFCA64E 00000000 
FFFCA650 00000000 
FFFCA652 00000000 
FFFCA654 00000000 
FFFCA656 00000000 
FFFCA658 00000000 
FFFCA65A 00000000 
FFFCA65C 00000000 
FFFCA65E 00000000 
FFFCA660 00000000 
FFFCA662 00000000 
FFFCA664 00000000 
FFFCA666 00000000 
FFFCA668 00000000 
FFFCA66A 00000000 
FFFCA66C 00000000 
FFFCA66E 00000000 
FFFCA670 00000000 
FFFCA672 00000000 
FFFCA674 00000000 
FFFCA676 00000000 
FFFCA678 00000000 
FFFCA67A 00000000 
FFFCA67C 00000000 
FFFCA67E 00000000 
FFFCA680 00000000 
FFFCA682 00000000 
FFFCA684 00000000 
FFFCA686 00000000 
FFFCA688 00000000 
FFFCA68A 00000000 
FFFCA68C 00000000 
FFFCA68E 00000000 
FFFCA690 00000000 
FFFCA692 00000000 
FFFCA694 00000000 
FFFCA696 00000000 
FFFCA698 00000000 
FFFCA69A 00000000 
FFFCA69C 00000000 
FFFCA69E 00000000 
FFFCA6A0 00000000 
FFFCA6A2 00000000 
FFFCA6A4 00000000 
FFFCA6A6 00000000 
FFFCA6A8 00000000 
FFFCA6AA 00000000 
FFFCA6AC 00000000 
FFFCA6AE 00000000 
FFFCA6B0 00000000 
FFFCA6B2 00000000 
FFFCA6B4 00000000 
FFFCA6B6 00000000 
FFFCA6B8 00000000 
FFFCA6BA 00000000 
FFFCA6BC 00000000 
FFFCA6BE 00000000 
                        		align	8                        	
                        		align	8                        	
                        		align	8                        	
                        		align	8                        	
                        		data
                        		align	8                        	
FFFCAA90 00000000 		fill.b	8,0x00
FFFCAA92 00000000 
                        		align	8                        	
FFFCAA98 00000000 		fill.b	1952,0x00
FFFCAA9A 00000000 
FFFCAA9C 00000000 
FFFCAA9E 00000000 
FFFCAAA0 00000000 
FFFCAAA2 00000000 
FFFCAAA4 00000000 
FFFCAAA6 00000000 
FFFCAAA8 00000000 
FFFCAAAA 00000000 
FFFCAAAC 00000000 
FFFCAAAE 00000000 
FFFCAAB0 00000000 
FFFCAAB2 00000000 
FFFCAAB4 00000000 
FFFCAAB6 00000000 
FFFCAAB8 00000000 
FFFCAABA 00000000 
FFFCAABC 00000000 
FFFCAABE 00000000 
FFFCAAC0 00000000 
FFFCAAC2 00000000 
FFFCAAC4 00000000 
FFFCAAC6 00000000 
FFFCAAC8 00000000 
FFFCAACA 00000000 
FFFCAACC 00000000 
FFFCAACE 00000000 
FFFCAAD0 00000000 
FFFCAAD2 00000000 
FFFCAAD4 00000000 
FFFCAAD6 00000000 
FFFCAAD8 00000000 
FFFCAADA 00000000 
FFFCAADC 00000000 
FFFCAADE 00000000 
FFFCAAE0 00000000 
FFFCAAE2 00000000 
FFFCAAE4 00000000 
FFFCAAE6 00000000 
FFFCAAE8 00000000 
FFFCAAEA 00000000 
FFFCAAEC 00000000 
FFFCAAEE 00000000 
FFFCAAF0 00000000 
FFFCAAF2 00000000 
FFFCAAF4 00000000 
FFFCAAF6 00000000 
FFFCAAF8 00000000 
FFFCAAFA 00000000 
FFFCAAFC 00000000 
FFFCAAFE 00000000 
FFFCAB00 00000000 
FFFCAB02 00000000 
FFFCAB04 00000000 
FFFCAB06 00000000 
FFFCAB08 00000000 
FFFCAB0A 00000000 
FFFCAB0C 00000000 
FFFCAB0E 00000000 
FFFCAB10 00000000 
FFFCAB12 00000000 
FFFCAB14 00000000 
FFFCAB16 00000000 
FFFCAB18 00000000 
FFFCAB1A 00000000 
FFFCAB1C 00000000 
FFFCAB1E 00000000 
FFFCAB20 00000000 
FFFCAB22 00000000 
FFFCAB24 00000000 
FFFCAB26 00000000 
FFFCAB28 00000000 
FFFCAB2A 00000000 
FFFCAB2C 00000000 
FFFCAB2E 00000000 
FFFCAB30 00000000 
FFFCAB32 00000000 
FFFCAB34 00000000 
FFFCAB36 00000000 
FFFCAB38 00000000 
FFFCAB3A 00000000 
FFFCAB3C 00000000 
FFFCAB3E 00000000 
FFFCAB40 00000000 
FFFCAB42 00000000 
FFFCAB44 00000000 
FFFCAB46 00000000 
FFFCAB48 00000000 
FFFCAB4A 00000000 
FFFCAB4C 00000000 
FFFCAB4E 00000000 
FFFCAB50 00000000 
FFFCAB52 00000000 
FFFCAB54 00000000 
FFFCAB56 00000000 
FFFCAB58 00000000 
FFFCAB5A 00000000 
FFFCAB5C 00000000 
FFFCAB5E 00000000 
FFFCAB60 00000000 
FFFCAB62 00000000 
FFFCAB64 00000000 
FFFCAB66 00000000 
FFFCAB68 00000000 
FFFCAB6A 00000000 
FFFCAB6C 00000000 
FFFCAB6E 00000000 
FFFCAB70 00000000 
FFFCAB72 00000000 
FFFCAB74 00000000 
FFFCAB76 00000000 
FFFCAB78 00000000 
FFFCAB7A 00000000 
FFFCAB7C 00000000 
FFFCAB7E 00000000 
FFFCAB80 00000000 
FFFCAB82 00000000 
FFFCAB84 00000000 
FFFCAB86 00000000 
FFFCAB88 00000000 
FFFCAB8A 00000000 
FFFCAB8C 00000000 
FFFCAB8E 00000000 
FFFCAB90 00000000 
FFFCAB92 00000000 
FFFCAB94 00000000 
FFFCAB96 00000000 
FFFCAB98 00000000 
FFFCAB9A 00000000 
FFFCAB9C 00000000 
FFFCAB9E 00000000 
FFFCABA0 00000000 
FFFCABA2 00000000 
FFFCABA4 00000000 
FFFCABA6 00000000 
FFFCABA8 00000000 
FFFCABAA 00000000 
FFFCABAC 00000000 
FFFCABAE 00000000 
FFFCABB0 00000000 
FFFCABB2 00000000 
FFFCABB4 00000000 
FFFCABB6 00000000 
FFFCABB8 00000000 
FFFCABBA 00000000 
FFFCABBC 00000000 
FFFCABBE 00000000 
FFFCABC0 00000000 
FFFCABC2 00000000 
FFFCABC4 00000000 
FFFCABC6 00000000 
FFFCABC8 00000000 
FFFCABCA 00000000 
FFFCABCC 00000000 
FFFCABCE 00000000 
FFFCABD0 00000000 
FFFCABD2 00000000 
FFFCABD4 00000000 
FFFCABD6 00000000 
FFFCABD8 00000000 
FFFCABDA 00000000 
FFFCABDC 00000000 
FFFCABDE 00000000 
FFFCABE0 00000000 
FFFCABE2 00000000 
FFFCABE4 00000000 
FFFCABE6 00000000 
FFFCABE8 00000000 
FFFCABEA 00000000 
FFFCABEC 00000000 
FFFCABEE 00000000 
FFFCABF0 00000000 
FFFCABF2 00000000 
FFFCABF4 00000000 
FFFCABF6 00000000 
FFFCABF8 00000000 
FFFCABFA 00000000 
FFFCABFC 00000000 
FFFCABFE 00000000 
FFFCAC00 00000000 
FFFCAC02 00000000 
FFFCAC04 00000000 
FFFCAC06 00000000 
FFFCAC08 00000000 
FFFCAC0A 00000000 
FFFCAC0C 00000000 
FFFCAC0E 00000000 
FFFCAC10 00000000 
FFFCAC12 00000000 
FFFCAC14 00000000 
FFFCAC16 00000000 
FFFCAC18 00000000 
FFFCAC1A 00000000 
FFFCAC1C 00000000 
FFFCAC1E 00000000 
FFFCAC20 00000000 
FFFCAC22 00000000 
FFFCAC24 00000000 
FFFCAC26 00000000 
FFFCAC28 00000000 
FFFCAC2A 00000000 
FFFCAC2C 00000000 
FFFCAC2E 00000000 
FFFCAC30 00000000 
FFFCAC32 00000000 
FFFCAC34 00000000 
FFFCAC36 00000000 
FFFCAC38 00000000 
FFFCAC3A 00000000 
FFFCAC3C 00000000 
FFFCAC3E 00000000 
FFFCAC40 00000000 
FFFCAC42 00000000 
FFFCAC44 00000000 
FFFCAC46 00000000 
FFFCAC48 00000000 
FFFCAC4A 00000000 
FFFCAC4C 00000000 
FFFCAC4E 00000000 
FFFCAC50 00000000 
FFFCAC52 00000000 
FFFCAC54 00000000 
FFFCAC56 00000000 
FFFCAC58 00000000 
FFFCAC5A 00000000 
FFFCAC5C 00000000 
FFFCAC5E 00000000 
FFFCAC60 00000000 
FFFCAC62 00000000 
FFFCAC64 00000000 
FFFCAC66 00000000 
FFFCAC68 00000000 
FFFCAC6A 00000000 
FFFCAC6C 00000000 
FFFCAC6E 00000000 
FFFCAC70 00000000 
FFFCAC72 00000000 
FFFCAC74 00000000 
FFFCAC76 00000000 
FFFCAC78 00000000 
FFFCAC7A 00000000 
FFFCAC7C 00000000 
FFFCAC7E 00000000 
FFFCAC80 00000000 
FFFCAC82 00000000 
FFFCAC84 00000000 
FFFCAC86 00000000 
FFFCAC88 00000000 
FFFCAC8A 00000000 
FFFCAC8C 00000000 
FFFCAC8E 00000000 
FFFCAC90 00000000 
FFFCAC92 00000000 
FFFCAC94 00000000 
FFFCAC96 00000000 
FFFCAC98 00000000 
FFFCAC9A 00000000 
FFFCAC9C 00000000 
FFFCAC9E 00000000 
FFFCACA0 00000000 
FFFCACA2 00000000 
FFFCACA4 00000000 
FFFCACA6 00000000 
FFFCACA8 00000000 
FFFCACAA 00000000 
FFFCACAC 00000000 
FFFCACAE 00000000 
FFFCACB0 00000000 
FFFCACB2 00000000 
FFFCACB4 00000000 
FFFCACB6 00000000 
FFFCACB8 00000000 
FFFCACBA 00000000 
FFFCACBC 00000000 
FFFCACBE 00000000 
FFFCACC0 00000000 
FFFCACC2 00000000 
FFFCACC4 00000000 
FFFCACC6 00000000 
FFFCACC8 00000000 
FFFCACCA 00000000 
FFFCACCC 00000000 
FFFCACCE 00000000 
FFFCACD0 00000000 
FFFCACD2 00000000 
FFFCACD4 00000000 
FFFCACD6 00000000 
FFFCACD8 00000000 
FFFCACDA 00000000 
FFFCACDC 00000000 
FFFCACDE 00000000 
FFFCACE0 00000000 
FFFCACE2 00000000 
FFFCACE4 00000000 
FFFCACE6 00000000 
FFFCACE8 00000000 
FFFCACEA 00000000 
FFFCACEC 00000000 
FFFCACEE 00000000 
FFFCACF0 00000000 
FFFCACF2 00000000 
FFFCACF4 00000000 
FFFCACF6 00000000 
FFFCACF8 00000000 
FFFCACFA 00000000 
FFFCACFC 00000000 
FFFCACFE 00000000 
FFFCAD00 00000000 
FFFCAD02 00000000 
FFFCAD04 00000000 
FFFCAD06 00000000 
FFFCAD08 00000000 
FFFCAD0A 00000000 
FFFCAD0C 00000000 
FFFCAD0E 00000000 
FFFCAD10 00000000 
FFFCAD12 00000000 
FFFCAD14 00000000 
FFFCAD16 00000000 
FFFCAD18 00000000 
FFFCAD1A 00000000 
FFFCAD1C 00000000 
FFFCAD1E 00000000 
FFFCAD20 00000000 
FFFCAD22 00000000 
FFFCAD24 00000000 
FFFCAD26 00000000 
FFFCAD28 00000000 
FFFCAD2A 00000000 
FFFCAD2C 00000000 
FFFCAD2E 00000000 
FFFCAD30 00000000 
FFFCAD32 00000000 
FFFCAD34 00000000 
FFFCAD36 00000000 
FFFCAD38 00000000 
FFFCAD3A 00000000 
FFFCAD3C 00000000 
FFFCAD3E 00000000 
FFFCAD40 00000000 
FFFCAD42 00000000 
FFFCAD44 00000000 
FFFCAD46 00000000 
FFFCAD48 00000000 
FFFCAD4A 00000000 
FFFCAD4C 00000000 
FFFCAD4E 00000000 
FFFCAD50 00000000 
FFFCAD52 00000000 
FFFCAD54 00000000 
FFFCAD56 00000000 
FFFCAD58 00000000 
FFFCAD5A 00000000 
FFFCAD5C 00000000 
FFFCAD5E 00000000 
FFFCAD60 00000000 
FFFCAD62 00000000 
FFFCAD64 00000000 
FFFCAD66 00000000 
FFFCAD68 00000000 
FFFCAD6A 00000000 
FFFCAD6C 00000000 
FFFCAD6E 00000000 
FFFCAD70 00000000 
FFFCAD72 00000000 
FFFCAD74 00000000 
FFFCAD76 00000000 
FFFCAD78 00000000 
FFFCAD7A 00000000 
FFFCAD7C 00000000 
FFFCAD7E 00000000 
FFFCAD80 00000000 
FFFCAD82 00000000 
FFFCAD84 00000000 
FFFCAD86 00000000 
FFFCAD88 00000000 
FFFCAD8A 00000000 
FFFCAD8C 00000000 
FFFCAD8E 00000000 
FFFCAD90 00000000 
FFFCAD92 00000000 
FFFCAD94 00000000 
FFFCAD96 00000000 
FFFCAD98 00000000 
FFFCAD9A 00000000 
FFFCAD9C 00000000 
FFFCAD9E 00000000 
FFFCADA0 00000000 
FFFCADA2 00000000 
FFFCADA4 00000000 
FFFCADA6 00000000 
FFFCADA8 00000000 
FFFCADAA 00000000 
FFFCADAC 00000000 
FFFCADAE 00000000 
FFFCADB0 00000000 
FFFCADB2 00000000 
FFFCADB4 00000000 
FFFCADB6 00000000 
FFFCADB8 00000000 
FFFCADBA 00000000 
FFFCADBC 00000000 
FFFCADBE 00000000 
FFFCADC0 00000000 
FFFCADC2 00000000 
FFFCADC4 00000000 
FFFCADC6 00000000 
FFFCADC8 00000000 
FFFCADCA 00000000 
FFFCADCC 00000000 
FFFCADCE 00000000 
FFFCADD0 00000000 
FFFCADD2 00000000 
FFFCADD4 00000000 
FFFCADD6 00000000 
FFFCADD8 00000000 
FFFCADDA 00000000 
FFFCADDC 00000000 
FFFCADDE 00000000 
FFFCADE0 00000000 
FFFCADE2 00000000 
FFFCADE4 00000000 
FFFCADE6 00000000 
FFFCADE8 00000000 
FFFCADEA 00000000 
FFFCADEC 00000000 
FFFCADEE 00000000 
FFFCADF0 00000000 
FFFCADF2 00000000 
FFFCADF4 00000000 
FFFCADF6 00000000 
FFFCADF8 00000000 
FFFCADFA 00000000 
FFFCADFC 00000000 
FFFCADFE 00000000 
FFFCAE00 00000000 
FFFCAE02 00000000 
FFFCAE04 00000000 
FFFCAE06 00000000 
FFFCAE08 00000000 
FFFCAE0A 00000000 
FFFCAE0C 00000000 
FFFCAE0E 00000000 
FFFCAE10 00000000 
FFFCAE12 00000000 
FFFCAE14 00000000 
FFFCAE16 00000000 
FFFCAE18 00000000 
FFFCAE1A 00000000 
FFFCAE1C 00000000 
FFFCAE1E 00000000 
FFFCAE20 00000000 
FFFCAE22 00000000 
FFFCAE24 00000000 
FFFCAE26 00000000 
FFFCAE28 00000000 
FFFCAE2A 00000000 
FFFCAE2C 00000000 
FFFCAE2E 00000000 
FFFCAE30 00000000 
FFFCAE32 00000000 
FFFCAE34 00000000 
FFFCAE36 00000000 
FFFCAE38 00000000 
FFFCAE3A 00000000 
FFFCAE3C 00000000 
FFFCAE3E 00000000 
FFFCAE40 00000000 
FFFCAE42 00000000 
FFFCAE44 00000000 
FFFCAE46 00000000 
FFFCAE48 00000000 
FFFCAE4A 00000000 
FFFCAE4C 00000000 
FFFCAE4E 00000000 
FFFCAE50 00000000 
FFFCAE52 00000000 
FFFCAE54 00000000 
FFFCAE56 00000000 
FFFCAE58 00000000 
FFFCAE5A 00000000 
FFFCAE5C 00000000 
FFFCAE5E 00000000 
FFFCAE60 00000000 
FFFCAE62 00000000 
FFFCAE64 00000000 
FFFCAE66 00000000 
                        		align	8                        	
                        		align	8                        	
                        		align	8                        	
                        		align	8                        	
                        		data
                        		align	8                        	
FFFCB238 00000000 		fill.b	2,0x00
                        		data
FFFCB23A 00000000 		align	
FFFCB23C 00000000 
                        	
FFFCB240 00000000 		fill.b	6,0x00
FFFCB242 00000000 
                        		data
                        		align	2                        	
                        	FMTKc_95:	; _startQNdx
FFFCB246 00000000 		fill.b	2,0x00
                        		data
                        		align	2                        	
                        	FMTKc_304:	; _ex
FFFCB248 00000000 		dw	0
FFFCB24A 00000000 
                        		data
                        		align	8                        	
                        		data
                        		align	8                        	
                        		data
                        		align	8                        	
FFFCB250 00000000 		fill.b	8,0x00
FFFCB252 00000000 
                        		align	8                        	
FFFCB258 00000000 		fill.b	1952,0x00
FFFCB25A 00000000 
FFFCB25C 00000000 
FFFCB25E 00000000 
FFFCB260 00000000 
FFFCB262 00000000 
FFFCB264 00000000 
FFFCB266 00000000 
FFFCB268 00000000 
FFFCB26A 00000000 
FFFCB26C 00000000 
FFFCB26E 00000000 
FFFCB270 00000000 
FFFCB272 00000000 
FFFCB274 00000000 
FFFCB276 00000000 
FFFCB278 00000000 
FFFCB27A 00000000 
FFFCB27C 00000000 
FFFCB27E 00000000 
FFFCB280 00000000 
FFFCB282 00000000 
FFFCB284 00000000 
FFFCB286 00000000 
FFFCB288 00000000 
FFFCB28A 00000000 
FFFCB28C 00000000 
FFFCB28E 00000000 
FFFCB290 00000000 
FFFCB292 00000000 
FFFCB294 00000000 
FFFCB296 00000000 
FFFCB298 00000000 
FFFCB29A 00000000 
FFFCB29C 00000000 
FFFCB29E 00000000 
FFFCB2A0 00000000 
FFFCB2A2 00000000 
FFFCB2A4 00000000 
FFFCB2A6 00000000 
FFFCB2A8 00000000 
FFFCB2AA 00000000 
FFFCB2AC 00000000 
FFFCB2AE 00000000 
FFFCB2B0 00000000 
FFFCB2B2 00000000 
FFFCB2B4 00000000 
FFFCB2B6 00000000 
FFFCB2B8 00000000 
FFFCB2BA 00000000 
FFFCB2BC 00000000 
FFFCB2BE 00000000 
FFFCB2C0 00000000 
FFFCB2C2 00000000 
FFFCB2C4 00000000 
FFFCB2C6 00000000 
FFFCB2C8 00000000 
FFFCB2CA 00000000 
FFFCB2CC 00000000 
FFFCB2CE 00000000 
FFFCB2D0 00000000 
FFFCB2D2 00000000 
FFFCB2D4 00000000 
FFFCB2D6 00000000 
FFFCB2D8 00000000 
FFFCB2DA 00000000 
FFFCB2DC 00000000 
FFFCB2DE 00000000 
FFFCB2E0 00000000 
FFFCB2E2 00000000 
FFFCB2E4 00000000 
FFFCB2E6 00000000 
FFFCB2E8 00000000 
FFFCB2EA 00000000 
FFFCB2EC 00000000 
FFFCB2EE 00000000 
FFFCB2F0 00000000 
FFFCB2F2 00000000 
FFFCB2F4 00000000 
FFFCB2F6 00000000 
FFFCB2F8 00000000 
FFFCB2FA 00000000 
FFFCB2FC 00000000 
FFFCB2FE 00000000 
FFFCB300 00000000 
FFFCB302 00000000 
FFFCB304 00000000 
FFFCB306 00000000 
FFFCB308 00000000 
FFFCB30A 00000000 
FFFCB30C 00000000 
FFFCB30E 00000000 
FFFCB310 00000000 
FFFCB312 00000000 
FFFCB314 00000000 
FFFCB316 00000000 
FFFCB318 00000000 
FFFCB31A 00000000 
FFFCB31C 00000000 
FFFCB31E 00000000 
FFFCB320 00000000 
FFFCB322 00000000 
FFFCB324 00000000 
FFFCB326 00000000 
FFFCB328 00000000 
FFFCB32A 00000000 
FFFCB32C 00000000 
FFFCB32E 00000000 
FFFCB330 00000000 
FFFCB332 00000000 
FFFCB334 00000000 
FFFCB336 00000000 
FFFCB338 00000000 
FFFCB33A 00000000 
FFFCB33C 00000000 
FFFCB33E 00000000 
FFFCB340 00000000 
FFFCB342 00000000 
FFFCB344 00000000 
FFFCB346 00000000 
FFFCB348 00000000 
FFFCB34A 00000000 
FFFCB34C 00000000 
FFFCB34E 00000000 
FFFCB350 00000000 
FFFCB352 00000000 
FFFCB354 00000000 
FFFCB356 00000000 
FFFCB358 00000000 
FFFCB35A 00000000 
FFFCB35C 00000000 
FFFCB35E 00000000 
FFFCB360 00000000 
FFFCB362 00000000 
FFFCB364 00000000 
FFFCB366 00000000 
FFFCB368 00000000 
FFFCB36A 00000000 
FFFCB36C 00000000 
FFFCB36E 00000000 
FFFCB370 00000000 
FFFCB372 00000000 
FFFCB374 00000000 
FFFCB376 00000000 
FFFCB378 00000000 
FFFCB37A 00000000 
FFFCB37C 00000000 
FFFCB37E 00000000 
FFFCB380 00000000 
FFFCB382 00000000 
FFFCB384 00000000 
FFFCB386 00000000 
FFFCB388 00000000 
FFFCB38A 00000000 
FFFCB38C 00000000 
FFFCB38E 00000000 
FFFCB390 00000000 
FFFCB392 00000000 
FFFCB394 00000000 
FFFCB396 00000000 
FFFCB398 00000000 
FFFCB39A 00000000 
FFFCB39C 00000000 
FFFCB39E 00000000 
FFFCB3A0 00000000 
FFFCB3A2 00000000 
FFFCB3A4 00000000 
FFFCB3A6 00000000 
FFFCB3A8 00000000 
FFFCB3AA 00000000 
FFFCB3AC 00000000 
FFFCB3AE 00000000 
FFFCB3B0 00000000 
FFFCB3B2 00000000 
FFFCB3B4 00000000 
FFFCB3B6 00000000 
FFFCB3B8 00000000 
FFFCB3BA 00000000 
FFFCB3BC 00000000 
FFFCB3BE 00000000 
FFFCB3C0 00000000 
FFFCB3C2 00000000 
FFFCB3C4 00000000 
FFFCB3C6 00000000 
FFFCB3C8 00000000 
FFFCB3CA 00000000 
FFFCB3CC 00000000 
FFFCB3CE 00000000 
FFFCB3D0 00000000 
FFFCB3D2 00000000 
FFFCB3D4 00000000 
FFFCB3D6 00000000 
FFFCB3D8 00000000 
FFFCB3DA 00000000 
FFFCB3DC 00000000 
FFFCB3DE 00000000 
FFFCB3E0 00000000 
FFFCB3E2 00000000 
FFFCB3E4 00000000 
FFFCB3E6 00000000 
FFFCB3E8 00000000 
FFFCB3EA 00000000 
FFFCB3EC 00000000 
FFFCB3EE 00000000 
FFFCB3F0 00000000 
FFFCB3F2 00000000 
FFFCB3F4 00000000 
FFFCB3F6 00000000 
FFFCB3F8 00000000 
FFFCB3FA 00000000 
FFFCB3FC 00000000 
FFFCB3FE 00000000 
FFFCB400 00000000 
FFFCB402 00000000 
FFFCB404 00000000 
FFFCB406 00000000 
FFFCB408 00000000 
FFFCB40A 00000000 
FFFCB40C 00000000 
FFFCB40E 00000000 
FFFCB410 00000000 
FFFCB412 00000000 
FFFCB414 00000000 
FFFCB416 00000000 
FFFCB418 00000000 
FFFCB41A 00000000 
FFFCB41C 00000000 
FFFCB41E 00000000 
FFFCB420 00000000 
FFFCB422 00000000 
FFFCB424 00000000 
FFFCB426 00000000 
FFFCB428 00000000 
FFFCB42A 00000000 
FFFCB42C 00000000 
FFFCB42E 00000000 
FFFCB430 00000000 
FFFCB432 00000000 
FFFCB434 00000000 
FFFCB436 00000000 
FFFCB438 00000000 
FFFCB43A 00000000 
FFFCB43C 00000000 
FFFCB43E 00000000 
FFFCB440 00000000 
FFFCB442 00000000 
FFFCB444 00000000 
FFFCB446 00000000 
FFFCB448 00000000 
FFFCB44A 00000000 
FFFCB44C 00000000 
FFFCB44E 00000000 
FFFCB450 00000000 
FFFCB452 00000000 
FFFCB454 00000000 
FFFCB456 00000000 
FFFCB458 00000000 
FFFCB45A 00000000 
FFFCB45C 00000000 
FFFCB45E 00000000 
FFFCB460 00000000 
FFFCB462 00000000 
FFFCB464 00000000 
FFFCB466 00000000 
FFFCB468 00000000 
FFFCB46A 00000000 
FFFCB46C 00000000 
FFFCB46E 00000000 
FFFCB470 00000000 
FFFCB472 00000000 
FFFCB474 00000000 
FFFCB476 00000000 
FFFCB478 00000000 
FFFCB47A 00000000 
FFFCB47C 00000000 
FFFCB47E 00000000 
FFFCB480 00000000 
FFFCB482 00000000 
FFFCB484 00000000 
FFFCB486 00000000 
FFFCB488 00000000 
FFFCB48A 00000000 
FFFCB48C 00000000 
FFFCB48E 00000000 
FFFCB490 00000000 
FFFCB492 00000000 
FFFCB494 00000000 
FFFCB496 00000000 
FFFCB498 00000000 
FFFCB49A 00000000 
FFFCB49C 00000000 
FFFCB49E 00000000 
FFFCB4A0 00000000 
FFFCB4A2 00000000 
FFFCB4A4 00000000 
FFFCB4A6 00000000 
FFFCB4A8 00000000 
FFFCB4AA 00000000 
FFFCB4AC 00000000 
FFFCB4AE 00000000 
FFFCB4B0 00000000 
FFFCB4B2 00000000 
FFFCB4B4 00000000 
FFFCB4B6 00000000 
FFFCB4B8 00000000 
FFFCB4BA 00000000 
FFFCB4BC 00000000 
FFFCB4BE 00000000 
FFFCB4C0 00000000 
FFFCB4C2 00000000 
FFFCB4C4 00000000 
FFFCB4C6 00000000 
FFFCB4C8 00000000 
FFFCB4CA 00000000 
FFFCB4CC 00000000 
FFFCB4CE 00000000 
FFFCB4D0 00000000 
FFFCB4D2 00000000 
FFFCB4D4 00000000 
FFFCB4D6 00000000 
FFFCB4D8 00000000 
FFFCB4DA 00000000 
FFFCB4DC 00000000 
FFFCB4DE 00000000 
FFFCB4E0 00000000 
FFFCB4E2 00000000 
FFFCB4E4 00000000 
FFFCB4E6 00000000 
FFFCB4E8 00000000 
FFFCB4EA 00000000 
FFFCB4EC 00000000 
FFFCB4EE 00000000 
FFFCB4F0 00000000 
FFFCB4F2 00000000 
FFFCB4F4 00000000 
FFFCB4F6 00000000 
FFFCB4F8 00000000 
FFFCB4FA 00000000 
FFFCB4FC 00000000 
FFFCB4FE 00000000 
FFFCB500 00000000 
FFFCB502 00000000 
FFFCB504 00000000 
FFFCB506 00000000 
FFFCB508 00000000 
FFFCB50A 00000000 
FFFCB50C 00000000 
FFFCB50E 00000000 
FFFCB510 00000000 
FFFCB512 00000000 
FFFCB514 00000000 
FFFCB516 00000000 
FFFCB518 00000000 
FFFCB51A 00000000 
FFFCB51C 00000000 
FFFCB51E 00000000 
FFFCB520 00000000 
FFFCB522 00000000 
FFFCB524 00000000 
FFFCB526 00000000 
FFFCB528 00000000 
FFFCB52A 00000000 
FFFCB52C 00000000 
FFFCB52E 00000000 
FFFCB530 00000000 
FFFCB532 00000000 
FFFCB534 00000000 
FFFCB536 00000000 
FFFCB538 00000000 
FFFCB53A 00000000 
FFFCB53C 00000000 
FFFCB53E 00000000 
FFFCB540 00000000 
FFFCB542 00000000 
FFFCB544 00000000 
FFFCB546 00000000 
FFFCB548 00000000 
FFFCB54A 00000000 
FFFCB54C 00000000 
FFFCB54E 00000000 
FFFCB550 00000000 
FFFCB552 00000000 
FFFCB554 00000000 
FFFCB556 00000000 
FFFCB558 00000000 
FFFCB55A 00000000 
FFFCB55C 00000000 
FFFCB55E 00000000 
FFFCB560 00000000 
FFFCB562 00000000 
FFFCB564 00000000 
FFFCB566 00000000 
FFFCB568 00000000 
FFFCB56A 00000000 
FFFCB56C 00000000 
FFFCB56E 00000000 
FFFCB570 00000000 
FFFCB572 00000000 
FFFCB574 00000000 
FFFCB576 00000000 
FFFCB578 00000000 
FFFCB57A 00000000 
FFFCB57C 00000000 
FFFCB57E 00000000 
FFFCB580 00000000 
FFFCB582 00000000 
FFFCB584 00000000 
FFFCB586 00000000 
FFFCB588 00000000 
FFFCB58A 00000000 
FFFCB58C 00000000 
FFFCB58E 00000000 
FFFCB590 00000000 
FFFCB592 00000000 
FFFCB594 00000000 
FFFCB596 00000000 
FFFCB598 00000000 
FFFCB59A 00000000 
FFFCB59C 00000000 
FFFCB59E 00000000 
FFFCB5A0 00000000 
FFFCB5A2 00000000 
FFFCB5A4 00000000 
FFFCB5A6 00000000 
FFFCB5A8 00000000 
FFFCB5AA 00000000 
FFFCB5AC 00000000 
FFFCB5AE 00000000 
FFFCB5B0 00000000 
FFFCB5B2 00000000 
FFFCB5B4 00000000 
FFFCB5B6 00000000 
FFFCB5B8 00000000 
FFFCB5BA 00000000 
FFFCB5BC 00000000 
FFFCB5BE 00000000 
FFFCB5C0 00000000 
FFFCB5C2 00000000 
FFFCB5C4 00000000 
FFFCB5C6 00000000 
FFFCB5C8 00000000 
FFFCB5CA 00000000 
FFFCB5CC 00000000 
FFFCB5CE 00000000 
FFFCB5D0 00000000 
FFFCB5D2 00000000 
FFFCB5D4 00000000 
FFFCB5D6 00000000 
FFFCB5D8 00000000 
FFFCB5DA 00000000 
FFFCB5DC 00000000 
FFFCB5DE 00000000 
FFFCB5E0 00000000 
FFFCB5E2 00000000 
FFFCB5E4 00000000 
FFFCB5E6 00000000 
FFFCB5E8 00000000 
FFFCB5EA 00000000 
FFFCB5EC 00000000 
FFFCB5EE 00000000 
FFFCB5F0 00000000 
FFFCB5F2 00000000 
FFFCB5F4 00000000 
FFFCB5F6 00000000 
FFFCB5F8 00000000 
FFFCB5FA 00000000 
FFFCB5FC 00000000 
FFFCB5FE 00000000 
FFFCB600 00000000 
FFFCB602 00000000 
FFFCB604 00000000 
FFFCB606 00000000 
FFFCB608 00000000 
FFFCB60A 00000000 
FFFCB60C 00000000 
FFFCB60E 00000000 
FFFCB610 00000000 
FFFCB612 00000000 
FFFCB614 00000000 
FFFCB616 00000000 
FFFCB618 00000000 
FFFCB61A 00000000 
FFFCB61C 00000000 
FFFCB61E 00000000 
FFFCB620 00000000 
FFFCB622 00000000 
FFFCB624 00000000 
FFFCB626 00000000 
                        		align	8                        	
                        		align	8                        	
                        		align	8                        	
                        		align	8                        	
                        		data
                        		align	8                        	
                        		data
                        		align	8                        	
FFFCB9F8 00000000 		fill.b	8,0x00
FFFCB9FA 00000000 
                        		align	8                        	
FFFCBA00 00000000 		fill.b	1952,0x00
FFFCBA02 00000000 
FFFCBA04 00000000 
FFFCBA06 00000000 
FFFCBA08 00000000 
FFFCBA0A 00000000 
FFFCBA0C 00000000 
FFFCBA0E 00000000 
FFFCBA10 00000000 
FFFCBA12 00000000 
FFFCBA14 00000000 
FFFCBA16 00000000 
FFFCBA18 00000000 
FFFCBA1A 00000000 
FFFCBA1C 00000000 
FFFCBA1E 00000000 
FFFCBA20 00000000 
FFFCBA22 00000000 
FFFCBA24 00000000 
FFFCBA26 00000000 
FFFCBA28 00000000 
FFFCBA2A 00000000 
FFFCBA2C 00000000 
FFFCBA2E 00000000 
FFFCBA30 00000000 
FFFCBA32 00000000 
FFFCBA34 00000000 
FFFCBA36 00000000 
FFFCBA38 00000000 
FFFCBA3A 00000000 
FFFCBA3C 00000000 
FFFCBA3E 00000000 
FFFCBA40 00000000 
FFFCBA42 00000000 
FFFCBA44 00000000 
FFFCBA46 00000000 
FFFCBA48 00000000 
FFFCBA4A 00000000 
FFFCBA4C 00000000 
FFFCBA4E 00000000 
FFFCBA50 00000000 
FFFCBA52 00000000 
FFFCBA54 00000000 
FFFCBA56 00000000 
FFFCBA58 00000000 
FFFCBA5A 00000000 
FFFCBA5C 00000000 
FFFCBA5E 00000000 
FFFCBA60 00000000 
FFFCBA62 00000000 
FFFCBA64 00000000 
FFFCBA66 00000000 
FFFCBA68 00000000 
FFFCBA6A 00000000 
FFFCBA6C 00000000 
FFFCBA6E 00000000 
FFFCBA70 00000000 
FFFCBA72 00000000 
FFFCBA74 00000000 
FFFCBA76 00000000 
FFFCBA78 00000000 
FFFCBA7A 00000000 
FFFCBA7C 00000000 
FFFCBA7E 00000000 
FFFCBA80 00000000 
FFFCBA82 00000000 
FFFCBA84 00000000 
FFFCBA86 00000000 
FFFCBA88 00000000 
FFFCBA8A 00000000 
FFFCBA8C 00000000 
FFFCBA8E 00000000 
FFFCBA90 00000000 
FFFCBA92 00000000 
FFFCBA94 00000000 
FFFCBA96 00000000 
FFFCBA98 00000000 
FFFCBA9A 00000000 
FFFCBA9C 00000000 
FFFCBA9E 00000000 
FFFCBAA0 00000000 
FFFCBAA2 00000000 
FFFCBAA4 00000000 
FFFCBAA6 00000000 
FFFCBAA8 00000000 
FFFCBAAA 00000000 
FFFCBAAC 00000000 
FFFCBAAE 00000000 
FFFCBAB0 00000000 
FFFCBAB2 00000000 
FFFCBAB4 00000000 
FFFCBAB6 00000000 
FFFCBAB8 00000000 
FFFCBABA 00000000 
FFFCBABC 00000000 
FFFCBABE 00000000 
FFFCBAC0 00000000 
FFFCBAC2 00000000 
FFFCBAC4 00000000 
FFFCBAC6 00000000 
FFFCBAC8 00000000 
FFFCBACA 00000000 
FFFCBACC 00000000 
FFFCBACE 00000000 
FFFCBAD0 00000000 
FFFCBAD2 00000000 
FFFCBAD4 00000000 
FFFCBAD6 00000000 
FFFCBAD8 00000000 
FFFCBADA 00000000 
FFFCBADC 00000000 
FFFCBADE 00000000 
FFFCBAE0 00000000 
FFFCBAE2 00000000 
FFFCBAE4 00000000 
FFFCBAE6 00000000 
FFFCBAE8 00000000 
FFFCBAEA 00000000 
FFFCBAEC 00000000 
FFFCBAEE 00000000 
FFFCBAF0 00000000 
FFFCBAF2 00000000 
FFFCBAF4 00000000 
FFFCBAF6 00000000 
FFFCBAF8 00000000 
FFFCBAFA 00000000 
FFFCBAFC 00000000 
FFFCBAFE 00000000 
FFFCBB00 00000000 
FFFCBB02 00000000 
FFFCBB04 00000000 
FFFCBB06 00000000 
FFFCBB08 00000000 
FFFCBB0A 00000000 
FFFCBB0C 00000000 
FFFCBB0E 00000000 
FFFCBB10 00000000 
FFFCBB12 00000000 
FFFCBB14 00000000 
FFFCBB16 00000000 
FFFCBB18 00000000 
FFFCBB1A 00000000 
FFFCBB1C 00000000 
FFFCBB1E 00000000 
FFFCBB20 00000000 
FFFCBB22 00000000 
FFFCBB24 00000000 
FFFCBB26 00000000 
FFFCBB28 00000000 
FFFCBB2A 00000000 
FFFCBB2C 00000000 
FFFCBB2E 00000000 
FFFCBB30 00000000 
FFFCBB32 00000000 
FFFCBB34 00000000 
FFFCBB36 00000000 
FFFCBB38 00000000 
FFFCBB3A 00000000 
FFFCBB3C 00000000 
FFFCBB3E 00000000 
FFFCBB40 00000000 
FFFCBB42 00000000 
FFFCBB44 00000000 
FFFCBB46 00000000 
FFFCBB48 00000000 
FFFCBB4A 00000000 
FFFCBB4C 00000000 
FFFCBB4E 00000000 
FFFCBB50 00000000 
FFFCBB52 00000000 
FFFCBB54 00000000 
FFFCBB56 00000000 
FFFCBB58 00000000 
FFFCBB5A 00000000 
FFFCBB5C 00000000 
FFFCBB5E 00000000 
FFFCBB60 00000000 
FFFCBB62 00000000 
FFFCBB64 00000000 
FFFCBB66 00000000 
FFFCBB68 00000000 
FFFCBB6A 00000000 
FFFCBB6C 00000000 
FFFCBB6E 00000000 
FFFCBB70 00000000 
FFFCBB72 00000000 
FFFCBB74 00000000 
FFFCBB76 00000000 
FFFCBB78 00000000 
FFFCBB7A 00000000 
FFFCBB7C 00000000 
FFFCBB7E 00000000 
FFFCBB80 00000000 
FFFCBB82 00000000 
FFFCBB84 00000000 
FFFCBB86 00000000 
FFFCBB88 00000000 
FFFCBB8A 00000000 
FFFCBB8C 00000000 
FFFCBB8E 00000000 
FFFCBB90 00000000 
FFFCBB92 00000000 
FFFCBB94 00000000 
FFFCBB96 00000000 
FFFCBB98 00000000 
FFFCBB9A 00000000 
FFFCBB9C 00000000 
FFFCBB9E 00000000 
FFFCBBA0 00000000 
FFFCBBA2 00000000 
FFFCBBA4 00000000 
FFFCBBA6 00000000 
FFFCBBA8 00000000 
FFFCBBAA 00000000 
FFFCBBAC 00000000 
FFFCBBAE 00000000 
FFFCBBB0 00000000 
FFFCBBB2 00000000 
FFFCBBB4 00000000 
FFFCBBB6 00000000 
FFFCBBB8 00000000 
FFFCBBBA 00000000 
FFFCBBBC 00000000 
FFFCBBBE 00000000 
FFFCBBC0 00000000 
FFFCBBC2 00000000 
FFFCBBC4 00000000 
FFFCBBC6 00000000 
FFFCBBC8 00000000 
FFFCBBCA 00000000 
FFFCBBCC 00000000 
FFFCBBCE 00000000 
FFFCBBD0 00000000 
FFFCBBD2 00000000 
FFFCBBD4 00000000 
FFFCBBD6 00000000 
FFFCBBD8 00000000 
FFFCBBDA 00000000 
FFFCBBDC 00000000 
FFFCBBDE 00000000 
FFFCBBE0 00000000 
FFFCBBE2 00000000 
FFFCBBE4 00000000 
FFFCBBE6 00000000 
FFFCBBE8 00000000 
FFFCBBEA 00000000 
FFFCBBEC 00000000 
FFFCBBEE 00000000 
FFFCBBF0 00000000 
FFFCBBF2 00000000 
FFFCBBF4 00000000 
FFFCBBF6 00000000 
FFFCBBF8 00000000 
FFFCBBFA 00000000 
FFFCBBFC 00000000 
FFFCBBFE 00000000 
FFFCBC00 00000000 
FFFCBC02 00000000 
FFFCBC04 00000000 
FFFCBC06 00000000 
FFFCBC08 00000000 
FFFCBC0A 00000000 
FFFCBC0C 00000000 
FFFCBC0E 00000000 
FFFCBC10 00000000 
FFFCBC12 00000000 
FFFCBC14 00000000 
FFFCBC16 00000000 
FFFCBC18 00000000 
FFFCBC1A 00000000 
FFFCBC1C 00000000 
FFFCBC1E 00000000 
FFFCBC20 00000000 
FFFCBC22 00000000 
FFFCBC24 00000000 
FFFCBC26 00000000 
FFFCBC28 00000000 
FFFCBC2A 00000000 
FFFCBC2C 00000000 
FFFCBC2E 00000000 
FFFCBC30 00000000 
FFFCBC32 00000000 
FFFCBC34 00000000 
FFFCBC36 00000000 
FFFCBC38 00000000 
FFFCBC3A 00000000 
FFFCBC3C 00000000 
FFFCBC3E 00000000 
FFFCBC40 00000000 
FFFCBC42 00000000 
FFFCBC44 00000000 
FFFCBC46 00000000 
FFFCBC48 00000000 
FFFCBC4A 00000000 
FFFCBC4C 00000000 
FFFCBC4E 00000000 
FFFCBC50 00000000 
FFFCBC52 00000000 
FFFCBC54 00000000 
FFFCBC56 00000000 
FFFCBC58 00000000 
FFFCBC5A 00000000 
FFFCBC5C 00000000 
FFFCBC5E 00000000 
FFFCBC60 00000000 
FFFCBC62 00000000 
FFFCBC64 00000000 
FFFCBC66 00000000 
FFFCBC68 00000000 
FFFCBC6A 00000000 
FFFCBC6C 00000000 
FFFCBC6E 00000000 
FFFCBC70 00000000 
FFFCBC72 00000000 
FFFCBC74 00000000 
FFFCBC76 00000000 
FFFCBC78 00000000 
FFFCBC7A 00000000 
FFFCBC7C 00000000 
FFFCBC7E 00000000 
FFFCBC80 00000000 
FFFCBC82 00000000 
FFFCBC84 00000000 
FFFCBC86 00000000 
FFFCBC88 00000000 
FFFCBC8A 00000000 
FFFCBC8C 00000000 
FFFCBC8E 00000000 
FFFCBC90 00000000 
FFFCBC92 00000000 
FFFCBC94 00000000 
FFFCBC96 00000000 
FFFCBC98 00000000 
FFFCBC9A 00000000 
FFFCBC9C 00000000 
FFFCBC9E 00000000 
FFFCBCA0 00000000 
FFFCBCA2 00000000 
FFFCBCA4 00000000 
FFFCBCA6 00000000 
FFFCBCA8 00000000 
FFFCBCAA 00000000 
FFFCBCAC 00000000 
FFFCBCAE 00000000 
FFFCBCB0 00000000 
FFFCBCB2 00000000 
FFFCBCB4 00000000 
FFFCBCB6 00000000 
FFFCBCB8 00000000 
FFFCBCBA 00000000 
FFFCBCBC 00000000 
FFFCBCBE 00000000 
FFFCBCC0 00000000 
FFFCBCC2 00000000 
FFFCBCC4 00000000 
FFFCBCC6 00000000 
FFFCBCC8 00000000 
FFFCBCCA 00000000 
FFFCBCCC 00000000 
FFFCBCCE 00000000 
FFFCBCD0 00000000 
FFFCBCD2 00000000 
FFFCBCD4 00000000 
FFFCBCD6 00000000 
FFFCBCD8 00000000 
FFFCBCDA 00000000 
FFFCBCDC 00000000 
FFFCBCDE 00000000 
FFFCBCE0 00000000 
FFFCBCE2 00000000 
FFFCBCE4 00000000 
FFFCBCE6 00000000 
FFFCBCE8 00000000 
FFFCBCEA 00000000 
FFFCBCEC 00000000 
FFFCBCEE 00000000 
FFFCBCF0 00000000 
FFFCBCF2 00000000 
FFFCBCF4 00000000 
FFFCBCF6 00000000 
FFFCBCF8 00000000 
FFFCBCFA 00000000 
FFFCBCFC 00000000 
FFFCBCFE 00000000 
FFFCBD00 00000000 
FFFCBD02 00000000 
FFFCBD04 00000000 
FFFCBD06 00000000 
FFFCBD08 00000000 
FFFCBD0A 00000000 
FFFCBD0C 00000000 
FFFCBD0E 00000000 
FFFCBD10 00000000 
FFFCBD12 00000000 
FFFCBD14 00000000 
FFFCBD16 00000000 
FFFCBD18 00000000 
FFFCBD1A 00000000 
FFFCBD1C 00000000 
FFFCBD1E 00000000 
FFFCBD20 00000000 
FFFCBD22 00000000 
FFFCBD24 00000000 
FFFCBD26 00000000 
FFFCBD28 00000000 
FFFCBD2A 00000000 
FFFCBD2C 00000000 
FFFCBD2E 00000000 
FFFCBD30 00000000 
FFFCBD32 00000000 
FFFCBD34 00000000 
FFFCBD36 00000000 
FFFCBD38 00000000 
FFFCBD3A 00000000 
FFFCBD3C 00000000 
FFFCBD3E 00000000 
FFFCBD40 00000000 
FFFCBD42 00000000 
FFFCBD44 00000000 
FFFCBD46 00000000 
FFFCBD48 00000000 
FFFCBD4A 00000000 
FFFCBD4C 00000000 
FFFCBD4E 00000000 
FFFCBD50 00000000 
FFFCBD52 00000000 
FFFCBD54 00000000 
FFFCBD56 00000000 
FFFCBD58 00000000 
FFFCBD5A 00000000 
FFFCBD5C 00000000 
FFFCBD5E 00000000 
FFFCBD60 00000000 
FFFCBD62 00000000 
FFFCBD64 00000000 
FFFCBD66 00000000 
FFFCBD68 00000000 
FFFCBD6A 00000000 
FFFCBD6C 00000000 
FFFCBD6E 00000000 
FFFCBD70 00000000 
FFFCBD72 00000000 
FFFCBD74 00000000 
FFFCBD76 00000000 
FFFCBD78 00000000 
FFFCBD7A 00000000 
FFFCBD7C 00000000 
FFFCBD7E 00000000 
FFFCBD80 00000000 
FFFCBD82 00000000 
FFFCBD84 00000000 
FFFCBD86 00000000 
FFFCBD88 00000000 
FFFCBD8A 00000000 
FFFCBD8C 00000000 
FFFCBD8E 00000000 
FFFCBD90 00000000 
FFFCBD92 00000000 
FFFCBD94 00000000 
FFFCBD96 00000000 
FFFCBD98 00000000 
FFFCBD9A 00000000 
FFFCBD9C 00000000 
FFFCBD9E 00000000 
FFFCBDA0 00000000 
FFFCBDA2 00000000 
FFFCBDA4 00000000 
FFFCBDA6 00000000 
FFFCBDA8 00000000 
FFFCBDAA 00000000 
FFFCBDAC 00000000 
FFFCBDAE 00000000 
FFFCBDB0 00000000 
FFFCBDB2 00000000 
FFFCBDB4 00000000 
FFFCBDB6 00000000 
FFFCBDB8 00000000 
FFFCBDBA 00000000 
FFFCBDBC 00000000 
FFFCBDBE 00000000 
FFFCBDC0 00000000 
FFFCBDC2 00000000 
FFFCBDC4 00000000 
FFFCBDC6 00000000 
FFFCBDC8 00000000 
FFFCBDCA 00000000 
FFFCBDCC 00000000 
FFFCBDCE 00000000 
                        		align	8                        	
                        		align	8                        	
                        		align	8                        	
                        		align	8                        	
                        		data
                        		align	8                        	
FFFCC1A0 00000000 		fill.b	832,0x00
FFFCC1A2 00000000 
FFFCC1A4 00000000 
FFFCC1A6 00000000 
FFFCC1A8 00000000 
FFFCC1AA 00000000 
FFFCC1AC 00000000 
FFFCC1AE 00000000 
FFFCC1B0 00000000 
FFFCC1B2 00000000 
FFFCC1B4 00000000 
FFFCC1B6 00000000 
FFFCC1B8 00000000 
FFFCC1BA 00000000 
FFFCC1BC 00000000 
FFFCC1BE 00000000 
FFFCC1C0 00000000 
FFFCC1C2 00000000 
FFFCC1C4 00000000 
FFFCC1C6 00000000 
FFFCC1C8 00000000 
FFFCC1CA 00000000 
FFFCC1CC 00000000 
FFFCC1CE 00000000 
FFFCC1D0 00000000 
FFFCC1D2 00000000 
FFFCC1D4 00000000 
FFFCC1D6 00000000 
FFFCC1D8 00000000 
FFFCC1DA 00000000 
FFFCC1DC 00000000 
FFFCC1DE 00000000 
FFFCC1E0 00000000 
FFFCC1E2 00000000 
FFFCC1E4 00000000 
FFFCC1E6 00000000 
FFFCC1E8 00000000 
FFFCC1EA 00000000 
FFFCC1EC 00000000 
FFFCC1EE 00000000 
FFFCC1F0 00000000 
FFFCC1F2 00000000 
FFFCC1F4 00000000 
FFFCC1F6 00000000 
FFFCC1F8 00000000 
FFFCC1FA 00000000 
FFFCC1FC 00000000 
FFFCC1FE 00000000 
FFFCC200 00000000 
FFFCC202 00000000 
FFFCC204 00000000 
FFFCC206 00000000 
FFFCC208 00000000 
FFFCC20A 00000000 
FFFCC20C 00000000 
FFFCC20E 00000000 
FFFCC210 00000000 
FFFCC212 00000000 
FFFCC214 00000000 
FFFCC216 00000000 
FFFCC218 00000000 
FFFCC21A 00000000 
FFFCC21C 00000000 
FFFCC21E 00000000 
FFFCC220 00000000 
FFFCC222 00000000 
FFFCC224 00000000 
FFFCC226 00000000 
FFFCC228 00000000 
FFFCC22A 00000000 
FFFCC22C 00000000 
FFFCC22E 00000000 
FFFCC230 00000000 
FFFCC232 00000000 
FFFCC234 00000000 
FFFCC236 00000000 
FFFCC238 00000000 
FFFCC23A 00000000 
FFFCC23C 00000000 
FFFCC23E 00000000 
FFFCC240 00000000 
FFFCC242 00000000 
FFFCC244 00000000 
FFFCC246 00000000 
FFFCC248 00000000 
FFFCC24A 00000000 
FFFCC24C 00000000 
FFFCC24E 00000000 
FFFCC250 00000000 
FFFCC252 00000000 
FFFCC254 00000000 
FFFCC256 00000000 
FFFCC258 00000000 
FFFCC25A 00000000 
FFFCC25C 00000000 
FFFCC25E 00000000 
FFFCC260 00000000 
FFFCC262 00000000 
FFFCC264 00000000 
FFFCC266 00000000 
FFFCC268 00000000 
FFFCC26A 00000000 
FFFCC26C 00000000 
FFFCC26E 00000000 
FFFCC270 00000000 
FFFCC272 00000000 
FFFCC274 00000000 
FFFCC276 00000000 
FFFCC278 00000000 
FFFCC27A 00000000 
FFFCC27C 00000000 
FFFCC27E 00000000 
FFFCC280 00000000 
FFFCC282 00000000 
FFFCC284 00000000 
FFFCC286 00000000 
FFFCC288 00000000 
FFFCC28A 00000000 
FFFCC28C 00000000 
FFFCC28E 00000000 
FFFCC290 00000000 
FFFCC292 00000000 
FFFCC294 00000000 
FFFCC296 00000000 
FFFCC298 00000000 
FFFCC29A 00000000 
FFFCC29C 00000000 
FFFCC29E 00000000 
FFFCC2A0 00000000 
FFFCC2A2 00000000 
FFFCC2A4 00000000 
FFFCC2A6 00000000 
FFFCC2A8 00000000 
FFFCC2AA 00000000 
FFFCC2AC 00000000 
FFFCC2AE 00000000 
FFFCC2B0 00000000 
FFFCC2B2 00000000 
FFFCC2B4 00000000 
FFFCC2B6 00000000 
FFFCC2B8 00000000 
FFFCC2BA 00000000 
FFFCC2BC 00000000 
FFFCC2BE 00000000 
FFFCC2C0 00000000 
FFFCC2C2 00000000 
FFFCC2C4 00000000 
FFFCC2C6 00000000 
FFFCC2C8 00000000 
FFFCC2CA 00000000 
FFFCC2CC 00000000 
FFFCC2CE 00000000 
FFFCC2D0 00000000 
FFFCC2D2 00000000 
FFFCC2D4 00000000 
FFFCC2D6 00000000 
FFFCC2D8 00000000 
FFFCC2DA 00000000 
FFFCC2DC 00000000 
FFFCC2DE 00000000 
FFFCC2E0 00000000 
FFFCC2E2 00000000 
FFFCC2E4 00000000 
FFFCC2E6 00000000 
FFFCC2E8 00000000 
FFFCC2EA 00000000 
FFFCC2EC 00000000 
FFFCC2EE 00000000 
FFFCC2F0 00000000 
FFFCC2F2 00000000 
FFFCC2F4 00000000 
FFFCC2F6 00000000 
FFFCC2F8 00000000 
FFFCC2FA 00000000 
FFFCC2FC 00000000 
FFFCC2FE 00000000 
FFFCC300 00000000 
FFFCC302 00000000 
FFFCC304 00000000 
FFFCC306 00000000 
FFFCC308 00000000 
FFFCC30A 00000000 
FFFCC30C 00000000 
FFFCC30E 00000000 
FFFCC310 00000000 
FFFCC312 00000000 
FFFCC314 00000000 
FFFCC316 00000000 
FFFCC318 00000000 
FFFCC31A 00000000 
FFFCC31C 00000000 
FFFCC31E 00000000 
FFFCC320 00000000 
FFFCC322 00000000 
FFFCC324 00000000 
FFFCC326 00000000 
FFFCC328 00000000 
FFFCC32A 00000000 
FFFCC32C 00000000 
FFFCC32E 00000000 
FFFCC330 00000000 
FFFCC332 00000000 
FFFCC334 00000000 
FFFCC336 00000000 
FFFCC338 00000000 
FFFCC33A 00000000 
FFFCC33C 00000000 
FFFCC33E 00000000 
                        		data
                        		align	8                        	
                        		data
                        		align	8                        	
FFFCC4E0 00000000 		fill.b	8,0x00
FFFCC4E2 00000000 
                        		align	8                        	
FFFCC4E8 00000000 		fill.b	1952,0x00
FFFCC4EA 00000000 
FFFCC4EC 00000000 
FFFCC4EE 00000000 
FFFCC4F0 00000000 
FFFCC4F2 00000000 
FFFCC4F4 00000000 
FFFCC4F6 00000000 
FFFCC4F8 00000000 
FFFCC4FA 00000000 
FFFCC4FC 00000000 
FFFCC4FE 00000000 
FFFCC500 00000000 
FFFCC502 00000000 
FFFCC504 00000000 
FFFCC506 00000000 
FFFCC508 00000000 
FFFCC50A 00000000 
FFFCC50C 00000000 
FFFCC50E 00000000 
FFFCC510 00000000 
FFFCC512 00000000 
FFFCC514 00000000 
FFFCC516 00000000 
FFFCC518 00000000 
FFFCC51A 00000000 
FFFCC51C 00000000 
FFFCC51E 00000000 
FFFCC520 00000000 
FFFCC522 00000000 
FFFCC524 00000000 
FFFCC526 00000000 
FFFCC528 00000000 
FFFCC52A 00000000 
FFFCC52C 00000000 
FFFCC52E 00000000 
FFFCC530 00000000 
FFFCC532 00000000 
FFFCC534 00000000 
FFFCC536 00000000 
FFFCC538 00000000 
FFFCC53A 00000000 
FFFCC53C 00000000 
FFFCC53E 00000000 
FFFCC540 00000000 
FFFCC542 00000000 
FFFCC544 00000000 
FFFCC546 00000000 
FFFCC548 00000000 
FFFCC54A 00000000 
FFFCC54C 00000000 
FFFCC54E 00000000 
FFFCC550 00000000 
FFFCC552 00000000 
FFFCC554 00000000 
FFFCC556 00000000 
FFFCC558 00000000 
FFFCC55A 00000000 
FFFCC55C 00000000 
FFFCC55E 00000000 
FFFCC560 00000000 
FFFCC562 00000000 
FFFCC564 00000000 
FFFCC566 00000000 
FFFCC568 00000000 
FFFCC56A 00000000 
FFFCC56C 00000000 
FFFCC56E 00000000 
FFFCC570 00000000 
FFFCC572 00000000 
FFFCC574 00000000 
FFFCC576 00000000 
FFFCC578 00000000 
FFFCC57A 00000000 
FFFCC57C 00000000 
FFFCC57E 00000000 
FFFCC580 00000000 
FFFCC582 00000000 
FFFCC584 00000000 
FFFCC586 00000000 
FFFCC588 00000000 
FFFCC58A 00000000 
FFFCC58C 00000000 
FFFCC58E 00000000 
FFFCC590 00000000 
FFFCC592 00000000 
FFFCC594 00000000 
FFFCC596 00000000 
FFFCC598 00000000 
FFFCC59A 00000000 
FFFCC59C 00000000 
FFFCC59E 00000000 
FFFCC5A0 00000000 
FFFCC5A2 00000000 
FFFCC5A4 00000000 
FFFCC5A6 00000000 
FFFCC5A8 00000000 
FFFCC5AA 00000000 
FFFCC5AC 00000000 
FFFCC5AE 00000000 
FFFCC5B0 00000000 
FFFCC5B2 00000000 
FFFCC5B4 00000000 
FFFCC5B6 00000000 
FFFCC5B8 00000000 
FFFCC5BA 00000000 
FFFCC5BC 00000000 
FFFCC5BE 00000000 
FFFCC5C0 00000000 
FFFCC5C2 00000000 
FFFCC5C4 00000000 
FFFCC5C6 00000000 
FFFCC5C8 00000000 
FFFCC5CA 00000000 
FFFCC5CC 00000000 
FFFCC5CE 00000000 
FFFCC5D0 00000000 
FFFCC5D2 00000000 
FFFCC5D4 00000000 
FFFCC5D6 00000000 
FFFCC5D8 00000000 
FFFCC5DA 00000000 
FFFCC5DC 00000000 
FFFCC5DE 00000000 
FFFCC5E0 00000000 
FFFCC5E2 00000000 
FFFCC5E4 00000000 
FFFCC5E6 00000000 
FFFCC5E8 00000000 
FFFCC5EA 00000000 
FFFCC5EC 00000000 
FFFCC5EE 00000000 
FFFCC5F0 00000000 
FFFCC5F2 00000000 
FFFCC5F4 00000000 
FFFCC5F6 00000000 
FFFCC5F8 00000000 
FFFCC5FA 00000000 
FFFCC5FC 00000000 
FFFCC5FE 00000000 
FFFCC600 00000000 
FFFCC602 00000000 
FFFCC604 00000000 
FFFCC606 00000000 
FFFCC608 00000000 
FFFCC60A 00000000 
FFFCC60C 00000000 
FFFCC60E 00000000 
FFFCC610 00000000 
FFFCC612 00000000 
FFFCC614 00000000 
FFFCC616 00000000 
FFFCC618 00000000 
FFFCC61A 00000000 
FFFCC61C 00000000 
FFFCC61E 00000000 
FFFCC620 00000000 
FFFCC622 00000000 
FFFCC624 00000000 
FFFCC626 00000000 
FFFCC628 00000000 
FFFCC62A 00000000 
FFFCC62C 00000000 
FFFCC62E 00000000 
FFFCC630 00000000 
FFFCC632 00000000 
FFFCC634 00000000 
FFFCC636 00000000 
FFFCC638 00000000 
FFFCC63A 00000000 
FFFCC63C 00000000 
FFFCC63E 00000000 
FFFCC640 00000000 
FFFCC642 00000000 
FFFCC644 00000000 
FFFCC646 00000000 
FFFCC648 00000000 
FFFCC64A 00000000 
FFFCC64C 00000000 
FFFCC64E 00000000 
FFFCC650 00000000 
FFFCC652 00000000 
FFFCC654 00000000 
FFFCC656 00000000 
FFFCC658 00000000 
FFFCC65A 00000000 
FFFCC65C 00000000 
FFFCC65E 00000000 
FFFCC660 00000000 
FFFCC662 00000000 
FFFCC664 00000000 
FFFCC666 00000000 
FFFCC668 00000000 
FFFCC66A 00000000 
FFFCC66C 00000000 
FFFCC66E 00000000 
FFFCC670 00000000 
FFFCC672 00000000 
FFFCC674 00000000 
FFFCC676 00000000 
FFFCC678 00000000 
FFFCC67A 00000000 
FFFCC67C 00000000 
FFFCC67E 00000000 
FFFCC680 00000000 
FFFCC682 00000000 
FFFCC684 00000000 
FFFCC686 00000000 
FFFCC688 00000000 
FFFCC68A 00000000 
FFFCC68C 00000000 
FFFCC68E 00000000 
FFFCC690 00000000 
FFFCC692 00000000 
FFFCC694 00000000 
FFFCC696 00000000 
FFFCC698 00000000 
FFFCC69A 00000000 
FFFCC69C 00000000 
FFFCC69E 00000000 
FFFCC6A0 00000000 
FFFCC6A2 00000000 
FFFCC6A4 00000000 
FFFCC6A6 00000000 
FFFCC6A8 00000000 
FFFCC6AA 00000000 
FFFCC6AC 00000000 
FFFCC6AE 00000000 
FFFCC6B0 00000000 
FFFCC6B2 00000000 
FFFCC6B4 00000000 
FFFCC6B6 00000000 
FFFCC6B8 00000000 
FFFCC6BA 00000000 
FFFCC6BC 00000000 
FFFCC6BE 00000000 
FFFCC6C0 00000000 
FFFCC6C2 00000000 
FFFCC6C4 00000000 
FFFCC6C6 00000000 
FFFCC6C8 00000000 
FFFCC6CA 00000000 
FFFCC6CC 00000000 
FFFCC6CE 00000000 
FFFCC6D0 00000000 
FFFCC6D2 00000000 
FFFCC6D4 00000000 
FFFCC6D6 00000000 
FFFCC6D8 00000000 
FFFCC6DA 00000000 
FFFCC6DC 00000000 
FFFCC6DE 00000000 
FFFCC6E0 00000000 
FFFCC6E2 00000000 
FFFCC6E4 00000000 
FFFCC6E6 00000000 
FFFCC6E8 00000000 
FFFCC6EA 00000000 
FFFCC6EC 00000000 
FFFCC6EE 00000000 
FFFCC6F0 00000000 
FFFCC6F2 00000000 
FFFCC6F4 00000000 
FFFCC6F6 00000000 
FFFCC6F8 00000000 
FFFCC6FA 00000000 
FFFCC6FC 00000000 
FFFCC6FE 00000000 
FFFCC700 00000000 
FFFCC702 00000000 
FFFCC704 00000000 
FFFCC706 00000000 
FFFCC708 00000000 
FFFCC70A 00000000 
FFFCC70C 00000000 
FFFCC70E 00000000 
FFFCC710 00000000 
FFFCC712 00000000 
FFFCC714 00000000 
FFFCC716 00000000 
FFFCC718 00000000 
FFFCC71A 00000000 
FFFCC71C 00000000 
FFFCC71E 00000000 
FFFCC720 00000000 
FFFCC722 00000000 
FFFCC724 00000000 
FFFCC726 00000000 
FFFCC728 00000000 
FFFCC72A 00000000 
FFFCC72C 00000000 
FFFCC72E 00000000 
FFFCC730 00000000 
FFFCC732 00000000 
FFFCC734 00000000 
FFFCC736 00000000 
FFFCC738 00000000 
FFFCC73A 00000000 
FFFCC73C 00000000 
FFFCC73E 00000000 
FFFCC740 00000000 
FFFCC742 00000000 
FFFCC744 00000000 
FFFCC746 00000000 
FFFCC748 00000000 
FFFCC74A 00000000 
FFFCC74C 00000000 
FFFCC74E 00000000 
FFFCC750 00000000 
FFFCC752 00000000 
FFFCC754 00000000 
FFFCC756 00000000 
FFFCC758 00000000 
FFFCC75A 00000000 
FFFCC75C 00000000 
FFFCC75E 00000000 
FFFCC760 00000000 
FFFCC762 00000000 
FFFCC764 00000000 
FFFCC766 00000000 
FFFCC768 00000000 
FFFCC76A 00000000 
FFFCC76C 00000000 
FFFCC76E 00000000 
FFFCC770 00000000 
FFFCC772 00000000 
FFFCC774 00000000 
FFFCC776 00000000 
FFFCC778 00000000 
FFFCC77A 00000000 
FFFCC77C 00000000 
FFFCC77E 00000000 
FFFCC780 00000000 
FFFCC782 00000000 
FFFCC784 00000000 
FFFCC786 00000000 
FFFCC788 00000000 
FFFCC78A 00000000 
FFFCC78C 00000000 
FFFCC78E 00000000 
FFFCC790 00000000 
FFFCC792 00000000 
FFFCC794 00000000 
FFFCC796 00000000 
FFFCC798 00000000 
FFFCC79A 00000000 
FFFCC79C 00000000 
FFFCC79E 00000000 
FFFCC7A0 00000000 
FFFCC7A2 00000000 
FFFCC7A4 00000000 
FFFCC7A6 00000000 
FFFCC7A8 00000000 
FFFCC7AA 00000000 
FFFCC7AC 00000000 
FFFCC7AE 00000000 
FFFCC7B0 00000000 
FFFCC7B2 00000000 
FFFCC7B4 00000000 
FFFCC7B6 00000000 
FFFCC7B8 00000000 
FFFCC7BA 00000000 
FFFCC7BC 00000000 
FFFCC7BE 00000000 
FFFCC7C0 00000000 
FFFCC7C2 00000000 
FFFCC7C4 00000000 
FFFCC7C6 00000000 
FFFCC7C8 00000000 
FFFCC7CA 00000000 
FFFCC7CC 00000000 
FFFCC7CE 00000000 
FFFCC7D0 00000000 
FFFCC7D2 00000000 
FFFCC7D4 00000000 
FFFCC7D6 00000000 
FFFCC7D8 00000000 
FFFCC7DA 00000000 
FFFCC7DC 00000000 
FFFCC7DE 00000000 
FFFCC7E0 00000000 
FFFCC7E2 00000000 
FFFCC7E4 00000000 
FFFCC7E6 00000000 
FFFCC7E8 00000000 
FFFCC7EA 00000000 
FFFCC7EC 00000000 
FFFCC7EE 00000000 
FFFCC7F0 00000000 
FFFCC7F2 00000000 
FFFCC7F4 00000000 
FFFCC7F6 00000000 
FFFCC7F8 00000000 
FFFCC7FA 00000000 
FFFCC7FC 00000000 
FFFCC7FE 00000000 
FFFCC800 00000000 
FFFCC802 00000000 
FFFCC804 00000000 
FFFCC806 00000000 
FFFCC808 00000000 
FFFCC80A 00000000 
FFFCC80C 00000000 
FFFCC80E 00000000 
FFFCC810 00000000 
FFFCC812 00000000 
FFFCC814 00000000 
FFFCC816 00000000 
FFFCC818 00000000 
FFFCC81A 00000000 
FFFCC81C 00000000 
FFFCC81E 00000000 
FFFCC820 00000000 
FFFCC822 00000000 
FFFCC824 00000000 
FFFCC826 00000000 
FFFCC828 00000000 
FFFCC82A 00000000 
FFFCC82C 00000000 
FFFCC82E 00000000 
FFFCC830 00000000 
FFFCC832 00000000 
FFFCC834 00000000 
FFFCC836 00000000 
FFFCC838 00000000 
FFFCC83A 00000000 
FFFCC83C 00000000 
FFFCC83E 00000000 
FFFCC840 00000000 
FFFCC842 00000000 
FFFCC844 00000000 
FFFCC846 00000000 
FFFCC848 00000000 
FFFCC84A 00000000 
FFFCC84C 00000000 
FFFCC84E 00000000 
FFFCC850 00000000 
FFFCC852 00000000 
FFFCC854 00000000 
FFFCC856 00000000 
FFFCC858 00000000 
FFFCC85A 00000000 
FFFCC85C 00000000 
FFFCC85E 00000000 
FFFCC860 00000000 
FFFCC862 00000000 
FFFCC864 00000000 
FFFCC866 00000000 
FFFCC868 00000000 
FFFCC86A 00000000 
FFFCC86C 00000000 
FFFCC86E 00000000 
FFFCC870 00000000 
FFFCC872 00000000 
FFFCC874 00000000 
FFFCC876 00000000 
FFFCC878 00000000 
FFFCC87A 00000000 
FFFCC87C 00000000 
FFFCC87E 00000000 
FFFCC880 00000000 
FFFCC882 00000000 
FFFCC884 00000000 
FFFCC886 00000000 
FFFCC888 00000000 
FFFCC88A 00000000 
FFFCC88C 00000000 
FFFCC88E 00000000 
FFFCC890 00000000 
FFFCC892 00000000 
FFFCC894 00000000 
FFFCC896 00000000 
FFFCC898 00000000 
FFFCC89A 00000000 
FFFCC89C 00000000 
FFFCC89E 00000000 
FFFCC8A0 00000000 
FFFCC8A2 00000000 
FFFCC8A4 00000000 
FFFCC8A6 00000000 
FFFCC8A8 00000000 
FFFCC8AA 00000000 
FFFCC8AC 00000000 
FFFCC8AE 00000000 
FFFCC8B0 00000000 
FFFCC8B2 00000000 
FFFCC8B4 00000000 
FFFCC8B6 00000000 
                        		align	8                        	
                        		align	8                        	
                        		align	8                        	
                        		align	8                        	
                        		data
                        		align	2                        	
                        	endpublic
                        	
FFFCA002 00000000 		data
FFFCA004 00000000 
FFFCA006 00000000 
FFFCA008 00000000 
FFFCA00A 00000000 
FFFCA00C 00000000 
FFFCA00E 00000000 
FFFCA010 00000000 
FFFCA012 00000000 
FFFCA014 00000000 
FFFCA016 00000000 
FFFCA018 00000000 
FFFCA01A 00000000 
FFFCA01C 00000000 
FFFCA01E 00000000 
FFFCA020 00000000 
FFFCA022 00000000 
FFFCA024 00000000 
FFFCA026 00000000 
FFFCA028 00000000 
FFFCA02A 00000000 
FFFCA02C 00000000 
FFFCA02E 00000000 
FFFCA030 00000000 
FFFCA032 00000000 
FFFCA034 00000000 
FFFCA036 00000000 
FFFCA038 00000000 
FFFCA03A 00000000 
FFFCA03C 00000000 
FFFCA03E 00000000 
FFFCA040 00000000 
FFFCA042 00000000 
FFFCA044 00000000 
FFFCA046 00000000 
FFFCA048 00000000 
FFFCA04A 00000000 
FFFCA04C 00000000 
FFFCA04E 00000000 
FFFCA050 00000000 
FFFCA052 00000000 
FFFCA054 00000000 
FFFCA056 00000000 
FFFCA058 00000000 
FFFCA05A 00000000 
FFFCA05C 00000000 
FFFCA05E 00000000 
FFFCA060 00000000 
FFFCA062 00000000 
FFFCA064 00000000 
FFFCA066 00000000 
FFFCA068 00000000 
FFFCA06A 00000000 
FFFCA06C 00000000 
FFFCA06E 00000000 
FFFCA070 00000000 
FFFCA072 00000000 
FFFCA074 00000000 
FFFCA076 00000000 
FFFCA078 00000000 
FFFCA07A 00000000 
FFFCA07C 00000000 
FFFCA07E 00000000 
FFFCA080 00000000 
FFFCA082 00000000 
FFFCA084 00000000 
FFFCA086 00000000 
FFFCA088 00000000 
FFFCA08A 00000000 
FFFCA08C 00000000 
FFFCA08E 00000000 
FFFCA090 00000000 
FFFCA092 00000000 
FFFCA094 00000000 
FFFCA096 00000000 
FFFCA098 00000000 
FFFCA09A 00000000 
FFFCA09C 00000000 
FFFCA09E 00000000 
FFFCA0A0 00000000 
FFFCA0A2 00000000 
FFFCA0A4 00000000 
FFFCA0A6 00000000 
FFFCA0A8 00000000 
FFFCA0AA 00000000 
FFFCA0AC 00000000 
FFFCA0AE 00000000 
FFFCA0B0 00000000 
FFFCA0B2 00000000 
FFFCA0B4 00000000 
FFFCA0B6 00000000 
FFFCA0B8 00000000 
FFFCA0BA 00000000 
FFFCA0BC 00000000 
FFFCA0BE 00000000 
FFFCA0C0 00000000 
FFFCA0C2 00000000 
FFFCA0C4 00000000 
FFFCA0C6 00000000 
FFFCA0C8 00000000 
FFFCA0CA 00000000 
FFFCA0CC 00000000 
FFFCA0CE 00000000 
FFFCA0D0 00000000 
FFFCA0D2 00000000 
FFFCA0D4 00000000 
FFFCA0D6 00000000 
FFFCA0D8 00000000 
FFFCA0DA 00000000 
FFFCA0DC 00000000 
FFFCA0DE 00000000 
FFFCA0E0 00000000 
FFFCA0E2 00000000 
FFFCA0E4 00000000 
FFFCA0E6 00000000 
FFFCA0E8 00000000 
FFFCA0EA 00000000 
FFFCA0EC 00000000 
FFFCA0EE 00000000 
FFFCA0F0 00000000 
FFFCA0F2 00000000 
FFFCA0F4 00000000 
FFFCA0F6 00000000 
FFFCA0F8 00000000 
FFFCA0FA 00000000 
FFFCA0FC 00000000 
FFFCA0FE 00000000 
FFFCA100 00000000 
FFFCA102 00000000 
FFFCA104 00000000 
FFFCA106 00000000 
FFFCA108 00000000 
FFFCA10A 00000000 
FFFCA10C 00000000 
FFFCA10E 00000000 
FFFCA110 00000000 
FFFCA112 00000000 
FFFCA114 00000000 
FFFCA116 00000000 
FFFCA118 00000000 
FFFCA11A 00000000 
FFFCA11C 00000000 
FFFCA11E 00000000 
FFFCA120 00000000 
FFFCA122 00000000 
FFFCA124 00000000 
FFFCA126 00000000 
FFFCA128 00000000 
FFFCA12A 00000000 
FFFCA12C 00000000 
FFFCA12E 00000000 
FFFCA130 00000000 
FFFCA132 00000000 
FFFCA134 00000000 
FFFCA136 00000000 
FFFCA138 00000000 
FFFCA13A 00000000 
FFFCA13C 00000000 
FFFCA13E 00000000 
FFFCA140 00000000 
FFFCA142 00000000 
FFFCA144 00000000 
FFFCA146 00000000 
FFFCA148 00000000 
FFFCA14A 00000000 
FFFCA14C 00000000 
FFFCA14E 00000000 
FFFCA150 00000000 
FFFCA152 00000000 
FFFCA154 00000000 
FFFCA156 00000000 
FFFCA158 00000000 
FFFCA15A 00000000 
FFFCA15C 00000000 
FFFCA15E 00000000 
FFFCA160 00000000 
FFFCA162 00000000 
FFFCA164 00000000 
FFFCA166 00000000 
FFFCA168 00000000 
FFFCA16A 00000000 
FFFCA16C 00000000 
FFFCA16E 00000000 
FFFCA170 00000000 
FFFCA172 00000000 
FFFCA174 00000000 
FFFCA176 00000000 
FFFCA178 00000000 
FFFCA17A 00000000 
FFFCA17C 00000000 
FFFCA17E 00000000 
FFFCA180 00000000 
FFFCA182 00000000 
FFFCA184 00000000 
FFFCA186 00000000 
FFFCA188 00000000 
FFFCA18A 00000000 
FFFCA18C 00000000 
FFFCA18E 00000000 
FFFCA190 00000000 
FFFCA192 00000000 
FFFCA194 00000000 
FFFCA196 00000000 
FFFCA198 00000000 
FFFCA19A 00000000 
FFFCA19C 00000000 
FFFCA19E 00000000 
FFFCA1A0 00000000 
FFFCA1A2 00000000 
FFFCA1A4 00000000 
FFFCA1A6 00000000 
FFFCA1A8 00000000 
FFFCA1AA 00000000 
FFFCA1AC 00000000 
FFFCA1AE 00000000 
FFFCA1B0 00000000 
FFFCA1B2 00000000 
FFFCA1B4 00000000 
FFFCA1B6 00000000 
FFFCA1B8 00000000 
FFFCA1BA 00000000 
FFFCA1BC 00000000 
FFFCA1BE 00000000 
FFFCA1C0 00000000 
FFFCA1C2 00000000 
FFFCA1C4 00000000 
FFFCA1C6 00000000 
FFFCA1C8 00000000 
FFFCA1CA 00000000 
FFFCA1CC 00000000 
FFFCA1CE 00000000 
FFFCA1D0 00000000 
FFFCA1D2 00000000 
FFFCA1D4 00000000 
FFFCA1D6 00000000 
FFFCA1D8 00000000 
FFFCA1DA 00000000 
FFFCA1DC 00000000 
FFFCA1DE 00000000 
FFFCA1E0 00000000 
FFFCA1E2 00000000 
FFFCA1E4 00000000 
FFFCA1E6 00000000 
FFFCA1E8 00000000 
FFFCA1EA 00000000 
FFFCA1EC 00000000 
FFFCA1EE 00000000 
FFFCA1F0 00000000 
FFFCA1F2 00000000 
FFFCA1F4 00000000 
FFFCA1F6 00000000 
FFFCA1F8 00000000 
FFFCA1FA 00000000 
FFFCA1FC 00000000 
FFFCA1FE 00000000 
FFFCA200 00000000 
FFFCA202 00000000 
FFFCA204 00000000 
FFFCA206 00000000 
FFFCA208 00000000 
FFFCA20A 00000000 
FFFCA20C 00000000 
FFFCA20E 00000000 
FFFCA210 00000000 
FFFCA212 00000000 
FFFCA214 00000000 
FFFCA216 00000000 
FFFCA218 00000000 
FFFCA21A 00000000 
FFFCA21C 00000000 
FFFCA21E 00000000 
FFFCA220 00000000 
FFFCA222 00000000 
FFFCA224 00000000 
FFFCA226 00000000 
FFFCA228 00000000 
FFFCA22A 00000000 
FFFCA22C 00000000 
FFFCA22E 00000000 
FFFCA230 00000000 
FFFCA232 00000000 
FFFCA234 00000000 
FFFCA236 00000000 
FFFCA238 00000000 
FFFCA23A 00000000 
FFFCA23C 00000000 
FFFCA23E 00000000 
FFFCA240 00000000 
FFFCA242 00000000 
FFFCA244 00000000 
FFFCA246 00000000 
FFFCA248 00000000 
FFFCA24A 00000000 
FFFCA24C 00000000 
FFFCA24E 00000000 
FFFCA250 00000000 
FFFCA252 00000000 
FFFCA254 00000000 
FFFCA256 00000000 
FFFCA258 00000000 
FFFCA25A 00000000 
FFFCA25C 00000000 
FFFCA25E 00000000 
FFFCA260 00000000 
FFFCA262 00000000 
FFFCA264 00000000 
FFFCA266 00000000 
FFFCA268 00000000 
FFFCA26A 00000000 
FFFCA26C 00000000 
FFFCA26E 00000000 
FFFCA270 00000000 
FFFCA272 00000000 
FFFCA274 00000000 
FFFCA276 00000000 
FFFCA278 00000000 
FFFCA27A 00000000 
FFFCA27C 00000000 
FFFCA27E 00000000 
FFFCA280 00000000 
FFFCA282 00000000 
FFFCA284 00000000 
FFFCA286 00000000 
FFFCA288 00000000 
FFFCA28A 00000000 
FFFCA28C 00000000 
FFFCA28E 00000000 
FFFCA290 00000000 
FFFCA292 00000000 
FFFCA294 00000000 
FFFCA296 00000000 
FFFCA298 00000000 
FFFCA29A 00000000 
FFFCA29C 00000000 
FFFCA29E 00000000 
FFFCA2A0 00000000 
FFFCA2A2 00000000 
FFFCA2A4 00000000 
FFFCA2A6 00000000 
FFFCA2A8 00000000 
FFFCA2AA 00000000 
FFFCA2AC 00000000 
FFFCA2AE 00000000 
FFFCA2B0 00000000 
FFFCA2B2 00000000 
FFFCA2B4 00000000 
FFFCA2B6 00000000 
FFFCA2B8 00000000 
FFFCA2BA 00000000 
FFFCA2BC 00000000 
FFFCA2BE 00000000 
FFFCA2C0 00000000 
FFFCA2C2 00000000 
FFFCA2C4 00000000 
FFFCA2C6 00000000 
FFFCA2C8 00000000 
FFFCA2CA 00000000 
FFFCA2CC 00000000 
FFFCA2CE 00000000 
FFFCA2D0 00000000 
FFFCA2D2 00000000 
FFFCA2D4 00000000 
FFFCA2D6 00000000 
FFFCA2D8 00000000 
FFFCA2DA 00000000 
FFFCA2DC 00000000 
FFFCA2DE 00000000 
FFFCA2E0 00000000 
FFFCA2E2 00000000 
FFFCA2E4 00000000 
FFFCA2E6 00000000 
FFFCA2E8 00000000 
FFFCA2EA 00000000 
FFFCA2EC 00000000 
FFFCA2EE 00000000 
FFFCA2F0 00000000 
FFFCA2F2 00000000 
FFFCA2F4 00000000 
FFFCA2F6 00000000 
FFFCA2F8 00000000 
FFFCA2FA 00000000 
FFFCA2FC 00000000 
FFFCA2FE 00000000 
FFFCA300 00000000 
FFFCA302 00000000 
FFFCA304 00000000 
FFFCA306 00000000 
FFFCA308 00000000 
FFFCA30A 00000000 
FFFCA30C 00000000 
FFFCA30E 00000000 
FFFCA310 00000000 
FFFCA312 00000000 
FFFCA314 00000000 
FFFCA316 00000000 
FFFCA318 00000000 
FFFCA31A 00000000 
FFFCA31C 00000000 
FFFCA31E 00000000 
FFFCA320 00000000 
FFFCA322 00000000 
FFFCA324 00000000 
FFFCA326 00000000 
FFFCA328 00000000 
FFFCA32A 00000000 
FFFCA32C 00000000 
FFFCA32E 00000000 
FFFCA330 00000000 
FFFCA332 00000000 
FFFCA334 00000000 
FFFCA336 00000000 
FFFCA338 00000000 
FFFCA33A 00000000 
FFFCA33C 00000000 
FFFCA33E 00000000 
FFFCA340 00000000 
FFFCA342 00000000 
FFFCA344 00000000 
FFFCA346 00000000 
FFFCA348 00000000 
FFFCA34A 00000000 
FFFCA34C 00000000 
FFFCA34E 00000000 
FFFCA350 00000000 
FFFCA352 00000000 
FFFCA354 00000000 
FFFCA356 00000000 
FFFCA358 00000000 
FFFCA35A 00000000 
FFFCA35C 00000000 
FFFCA35E 00000000 
FFFCA360 00000000 
FFFCA362 00000000 
FFFCA364 00000000 
FFFCA366 00000000 
FFFCA368 00000000 
FFFCA36A 00000000 
FFFCA36C 00000000 
FFFCA36E 00000000 
FFFCA370 00000000 
FFFCA372 00000000 
FFFCA374 00000000 
FFFCA376 00000000 
FFFCA378 00000000 
FFFCA37A 00000000 
FFFCA37C 00000000 
FFFCA37E 00000000 
FFFCA380 00000000 
FFFCA382 00000000 
FFFCA384 00000000 
FFFCA386 00000000 
FFFCA388 00000000 
FFFCA38A 00000000 
FFFCA38C 00000000 
FFFCA38E 00000000 
FFFCA390 00000000 
FFFCA392 00000000 
FFFCA394 00000000 
FFFCA396 00000000 
FFFCA398 00000000 
FFFCA39A 00000000 
FFFCA39C 00000000 
FFFCA39E 00000000 
FFFCA3A0 00000000 
FFFCA3A2 00000000 
FFFCA3A4 00000000 
FFFCA3A6 00000000 
FFFCA3A8 00000000 
FFFCA3AA 00000000 
FFFCA3AC 00000000 
FFFCA3AE 00000000 
FFFCA3B0 00000000 
FFFCA3B2 00000000 
FFFCA3B4 00000000 
FFFCA3B6 00000000 
FFFCA3B8 00000000 
FFFCA3BA 00000000 
FFFCA3BC 00000000 
FFFCA3BE 00000000 
FFFCA3C0 00000000 
FFFCA3C2 00000000 
FFFCA3C4 00000000 
FFFCA3C6 00000000 
FFFCA3C8 00000000 
FFFCA3CA 00000000 
FFFCA3CC 00000000 
FFFCA3CE 00000000 
FFFCA3D0 00000000 
FFFCA3D2 00000000 
FFFCA3D4 00000000 
FFFCA3D6 00000000 
FFFCA3D8 00000000 
FFFCA3DA 00000000 
FFFCA3DC 00000000 
FFFCA3DE 00000000 
FFFCA3E0 00000000 
FFFCA3E2 00000000 
FFFCA3E4 00000000 
FFFCA3E6 00000000 
FFFCA3E8 00000000 
FFFCA3EA 00000000 
FFFCA3EC 00000000 
FFFCA3EE 00000000 
FFFCA3F0 00000000 
FFFCA3F2 00000000 
FFFCA3F4 00000000 
FFFCA3F6 00000000 
FFFCA3F8 00000000 
FFFCA3FA 00000000 
FFFCA3FC 00000000 
FFFCA3FE 00000000 
FFFCA400 00000000 
FFFCA402 00000000 
FFFCA404 00000000 
FFFCA406 00000000 
FFFCA408 00000000 
FFFCA40A 00000000 
FFFCA40C 00000000 
FFFCA40E 00000000 
FFFCA410 00000000 
FFFCA412 00000000 
FFFCA414 00000000 
FFFCA416 00000000 
FFFCA418 00000000 
FFFCA41A 00000000 
FFFCA41C 00000000 
FFFCA41E 00000000 
FFFCA420 00000000 
FFFCA422 00000000 
FFFCA424 00000000 
FFFCA426 00000000 
FFFCA428 00000000 
FFFCA42A 00000000 
FFFCA42C 00000000 
FFFCA42E 00000000 
FFFCA430 00000000 
FFFCA432 00000000 
FFFCA434 00000000 
FFFCA436 00000000 
FFFCA438 00000000 
FFFCA43A 00000000 
FFFCA43C 00000000 
FFFCA43E 00000000 
FFFCA440 00000000 
FFFCA442 00000000 
FFFCA444 00000000 
FFFCA446 00000000 
FFFCA448 00000000 
FFFCA44A 00000000 
FFFCA44C 00000000 
FFFCA44E 00000000 
FFFCA450 00000000 
FFFCA452 00000000 
FFFCA454 00000000 
FFFCA456 00000000 
FFFCA458 00000000 
FFFCA45A 00000000 
FFFCA45C 00000000 
FFFCA45E 00000000 
FFFCA460 00000000 
FFFCA462 00000000 
FFFCA464 00000000 
FFFCA466 00000000 
FFFCA468 00000000 
FFFCA46A 00000000 
FFFCA46C 00000000 
FFFCA46E 00000000 
FFFCA470 00000000 
FFFCA472 00000000 
FFFCA474 00000000 
FFFCA476 00000000 
FFFCA478 00000000 
FFFCA47A 00000000 
FFFCA47C 00000000 
FFFCA47E 00000000 
FFFCA480 00000000 
FFFCA482 00000000 
FFFCA484 00000000 
FFFCA486 00000000 
FFFCA488 00000000 
FFFCA48A 00000000 
FFFCA48C 00000000 
FFFCA48E 00000000 
FFFCA490 00000000 
FFFCA492 00000000 
FFFCA494 00000000 
FFFCA496 00000000 
FFFCA498 00000000 
FFFCA49A 00000000 
FFFCA49C 00000000 
FFFCA49E 00000000 
FFFCA4A0 00000000 
FFFCA4A2 00000000 
FFFCA4A4 00000000 
FFFCA4A6 00000000 
FFFCA4A8 00000000 
FFFCA4AA 00000000 
FFFCA4AC 00000000 
FFFCA4AE 00000000 
FFFCA4B0 00000000 
FFFCA4B2 00000000 
FFFCA4B4 00000000 
FFFCA4B6 00000000 
FFFCA4B8 00000000 
FFFCA4BA 00000000 
FFFCA4BC 00000000 
FFFCA4BE 00000000 
FFFCA4C0 00000000 
FFFCA4C2 00000000 
FFFCA4C4 00000000 
FFFCA4C6 00000000 
FFFCA4C8 00000000 
FFFCA4CA 00000000 
FFFCA4CC 00000000 
FFFCA4CE 00000000 
FFFCA4D0 00000000 
FFFCA4D2 00000000 
FFFCA4D4 00000000 
FFFCA4D6 00000000 
FFFCA4D8 00000000 
FFFCA4DA 00000000 
FFFCA4DC 00000000 
FFFCA4DE 00000000 
FFFCA4E0 00000000 
FFFCA4E2 00000000 
FFFCA4E4 00000000 
FFFCA4E6 00000000 
FFFCA4E8 00000000 
FFFCA4EA 00000000 
FFFCA4EC 00000000 
FFFCA4EE 00000000 
FFFCA4F0 00000000 
FFFCA4F2 00000000 
FFFCA4F4 00000000 
FFFCA4F6 00000000 
FFFCA4F8 00000000 
FFFCA4FA 00000000 
FFFCA4FC 00000000 
FFFCA4FE 00000000 
FFFCA500 00000000 
FFFCA502 00000000 
FFFCA504 00000000 
FFFCA506 00000000 
FFFCA508 00000000 
FFFCA50A 00000000 
FFFCA50C 00000000 
FFFCA50E 00000000 
FFFCA510 00000000 
FFFCA512 00000000 
FFFCA514 00000000 
FFFCA516 00000000 
FFFCA518 00000000 
FFFCA51A 00000000 
FFFCA51C 00000000 
FFFCA51E 00000000 
FFFCA520 00000000 
FFFCA522 00000000 
FFFCA524 00000000 
FFFCA526 00000000 
FFFCA528 00000000 
FFFCA52A 00000000 
FFFCA52C 00000000 
FFFCA52E 00000000 
FFFCA530 00000000 
FFFCA532 00000000 
FFFCA534 00000000 
FFFCA536 00000000 
FFFCA538 00000000 
FFFCA53A 00000000 
FFFCA53C 00000000 
FFFCA53E 00000000 
FFFCA540 00000000 
FFFCA542 00000000 
FFFCA544 00000000 
FFFCA546 00000000 
FFFCA548 00000000 
FFFCA54A 00000000 
FFFCA54C 00000000 
FFFCA54E 00000000 
FFFCA550 00000000 
FFFCA552 00000000 
FFFCA554 00000000 
FFFCA556 00000000 
FFFCA558 00000000 
FFFCA55A 00000000 
FFFCA55C 00000000 
FFFCA55E 00000000 
FFFCA560 00000000 
FFFCA562 00000000 
FFFCA564 00000000 
FFFCA566 00000000 
FFFCA568 00000000 
FFFCA56A 00000000 
FFFCA56C 00000000 
FFFCA56E 00000000 
FFFCA570 00000000 
FFFCA572 00000000 
FFFCA574 00000000 
FFFCA576 00000000 
FFFCA578 00000000 
FFFCA57A 00000000 
FFFCA57C 00000000 
FFFCA57E 00000000 
FFFCA580 00000000 
FFFCA582 00000000 
FFFCA584 00000000 
FFFCA586 00000000 
FFFCA588 00000000 
FFFCA58A 00000000 
FFFCA58C 00000000 
FFFCA58E 00000000 
FFFCA590 00000000 
FFFCA592 00000000 
FFFCA594 00000000 
FFFCA596 00000000 
FFFCA598 00000000 
FFFCA59A 00000000 
FFFCA59C 00000000 
FFFCA59E 00000000 
FFFCA5A0 00000000 
FFFCA5A2 00000000 
FFFCA5A4 00000000 
FFFCA5A6 00000000 
FFFCA5A8 00000000 
FFFCA5AA 00000000 
FFFCA5AC 00000000 
FFFCA5AE 00000000 
FFFCA5B0 00000000 
FFFCA5B2 00000000 
FFFCA5B4 00000000 
FFFCA5B6 00000000 
FFFCA5B8 00000000 
FFFCA5BA 00000000 
FFFCA5BC 00000000 
FFFCA5BE 00000000 
FFFCA5C0 00000000 
FFFCA5C2 00000000 
FFFCA5C4 00000000 
FFFCA5C6 00000000 
FFFCA5C8 00000000 
FFFCA5CA 00000000 
FFFCA5CC 00000000 
FFFCA5CE 00000000 
FFFCA5D0 00000000 
FFFCA5D2 00000000 
FFFCA5D4 00000000 
FFFCA5D6 00000000 
FFFCA5D8 00000000 
FFFCA5DA 00000000 
FFFCA5DC 00000000 
FFFCA5DE 00000000 
FFFCA5E0 00000000 
FFFCA5E2 00000000 
FFFCA5E4 00000000 
FFFCA5E6 00000000 
FFFCA5E8 00000000 
FFFCA5EA 00000000 
FFFCA5EC 00000000 
FFFCA5EE 00000000 
FFFCA5F0 00000000 
FFFCA5F2 00000000 
FFFCA5F4 00000000 
FFFCA5F6 00000000 
FFFCA5F8 00000000 
FFFCA5FA 00000000 
FFFCA5FC 00000000 
FFFCA5FE 00000000 
FFFCA600 00000000 
FFFCA602 00000000 
FFFCA604 00000000 
FFFCA606 00000000 
FFFCA608 00000000 
FFFCA60A 00000000 
FFFCA60C 00000000 
FFFCA60E 00000000 
FFFCA610 00000000 
FFFCA612 00000000 
FFFCA614 00000000 
FFFCA616 00000000 
FFFCA618 00000000 
FFFCA61A 00000000 
FFFCA61C 00000000 
FFFCA61E 00000000 
FFFCA620 00000000 
FFFCA622 00000000 
FFFCA624 00000000 
FFFCA626 00000000 
FFFCA628 00000000 
FFFCA62A 00000000 
FFFCA62C 00000000 
FFFCA62E 00000000 
FFFCA630 00000000 
FFFCA632 00000000 
FFFCA634 00000000 
FFFCA636 00000000 
FFFCA638 00000000 
FFFCA63A 00000000 
FFFCA63C 00000000 
FFFCA63E 00000000 
FFFCA640 00000000 
FFFCA642 00000000 
FFFCA644 00000000 
FFFCA646 00000000 
FFFCA648 00000000 
FFFCA64A 00000000 
FFFCA64C 00000000 
FFFCA64E 00000000 
FFFCA650 00000000 
FFFCA652 00000000 
FFFCA654 00000000 
FFFCA656 00000000 
FFFCA658 00000000 
FFFCA65A 00000000 
FFFCA65C 00000000 
FFFCA65E 00000000 
FFFCA660 00000000 
FFFCA662 00000000 
FFFCA664 00000000 
FFFCA666 00000000 
FFFCA668 00000000 
FFFCA66A 00000000 
FFFCA66C 00000000 
FFFCA66E 00000000 
FFFCA670 00000000 
FFFCA672 00000000 
FFFCA674 00000000 
FFFCA676 00000000 
FFFCA678 00000000 
FFFCA67A 00000000 
FFFCA67C 00000000 
FFFCA67E 00000000 
FFFCA680 00000000 
FFFCA682 00000000 
FFFCA684 00000000 
FFFCA686 00000000 
FFFCA688 00000000 
FFFCA68A 00000000 
FFFCA68C 00000000 
FFFCA68E 00000000 
FFFCA690 00000000 
FFFCA692 00000000 
FFFCA694 00000000 
FFFCA696 00000000 
FFFCA698 00000000 
FFFCA69A 00000000 
FFFCA69C 00000000 
FFFCA69E 00000000 
FFFCA6A0 00000000 
FFFCA6A2 00000000 
FFFCA6A4 00000000 
FFFCA6A6 00000000 
FFFCA6A8 00000000 
FFFCA6AA 00000000 
FFFCA6AC 00000000 
FFFCA6AE 00000000 
FFFCA6B0 00000000 
FFFCA6B2 00000000 
FFFCA6B4 00000000 
FFFCA6B6 00000000 
FFFCA6B8 00000000 
FFFCA6BA 00000000 
FFFCA6BC 00000000 
FFFCA6BE 00000000 
FFFCA6C0 00000000 
FFFCA6C2 00000000 
FFFCA6C4 00000000 
FFFCA6C6 00000000 
FFFCA6C8 00000000 
FFFCA6CA 00000000 
FFFCA6CC 00000000 
FFFCA6CE 00000000 
FFFCA6D0 00000000 
FFFCA6D2 00000000 
FFFCA6D4 00000000 
FFFCA6D6 00000000 
FFFCA6D8 00000000 
FFFCA6DA 00000000 
FFFCA6DC 00000000 
FFFCA6DE 00000000 
FFFCA6E0 00000000 
FFFCA6E2 00000000 
FFFCA6E4 00000000 
FFFCA6E6 00000000 
FFFCA6E8 00000000 
FFFCA6EA 00000000 
FFFCA6EC 00000000 
FFFCA6EE 00000000 
FFFCA6F0 00000000 
FFFCA6F2 00000000 
FFFCA6F4 00000000 
FFFCA6F6 00000000 
FFFCA6F8 00000000 
FFFCA6FA 00000000 
FFFCA6FC 00000000 
FFFCA6FE 00000000 
FFFCA700 00000000 
FFFCA702 00000000 
FFFCA704 00000000 
FFFCA706 00000000 
FFFCA708 00000000 
FFFCA70A 00000000 
FFFCA70C 00000000 
FFFCA70E 00000000 
FFFCA710 00000000 
FFFCA712 00000000 
FFFCA714 00000000 
FFFCA716 00000000 
FFFCA718 00000000 
FFFCA71A 00000000 
FFFCA71C 00000000 
FFFCA71E 00000000 
FFFCA720 00000000 
FFFCA722 00000000 
FFFCA724 00000000 
FFFCA726 00000000 
FFFCA728 00000000 
FFFCA72A 00000000 
FFFCA72C 00000000 
FFFCA72E 00000000 
FFFCA730 00000000 
FFFCA732 00000000 
FFFCA734 00000000 
FFFCA736 00000000 
FFFCA738 00000000 
FFFCA73A 00000000 
FFFCA73C 00000000 
FFFCA73E 00000000 
FFFCA740 00000000 
FFFCA742 00000000 
FFFCA744 00000000 
FFFCA746 00000000 
FFFCA748 00000000 
FFFCA74A 00000000 
FFFCA74C 00000000 
FFFCA74E 00000000 
FFFCA750 00000000 
FFFCA752 00000000 
FFFCA754 00000000 
FFFCA756 00000000 
FFFCA758 00000000 
FFFCA75A 00000000 
FFFCA75C 00000000 
FFFCA75E 00000000 
FFFCA760 00000000 
FFFCA762 00000000 
FFFCA764 00000000 
FFFCA766 00000000 
FFFCA768 00000000 
FFFCA76A 00000000 
FFFCA76C 00000000 
FFFCA76E 00000000 
FFFCA770 00000000 
FFFCA772 00000000 
FFFCA774 00000000 
FFFCA776 00000000 
FFFCA778 00000000 
FFFCA77A 00000000 
FFFCA77C 00000000 
FFFCA77E 00000000 
FFFCA780 00000000 
FFFCA782 00000000 
FFFCA784 00000000 
FFFCA786 00000000 
FFFCA788 00000000 
FFFCA78A 00000000 
FFFCA78C 00000000 
FFFCA78E 00000000 
FFFCA790 00000000 
FFFCA792 00000000 
FFFCA794 00000000 
FFFCA796 00000000 
FFFCA798 00000000 
FFFCA79A 00000000 
FFFCA79C 00000000 
FFFCA79E 00000000 
FFFCA7A0 00000000 
FFFCA7A2 00000000 
FFFCA7A4 00000000 
FFFCA7A6 00000000 
FFFCA7A8 00000000 
FFFCA7AA 00000000 
FFFCA7AC 00000000 
FFFCA7AE 00000000 
FFFCA7B0 00000000 
FFFCA7B2 00000000 
FFFCA7B4 00000000 
FFFCA7B6 00000000 
FFFCA7B8 00000000 
FFFCA7BA 00000000 
FFFCA7BC 00000000 
FFFCA7BE 00000000 
FFFCA7C0 00000000 
FFFCA7C2 00000000 
FFFCA7C4 00000000 
FFFCA7C6 00000000 
FFFCA7C8 00000000 
FFFCA7CA 00000000 
FFFCA7CC 00000000 
FFFCA7CE 00000000 
FFFCA7D0 00000000 
FFFCA7D2 00000000 
FFFCA7D4 00000000 
FFFCA7D6 00000000 
FFFCA7D8 00000000 
FFFCA7DA 00000000 
FFFCA7DC 00000000 
FFFCA7DE 00000000 
FFFCA7E0 00000000 
FFFCA7E2 00000000 
FFFCA7E4 00000000 
FFFCA7E6 00000000 
FFFCA7E8 00000000 
FFFCA7EA 00000000 
FFFCA7EC 00000000 
FFFCA7EE 00000000 
FFFCA7F0 00000000 
FFFCA7F2 00000000 
FFFCA7F4 00000000 
FFFCA7F6 00000000 
FFFCA7F8 00000000 
FFFCA7FA 00000000 
FFFCA7FC 00000000 
FFFCA7FE 00000000 
FFFCA800 00000000 
FFFCA802 00000000 
FFFCA804 00000000 
FFFCA806 00000000 
FFFCA808 00000000 
FFFCA80A 00000000 
FFFCA80C 00000000 
FFFCA80E 00000000 
FFFCA810 00000000 
FFFCA812 00000000 
FFFCA814 00000000 
FFFCA816 00000000 
FFFCA818 00000000 
FFFCA81A 00000000 
FFFCA81C 00000000 
FFFCA81E 00000000 
FFFCA820 00000000 
FFFCA822 00000000 
FFFCA824 00000000 
FFFCA826 00000000 
FFFCA828 00000000 
FFFCA82A 00000000 
FFFCA82C 00000000 
FFFCA82E 00000000 
FFFCA830 00000000 
FFFCA832 00000000 
FFFCA834 00000000 
FFFCA836 00000000 
FFFCA838 00000000 
FFFCA83A 00000000 
FFFCA83C 00000000 
FFFCA83E 00000000 
FFFCA840 00000000 
FFFCA842 00000000 
FFFCA844 00000000 
FFFCA846 00000000 
FFFCA848 00000000 
FFFCA84A 00000000 
FFFCA84C 00000000 
FFFCA84E 00000000 
FFFCA850 00000000 
FFFCA852 00000000 
FFFCA854 00000000 
FFFCA856 00000000 
FFFCA858 00000000 
FFFCA85A 00000000 
FFFCA85C 00000000 
FFFCA85E 00000000 
FFFCA860 00000000 
FFFCA862 00000000 
FFFCA864 00000000 
FFFCA866 00000000 
FFFCA868 00000000 
FFFCA86A 00000000 
FFFCA86C 00000000 
FFFCA86E 00000000 
FFFCA870 00000000 
FFFCA872 00000000 
FFFCA874 00000000 
FFFCA876 00000000 
FFFCA878 00000000 
FFFCA87A 00000000 
FFFCA87C 00000000 
FFFCA87E 00000000 
FFFCA880 00000000 
FFFCA882 00000000 
FFFCA884 00000000 
FFFCA886 00000000 
FFFCA888 00000000 
FFFCA88A 00000000 
FFFCA88C 00000000 
FFFCA88E 00000000 
FFFCA890 00000000 
FFFCA892 00000000 
FFFCA894 00000000 
FFFCA896 00000000 
FFFCA898 00000000 
FFFCA89A 00000000 
FFFCA89C 00000000 
FFFCA89E 00000000 
FFFCA8A0 00000000 
FFFCA8A2 00000000 
FFFCA8A4 00000000 
FFFCA8A6 00000000 
FFFCA8A8 00000000 
FFFCA8AA 00000000 
FFFCA8AC 00000000 
FFFCA8AE 00000000 
FFFCA8B0 00000000 
FFFCA8B2 00000000 
FFFCA8B4 00000000 
FFFCA8B6 00000000 
FFFCA8B8 00000000 
FFFCA8BA 00000000 
FFFCA8BC 00000000 
FFFCA8BE 00000000 
FFFCA8C0 00000000 
FFFCA8C2 00000000 
FFFCA8C4 00000000 
FFFCA8C6 00000000 
FFFCA8C8 00000000 
FFFCA8CA 00000000 
FFFCA8CC 00000000 
FFFCA8CE 00000000 
FFFCA8D0 00000000 
FFFCA8D2 00000000 
FFFCA8D4 00000000 
FFFCA8D6 00000000 
FFFCA8D8 00000000 
FFFCA8DA 00000000 
FFFCA8DC 00000000 
FFFCA8DE 00000000 
FFFCA8E0 00000000 
FFFCA8E2 00000000 
FFFCA8E4 00000000 
FFFCA8E6 00000000 
FFFCA8E8 00000000 
FFFCA8EA 00000000 
FFFCA8EC 00000000 
FFFCA8EE 00000000 
FFFCA8F0 00000000 
FFFCA8F2 00000000 
FFFCA8F4 00000000 
FFFCA8F6 00000000 
FFFCA8F8 00000000 
FFFCA8FA 00000000 
FFFCA8FC 00000000 
FFFCA8FE 00000000 
FFFCA900 00000000 
FFFCA902 00000000 
FFFCA904 00000000 
FFFCA906 00000000 
FFFCA908 00000000 
FFFCA90A 00000000 
FFFCA90C 00000000 
FFFCA90E 00000000 
FFFCA910 00000000 
FFFCA912 00000000 
FFFCA914 00000000 
FFFCA916 00000000 
FFFCA918 00000000 
FFFCA91A 00000000 
FFFCA91C 00000000 
FFFCA91E 00000000 
FFFCA920 00000000 
FFFCA922 00000000 
FFFCA924 00000000 
FFFCA926 00000000 
FFFCA928 00000000 
FFFCA92A 00000000 
FFFCA92C 00000000 
FFFCA92E 00000000 
FFFCA930 00000000 
FFFCA932 00000000 
FFFCA934 00000000 
FFFCA936 00000000 
FFFCA938 00000000 
FFFCA93A 00000000 
FFFCA93C 00000000 
FFFCA93E 00000000 
FFFCA940 00000000 
FFFCA942 00000000 
FFFCA944 00000000 
FFFCA946 00000000 
FFFCA948 00000000 
FFFCA94A 00000000 
FFFCA94C 00000000 
FFFCA94E 00000000 
FFFCA950 00000000 
FFFCA952 00000000 
FFFCA954 00000000 
FFFCA956 00000000 
FFFCA958 00000000 
FFFCA95A 00000000 
FFFCA95C 00000000 
FFFCA95E 00000000 
FFFCA960 00000000 
FFFCA962 00000000 
FFFCA964 00000000 
FFFCA966 00000000 
FFFCA968 00000000 
FFFCA96A 00000000 
FFFCA96C 00000000 
FFFCA96E 00000000 
FFFCA970 00000000 
FFFCA972 00000000 
FFFCA974 00000000 
FFFCA976 00000000 
FFFCA978 00000000 
FFFCA97A 00000000 
FFFCA97C 00000000 
FFFCA97E 00000000 
FFFCA980 00000000 
FFFCA982 00000000 
FFFCA984 00000000 
FFFCA986 00000000 
FFFCA988 00000000 
FFFCA98A 00000000 
FFFCA98C 00000000 
FFFCA98E 00000000 
FFFCA990 00000000 
FFFCA992 00000000 
FFFCA994 00000000 
FFFCA996 00000000 
FFFCA998 00000000 
FFFCA99A 00000000 
FFFCA99C 00000000 
FFFCA99E 00000000 
FFFCA9A0 00000000 
FFFCA9A2 00000000 
FFFCA9A4 00000000 
FFFCA9A6 00000000 
FFFCA9A8 00000000 
FFFCA9AA 00000000 
FFFCA9AC 00000000 
FFFCA9AE 00000000 
FFFCA9B0 00000000 
FFFCA9B2 00000000 
FFFCA9B4 00000000 
FFFCA9B6 00000000 
FFFCA9B8 00000000 
FFFCA9BA 00000000 
FFFCA9BC 00000000 
FFFCA9BE 00000000 
FFFCA9C0 00000000 
FFFCA9C2 00000000 
FFFCA9C4 00000000 
FFFCA9C6 00000000 
FFFCA9C8 00000000 
FFFCA9CA 00000000 
FFFCA9CC 00000000 
FFFCA9CE 00000000 
FFFCA9D0 00000000 
FFFCA9D2 00000000 
FFFCA9D4 00000000 
FFFCA9D6 00000000 
FFFCA9D8 00000000 
FFFCA9DA 00000000 
FFFCA9DC 00000000 
FFFCA9DE 00000000 
FFFCA9E0 00000000 
FFFCA9E2 00000000 
FFFCA9E4 00000000 
FFFCA9E6 00000000 
FFFCA9E8 00000000 
FFFCA9EA 00000000 
FFFCA9EC 00000000 
FFFCA9EE 00000000 
FFFCA9F0 00000000 
FFFCA9F2 00000000 
FFFCA9F4 00000000 
FFFCA9F6 00000000 
FFFCA9F8 00000000 
FFFCA9FA 00000000 
FFFCA9FC 00000000 
FFFCA9FE 00000000 
FFFCAA00 00000000 
FFFCAA02 00000000 
FFFCAA04 00000000 
FFFCAA06 00000000 
FFFCAA08 00000000 
FFFCAA0A 00000000 
FFFCAA0C 00000000 
FFFCAA0E 00000000 
FFFCAA10 00000000 
FFFCAA12 00000000 
FFFCAA14 00000000 
FFFCAA16 00000000 
FFFCAA18 00000000 
FFFCAA1A 00000000 
FFFCAA1C 00000000 
FFFCAA1E 00000000 
FFFCAA20 00000000 
FFFCAA22 00000000 
FFFCAA24 00000000 
FFFCAA26 00000000 
FFFCAA28 00000000 
FFFCAA2A 00000000 
FFFCAA2C 00000000 
FFFCAA2E 00000000 
FFFCAA30 00000000 
FFFCAA32 00000000 
FFFCAA34 00000000 
FFFCAA36 00000000 
FFFCAA38 00000000 
FFFCAA3A 00000000 
FFFCAA3C 00000000 
FFFCAA3E 00000000 
FFFCAA40 00000000 
FFFCAA42 00000000 
FFFCAA44 00000000 
FFFCAA46 00000000 
FFFCAA48 00000000 
FFFCAA4A 00000000 
FFFCAA4C 00000000 
FFFCAA4E 00000000 
FFFCAA50 00000000 
FFFCAA52 00000000 
FFFCAA54 00000000 
FFFCAA56 00000000 
FFFCAA58 00000000 
FFFCAA5A 00000000 
FFFCAA5C 00000000 
FFFCAA5E 00000000 
FFFCAA60 00000000 
FFFCAA62 00000000 
FFFCAA64 00000000 
FFFCAA66 00000000 
FFFCAA68 00000000 
FFFCAA6A 00000000 
FFFCAA6C 00000000 
FFFCAA6E 00000000 
FFFCAA70 00000000 
FFFCAA72 00000000 
FFFCAA74 00000000 
FFFCAA76 00000000 
FFFCAA78 00000000 
FFFCAA7A 00000000 
FFFCAA7C 00000000 
FFFCAA7E 00000000 
FFFCAA80 00000000 
FFFCAA82 00000000 
FFFCAA84 00000000 
FFFCAA86 00000000 
FFFCAA88 00000000 
FFFCAA8A 00000000 
FFFCAA8C 00000000 
FFFCAA8E 00000000 
FFFCAA90 00000000 
FFFCAA92 00000000 
FFFCAA94 00000000 
FFFCAA96 00000000 
FFFCAA98 00000000 
FFFCAA9A 00000000 
FFFCAA9C 00000000 
FFFCAA9E 00000000 
FFFCAAA0 00000000 
FFFCAAA2 00000000 
FFFCAAA4 00000000 
FFFCAAA6 00000000 
FFFCAAA8 00000000 
FFFCAAAA 00000000 
FFFCAAAC 00000000 
FFFCAAAE 00000000 
FFFCAAB0 00000000 
FFFCAAB2 00000000 
FFFCAAB4 00000000 
FFFCAAB6 00000000 
FFFCAAB8 00000000 
FFFCAABA 00000000 
FFFCAABC 00000000 
FFFCAABE 00000000 
FFFCAAC0 00000000 
FFFCAAC2 00000000 
FFFCAAC4 00000000 
FFFCAAC6 00000000 
FFFCAAC8 00000000 
FFFCAACA 00000000 
FFFCAACC 00000000 
FFFCAACE 00000000 
FFFCAAD0 00000000 
FFFCAAD2 00000000 
FFFCAAD4 00000000 
FFFCAAD6 00000000 
FFFCAAD8 00000000 
FFFCAADA 00000000 
FFFCAADC 00000000 
FFFCAADE 00000000 
FFFCAAE0 00000000 
FFFCAAE2 00000000 
FFFCAAE4 00000000 
FFFCAAE6 00000000 
FFFCAAE8 00000000 
FFFCAAEA 00000000 
FFFCAAEC 00000000 
FFFCAAEE 00000000 
FFFCAAF0 00000000 
FFFCAAF2 00000000 
FFFCAAF4 00000000 
FFFCAAF6 00000000 
FFFCAAF8 00000000 
FFFCAAFA 00000000 
FFFCAAFC 00000000 
FFFCAAFE 00000000 
FFFCAB00 00000000 
FFFCAB02 00000000 
FFFCAB04 00000000 
FFFCAB06 00000000 
FFFCAB08 00000000 
FFFCAB0A 00000000 
FFFCAB0C 00000000 
FFFCAB0E 00000000 
FFFCAB10 00000000 
FFFCAB12 00000000 
FFFCAB14 00000000 
FFFCAB16 00000000 
FFFCAB18 00000000 
FFFCAB1A 00000000 
FFFCAB1C 00000000 
FFFCAB1E 00000000 
FFFCAB20 00000000 
FFFCAB22 00000000 
FFFCAB24 00000000 
FFFCAB26 00000000 
FFFCAB28 00000000 
FFFCAB2A 00000000 
FFFCAB2C 00000000 
FFFCAB2E 00000000 
FFFCAB30 00000000 
FFFCAB32 00000000 
FFFCAB34 00000000 
FFFCAB36 00000000 
FFFCAB38 00000000 
FFFCAB3A 00000000 
FFFCAB3C 00000000 
FFFCAB3E 00000000 
FFFCAB40 00000000 
FFFCAB42 00000000 
FFFCAB44 00000000 
FFFCAB46 00000000 
FFFCAB48 00000000 
FFFCAB4A 00000000 
FFFCAB4C 00000000 
FFFCAB4E 00000000 
FFFCAB50 00000000 
FFFCAB52 00000000 
FFFCAB54 00000000 
FFFCAB56 00000000 
FFFCAB58 00000000 
FFFCAB5A 00000000 
FFFCAB5C 00000000 
FFFCAB5E 00000000 
FFFCAB60 00000000 
FFFCAB62 00000000 
FFFCAB64 00000000 
FFFCAB66 00000000 
FFFCAB68 00000000 
FFFCAB6A 00000000 
FFFCAB6C 00000000 
FFFCAB6E 00000000 
FFFCAB70 00000000 
FFFCAB72 00000000 
FFFCAB74 00000000 
FFFCAB76 00000000 
FFFCAB78 00000000 
FFFCAB7A 00000000 
FFFCAB7C 00000000 
FFFCAB7E 00000000 
FFFCAB80 00000000 
FFFCAB82 00000000 
FFFCAB84 00000000 
FFFCAB86 00000000 
FFFCAB88 00000000 
FFFCAB8A 00000000 
FFFCAB8C 00000000 
FFFCAB8E 00000000 
FFFCAB90 00000000 
FFFCAB92 00000000 
FFFCAB94 00000000 
FFFCAB96 00000000 
FFFCAB98 00000000 
FFFCAB9A 00000000 
FFFCAB9C 00000000 
FFFCAB9E 00000000 
FFFCABA0 00000000 
FFFCABA2 00000000 
FFFCABA4 00000000 
FFFCABA6 00000000 
FFFCABA8 00000000 
FFFCABAA 00000000 
FFFCABAC 00000000 
FFFCABAE 00000000 
FFFCABB0 00000000 
FFFCABB2 00000000 
FFFCABB4 00000000 
FFFCABB6 00000000 
FFFCABB8 00000000 
FFFCABBA 00000000 
FFFCABBC 00000000 
FFFCABBE 00000000 
FFFCABC0 00000000 
FFFCABC2 00000000 
FFFCABC4 00000000 
FFFCABC6 00000000 
FFFCABC8 00000000 
FFFCABCA 00000000 
FFFCABCC 00000000 
FFFCABCE 00000000 
FFFCABD0 00000000 
FFFCABD2 00000000 
FFFCABD4 00000000 
FFFCABD6 00000000 
FFFCABD8 00000000 
FFFCABDA 00000000 
FFFCABDC 00000000 
FFFCABDE 00000000 
FFFCABE0 00000000 
FFFCABE2 00000000 
FFFCABE4 00000000 
FFFCABE6 00000000 
FFFCABE8 00000000 
FFFCABEA 00000000 
FFFCABEC 00000000 
FFFCABEE 00000000 
FFFCABF0 00000000 
FFFCABF2 00000000 
FFFCABF4 00000000 
FFFCABF6 00000000 
FFFCABF8 00000000 
FFFCABFA 00000000 
FFFCABFC 00000000 
FFFCABFE 00000000 
FFFCAC00 00000000 
FFFCAC02 00000000 
FFFCAC04 00000000 
FFFCAC06 00000000 
FFFCAC08 00000000 
FFFCAC0A 00000000 
FFFCAC0C 00000000 
FFFCAC0E 00000000 
FFFCAC10 00000000 
FFFCAC12 00000000 
FFFCAC14 00000000 
FFFCAC16 00000000 
FFFCAC18 00000000 
FFFCAC1A 00000000 
FFFCAC1C 00000000 
FFFCAC1E 00000000 
FFFCAC20 00000000 
FFFCAC22 00000000 
FFFCAC24 00000000 
FFFCAC26 00000000 
FFFCAC28 00000000 
FFFCAC2A 00000000 
FFFCAC2C 00000000 
FFFCAC2E 00000000 
FFFCAC30 00000000 
FFFCAC32 00000000 
FFFCAC34 00000000 
FFFCAC36 00000000 
FFFCAC38 00000000 
FFFCAC3A 00000000 
FFFCAC3C 00000000 
FFFCAC3E 00000000 
FFFCAC40 00000000 
FFFCAC42 00000000 
FFFCAC44 00000000 
FFFCAC46 00000000 
FFFCAC48 00000000 
FFFCAC4A 00000000 
FFFCAC4C 00000000 
FFFCAC4E 00000000 
FFFCAC50 00000000 
FFFCAC52 00000000 
FFFCAC54 00000000 
FFFCAC56 00000000 
FFFCAC58 00000000 
FFFCAC5A 00000000 
FFFCAC5C 00000000 
FFFCAC5E 00000000 
FFFCAC60 00000000 
FFFCAC62 00000000 
FFFCAC64 00000000 
FFFCAC66 00000000 
FFFCAC68 00000000 
FFFCAC6A 00000000 
FFFCAC6C 00000000 
FFFCAC6E 00000000 
FFFCAC70 00000000 
FFFCAC72 00000000 
FFFCAC74 00000000 
FFFCAC76 00000000 
FFFCAC78 00000000 
FFFCAC7A 00000000 
FFFCAC7C 00000000 
FFFCAC7E 00000000 
FFFCAC80 00000000 
FFFCAC82 00000000 
FFFCAC84 00000000 
FFFCAC86 00000000 
FFFCAC88 00000000 
FFFCAC8A 00000000 
FFFCAC8C 00000000 
FFFCAC8E 00000000 
FFFCAC90 00000000 
FFFCAC92 00000000 
FFFCAC94 00000000 
FFFCAC96 00000000 
FFFCAC98 00000000 
FFFCAC9A 00000000 
FFFCAC9C 00000000 
FFFCAC9E 00000000 
FFFCACA0 00000000 
FFFCACA2 00000000 
FFFCACA4 00000000 
FFFCACA6 00000000 
FFFCACA8 00000000 
FFFCACAA 00000000 
FFFCACAC 00000000 
FFFCACAE 00000000 
FFFCACB0 00000000 
FFFCACB2 00000000 
FFFCACB4 00000000 
FFFCACB6 00000000 
FFFCACB8 00000000 
FFFCACBA 00000000 
FFFCACBC 00000000 
FFFCACBE 00000000 
FFFCACC0 00000000 
FFFCACC2 00000000 
FFFCACC4 00000000 
FFFCACC6 00000000 
FFFCACC8 00000000 
FFFCACCA 00000000 
FFFCACCC 00000000 
FFFCACCE 00000000 
FFFCACD0 00000000 
FFFCACD2 00000000 
FFFCACD4 00000000 
FFFCACD6 00000000 
FFFCACD8 00000000 
FFFCACDA 00000000 
FFFCACDC 00000000 
FFFCACDE 00000000 
FFFCACE0 00000000 
FFFCACE2 00000000 
FFFCACE4 00000000 
FFFCACE6 00000000 
FFFCACE8 00000000 
FFFCACEA 00000000 
FFFCACEC 00000000 
FFFCACEE 00000000 
FFFCACF0 00000000 
FFFCACF2 00000000 
FFFCACF4 00000000 
FFFCACF6 00000000 
FFFCACF8 00000000 
FFFCACFA 00000000 
FFFCACFC 00000000 
FFFCACFE 00000000 
FFFCAD00 00000000 
FFFCAD02 00000000 
FFFCAD04 00000000 
FFFCAD06 00000000 
FFFCAD08 00000000 
FFFCAD0A 00000000 
FFFCAD0C 00000000 
FFFCAD0E 00000000 
FFFCAD10 00000000 
FFFCAD12 00000000 
FFFCAD14 00000000 
FFFCAD16 00000000 
FFFCAD18 00000000 
FFFCAD1A 00000000 
FFFCAD1C 00000000 
FFFCAD1E 00000000 
FFFCAD20 00000000 
FFFCAD22 00000000 
FFFCAD24 00000000 
FFFCAD26 00000000 
FFFCAD28 00000000 
FFFCAD2A 00000000 
FFFCAD2C 00000000 
FFFCAD2E 00000000 
FFFCAD30 00000000 
FFFCAD32 00000000 
FFFCAD34 00000000 
FFFCAD36 00000000 
FFFCAD38 00000000 
FFFCAD3A 00000000 
FFFCAD3C 00000000 
FFFCAD3E 00000000 
FFFCAD40 00000000 
FFFCAD42 00000000 
FFFCAD44 00000000 
FFFCAD46 00000000 
FFFCAD48 00000000 
FFFCAD4A 00000000 
FFFCAD4C 00000000 
FFFCAD4E 00000000 
FFFCAD50 00000000 
FFFCAD52 00000000 
FFFCAD54 00000000 
FFFCAD56 00000000 
FFFCAD58 00000000 
FFFCAD5A 00000000 
FFFCAD5C 00000000 
FFFCAD5E 00000000 
FFFCAD60 00000000 
FFFCAD62 00000000 
FFFCAD64 00000000 
FFFCAD66 00000000 
FFFCAD68 00000000 
FFFCAD6A 00000000 
FFFCAD6C 00000000 
FFFCAD6E 00000000 
FFFCAD70 00000000 
FFFCAD72 00000000 
FFFCAD74 00000000 
FFFCAD76 00000000 
FFFCAD78 00000000 
FFFCAD7A 00000000 
FFFCAD7C 00000000 
FFFCAD7E 00000000 
FFFCAD80 00000000 
FFFCAD82 00000000 
FFFCAD84 00000000 
FFFCAD86 00000000 
FFFCAD88 00000000 
FFFCAD8A 00000000 
FFFCAD8C 00000000 
FFFCAD8E 00000000 
FFFCAD90 00000000 
FFFCAD92 00000000 
FFFCAD94 00000000 
FFFCAD96 00000000 
FFFCAD98 00000000 
FFFCAD9A 00000000 
FFFCAD9C 00000000 
FFFCAD9E 00000000 
FFFCADA0 00000000 
FFFCADA2 00000000 
FFFCADA4 00000000 
FFFCADA6 00000000 
FFFCADA8 00000000 
FFFCADAA 00000000 
FFFCADAC 00000000 
FFFCADAE 00000000 
FFFCADB0 00000000 
FFFCADB2 00000000 
FFFCADB4 00000000 
FFFCADB6 00000000 
FFFCADB8 00000000 
FFFCADBA 00000000 
FFFCADBC 00000000 
FFFCADBE 00000000 
FFFCADC0 00000000 
FFFCADC2 00000000 
FFFCADC4 00000000 
FFFCADC6 00000000 
FFFCADC8 00000000 
FFFCADCA 00000000 
FFFCADCC 00000000 
FFFCADCE 00000000 
FFFCADD0 00000000 
FFFCADD2 00000000 
FFFCADD4 00000000 
FFFCADD6 00000000 
FFFCADD8 00000000 
FFFCADDA 00000000 
FFFCADDC 00000000 
FFFCADDE 00000000 
FFFCADE0 00000000 
FFFCADE2 00000000 
FFFCADE4 00000000 
FFFCADE6 00000000 
FFFCADE8 00000000 
FFFCADEA 00000000 
FFFCADEC 00000000 
FFFCADEE 00000000 
FFFCADF0 00000000 
FFFCADF2 00000000 
FFFCADF4 00000000 
FFFCADF6 00000000 
FFFCADF8 00000000 
FFFCADFA 00000000 
FFFCADFC 00000000 
FFFCADFE 00000000 
FFFCAE00 00000000 
FFFCAE02 00000000 
FFFCAE04 00000000 
FFFCAE06 00000000 
FFFCAE08 00000000 
FFFCAE0A 00000000 
FFFCAE0C 00000000 
FFFCAE0E 00000000 
FFFCAE10 00000000 
FFFCAE12 00000000 
FFFCAE14 00000000 
FFFCAE16 00000000 
FFFCAE18 00000000 
FFFCAE1A 00000000 
FFFCAE1C 00000000 
FFFCAE1E 00000000 
FFFCAE20 00000000 
FFFCAE22 00000000 
FFFCAE24 00000000 
FFFCAE26 00000000 
FFFCAE28 00000000 
FFFCAE2A 00000000 
FFFCAE2C 00000000 
FFFCAE2E 00000000 
FFFCAE30 00000000 
FFFCAE32 00000000 
FFFCAE34 00000000 
FFFCAE36 00000000 
FFFCAE38 00000000 
FFFCAE3A 00000000 
FFFCAE3C 00000000 
FFFCAE3E 00000000 
FFFCAE40 00000000 
FFFCAE42 00000000 
FFFCAE44 00010000 
                        		align	2                        	
                        	IOFocusc_0:
FFFCCC88 00000001 		db	1
                        	
FFFCA002 00000000 		align 
FFFCA004 00000000 
                        	
                        	end_init_data:
FFFCA008 00000000 		data
FFFCA00A 00000000 
FFFCA00C 00000000 
FFFCA00E 00000000 
FFFCA010 00000000 
FFFCA012 00000000 
FFFCA014 00000000 
FFFCA016 00000000 
FFFCA018 00000000 
FFFCA01A 00000000 
FFFCA01C 00000000 
FFFCA01E 00000000 
FFFCA020 00000000 
FFFCA022 00000000 
FFFCA024 00000000 
FFFCA026 00000000 
FFFCA028 00000000 
FFFCA02A 00000000 
FFFCA02C 00000000 
FFFCA02E 00000000 
FFFCA030 00000000 
FFFCA032 00000000 
FFFCA034 00000000 
FFFCA036 00000000 
FFFCA038 00000000 
FFFCA03A 00000000 
FFFCA03C 00000000 
FFFCA03E 00000000 
FFFCA040 00000000 
FFFCA042 00000000 
FFFCA044 00000000 
FFFCA046 00000000 
FFFCA048 00000000 
FFFCA04A 00000000 
FFFCA04C 00000000 
FFFCA04E 00000000 
FFFCA050 00000000 
FFFCA052 00000000 
FFFCA054 00000000 
FFFCA056 00000000 
FFFCA058 00000000 
FFFCA05A 00000000 
FFFCA05C 00000000 
FFFCA05E 00000000 
FFFCA060 00000000 
FFFCA062 00000000 
FFFCA064 00000000 
FFFCA066 00000000 
FFFCA068 00000000 
FFFCA06A 00000000 
FFFCA06C 00000000 
FFFCA06E 00000000 
FFFCA070 00000000 
FFFCA072 00000000 
FFFCA074 00000000 
FFFCA076 00000000 
FFFCA078 00000000 
FFFCA07A 00000000 
FFFCA07C 00000000 
FFFCA07E 00000000 
FFFCA080 00000000 
FFFCA082 00000000 
FFFCA084 00000000 
FFFCA086 00000000 
FFFCA088 00000000 
FFFCA08A 00000000 
FFFCA08C 00000000 
FFFCA08E 00000000 
FFFCA090 00000000 
FFFCA092 00000000 
FFFCA094 00000000 
FFFCA096 00000000 
FFFCA098 00000000 
FFFCA09A 00000000 
FFFCA09C 00000000 
FFFCA09E 00000000 
FFFCA0A0 00000000 
FFFCA0A2 00000000 
FFFCA0A4 00000000 
FFFCA0A6 00000000 
FFFCA0A8 00000000 
FFFCA0AA 00000000 
FFFCA0AC 00000000 
FFFCA0AE 00000000 
FFFCA0B0 00000000 
FFFCA0B2 00000000 
FFFCA0B4 00000000 
FFFCA0B6 00000000 
FFFCA0B8 00000000 
FFFCA0BA 00000000 
FFFCA0BC 00000000 
FFFCA0BE 00000000 
FFFCA0C0 00000000 
FFFCA0C2 00000000 
FFFCA0C4 00000000 
FFFCA0C6 00000000 
FFFCA0C8 00000000 
FFFCA0CA 00000000 
FFFCA0CC 00000000 
FFFCA0CE 00000000 
FFFCA0D0 00000000 
FFFCA0D2 00000000 
FFFCA0D4 00000000 
FFFCA0D6 00000000 
FFFCA0D8 00000000 
FFFCA0DA 00000000 
FFFCA0DC 00000000 
FFFCA0DE 00000000 
FFFCA0E0 00000000 
FFFCA0E2 00000000 
FFFCA0E4 00000000 
FFFCA0E6 00000000 
FFFCA0E8 00000000 
FFFCA0EA 00000000 
FFFCA0EC 00000000 
FFFCA0EE 00000000 
FFFCA0F0 00000000 
FFFCA0F2 00000000 
FFFCA0F4 00000000 
FFFCA0F6 00000000 
FFFCA0F8 00000000 
FFFCA0FA 00000000 
FFFCA0FC 00000000 
FFFCA0FE 00000000 
FFFCA100 00000000 
FFFCA102 00000000 
FFFCA104 00000000 
FFFCA106 00000000 
FFFCA108 00000000 
FFFCA10A 00000000 
FFFCA10C 00000000 
FFFCA10E 00000000 
FFFCA110 00000000 
FFFCA112 00000000 
FFFCA114 00000000 
FFFCA116 00000000 
FFFCA118 00000000 
FFFCA11A 00000000 
FFFCA11C 00000000 
FFFCA11E 00000000 
FFFCA120 00000000 
FFFCA122 00000000 
FFFCA124 00000000 
FFFCA126 00000000 
FFFCA128 00000000 
FFFCA12A 00000000 
FFFCA12C 00000000 
FFFCA12E 00000000 
FFFCA130 00000000 
FFFCA132 00000000 
FFFCA134 00000000 
FFFCA136 00000000 
FFFCA138 00000000 
FFFCA13A 00000000 
FFFCA13C 00000000 
FFFCA13E 00000000 
FFFCA140 00000000 
FFFCA142 00000000 
FFFCA144 00000000 
FFFCA146 00000000 
FFFCA148 00000000 
FFFCA14A 00000000 
FFFCA14C 00000000 
FFFCA14E 00000000 
FFFCA150 00000000 
FFFCA152 00000000 
FFFCA154 00000000 
FFFCA156 00000000 
FFFCA158 00000000 
FFFCA15A 00000000 
FFFCA15C 00000000 
FFFCA15E 00000000 
FFFCA160 00000000 
FFFCA162 00000000 
FFFCA164 00000000 
FFFCA166 00000000 
FFFCA168 00000000 
FFFCA16A 00000000 
FFFCA16C 00000000 
FFFCA16E 00000000 
FFFCA170 00000000 
FFFCA172 00000000 
FFFCA174 00000000 
FFFCA176 00000000 
FFFCA178 00000000 
FFFCA17A 00000000 
FFFCA17C 00000000 
FFFCA17E 00000000 
FFFCA180 00000000 
FFFCA182 00000000 
FFFCA184 00000000 
FFFCA186 00000000 
FFFCA188 00000000 
FFFCA18A 00000000 
FFFCA18C 00000000 
FFFCA18E 00000000 
FFFCA190 00000000 
FFFCA192 00000000 
FFFCA194 00000000 
FFFCA196 00000000 
FFFCA198 00000000 
FFFCA19A 00000000 
FFFCA19C 00000000 
FFFCA19E 00000000 
FFFCA1A0 00000000 
FFFCA1A2 00000000 
FFFCA1A4 00000000 
FFFCA1A6 00000000 
FFFCA1A8 00000000 
FFFCA1AA 00000000 
FFFCA1AC 00000000 
FFFCA1AE 00000000 
FFFCA1B0 00000000 
FFFCA1B2 00000000 
FFFCA1B4 00000000 
FFFCA1B6 00000000 
FFFCA1B8 00000000 
FFFCA1BA 00000000 
FFFCA1BC 00000000 
FFFCA1BE 00000000 
FFFCA1C0 00000000 
FFFCA1C2 00000000 
FFFCA1C4 00000000 
FFFCA1C6 00000000 
FFFCA1C8 00000000 
FFFCA1CA 00000000 
FFFCA1CC 00000000 
FFFCA1CE 00000000 
FFFCA1D0 00000000 
FFFCA1D2 00000000 
FFFCA1D4 00000000 
FFFCA1D6 00000000 
FFFCA1D8 00000000 
FFFCA1DA 00000000 
FFFCA1DC 00000000 
FFFCA1DE 00000000 
FFFCA1E0 00000000 
FFFCA1E2 00000000 
FFFCA1E4 00000000 
FFFCA1E6 00000000 
FFFCA1E8 00000000 
FFFCA1EA 00000000 
FFFCA1EC 00000000 
FFFCA1EE 00000000 
FFFCA1F0 00000000 
FFFCA1F2 00000000 
FFFCA1F4 00000000 
FFFCA1F6 00000000 
FFFCA1F8 00000000 
FFFCA1FA 00000000 
FFFCA1FC 00000000 
FFFCA1FE 00000000 
FFFCA200 00000000 
FFFCA202 00000000 
FFFCA204 00000000 
FFFCA206 00000000 
FFFCA208 00000000 
FFFCA20A 00000000 
FFFCA20C 00000000 
FFFCA20E 00000000 
FFFCA210 00000000 
FFFCA212 00000000 
FFFCA214 00000000 
FFFCA216 00000000 
FFFCA218 00000000 
FFFCA21A 00000000 
FFFCA21C 00000000 
FFFCA21E 00000000 
FFFCA220 00000000 
FFFCA222 00000000 
FFFCA224 00000000 
FFFCA226 00000000 
FFFCA228 00000000 
FFFCA22A 00000000 
FFFCA22C 00000000 
FFFCA22E 00000000 
FFFCA230 00000000 
FFFCA232 00000000 
FFFCA234 00000000 
FFFCA236 00000000 
FFFCA238 00000000 
FFFCA23A 00000000 
FFFCA23C 00000000 
FFFCA23E 00000000 
FFFCA240 00000000 
FFFCA242 00000000 
FFFCA244 00000000 
FFFCA246 00000000 
FFFCA248 00000000 
FFFCA24A 00000000 
FFFCA24C 00000000 
FFFCA24E 00000000 
FFFCA250 00000000 
FFFCA252 00000000 
FFFCA254 00000000 
FFFCA256 00000000 
FFFCA258 00000000 
FFFCA25A 00000000 
FFFCA25C 00000000 
FFFCA25E 00000000 
FFFCA260 00000000 
FFFCA262 00000000 
FFFCA264 00000000 
FFFCA266 00000000 
FFFCA268 00000000 
FFFCA26A 00000000 
FFFCA26C 00000000 
FFFCA26E 00000000 
FFFCA270 00000000 
FFFCA272 00000000 
FFFCA274 00000000 
FFFCA276 00000000 
FFFCA278 00000000 
FFFCA27A 00000000 
FFFCA27C 00000000 
FFFCA27E 00000000 
FFFCA280 00000000 
FFFCA282 00000000 
FFFCA284 00000000 
FFFCA286 00000000 
FFFCA288 00000000 
FFFCA28A 00000000 
FFFCA28C 00000000 
FFFCA28E 00000000 
FFFCA290 00000000 
FFFCA292 00000000 
FFFCA294 00000000 
FFFCA296 00000000 
FFFCA298 00000000 
FFFCA29A 00000000 
FFFCA29C 00000000 
FFFCA29E 00000000 
FFFCA2A0 00000000 
FFFCA2A2 00000000 
FFFCA2A4 00000000 
FFFCA2A6 00000000 
FFFCA2A8 00000000 
FFFCA2AA 00000000 
FFFCA2AC 00000000 
FFFCA2AE 00000000 
FFFCA2B0 00000000 
FFFCA2B2 00000000 
FFFCA2B4 00000000 
FFFCA2B6 00000000 
FFFCA2B8 00000000 
FFFCA2BA 00000000 
FFFCA2BC 00000000 
FFFCA2BE 00000000 
FFFCA2C0 00000000 
FFFCA2C2 00000000 
FFFCA2C4 00000000 
FFFCA2C6 00000000 
FFFCA2C8 00000000 
FFFCA2CA 00000000 
FFFCA2CC 00000000 
FFFCA2CE 00000000 
FFFCA2D0 00000000 
FFFCA2D2 00000000 
FFFCA2D4 00000000 
FFFCA2D6 00000000 
FFFCA2D8 00000000 
FFFCA2DA 00000000 
FFFCA2DC 00000000 
FFFCA2DE 00000000 
FFFCA2E0 00000000 
FFFCA2E2 00000000 
FFFCA2E4 00000000 
FFFCA2E6 00000000 
FFFCA2E8 00000000 
FFFCA2EA 00000000 
FFFCA2EC 00000000 
FFFCA2EE 00000000 
FFFCA2F0 00000000 
FFFCA2F2 00000000 
FFFCA2F4 00000000 
FFFCA2F6 00000000 
FFFCA2F8 00000000 
FFFCA2FA 00000000 
FFFCA2FC 00000000 
FFFCA2FE 00000000 
FFFCA300 00000000 
FFFCA302 00000000 
FFFCA304 00000000 
FFFCA306 00000000 
FFFCA308 00000000 
FFFCA30A 00000000 
FFFCA30C 00000000 
FFFCA30E 00000000 
FFFCA310 00000000 
FFFCA312 00000000 
FFFCA314 00000000 
FFFCA316 00000000 
FFFCA318 00000000 
FFFCA31A 00000000 
FFFCA31C 00000000 
FFFCA31E 00000000 
FFFCA320 00000000 
FFFCA322 00000000 
FFFCA324 00000000 
FFFCA326 00000000 
FFFCA328 00000000 
FFFCA32A 00000000 
FFFCA32C 00000000 
FFFCA32E 00000000 
FFFCA330 00000000 
FFFCA332 00000000 
FFFCA334 00000000 
FFFCA336 00000000 
FFFCA338 00000000 
FFFCA33A 00000000 
FFFCA33C 00000000 
FFFCA33E 00000000 
FFFCA340 00000000 
FFFCA342 00000000 
FFFCA344 00000000 
FFFCA346 00000000 
FFFCA348 00000000 
FFFCA34A 00000000 
FFFCA34C 00000000 
FFFCA34E 00000000 
FFFCA350 00000000 
FFFCA352 00000000 
FFFCA354 00000000 
FFFCA356 00000000 
FFFCA358 00000000 
FFFCA35A 00000000 
FFFCA35C 00000000 
FFFCA35E 00000000 
FFFCA360 00000000 
FFFCA362 00000000 
FFFCA364 00000000 
FFFCA366 00000000 
FFFCA368 00000000 
FFFCA36A 00000000 
FFFCA36C 00000000 
FFFCA36E 00000000 
FFFCA370 00000000 
FFFCA372 00000000 
FFFCA374 00000000 
FFFCA376 00000000 
FFFCA378 00000000 
FFFCA37A 00000000 
FFFCA37C 00000000 
FFFCA37E 00000000 
FFFCA380 00000000 
FFFCA382 00000000 
FFFCA384 00000000 
FFFCA386 00000000 
FFFCA388 00000000 
FFFCA38A 00000000 
FFFCA38C 00000000 
FFFCA38E 00000000 
FFFCA390 00000000 
FFFCA392 00000000 
FFFCA394 00000000 
FFFCA396 00000000 
FFFCA398 00000000 
FFFCA39A 00000000 
FFFCA39C 00000000 
FFFCA39E 00000000 
FFFCA3A0 00000000 
FFFCA3A2 00000000 
FFFCA3A4 00000000 
FFFCA3A6 00000000 
FFFCA3A8 00000000 
FFFCA3AA 00000000 
FFFCA3AC 00000000 
FFFCA3AE 00000000 
FFFCA3B0 00000000 
FFFCA3B2 00000000 
FFFCA3B4 00000000 
FFFCA3B6 00000000 
FFFCA3B8 00000000 
FFFCA3BA 00000000 
FFFCA3BC 00000000 
FFFCA3BE 00000000 
FFFCA3C0 00000000 
FFFCA3C2 00000000 
FFFCA3C4 00000000 
FFFCA3C6 00000000 
FFFCA3C8 00000000 
FFFCA3CA 00000000 
FFFCA3CC 00000000 
FFFCA3CE 00000000 
FFFCA3D0 00000000 
FFFCA3D2 00000000 
FFFCA3D4 00000000 
FFFCA3D6 00000000 
FFFCA3D8 00000000 
FFFCA3DA 00000000 
FFFCA3DC 00000000 
FFFCA3DE 00000000 
FFFCA3E0 00000000 
FFFCA3E2 00000000 
FFFCA3E4 00000000 
FFFCA3E6 00000000 
FFFCA3E8 00000000 
FFFCA3EA 00000000 
FFFCA3EC 00000000 
FFFCA3EE 00000000 
FFFCA3F0 00000000 
FFFCA3F2 00000000 
FFFCA3F4 00000000 
FFFCA3F6 00000000 
FFFCA3F8 00000000 
FFFCA3FA 00000000 
FFFCA3FC 00000000 
FFFCA3FE 00000000 
FFFCA400 00000000 
FFFCA402 00000000 
FFFCA404 00000000 
FFFCA406 00000000 
FFFCA408 00000000 
FFFCA40A 00000000 
FFFCA40C 00000000 
FFFCA40E 00000000 
FFFCA410 00000000 
FFFCA412 00000000 
FFFCA414 00000000 
FFFCA416 00000000 
FFFCA418 00000000 
FFFCA41A 00000000 
FFFCA41C 00000000 
FFFCA41E 00000000 
FFFCA420 00000000 
FFFCA422 00000000 
FFFCA424 00000000 
FFFCA426 00000000 
FFFCA428 00000000 
FFFCA42A 00000000 
FFFCA42C 00000000 
FFFCA42E 00000000 
FFFCA430 00000000 
FFFCA432 00000000 
FFFCA434 00000000 
FFFCA436 00000000 
FFFCA438 00000000 
FFFCA43A 00000000 
FFFCA43C 00000000 
FFFCA43E 00000000 
FFFCA440 00000000 
FFFCA442 00000000 
FFFCA444 00000000 
FFFCA446 00000000 
FFFCA448 00000000 
FFFCA44A 00000000 
FFFCA44C 00000000 
FFFCA44E 00000000 
FFFCA450 00000000 
FFFCA452 00000000 
FFFCA454 00000000 
FFFCA456 00000000 
FFFCA458 00000000 
FFFCA45A 00000000 
FFFCA45C 00000000 
FFFCA45E 00000000 
FFFCA460 00000000 
FFFCA462 00000000 
FFFCA464 00000000 
FFFCA466 00000000 
FFFCA468 00000000 
FFFCA46A 00000000 
FFFCA46C 00000000 
FFFCA46E 00000000 
FFFCA470 00000000 
FFFCA472 00000000 
FFFCA474 00000000 
FFFCA476 00000000 
FFFCA478 00000000 
FFFCA47A 00000000 
FFFCA47C 00000000 
FFFCA47E 00000000 
FFFCA480 00000000 
FFFCA482 00000000 
FFFCA484 00000000 
FFFCA486 00000000 
FFFCA488 00000000 
FFFCA48A 00000000 
FFFCA48C 00000000 
FFFCA48E 00000000 
FFFCA490 00000000 
FFFCA492 00000000 
FFFCA494 00000000 
FFFCA496 00000000 
FFFCA498 00000000 
FFFCA49A 00000000 
FFFCA49C 00000000 
FFFCA49E 00000000 
FFFCA4A0 00000000 
FFFCA4A2 00000000 
FFFCA4A4 00000000 
FFFCA4A6 00000000 
FFFCA4A8 00000000 
FFFCA4AA 00000000 
FFFCA4AC 00000000 
FFFCA4AE 00000000 
FFFCA4B0 00000000 
FFFCA4B2 00000000 
FFFCA4B4 00000000 
FFFCA4B6 00000000 
FFFCA4B8 00000000 
FFFCA4BA 00000000 
FFFCA4BC 00000000 
FFFCA4BE 00000000 
FFFCA4C0 00000000 
FFFCA4C2 00000000 
FFFCA4C4 00000000 
FFFCA4C6 00000000 
FFFCA4C8 00000000 
FFFCA4CA 00000000 
FFFCA4CC 00000000 
FFFCA4CE 00000000 
FFFCA4D0 00000000 
FFFCA4D2 00000000 
FFFCA4D4 00000000 
FFFCA4D6 00000000 
FFFCA4D8 00000000 
FFFCA4DA 00000000 
FFFCA4DC 00000000 
FFFCA4DE 00000000 
FFFCA4E0 00000000 
FFFCA4E2 00000000 
FFFCA4E4 00000000 
FFFCA4E6 00000000 
FFFCA4E8 00000000 
FFFCA4EA 00000000 
FFFCA4EC 00000000 
FFFCA4EE 00000000 
FFFCA4F0 00000000 
FFFCA4F2 00000000 
FFFCA4F4 00000000 
FFFCA4F6 00000000 
FFFCA4F8 00000000 
FFFCA4FA 00000000 
FFFCA4FC 00000000 
FFFCA4FE 00000000 
FFFCA500 00000000 
FFFCA502 00000000 
FFFCA504 00000000 
FFFCA506 00000000 
FFFCA508 00000000 
FFFCA50A 00000000 
FFFCA50C 00000000 
FFFCA50E 00000000 
FFFCA510 00000000 
FFFCA512 00000000 
FFFCA514 00000000 
FFFCA516 00000000 
FFFCA518 00000000 
FFFCA51A 00000000 
FFFCA51C 00000000 
FFFCA51E 00000000 
FFFCA520 00000000 
FFFCA522 00000000 
FFFCA524 00000000 
FFFCA526 00000000 
FFFCA528 00000000 
FFFCA52A 00000000 
FFFCA52C 00000000 
FFFCA52E 00000000 
FFFCA530 00000000 
FFFCA532 00000000 
FFFCA534 00000000 
FFFCA536 00000000 
FFFCA538 00000000 
FFFCA53A 00000000 
FFFCA53C 00000000 
FFFCA53E 00000000 
FFFCA540 00000000 
FFFCA542 00000000 
FFFCA544 00000000 
FFFCA546 00000000 
FFFCA548 00000000 
FFFCA54A 00000000 
FFFCA54C 00000000 
FFFCA54E 00000000 
FFFCA550 00000000 
FFFCA552 00000000 
FFFCA554 00000000 
FFFCA556 00000000 
FFFCA558 00000000 
FFFCA55A 00000000 
FFFCA55C 00000000 
FFFCA55E 00000000 
FFFCA560 00000000 
FFFCA562 00000000 
FFFCA564 00000000 
FFFCA566 00000000 
FFFCA568 00000000 
FFFCA56A 00000000 
FFFCA56C 00000000 
FFFCA56E 00000000 
FFFCA570 00000000 
FFFCA572 00000000 
FFFCA574 00000000 
FFFCA576 00000000 
FFFCA578 00000000 
FFFCA57A 00000000 
FFFCA57C 00000000 
FFFCA57E 00000000 
FFFCA580 00000000 
FFFCA582 00000000 
FFFCA584 00000000 
FFFCA586 00000000 
FFFCA588 00000000 
FFFCA58A 00000000 
FFFCA58C 00000000 
FFFCA58E 00000000 
FFFCA590 00000000 
FFFCA592 00000000 
FFFCA594 00000000 
FFFCA596 00000000 
FFFCA598 00000000 
FFFCA59A 00000000 
FFFCA59C 00000000 
FFFCA59E 00000000 
FFFCA5A0 00000000 
FFFCA5A2 00000000 
FFFCA5A4 00000000 
FFFCA5A6 00000000 
FFFCA5A8 00000000 
FFFCA5AA 00000000 
FFFCA5AC 00000000 
FFFCA5AE 00000000 
FFFCA5B0 00000000 
FFFCA5B2 00000000 
FFFCA5B4 00000000 
FFFCA5B6 00000000 
FFFCA5B8 00000000 
FFFCA5BA 00000000 
FFFCA5BC 00000000 
FFFCA5BE 00000000 
FFFCA5C0 00000000 
FFFCA5C2 00000000 
FFFCA5C4 00000000 
FFFCA5C6 00000000 
FFFCA5C8 00000000 
FFFCA5CA 00000000 
FFFCA5CC 00000000 
FFFCA5CE 00000000 
FFFCA5D0 00000000 
FFFCA5D2 00000000 
FFFCA5D4 00000000 
FFFCA5D6 00000000 
FFFCA5D8 00000000 
FFFCA5DA 00000000 
FFFCA5DC 00000000 
FFFCA5DE 00000000 
FFFCA5E0 00000000 
FFFCA5E2 00000000 
FFFCA5E4 00000000 
FFFCA5E6 00000000 
FFFCA5E8 00000000 
FFFCA5EA 00000000 
FFFCA5EC 00000000 
FFFCA5EE 00000000 
FFFCA5F0 00000000 
FFFCA5F2 00000000 
FFFCA5F4 00000000 
FFFCA5F6 00000000 
FFFCA5F8 00000000 
FFFCA5FA 00000000 
FFFCA5FC 00000000 
FFFCA5FE 00000000 
FFFCA600 00000000 
FFFCA602 00000000 
FFFCA604 00000000 
FFFCA606 00000000 
FFFCA608 00000000 
FFFCA60A 00000000 
FFFCA60C 00000000 
FFFCA60E 00000000 
FFFCA610 00000000 
FFFCA612 00000000 
FFFCA614 00000000 
FFFCA616 00000000 
FFFCA618 00000000 
FFFCA61A 00000000 
FFFCA61C 00000000 
FFFCA61E 00000000 
FFFCA620 00000000 
FFFCA622 00000000 
FFFCA624 00000000 
FFFCA626 00000000 
FFFCA628 00000000 
FFFCA62A 00000000 
FFFCA62C 00000000 
FFFCA62E 00000000 
FFFCA630 00000000 
FFFCA632 00000000 
FFFCA634 00000000 
FFFCA636 00000000 
FFFCA638 00000000 
FFFCA63A 00000000 
FFFCA63C 00000000 
FFFCA63E 00000000 
FFFCA640 00000000 
FFFCA642 00000000 
FFFCA644 00000000 
FFFCA646 00000000 
FFFCA648 00000000 
FFFCA64A 00000000 
FFFCA64C 00000000 
FFFCA64E 00000000 
FFFCA650 00000000 
FFFCA652 00000000 
FFFCA654 00000000 
FFFCA656 00000000 
FFFCA658 00000000 
FFFCA65A 00000000 
FFFCA65C 00000000 
FFFCA65E 00000000 
FFFCA660 00000000 
FFFCA662 00000000 
FFFCA664 00000000 
FFFCA666 00000000 
FFFCA668 00000000 
FFFCA66A 00000000 
FFFCA66C 00000000 
FFFCA66E 00000000 
FFFCA670 00000000 
FFFCA672 00000000 
FFFCA674 00000000 
FFFCA676 00000000 
FFFCA678 00000000 
FFFCA67A 00000000 
FFFCA67C 00000000 
FFFCA67E 00000000 
FFFCA680 00000000 
FFFCA682 00000000 
FFFCA684 00000000 
FFFCA686 00000000 
FFFCA688 00000000 
FFFCA68A 00000000 
FFFCA68C 00000000 
FFFCA68E 00000000 
FFFCA690 00000000 
FFFCA692 00000000 
FFFCA694 00000000 
FFFCA696 00000000 
FFFCA698 00000000 
FFFCA69A 00000000 
FFFCA69C 00000000 
FFFCA69E 00000000 
FFFCA6A0 00000000 
FFFCA6A2 00000000 
FFFCA6A4 00000000 
FFFCA6A6 00000000 
FFFCA6A8 00000000 
FFFCA6AA 00000000 
FFFCA6AC 00000000 
FFFCA6AE 00000000 
FFFCA6B0 00000000 
FFFCA6B2 00000000 
FFFCA6B4 00000000 
FFFCA6B6 00000000 
FFFCA6B8 00000000 
FFFCA6BA 00000000 
FFFCA6BC 00000000 
FFFCA6BE 00000000 
FFFCA6C0 00000000 
FFFCA6C2 00000000 
FFFCA6C4 00000000 
FFFCA6C6 00000000 
FFFCA6C8 00000000 
FFFCA6CA 00000000 
FFFCA6CC 00000000 
FFFCA6CE 00000000 
FFFCA6D0 00000000 
FFFCA6D2 00000000 
FFFCA6D4 00000000 
FFFCA6D6 00000000 
FFFCA6D8 00000000 
FFFCA6DA 00000000 
FFFCA6DC 00000000 
FFFCA6DE 00000000 
FFFCA6E0 00000000 
FFFCA6E2 00000000 
FFFCA6E4 00000000 
FFFCA6E6 00000000 
FFFCA6E8 00000000 
FFFCA6EA 00000000 
FFFCA6EC 00000000 
FFFCA6EE 00000000 
FFFCA6F0 00000000 
FFFCA6F2 00000000 
FFFCA6F4 00000000 
FFFCA6F6 00000000 
FFFCA6F8 00000000 
FFFCA6FA 00000000 
FFFCA6FC 00000000 
FFFCA6FE 00000000 
FFFCA700 00000000 
FFFCA702 00000000 
FFFCA704 00000000 
FFFCA706 00000000 
FFFCA708 00000000 
FFFCA70A 00000000 
FFFCA70C 00000000 
FFFCA70E 00000000 
FFFCA710 00000000 
FFFCA712 00000000 
FFFCA714 00000000 
FFFCA716 00000000 
FFFCA718 00000000 
FFFCA71A 00000000 
FFFCA71C 00000000 
FFFCA71E 00000000 
FFFCA720 00000000 
FFFCA722 00000000 
FFFCA724 00000000 
FFFCA726 00000000 
FFFCA728 00000000 
FFFCA72A 00000000 
FFFCA72C 00000000 
FFFCA72E 00000000 
FFFCA730 00000000 
FFFCA732 00000000 
FFFCA734 00000000 
FFFCA736 00000000 
FFFCA738 00000000 
FFFCA73A 00000000 
FFFCA73C 00000000 
FFFCA73E 00000000 
FFFCA740 00000000 
FFFCA742 00000000 
FFFCA744 00000000 
FFFCA746 00000000 
FFFCA748 00000000 
FFFCA74A 00000000 
FFFCA74C 00000000 
FFFCA74E 00000000 
FFFCA750 00000000 
FFFCA752 00000000 
FFFCA754 00000000 
FFFCA756 00000000 
FFFCA758 00000000 
FFFCA75A 00000000 
FFFCA75C 00000000 
FFFCA75E 00000000 
FFFCA760 00000000 
FFFCA762 00000000 
FFFCA764 00000000 
FFFCA766 00000000 
FFFCA768 00000000 
FFFCA76A 00000000 
FFFCA76C 00000000 
FFFCA76E 00000000 
FFFCA770 00000000 
FFFCA772 00000000 
FFFCA774 00000000 
FFFCA776 00000000 
FFFCA778 00000000 
FFFCA77A 00000000 
FFFCA77C 00000000 
FFFCA77E 00000000 
FFFCA780 00000000 
FFFCA782 00000000 
FFFCA784 00000000 
FFFCA786 00000000 
FFFCA788 00000000 
FFFCA78A 00000000 
FFFCA78C 00000000 
FFFCA78E 00000000 
FFFCA790 00000000 
FFFCA792 00000000 
FFFCA794 00000000 
FFFCA796 00000000 
FFFCA798 00000000 
FFFCA79A 00000000 
FFFCA79C 00000000 
FFFCA79E 00000000 
FFFCA7A0 00000000 
FFFCA7A2 00000000 
FFFCA7A4 00000000 
FFFCA7A6 00000000 
FFFCA7A8 00000000 
FFFCA7AA 00000000 
FFFCA7AC 00000000 
FFFCA7AE 00000000 
FFFCA7B0 00000000 
FFFCA7B2 00000000 
FFFCA7B4 00000000 
FFFCA7B6 00000000 
FFFCA7B8 00000000 
FFFCA7BA 00000000 
FFFCA7BC 00000000 
FFFCA7BE 00000000 
FFFCA7C0 00000000 
FFFCA7C2 00000000 
FFFCA7C4 00000000 
FFFCA7C6 00000000 
FFFCA7C8 00000000 
FFFCA7CA 00000000 
FFFCA7CC 00000000 
FFFCA7CE 00000000 
FFFCA7D0 00000000 
FFFCA7D2 00000000 
FFFCA7D4 00000000 
FFFCA7D6 00000000 
FFFCA7D8 00000000 
FFFCA7DA 00000000 
FFFCA7DC 00000000 
FFFCA7DE 00000000 
FFFCA7E0 00000000 
FFFCA7E2 00000000 
FFFCA7E4 00000000 
FFFCA7E6 00000000 
FFFCA7E8 00000000 
FFFCA7EA 00000000 
FFFCA7EC 00000000 
FFFCA7EE 00000000 
FFFCA7F0 00000000 
FFFCA7F2 00000000 
FFFCA7F4 00000000 
FFFCA7F6 00000000 
FFFCA7F8 00000000 
FFFCA7FA 00000000 
FFFCA7FC 00000000 
FFFCA7FE 00000000 
FFFCA800 00000000 
FFFCA802 00000000 
FFFCA804 00000000 
FFFCA806 00000000 
FFFCA808 00000000 
FFFCA80A 00000000 
FFFCA80C 00000000 
FFFCA80E 00000000 
FFFCA810 00000000 
FFFCA812 00000000 
FFFCA814 00000000 
FFFCA816 00000000 
FFFCA818 00000000 
FFFCA81A 00000000 
FFFCA81C 00000000 
FFFCA81E 00000000 
FFFCA820 00000000 
FFFCA822 00000000 
FFFCA824 00000000 
FFFCA826 00000000 
FFFCA828 00000000 
FFFCA82A 00000000 
FFFCA82C 00000000 
FFFCA82E 00000000 
FFFCA830 00000000 
FFFCA832 00000000 
FFFCA834 00000000 
FFFCA836 00000000 
FFFCA838 00000000 
FFFCA83A 00000000 
FFFCA83C 00000000 
FFFCA83E 00000000 
FFFCA840 00000000 
FFFCA842 00000000 
FFFCA844 00000000 
FFFCA846 00000000 
FFFCA848 00000000 
FFFCA84A 00000000 
FFFCA84C 00000000 
FFFCA84E 00000000 
FFFCA850 00000000 
FFFCA852 00000000 
FFFCA854 00000000 
FFFCA856 00000000 
FFFCA858 00000000 
FFFCA85A 00000000 
FFFCA85C 00000000 
FFFCA85E 00000000 
FFFCA860 00000000 
FFFCA862 00000000 
FFFCA864 00000000 
FFFCA866 00000000 
FFFCA868 00000000 
FFFCA86A 00000000 
FFFCA86C 00000000 
FFFCA86E 00000000 
FFFCA870 00000000 
FFFCA872 00000000 
FFFCA874 00000000 
FFFCA876 00000000 
FFFCA878 00000000 
FFFCA87A 00000000 
FFFCA87C 00000000 
FFFCA87E 00000000 
FFFCA880 00000000 
FFFCA882 00000000 
FFFCA884 00000000 
FFFCA886 00000000 
FFFCA888 00000000 
FFFCA88A 00000000 
FFFCA88C 00000000 
FFFCA88E 00000000 
FFFCA890 00000000 
FFFCA892 00000000 
FFFCA894 00000000 
FFFCA896 00000000 
FFFCA898 00000000 
FFFCA89A 00000000 
FFFCA89C 00000000 
FFFCA89E 00000000 
FFFCA8A0 00000000 
FFFCA8A2 00000000 
FFFCA8A4 00000000 
FFFCA8A6 00000000 
FFFCA8A8 00000000 
FFFCA8AA 00000000 
FFFCA8AC 00000000 
FFFCA8AE 00000000 
FFFCA8B0 00000000 
FFFCA8B2 00000000 
FFFCA8B4 00000000 
FFFCA8B6 00000000 
FFFCA8B8 00000000 
FFFCA8BA 00000000 
FFFCA8BC 00000000 
FFFCA8BE 00000000 
FFFCA8C0 00000000 
FFFCA8C2 00000000 
FFFCA8C4 00000000 
FFFCA8C6 00000000 
FFFCA8C8 00000000 
FFFCA8CA 00000000 
FFFCA8CC 00000000 
FFFCA8CE 00000000 
FFFCA8D0 00000000 
FFFCA8D2 00000000 
FFFCA8D4 00000000 
FFFCA8D6 00000000 
FFFCA8D8 00000000 
FFFCA8DA 00000000 
FFFCA8DC 00000000 
FFFCA8DE 00000000 
FFFCA8E0 00000000 
FFFCA8E2 00000000 
FFFCA8E4 00000000 
FFFCA8E6 00000000 
FFFCA8E8 00000000 
FFFCA8EA 00000000 
FFFCA8EC 00000000 
FFFCA8EE 00000000 
FFFCA8F0 00000000 
FFFCA8F2 00000000 
FFFCA8F4 00000000 
FFFCA8F6 00000000 
FFFCA8F8 00000000 
FFFCA8FA 00000000 
FFFCA8FC 00000000 
FFFCA8FE 00000000 
FFFCA900 00000000 
FFFCA902 00000000 
FFFCA904 00000000 
FFFCA906 00000000 
FFFCA908 00000000 
FFFCA90A 00000000 
FFFCA90C 00000000 
FFFCA90E 00000000 
FFFCA910 00000000 
FFFCA912 00000000 
FFFCA914 00000000 
FFFCA916 00000000 
FFFCA918 00000000 
FFFCA91A 00000000 
FFFCA91C 00000000 
FFFCA91E 00000000 
FFFCA920 00000000 
FFFCA922 00000000 
FFFCA924 00000000 
FFFCA926 00000000 
FFFCA928 00000000 
FFFCA92A 00000000 
FFFCA92C 00000000 
FFFCA92E 00000000 
FFFCA930 00000000 
FFFCA932 00000000 
FFFCA934 00000000 
FFFCA936 00000000 
FFFCA938 00000000 
FFFCA93A 00000000 
FFFCA93C 00000000 
FFFCA93E 00000000 
FFFCA940 00000000 
FFFCA942 00000000 
FFFCA944 00000000 
FFFCA946 00000000 
FFFCA948 00000000 
FFFCA94A 00000000 
FFFCA94C 00000000 
FFFCA94E 00000000 
FFFCA950 00000000 
FFFCA952 00000000 
FFFCA954 00000000 
FFFCA956 00000000 
FFFCA958 00000000 
FFFCA95A 00000000 
FFFCA95C 00000000 
FFFCA95E 00000000 
FFFCA960 00000000 
FFFCA962 00000000 
FFFCA964 00000000 
FFFCA966 00000000 
FFFCA968 00000000 
FFFCA96A 00000000 
FFFCA96C 00000000 
FFFCA96E 00000000 
FFFCA970 00000000 
FFFCA972 00000000 
FFFCA974 00000000 
FFFCA976 00000000 
FFFCA978 00000000 
FFFCA97A 00000000 
FFFCA97C 00000000 
FFFCA97E 00000000 
FFFCA980 00000000 
FFFCA982 00000000 
FFFCA984 00000000 
FFFCA986 00000000 
FFFCA988 00000000 
FFFCA98A 00000000 
FFFCA98C 00000000 
FFFCA98E 00000000 
FFFCA990 00000000 
FFFCA992 00000000 
FFFCA994 00000000 
FFFCA996 00000000 
FFFCA998 00000000 
FFFCA99A 00000000 
FFFCA99C 00000000 
FFFCA99E 00000000 
FFFCA9A0 00000000 
FFFCA9A2 00000000 
FFFCA9A4 00000000 
FFFCA9A6 00000000 
FFFCA9A8 00000000 
FFFCA9AA 00000000 
FFFCA9AC 00000000 
FFFCA9AE 00000000 
FFFCA9B0 00000000 
FFFCA9B2 00000000 
FFFCA9B4 00000000 
FFFCA9B6 00000000 
FFFCA9B8 00000000 
FFFCA9BA 00000000 
FFFCA9BC 00000000 
FFFCA9BE 00000000 
FFFCA9C0 00000000 
FFFCA9C2 00000000 
FFFCA9C4 00000000 
FFFCA9C6 00000000 
FFFCA9C8 00000000 
FFFCA9CA 00000000 
FFFCA9CC 00000000 
FFFCA9CE 00000000 
FFFCA9D0 00000000 
FFFCA9D2 00000000 
FFFCA9D4 00000000 
FFFCA9D6 00000000 
FFFCA9D8 00000000 
FFFCA9DA 00000000 
FFFCA9DC 00000000 
FFFCA9DE 00000000 
FFFCA9E0 00000000 
FFFCA9E2 00000000 
FFFCA9E4 00000000 
FFFCA9E6 00000000 
FFFCA9E8 00000000 
FFFCA9EA 00000000 
FFFCA9EC 00000000 
FFFCA9EE 00000000 
FFFCA9F0 00000000 
FFFCA9F2 00000000 
FFFCA9F4 00000000 
FFFCA9F6 00000000 
FFFCA9F8 00000000 
FFFCA9FA 00000000 
FFFCA9FC 00000000 
FFFCA9FE 00000000 
FFFCAA00 00000000 
FFFCAA02 00000000 
FFFCAA04 00000000 
FFFCAA06 00000000 
FFFCAA08 00000000 
FFFCAA0A 00000000 
FFFCAA0C 00000000 
FFFCAA0E 00000000 
FFFCAA10 00000000 
FFFCAA12 00000000 
FFFCAA14 00000000 
FFFCAA16 00000000 
FFFCAA18 00000000 
FFFCAA1A 00000000 
FFFCAA1C 00000000 
FFFCAA1E 00000000 
FFFCAA20 00000000 
FFFCAA22 00000000 
FFFCAA24 00000000 
FFFCAA26 00000000 
FFFCAA28 00000000 
FFFCAA2A 00000000 
FFFCAA2C 00000000 
FFFCAA2E 00000000 
FFFCAA30 00000000 
FFFCAA32 00000000 
FFFCAA34 00000000 
FFFCAA36 00000000 
FFFCAA38 00000000 
FFFCAA3A 00000000 
FFFCAA3C 00000000 
FFFCAA3E 00000000 
FFFCAA40 00000000 
FFFCAA42 00000000 
FFFCAA44 00000000 
FFFCAA46 00000000 
FFFCAA48 00000000 
FFFCAA4A 00000000 
FFFCAA4C 00000000 
FFFCAA4E 00000000 
FFFCAA50 00000000 
FFFCAA52 00000000 
FFFCAA54 00000000 
FFFCAA56 00000000 
FFFCAA58 00000000 
FFFCAA5A 00000000 
FFFCAA5C 00000000 
FFFCAA5E 00000000 
FFFCAA60 00000000 
FFFCAA62 00000000 
FFFCAA64 00000000 
FFFCAA66 00000000 
FFFCAA68 00000000 
FFFCAA6A 00000000 
FFFCAA6C 00000000 
FFFCAA6E 00000000 
FFFCAA70 00000000 
FFFCAA72 00000000 
FFFCAA74 00000000 
FFFCAA76 00000000 
FFFCAA78 00000000 
FFFCAA7A 00000000 
FFFCAA7C 00000000 
FFFCAA7E 00000000 
FFFCAA80 00000000 
FFFCAA82 00000000 
FFFCAA84 00000000 
FFFCAA86 00000000 
FFFCAA88 00000000 
FFFCAA8A 00000000 
FFFCAA8C 00000000 
FFFCAA8E 00000000 
FFFCAA90 00000000 
FFFCAA92 00000000 
FFFCAA94 00000000 
FFFCAA96 00000000 
FFFCAA98 00000000 
FFFCAA9A 00000000 
FFFCAA9C 00000000 
FFFCAA9E 00000000 
FFFCAAA0 00000000 
FFFCAAA2 00000000 
FFFCAAA4 00000000 
FFFCAAA6 00000000 
FFFCAAA8 00000000 
FFFCAAAA 00000000 
FFFCAAAC 00000000 
FFFCAAAE 00000000 
FFFCAAB0 00000000 
FFFCAAB2 00000000 
FFFCAAB4 00000000 
FFFCAAB6 00000000 
FFFCAAB8 00000000 
FFFCAABA 00000000 
FFFCAABC 00000000 
FFFCAABE 00000000 
FFFCAAC0 00000000 
FFFCAAC2 00000000 
FFFCAAC4 00000000 
FFFCAAC6 00000000 
FFFCAAC8 00000000 
FFFCAACA 00000000 
FFFCAACC 00000000 
FFFCAACE 00000000 
FFFCAAD0 00000000 
FFFCAAD2 00000000 
FFFCAAD4 00000000 
FFFCAAD6 00000000 
FFFCAAD8 00000000 
FFFCAADA 00000000 
FFFCAADC 00000000 
FFFCAADE 00000000 
FFFCAAE0 00000000 
FFFCAAE2 00000000 
FFFCAAE4 00000000 
FFFCAAE6 00000000 
FFFCAAE8 00000000 
FFFCAAEA 00000000 
FFFCAAEC 00000000 
FFFCAAEE 00000000 
FFFCAAF0 00000000 
FFFCAAF2 00000000 
FFFCAAF4 00000000 
FFFCAAF6 00000000 
FFFCAAF8 00000000 
FFFCAAFA 00000000 
FFFCAAFC 00000000 
FFFCAAFE 00000000 
FFFCAB00 00000000 
FFFCAB02 00000000 
FFFCAB04 00000000 
FFFCAB06 00000000 
FFFCAB08 00000000 
FFFCAB0A 00000000 
FFFCAB0C 00000000 
FFFCAB0E 00000000 
FFFCAB10 00000000 
FFFCAB12 00000000 
FFFCAB14 00000000 
FFFCAB16 00000000 
FFFCAB18 00000000 
FFFCAB1A 00000000 
FFFCAB1C 00000000 
FFFCAB1E 00000000 
FFFCAB20 00000000 
FFFCAB22 00000000 
FFFCAB24 00000000 
FFFCAB26 00000000 
FFFCAB28 00000000 
FFFCAB2A 00000000 
FFFCAB2C 00000000 
FFFCAB2E 00000000 
FFFCAB30 00000000 
FFFCAB32 00000000 
FFFCAB34 00000000 
FFFCAB36 00000000 
FFFCAB38 00000000 
FFFCAB3A 00000000 
FFFCAB3C 00000000 
FFFCAB3E 00000000 
FFFCAB40 00000000 
FFFCAB42 00000000 
FFFCAB44 00000000 
FFFCAB46 00000000 
FFFCAB48 00000000 
FFFCAB4A 00000000 
FFFCAB4C 00000000 
FFFCAB4E 00000000 
FFFCAB50 00000000 
FFFCAB52 00000000 
FFFCAB54 00000000 
FFFCAB56 00000000 
FFFCAB58 00000000 
FFFCAB5A 00000000 
FFFCAB5C 00000000 
FFFCAB5E 00000000 
FFFCAB60 00000000 
FFFCAB62 00000000 
FFFCAB64 00000000 
FFFCAB66 00000000 
FFFCAB68 00000000 
FFFCAB6A 00000000 
FFFCAB6C 00000000 
FFFCAB6E 00000000 
FFFCAB70 00000000 
FFFCAB72 00000000 
FFFCAB74 00000000 
FFFCAB76 00000000 
FFFCAB78 00000000 
FFFCAB7A 00000000 
FFFCAB7C 00000000 
FFFCAB7E 00000000 
FFFCAB80 00000000 
FFFCAB82 00000000 
FFFCAB84 00000000 
FFFCAB86 00000000 
FFFCAB88 00000000 
FFFCAB8A 00000000 
FFFCAB8C 00000000 
FFFCAB8E 00000000 
FFFCAB90 00000000 
FFFCAB92 00000000 
FFFCAB94 00000000 
FFFCAB96 00000000 
FFFCAB98 00000000 
FFFCAB9A 00000000 
FFFCAB9C 00000000 
FFFCAB9E 00000000 
FFFCABA0 00000000 
FFFCABA2 00000000 
FFFCABA4 00000000 
FFFCABA6 00000000 
FFFCABA8 00000000 
FFFCABAA 00000000 
FFFCABAC 00000000 
FFFCABAE 00000000 
FFFCABB0 00000000 
FFFCABB2 00000000 
FFFCABB4 00000000 
FFFCABB6 00000000 
FFFCABB8 00000000 
FFFCABBA 00000000 
FFFCABBC 00000000 
FFFCABBE 00000000 
FFFCABC0 00000000 
FFFCABC2 00000000 
FFFCABC4 00000000 
FFFCABC6 00000000 
FFFCABC8 00000000 
FFFCABCA 00000000 
FFFCABCC 00000000 
FFFCABCE 00000000 
FFFCABD0 00000000 
FFFCABD2 00000000 
FFFCABD4 00000000 
FFFCABD6 00000000 
FFFCABD8 00000000 
FFFCABDA 00000000 
FFFCABDC 00000000 
FFFCABDE 00000000 
FFFCABE0 00000000 
FFFCABE2 00000000 
FFFCABE4 00000000 
FFFCABE6 00000000 
FFFCABE8 00000000 
FFFCABEA 00000000 
FFFCABEC 00000000 
FFFCABEE 00000000 
FFFCABF0 00000000 
FFFCABF2 00000000 
FFFCABF4 00000000 
FFFCABF6 00000000 
FFFCABF8 00000000 
FFFCABFA 00000000 
FFFCABFC 00000000 
FFFCABFE 00000000 
FFFCAC00 00000000 
FFFCAC02 00000000 
FFFCAC04 00000000 
FFFCAC06 00000000 
FFFCAC08 00000000 
FFFCAC0A 00000000 
FFFCAC0C 00000000 
FFFCAC0E 00000000 
FFFCAC10 00000000 
FFFCAC12 00000000 
FFFCAC14 00000000 
FFFCAC16 00000000 
FFFCAC18 00000000 
FFFCAC1A 00000000 
FFFCAC1C 00000000 
FFFCAC1E 00000000 
FFFCAC20 00000000 
FFFCAC22 00000000 
FFFCAC24 00000000 
FFFCAC26 00000000 
FFFCAC28 00000000 
FFFCAC2A 00000000 
FFFCAC2C 00000000 
FFFCAC2E 00000000 
FFFCAC30 00000000 
FFFCAC32 00000000 
FFFCAC34 00000000 
FFFCAC36 00000000 
FFFCAC38 00000000 
FFFCAC3A 00000000 
FFFCAC3C 00000000 
FFFCAC3E 00000000 
FFFCAC40 00000000 
FFFCAC42 00000000 
FFFCAC44 00000000 
FFFCAC46 00000000 
FFFCAC48 00000000 
FFFCAC4A 00000000 
FFFCAC4C 00000000 
FFFCAC4E 00000000 
FFFCAC50 00000000 
FFFCAC52 00000000 
FFFCAC54 00000000 
FFFCAC56 00000000 
FFFCAC58 00000000 
FFFCAC5A 00000000 
FFFCAC5C 00000000 
FFFCAC5E 00000000 
FFFCAC60 00000000 
FFFCAC62 00000000 
FFFCAC64 00000000 
FFFCAC66 00000000 
FFFCAC68 00000000 
FFFCAC6A 00000000 
FFFCAC6C 00000000 
FFFCAC6E 00000000 
FFFCAC70 00000000 
FFFCAC72 00000000 
FFFCAC74 00000000 
FFFCAC76 00000000 
FFFCAC78 00000000 
FFFCAC7A 00000000 
FFFCAC7C 00000000 
FFFCAC7E 00000000 
FFFCAC80 00000000 
FFFCAC82 00000000 
FFFCAC84 00000000 
FFFCAC86 00000000 
FFFCAC88 00000000 
FFFCAC8A 00000000 
FFFCAC8C 00000000 
FFFCAC8E 00000000 
FFFCAC90 00000000 
FFFCAC92 00000000 
FFFCAC94 00000000 
FFFCAC96 00000000 
FFFCAC98 00000000 
FFFCAC9A 00000000 
FFFCAC9C 00000000 
FFFCAC9E 00000000 
FFFCACA0 00000000 
FFFCACA2 00000000 
FFFCACA4 00000000 
FFFCACA6 00000000 
FFFCACA8 00000000 
FFFCACAA 00000000 
FFFCACAC 00000000 
FFFCACAE 00000000 
FFFCACB0 00000000 
FFFCACB2 00000000 
FFFCACB4 00000000 
FFFCACB6 00000000 
FFFCACB8 00000000 
FFFCACBA 00000000 
FFFCACBC 00000000 
FFFCACBE 00000000 
FFFCACC0 00000000 
FFFCACC2 00000000 
FFFCACC4 00000000 
FFFCACC6 00000000 
FFFCACC8 00000000 
FFFCACCA 00000000 
FFFCACCC 00000000 
FFFCACCE 00000000 
FFFCACD0 00000000 
FFFCACD2 00000000 
FFFCACD4 00000000 
FFFCACD6 00000000 
FFFCACD8 00000000 
FFFCACDA 00000000 
FFFCACDC 00000000 
FFFCACDE 00000000 
FFFCACE0 00000000 
FFFCACE2 00000000 
FFFCACE4 00000000 
FFFCACE6 00000000 
FFFCACE8 00000000 
FFFCACEA 00000000 
FFFCACEC 00000000 
FFFCACEE 00000000 
FFFCACF0 00000000 
FFFCACF2 00000000 
FFFCACF4 00000000 
FFFCACF6 00000000 
FFFCACF8 00000000 
FFFCACFA 00000000 
FFFCACFC 00000000 
FFFCACFE 00000000 
FFFCAD00 00000000 
FFFCAD02 00000000 
FFFCAD04 00000000 
FFFCAD06 00000000 
FFFCAD08 00000000 
FFFCAD0A 00000000 
FFFCAD0C 00000000 
FFFCAD0E 00000000 
FFFCAD10 00000000 
FFFCAD12 00000000 
FFFCAD14 00000000 
FFFCAD16 00000000 
FFFCAD18 00000000 
FFFCAD1A 00000000 
FFFCAD1C 00000000 
FFFCAD1E 00000000 
FFFCAD20 00000000 
FFFCAD22 00000000 
FFFCAD24 00000000 
FFFCAD26 00000000 
FFFCAD28 00000000 
FFFCAD2A 00000000 
FFFCAD2C 00000000 
FFFCAD2E 00000000 
FFFCAD30 00000000 
FFFCAD32 00000000 
FFFCAD34 00000000 
FFFCAD36 00000000 
FFFCAD38 00000000 
FFFCAD3A 00000000 
FFFCAD3C 00000000 
FFFCAD3E 00000000 
FFFCAD40 00000000 
FFFCAD42 00000000 
FFFCAD44 00000000 
FFFCAD46 00000000 
FFFCAD48 00000000 
FFFCAD4A 00000000 
FFFCAD4C 00000000 
FFFCAD4E 00000000 
FFFCAD50 00000000 
FFFCAD52 00000000 
FFFCAD54 00000000 
FFFCAD56 00000000 
FFFCAD58 00000000 
FFFCAD5A 00000000 
FFFCAD5C 00000000 
FFFCAD5E 00000000 
FFFCAD60 00000000 
FFFCAD62 00000000 
FFFCAD64 00000000 
FFFCAD66 00000000 
FFFCAD68 00000000 
FFFCAD6A 00000000 
FFFCAD6C 00000000 
FFFCAD6E 00000000 
FFFCAD70 00000000 
FFFCAD72 00000000 
FFFCAD74 00000000 
FFFCAD76 00000000 
FFFCAD78 00000000 
FFFCAD7A 00000000 
FFFCAD7C 00000000 
FFFCAD7E 00000000 
FFFCAD80 00000000 
FFFCAD82 00000000 
FFFCAD84 00000000 
FFFCAD86 00000000 
FFFCAD88 00000000 
FFFCAD8A 00000000 
FFFCAD8C 00000000 
FFFCAD8E 00000000 
FFFCAD90 00000000 
FFFCAD92 00000000 
FFFCAD94 00000000 
FFFCAD96 00000000 
FFFCAD98 00000000 
FFFCAD9A 00000000 
FFFCAD9C 00000000 
FFFCAD9E 00000000 
FFFCADA0 00000000 
FFFCADA2 00000000 
FFFCADA4 00000000 
FFFCADA6 00000000 
FFFCADA8 00000000 
FFFCADAA 00000000 
FFFCADAC 00000000 
FFFCADAE 00000000 
FFFCADB0 00000000 
FFFCADB2 00000000 
FFFCADB4 00000000 
FFFCADB6 00000000 
FFFCADB8 00000000 
FFFCADBA 00000000 
FFFCADBC 00000000 
FFFCADBE 00000000 
FFFCADC0 00000000 
FFFCADC2 00000000 
FFFCADC4 00000000 
FFFCADC6 00000000 
FFFCADC8 00000000 
FFFCADCA 00000000 
FFFCADCC 00000000 
FFFCADCE 00000000 
FFFCADD0 00000000 
FFFCADD2 00000000 
FFFCADD4 00000000 
FFFCADD6 00000000 
FFFCADD8 00000000 
FFFCADDA 00000000 
FFFCADDC 00000000 
FFFCADDE 00000000 
FFFCADE0 00000000 
FFFCADE2 00000000 
FFFCADE4 00000000 
FFFCADE6 00000000 
FFFCADE8 00000000 
FFFCADEA 00000000 
FFFCADEC 00000000 
FFFCADEE 00000000 
FFFCADF0 00000000 
FFFCADF2 00000000 
FFFCADF4 00000000 
FFFCADF6 00000000 
FFFCADF8 00000000 
FFFCADFA 00000000 
FFFCADFC 00000000 
FFFCADFE 00000000 
FFFCAE00 00000000 
FFFCAE02 00000000 
FFFCAE04 00000000 
FFFCAE06 00000000 
FFFCAE08 00000000 
FFFCAE0A 00000000 
FFFCAE0C 00000000 
FFFCAE0E 00000000 
FFFCAE10 00000000 
FFFCAE12 00000000 
FFFCAE14 00000000 
FFFCAE16 00000000 
FFFCAE18 00000000 
FFFCAE1A 00000000 
FFFCAE1C 00000000 
FFFCAE1E 00000000 
FFFCAE20 00000000 
FFFCAE22 00000000 
FFFCAE24 00000000 
FFFCAE26 00000000 
FFFCAE28 00000000 
FFFCAE2A 00000000 
FFFCAE2C 00000000 
FFFCAE2E 00000000 
FFFCAE30 00000000 
FFFCAE32 00000000 
FFFCAE34 00000000 
FFFCAE36 00000000 
FFFCAE38 00000000 
FFFCAE3A 00000000 
FFFCAE3C 00000000 
FFFCAE3E 00000000 
FFFCAE40 00000000 
FFFCAE42 00000000 
FFFCAE44 00000000 
FFFCAE46 00000000 
FFFCAE48 00000001 
FFFCCC89 00000000 		align	
                        	
                        	cc64rt_16:	; _id
FFFCCC8A 00000000 		fill.b	8,0x00
FFFCCC8C 00000000 
                        		data
                        		align	2                        	
                        	stdio_29:	; _numwka
FFFCCC92 00000000 		fill.b	400,0x00
FFFCCC94 00000000 
FFFCCC96 00000000 
FFFCCC98 00000000 
FFFCCC9A 00000000 
FFFCCC9C 00000000 
FFFCCC9E 00000000 
FFFCCCA0 00000000 
FFFCCCA2 00000000 
FFFCCCA4 00000000 
FFFCCCA6 00000000 
FFFCCCA8 00000000 
FFFCCCAA 00000000 
FFFCCCAC 00000000 
FFFCCCAE 00000000 
FFFCCCB0 00000000 
FFFCCCB2 00000000 
FFFCCCB4 00000000 
FFFCCCB6 00000000 
FFFCCCB8 00000000 
FFFCCCBA 00000000 
FFFCCCBC 00000000 
FFFCCCBE 00000000 
FFFCCCC0 00000000 
FFFCCCC2 00000000 
FFFCCCC4 00000000 
FFFCCCC6 00000000 
FFFCCCC8 00000000 
FFFCCCCA 00000000 
FFFCCCCC 00000000 
FFFCCCCE 00000000 
FFFCCCD0 00000000 
FFFCCCD2 00000000 
FFFCCCD4 00000000 
FFFCCCD6 00000000 
FFFCCCD8 00000000 
FFFCCCDA 00000000 
FFFCCCDC 00000000 
FFFCCCDE 00000000 
FFFCCCE0 00000000 
FFFCCCE2 00000000 
FFFCCCE4 00000000 
FFFCCCE6 00000000 
FFFCCCE8 00000000 
FFFCCCEA 00000000 
FFFCCCEC 00000000 
FFFCCCEE 00000000 
FFFCCCF0 00000000 
FFFCCCF2 00000000 
FFFCCCF4 00000000 
FFFCCCF6 00000000 
FFFCCCF8 00000000 
FFFCCCFA 00000000 
FFFCCCFC 00000000 
FFFCCCFE 00000000 
FFFCCD00 00000000 
FFFCCD02 00000000 
FFFCCD04 00000000 
FFFCCD06 00000000 
FFFCCD08 00000000 
FFFCCD0A 00000000 
FFFCCD0C 00000000 
FFFCCD0E 00000000 
FFFCCD10 00000000 
FFFCCD12 00000000 
FFFCCD14 00000000 
FFFCCD16 00000000 
FFFCCD18 00000000 
FFFCCD1A 00000000 
FFFCCD1C 00000000 
FFFCCD1E 00000000 
FFFCCD20 00000000 
FFFCCD22 00000000 
FFFCCD24 00000000 
FFFCCD26 00000000 
FFFCCD28 00000000 
FFFCCD2A 00000000 
FFFCCD2C 00000000 
FFFCCD2E 00000000 
FFFCCD30 00000000 
FFFCCD32 00000000 
FFFCCD34 00000000 
FFFCCD36 00000000 
FFFCCD38 00000000 
FFFCCD3A 00000000 
FFFCCD3C 00000000 
FFFCCD3E 00000000 
FFFCCD40 00000000 
FFFCCD42 00000000 
FFFCCD44 00000000 
FFFCCD46 00000000 
FFFCCD48 00000000 
FFFCCD4A 00000000 
FFFCCD4C 00000000 
FFFCCD4E 00000000 
FFFCCD50 00000000 
FFFCCD52 00000000 
FFFCCD54 00000000 
FFFCCD56 00000000 
FFFCCD58 00000000 
                        		data
FFFCCE22 00000000 		align	
FFFCCE24 0EFE0000 
                        	
                        		data
                        		align	2                        	
                        	log10q_0:	; _P
                        	
                        		align 8                        	
FFFCCE28 AD5D0EFE 		dh	0xAD5D0EFE,0x40C9A7DC
FFFCCE2A 40C9A7DC 
                        		align 8                        	
FFFCCE30 BFBF9A19 		dh	0xBFBF9A19,0x40F2F8F8
FFFCCE32 40F2F8F8 
                        		align 8                        	
FFFCCE38 319418D1 		dh	0x319418D1,0x410897CA
FFFCCE3A 410897CA 
                        		align 8                        	
FFFCCE40 EB05BA7E 		dh	0xEB05BA7E,0x41125A72
FFFCCE42 41125A72 
                        		align 8                        	
FFFCCE48 A9F2757A 		dh	0xA9F2757A,0x41116CAB
FFFCCE4A 41116CAB 
                        		align 8                        	
FFFCCE50 A49F1719 		dh	0xA49F1719,0x4105F196
FFFCCE52 4105F196 
                        		align 8                        	
FFFCCE58 1822D401 		dh	0x1822D401,0x40F28A79
FFFCCE5A 40F28A79 
                        		align 8                        	
FFFCCE60 F0550CF6 		dh	0xF0550CF6,0x40D4CA24
FFFCCE62 40D4CA24 
                        		align 8                        	
FFFCCE68 9B3AE125 		dh	0x9B3AE125,0x40ADE1E7
FFFCCE6A 40ADE1E7 
                        		align 8                        	
FFFCCE70 8639C28F 		dh	0x8639C28F,0x4079B73A
FFFCCE72 4079B73A 
                        		align 8                        	
FFFCCE78 178FE966 		dh	0x178FE966,0x40373615
FFFCCE7A 40373615 
                        		align 8                        	
FFFCCE80 21347CC2 		dh	0x21347CC2,0x3FDFFD7E
FFFCCE82 3FDFFD7E 
                        		align 8                        	
FFFCCE88 0D6ED829 		dh	0x0D6ED829,0x3EB9D04A
FFFCCE8A 3EB9D04A 
                        		align	2                        	
                        	log10q_14:	; _Q
                        	
                        		align 8                        	
FFFCCE90 8205CB3E 		dh	0x8205CB3E,0x40E33DE5
FFFCCE92 40E33DE5 
                        		align 8                        	
FFFCCE98 14003EA1 		dh	0x14003EA1,0x41100888
FFFCCE9A 41100888 
                        		align 8                        	
FFFCCEA0 11688C14 		dh	0x11688C14,0x4127BC52
FFFCCEA2 4127BC52 
                        		align 8                        	
FFFCCEA8 89D38E2E 		dh	0x89D38E2E,0x41348FBE
FFFCCEAA 41348FBE 
                        		align 8                        	
FFFCCEB0 73F762A0 		dh	0x73F762A0,0x41371D82
FFFCCEB2 41371D82 
                        		align 8                        	
FFFCCEB8 FA3B03B3 		dh	0xFA3B03B3,0x4131AB83
FFFCCEBA 4131AB83 
                        		align 8                        	
FFFCCEC0 DDAC3B8E 		dh	0xDDAC3B8E,0x4122B6C5
FFFCCEC2 4122B6C5 
                        		align 8                        	
FFFCCEC8 67F5EFF2 		dh	0x67F5EFF2,0x410B71BB
FFFCCECA 410B71BB 
                        		align 8                        	
FFFCCED0 77AED024 		dh	0x77AED024,0x40EB5F4D
FFFCCED2 40EB5F4D 
                        		align 8                        	
FFFCCED8 3EA5565F 		dh	0x3EA5565F,0x40C1DD93
FFFCCEDA 40C1DD93 
                        		align 8                        	
FFFCCEE0 4777E569 		dh	0x4777E569,0x408C73F1
FFFCCEE2 408C73F1 
                        		align 8                        	
FFFCCEE8 BDA4D3F4 		dh	0xBDA4D3F4,0x4048322F
FFFCCEEA 4048322F 
                        		align	2                        	
                        	log10q_27:	; _R
                        	
                        		align 8                        	
FFFCCEF0 5E2E8C16 		dh	0x5E2E8C16,0x41014FAB
FFFCCEF2 41014FAB 
                        		align 8                        	
FFFCCEF8 4780E233 		dh	0x4780E233,0xC0F5EAC9
FFFCCEFA C0F5EAC9 
                        		align 8                        	
FFFCCF00 BB3C4EDE 		dh	0xBB3C4EDE,0x40D4020C
FFFCCF02 40D4020C 
                        		align 8                        	
FFFCCF08 0A9210EB 		dh	0x0A9210EB,0xC09FA135
FFFCCF0A C09FA135 
                        		align 8                        	
FFFCCF10 533971E5 		dh	0x533971E5,0x4054247B
FFFCCF12 4054247B 
                        		align 8                        	
FFFCCF18 C874F5A6 		dh	0xC874F5A6,0xBFEC40A1
FFFCCF1A BFEC40A1 
                        		align	2                        	
                        	log10q_37:	; _S
                        	
                        		align 8                        	
FFFCCF20 0D45D221 		dh	0x0D45D221,0x4139F781
FFFCCF22 4139F781 
                        		align 8                        	
FFFCCF28 1E04BC5E 		dh	0x1E04BC5E,0xC1345537
FFFCCF2A C1345537 
                        		align 8                        	
FFFCCF30 13DF72EA 		dh	0x13DF72EA,0x41186C6F
FFFCCF32 41186C6F 
                        		align 8                        	
FFFCCF38 77CC51CE 		dh	0x77CC51CE,0xC0EC11AD
FFFCCF3A C0EC11AD 
                        		align 8                        	
FFFCCF40 B24DF089 		dh	0xB24DF089,0x40AF3D0D
FFFCCF42 40AF3D0D 
                        		align 8                        	
FFFCCF48 4108B632 		dh	0x4108B632,0xC05DA8B3
FFFCCF4A C05DA8B3 
                        		align	2                        	
                        	log10q_47:	; _L102A
                        	
                        		align 8                        	
FFFCCF50 00000000 		dh	0x00000000,0x3FD40000
FFFCCF52 3FD40000 
                        		align	2                        	
                        	log10q_49:	; _L102B
                        	
                        		align 8                        	
FFFCCF58 EC10C021 		dh	0xEC10C021,0xBF877D95
FFFCCF5A BF877D95 
                        		align	2                        	
                        	log10q_52:	; _L10EA
                        	
                        		align 8                        	
FFFCCF60 00000000 		dh	0x00000000,0x3FE00000
FFFCCF62 3FE00000 
                        		align	2                        	
                        	log10q_54:	; _L10EB
                        	
                        		align 8                        	
FFFCCF68 AB646BC7 		dh	0xAB646BC7,0xBFB0D213
FFFCCF6A BFB0D213 
                        		align	2                        	
                        	log10q_57:	; _SQRTH
                        	
                        		align 8                        	
FFFCCF70 667F3BCC 		dh	0x667F3BCC,0x3FE6A09E
FFFCCF72 3FE6A09E 
                        		data
                        		align	8                        	
FFFCCF78 00000000 		fill.b	8,0x00
FFFCCF7A 00000000 
                        		align	8                        	
FFFCCF80 00000000 		fill.b	1952,0x00
FFFCCF82 00000000 
FFFCCF84 00000000 
FFFCCF86 00000000 
FFFCCF88 00000000 
FFFCCF8A 00000000 
FFFCCF8C 00000000 
FFFCCF8E 00000000 
FFFCCF90 00000000 
FFFCCF92 00000000 
FFFCCF94 00000000 
FFFCCF96 00000000 
FFFCCF98 00000000 
FFFCCF9A 00000000 
FFFCCF9C 00000000 
FFFCCF9E 00000000 
FFFCCFA0 00000000 
FFFCCFA2 00000000 
FFFCCFA4 00000000 
FFFCCFA6 00000000 
FFFCCFA8 00000000 
FFFCCFAA 00000000 
FFFCCFAC 00000000 
FFFCCFAE 00000000 
FFFCCFB0 00000000 
FFFCCFB2 00000000 
FFFCCFB4 00000000 
FFFCCFB6 00000000 
FFFCCFB8 00000000 
FFFCCFBA 00000000 
FFFCCFBC 00000000 
FFFCCFBE 00000000 
FFFCCFC0 00000000 
FFFCCFC2 00000000 
FFFCCFC4 00000000 
FFFCCFC6 00000000 
FFFCCFC8 00000000 
FFFCCFCA 00000000 
FFFCCFCC 00000000 
FFFCCFCE 00000000 
FFFCCFD0 00000000 
FFFCCFD2 00000000 
FFFCCFD4 00000000 
FFFCCFD6 00000000 
FFFCCFD8 00000000 
FFFCCFDA 00000000 
FFFCCFDC 00000000 
FFFCCFDE 00000000 
FFFCCFE0 00000000 
FFFCCFE2 00000000 
FFFCCFE4 00000000 
FFFCCFE6 00000000 
FFFCCFE8 00000000 
FFFCCFEA 00000000 
FFFCCFEC 00000000 
FFFCCFEE 00000000 
FFFCCFF0 00000000 
FFFCCFF2 00000000 
FFFCCFF4 00000000 
FFFCCFF6 00000000 
FFFCCFF8 00000000 
FFFCCFFA 00000000 
FFFCCFFC 00000000 
FFFCCFFE 00000000 
FFFCD000 00000000 
FFFCD002 00000000 
FFFCD004 00000000 
FFFCD006 00000000 
FFFCD008 00000000 
FFFCD00A 00000000 
FFFCD00C 00000000 
FFFCD00E 00000000 
FFFCD010 00000000 
FFFCD012 00000000 
FFFCD014 00000000 
FFFCD016 00000000 
FFFCD018 00000000 
FFFCD01A 00000000 
FFFCD01C 00000000 
FFFCD01E 00000000 
FFFCD020 00000000 
FFFCD022 00000000 
FFFCD024 00000000 
FFFCD026 00000000 
FFFCD028 00000000 
FFFCD02A 00000000 
FFFCD02C 00000000 
FFFCD02E 00000000 
FFFCD030 00000000 
FFFCD032 00000000 
FFFCD034 00000000 
FFFCD036 00000000 
FFFCD038 00000000 
FFFCD03A 00000000 
FFFCD03C 00000000 
FFFCD03E 00000000 
FFFCD040 00000000 
FFFCD042 00000000 
FFFCD044 00000000 
FFFCD046 00000000 
FFFCD048 00000000 
FFFCD04A 00000000 
FFFCD04C 00000000 
FFFCD04E 00000000 
FFFCD050 00000000 
FFFCD052 00000000 
FFFCD054 00000000 
FFFCD056 00000000 
FFFCD058 00000000 
FFFCD05A 00000000 
FFFCD05C 00000000 
FFFCD05E 00000000 
FFFCD060 00000000 
FFFCD062 00000000 
FFFCD064 00000000 
FFFCD066 00000000 
FFFCD068 00000000 
FFFCD06A 00000000 
FFFCD06C 00000000 
FFFCD06E 00000000 
FFFCD070 00000000 
FFFCD072 00000000 
FFFCD074 00000000 
FFFCD076 00000000 
FFFCD078 00000000 
FFFCD07A 00000000 
FFFCD07C 00000000 
FFFCD07E 00000000 
FFFCD080 00000000 
FFFCD082 00000000 
FFFCD084 00000000 
FFFCD086 00000000 
FFFCD088 00000000 
FFFCD08A 00000000 
FFFCD08C 00000000 
FFFCD08E 00000000 
FFFCD090 00000000 
FFFCD092 00000000 
FFFCD094 00000000 
FFFCD096 00000000 
FFFCD098 00000000 
FFFCD09A 00000000 
FFFCD09C 00000000 
FFFCD09E 00000000 
FFFCD0A0 00000000 
FFFCD0A2 00000000 
FFFCD0A4 00000000 
FFFCD0A6 00000000 
FFFCD0A8 00000000 
FFFCD0AA 00000000 
FFFCD0AC 00000000 
FFFCD0AE 00000000 
FFFCD0B0 00000000 
FFFCD0B2 00000000 
FFFCD0B4 00000000 
FFFCD0B6 00000000 
FFFCD0B8 00000000 
FFFCD0BA 00000000 
FFFCD0BC 00000000 
FFFCD0BE 00000000 
FFFCD0C0 00000000 
FFFCD0C2 00000000 
FFFCD0C4 00000000 
FFFCD0C6 00000000 
FFFCD0C8 00000000 
FFFCD0CA 00000000 
FFFCD0CC 00000000 
FFFCD0CE 00000000 
FFFCD0D0 00000000 
FFFCD0D2 00000000 
FFFCD0D4 00000000 
FFFCD0D6 00000000 
FFFCD0D8 00000000 
FFFCD0DA 00000000 
FFFCD0DC 00000000 
FFFCD0DE 00000000 
FFFCD0E0 00000000 
FFFCD0E2 00000000 
FFFCD0E4 00000000 
FFFCD0E6 00000000 
FFFCD0E8 00000000 
FFFCD0EA 00000000 
FFFCD0EC 00000000 
FFFCD0EE 00000000 
FFFCD0F0 00000000 
FFFCD0F2 00000000 
FFFCD0F4 00000000 
FFFCD0F6 00000000 
FFFCD0F8 00000000 
FFFCD0FA 00000000 
FFFCD0FC 00000000 
FFFCD0FE 00000000 
FFFCD100 00000000 
FFFCD102 00000000 
FFFCD104 00000000 
FFFCD106 00000000 
FFFCD108 00000000 
FFFCD10A 00000000 
FFFCD10C 00000000 
FFFCD10E 00000000 
FFFCD110 00000000 
FFFCD112 00000000 
FFFCD114 00000000 
FFFCD116 00000000 
FFFCD118 00000000 
FFFCD11A 00000000 
FFFCD11C 00000000 
FFFCD11E 00000000 
FFFCD120 00000000 
FFFCD122 00000000 
FFFCD124 00000000 
FFFCD126 00000000 
FFFCD128 00000000 
FFFCD12A 00000000 
FFFCD12C 00000000 
FFFCD12E 00000000 
FFFCD130 00000000 
FFFCD132 00000000 
FFFCD134 00000000 
FFFCD136 00000000 
FFFCD138 00000000 
FFFCD13A 00000000 
FFFCD13C 00000000 
FFFCD13E 00000000 
FFFCD140 00000000 
FFFCD142 00000000 
FFFCD144 00000000 
FFFCD146 00000000 
FFFCD148 00000000 
FFFCD14A 00000000 
FFFCD14C 00000000 
FFFCD14E 00000000 
FFFCD150 00000000 
FFFCD152 00000000 
FFFCD154 00000000 
FFFCD156 00000000 
FFFCD158 00000000 
FFFCD15A 00000000 
FFFCD15C 00000000 
FFFCD15E 00000000 
FFFCD160 00000000 
FFFCD162 00000000 
FFFCD164 00000000 
FFFCD166 00000000 
FFFCD168 00000000 
FFFCD16A 00000000 
FFFCD16C 00000000 
FFFCD16E 00000000 
FFFCD170 00000000 
FFFCD172 00000000 
FFFCD174 00000000 
FFFCD176 00000000 
FFFCD178 00000000 
FFFCD17A 00000000 
FFFCD17C 00000000 
FFFCD17E 00000000 
FFFCD180 00000000 
FFFCD182 00000000 
FFFCD184 00000000 
FFFCD186 00000000 
FFFCD188 00000000 
FFFCD18A 00000000 
FFFCD18C 00000000 
FFFCD18E 00000000 
FFFCD190 00000000 
FFFCD192 00000000 
FFFCD194 00000000 
FFFCD196 00000000 
FFFCD198 00000000 
FFFCD19A 00000000 
FFFCD19C 00000000 
FFFCD19E 00000000 
FFFCD1A0 00000000 
FFFCD1A2 00000000 
FFFCD1A4 00000000 
FFFCD1A6 00000000 
FFFCD1A8 00000000 
FFFCD1AA 00000000 
FFFCD1AC 00000000 
FFFCD1AE 00000000 
FFFCD1B0 00000000 
FFFCD1B2 00000000 
FFFCD1B4 00000000 
FFFCD1B6 00000000 
FFFCD1B8 00000000 
FFFCD1BA 00000000 
FFFCD1BC 00000000 
FFFCD1BE 00000000 
FFFCD1C0 00000000 
FFFCD1C2 00000000 
FFFCD1C4 00000000 
FFFCD1C6 00000000 
FFFCD1C8 00000000 
FFFCD1CA 00000000 
FFFCD1CC 00000000 
FFFCD1CE 00000000 
FFFCD1D0 00000000 
FFFCD1D2 00000000 
FFFCD1D4 00000000 
FFFCD1D6 00000000 
FFFCD1D8 00000000 
FFFCD1DA 00000000 
FFFCD1DC 00000000 
FFFCD1DE 00000000 
FFFCD1E0 00000000 
FFFCD1E2 00000000 
FFFCD1E4 00000000 
FFFCD1E6 00000000 
FFFCD1E8 00000000 
FFFCD1EA 00000000 
FFFCD1EC 00000000 
FFFCD1EE 00000000 
FFFCD1F0 00000000 
FFFCD1F2 00000000 
FFFCD1F4 00000000 
FFFCD1F6 00000000 
FFFCD1F8 00000000 
FFFCD1FA 00000000 
FFFCD1FC 00000000 
FFFCD1FE 00000000 
FFFCD200 00000000 
FFFCD202 00000000 
FFFCD204 00000000 
FFFCD206 00000000 
FFFCD208 00000000 
FFFCD20A 00000000 
FFFCD20C 00000000 
FFFCD20E 00000000 
FFFCD210 00000000 
FFFCD212 00000000 
FFFCD214 00000000 
FFFCD216 00000000 
FFFCD218 00000000 
FFFCD21A 00000000 
FFFCD21C 00000000 
FFFCD21E 00000000 
FFFCD220 00000000 
FFFCD222 00000000 
FFFCD224 00000000 
FFFCD226 00000000 
FFFCD228 00000000 
FFFCD22A 00000000 
FFFCD22C 00000000 
FFFCD22E 00000000 
FFFCD230 00000000 
FFFCD232 00000000 
FFFCD234 00000000 
FFFCD236 00000000 
FFFCD238 00000000 
FFFCD23A 00000000 
FFFCD23C 00000000 
FFFCD23E 00000000 
FFFCD240 00000000 
FFFCD242 00000000 
FFFCD244 00000000 
FFFCD246 00000000 
FFFCD248 00000000 
FFFCD24A 00000000 
FFFCD24C 00000000 
FFFCD24E 00000000 
FFFCD250 00000000 
FFFCD252 00000000 
FFFCD254 00000000 
FFFCD256 00000000 
FFFCD258 00000000 
FFFCD25A 00000000 
FFFCD25C 00000000 
FFFCD25E 00000000 
FFFCD260 00000000 
FFFCD262 00000000 
FFFCD264 00000000 
FFFCD266 00000000 
FFFCD268 00000000 
FFFCD26A 00000000 
FFFCD26C 00000000 
FFFCD26E 00000000 
FFFCD270 00000000 
FFFCD272 00000000 
FFFCD274 00000000 
FFFCD276 00000000 
FFFCD278 00000000 
FFFCD27A 00000000 
FFFCD27C 00000000 
FFFCD27E 00000000 
FFFCD280 00000000 
FFFCD282 00000000 
FFFCD284 00000000 
FFFCD286 00000000 
FFFCD288 00000000 
FFFCD28A 00000000 
FFFCD28C 00000000 
FFFCD28E 00000000 
FFFCD290 00000000 
FFFCD292 00000000 
FFFCD294 00000000 
FFFCD296 00000000 
FFFCD298 00000000 
FFFCD29A 00000000 
FFFCD29C 00000000 
FFFCD29E 00000000 
FFFCD2A0 00000000 
FFFCD2A2 00000000 
FFFCD2A4 00000000 
FFFCD2A6 00000000 
FFFCD2A8 00000000 
FFFCD2AA 00000000 
FFFCD2AC 00000000 
FFFCD2AE 00000000 
FFFCD2B0 00000000 
FFFCD2B2 00000000 
FFFCD2B4 00000000 
FFFCD2B6 00000000 
FFFCD2B8 00000000 
FFFCD2BA 00000000 
FFFCD2BC 00000000 
FFFCD2BE 00000000 
FFFCD2C0 00000000 
FFFCD2C2 00000000 
FFFCD2C4 00000000 
FFFCD2C6 00000000 
FFFCD2C8 00000000 
FFFCD2CA 00000000 
FFFCD2CC 00000000 
FFFCD2CE 00000000 
FFFCD2D0 00000000 
FFFCD2D2 00000000 
FFFCD2D4 00000000 
FFFCD2D6 00000000 
FFFCD2D8 00000000 
FFFCD2DA 00000000 
FFFCD2DC 00000000 
FFFCD2DE 00000000 
FFFCD2E0 00000000 
FFFCD2E2 00000000 
FFFCD2E4 00000000 
FFFCD2E6 00000000 
FFFCD2E8 00000000 
FFFCD2EA 00000000 
FFFCD2EC 00000000 
FFFCD2EE 00000000 
FFFCD2F0 00000000 
FFFCD2F2 00000000 
FFFCD2F4 00000000 
FFFCD2F6 00000000 
FFFCD2F8 00000000 
FFFCD2FA 00000000 
FFFCD2FC 00000000 
FFFCD2FE 00000000 
FFFCD300 00000000 
FFFCD302 00000000 
FFFCD304 00000000 
FFFCD306 00000000 
FFFCD308 00000000 
FFFCD30A 00000000 
FFFCD30C 00000000 
FFFCD30E 00000000 
FFFCD310 00000000 
FFFCD312 00000000 
FFFCD314 00000000 
FFFCD316 00000000 
FFFCD318 00000000 
FFFCD31A 00000000 
FFFCD31C 00000000 
FFFCD31E 00000000 
FFFCD320 00000000 
FFFCD322 00000000 
FFFCD324 00000000 
FFFCD326 00000000 
FFFCD328 00000000 
FFFCD32A 00000000 
FFFCD32C 00000000 
FFFCD32E 00000000 
FFFCD330 00000000 
FFFCD332 00000000 
FFFCD334 00000000 
FFFCD336 00000000 
FFFCD338 00000000 
FFFCD33A 00000000 
FFFCD33C 00000000 
FFFCD33E 00000000 
FFFCD340 00000000 
FFFCD342 00000000 
FFFCD344 00000000 
FFFCD346 00000000 
FFFCD348 00000000 
FFFCD34A 00000000 
FFFCD34C 00000000 
FFFCD34E 00000000 
                        		align	8                        	
                        		align	8                        	
                        		align	8                        	
                        		align	8                        	
                        		data
                        		align	8                        	
FFFCD720 00000000 		fill.b	8,0x00
FFFCD722 00000000 
                        		align	8                        	
FFFCD728 00000000 		fill.b	1952,0x00
FFFCD72A 00000000 
FFFCD72C 00000000 
FFFCD72E 00000000 
FFFCD730 00000000 
FFFCD732 00000000 
FFFCD734 00000000 
FFFCD736 00000000 
FFFCD738 00000000 
FFFCD73A 00000000 
FFFCD73C 00000000 
FFFCD73E 00000000 
FFFCD740 00000000 
FFFCD742 00000000 
FFFCD744 00000000 
FFFCD746 00000000 
FFFCD748 00000000 
FFFCD74A 00000000 
FFFCD74C 00000000 
FFFCD74E 00000000 
FFFCD750 00000000 
FFFCD752 00000000 
FFFCD754 00000000 
FFFCD756 00000000 
FFFCD758 00000000 
FFFCD75A 00000000 
FFFCD75C 00000000 
FFFCD75E 00000000 
FFFCD760 00000000 
FFFCD762 00000000 
FFFCD764 00000000 
FFFCD766 00000000 
FFFCD768 00000000 
FFFCD76A 00000000 
FFFCD76C 00000000 
FFFCD76E 00000000 
FFFCD770 00000000 
FFFCD772 00000000 
FFFCD774 00000000 
FFFCD776 00000000 
FFFCD778 00000000 
FFFCD77A 00000000 
FFFCD77C 00000000 
FFFCD77E 00000000 
FFFCD780 00000000 
FFFCD782 00000000 
FFFCD784 00000000 
FFFCD786 00000000 
FFFCD788 00000000 
FFFCD78A 00000000 
FFFCD78C 00000000 
FFFCD78E 00000000 
FFFCD790 00000000 
FFFCD792 00000000 
FFFCD794 00000000 
FFFCD796 00000000 
FFFCD798 00000000 
FFFCD79A 00000000 
FFFCD79C 00000000 
FFFCD79E 00000000 
FFFCD7A0 00000000 
FFFCD7A2 00000000 
FFFCD7A4 00000000 
FFFCD7A6 00000000 
FFFCD7A8 00000000 
FFFCD7AA 00000000 
FFFCD7AC 00000000 
FFFCD7AE 00000000 
FFFCD7B0 00000000 
FFFCD7B2 00000000 
FFFCD7B4 00000000 
FFFCD7B6 00000000 
FFFCD7B8 00000000 
FFFCD7BA 00000000 
FFFCD7BC 00000000 
FFFCD7BE 00000000 
FFFCD7C0 00000000 
FFFCD7C2 00000000 
FFFCD7C4 00000000 
FFFCD7C6 00000000 
FFFCD7C8 00000000 
FFFCD7CA 00000000 
FFFCD7CC 00000000 
FFFCD7CE 00000000 
FFFCD7D0 00000000 
FFFCD7D2 00000000 
FFFCD7D4 00000000 
FFFCD7D6 00000000 
FFFCD7D8 00000000 
FFFCD7DA 00000000 
FFFCD7DC 00000000 
FFFCD7DE 00000000 
FFFCD7E0 00000000 
FFFCD7E2 00000000 
FFFCD7E4 00000000 
FFFCD7E6 00000000 
FFFCD7E8 00000000 
FFFCD7EA 00000000 
FFFCD7EC 00000000 
FFFCD7EE 00000000 
FFFCD7F0 00000000 
FFFCD7F2 00000000 
FFFCD7F4 00000000 
FFFCD7F6 00000000 
FFFCD7F8 00000000 
FFFCD7FA 00000000 
FFFCD7FC 00000000 
FFFCD7FE 00000000 
FFFCD800 00000000 
FFFCD802 00000000 
FFFCD804 00000000 
FFFCD806 00000000 
FFFCD808 00000000 
FFFCD80A 00000000 
FFFCD80C 00000000 
FFFCD80E 00000000 
FFFCD810 00000000 
FFFCD812 00000000 
FFFCD814 00000000 
FFFCD816 00000000 
FFFCD818 00000000 
FFFCD81A 00000000 
FFFCD81C 00000000 
FFFCD81E 00000000 
FFFCD820 00000000 
FFFCD822 00000000 
FFFCD824 00000000 
FFFCD826 00000000 
FFFCD828 00000000 
FFFCD82A 00000000 
FFFCD82C 00000000 
FFFCD82E 00000000 
FFFCD830 00000000 
FFFCD832 00000000 
FFFCD834 00000000 
FFFCD836 00000000 
FFFCD838 00000000 
FFFCD83A 00000000 
FFFCD83C 00000000 
FFFCD83E 00000000 
FFFCD840 00000000 
FFFCD842 00000000 
FFFCD844 00000000 
FFFCD846 00000000 
FFFCD848 00000000 
FFFCD84A 00000000 
FFFCD84C 00000000 
FFFCD84E 00000000 
FFFCD850 00000000 
FFFCD852 00000000 
FFFCD854 00000000 
FFFCD856 00000000 
FFFCD858 00000000 
FFFCD85A 00000000 
FFFCD85C 00000000 
FFFCD85E 00000000 
FFFCD860 00000000 
FFFCD862 00000000 
FFFCD864 00000000 
FFFCD866 00000000 
FFFCD868 00000000 
FFFCD86A 00000000 
FFFCD86C 00000000 
FFFCD86E 00000000 
FFFCD870 00000000 
FFFCD872 00000000 
FFFCD874 00000000 
FFFCD876 00000000 
FFFCD878 00000000 
FFFCD87A 00000000 
FFFCD87C 00000000 
FFFCD87E 00000000 
FFFCD880 00000000 
FFFCD882 00000000 
FFFCD884 00000000 
FFFCD886 00000000 
FFFCD888 00000000 
FFFCD88A 00000000 
FFFCD88C 00000000 
FFFCD88E 00000000 
FFFCD890 00000000 
FFFCD892 00000000 
FFFCD894 00000000 
FFFCD896 00000000 
FFFCD898 00000000 
FFFCD89A 00000000 
FFFCD89C 00000000 
FFFCD89E 00000000 
FFFCD8A0 00000000 
FFFCD8A2 00000000 
FFFCD8A4 00000000 
FFFCD8A6 00000000 
FFFCD8A8 00000000 
FFFCD8AA 00000000 
FFFCD8AC 00000000 
FFFCD8AE 00000000 
FFFCD8B0 00000000 
FFFCD8B2 00000000 
FFFCD8B4 00000000 
FFFCD8B6 00000000 
FFFCD8B8 00000000 
FFFCD8BA 00000000 
FFFCD8BC 00000000 
FFFCD8BE 00000000 
FFFCD8C0 00000000 
FFFCD8C2 00000000 
FFFCD8C4 00000000 
FFFCD8C6 00000000 
FFFCD8C8 00000000 
FFFCD8CA 00000000 
FFFCD8CC 00000000 
FFFCD8CE 00000000 
FFFCD8D0 00000000 
FFFCD8D2 00000000 
FFFCD8D4 00000000 
FFFCD8D6 00000000 
FFFCD8D8 00000000 
FFFCD8DA 00000000 
FFFCD8DC 00000000 
FFFCD8DE 00000000 
FFFCD8E0 00000000 
FFFCD8E2 00000000 
FFFCD8E4 00000000 
FFFCD8E6 00000000 
FFFCD8E8 00000000 
FFFCD8EA 00000000 
FFFCD8EC 00000000 
FFFCD8EE 00000000 
FFFCD8F0 00000000 
FFFCD8F2 00000000 
FFFCD8F4 00000000 
FFFCD8F6 00000000 
FFFCD8F8 00000000 
FFFCD8FA 00000000 
FFFCD8FC 00000000 
FFFCD8FE 00000000 
FFFCD900 00000000 
FFFCD902 00000000 
FFFCD904 00000000 
FFFCD906 00000000 
FFFCD908 00000000 
FFFCD90A 00000000 
FFFCD90C 00000000 
FFFCD90E 00000000 
FFFCD910 00000000 
FFFCD912 00000000 
FFFCD914 00000000 
FFFCD916 00000000 
FFFCD918 00000000 
FFFCD91A 00000000 
FFFCD91C 00000000 
FFFCD91E 00000000 
FFFCD920 00000000 
FFFCD922 00000000 
FFFCD924 00000000 
FFFCD926 00000000 
FFFCD928 00000000 
FFFCD92A 00000000 
FFFCD92C 00000000 
FFFCD92E 00000000 
FFFCD930 00000000 
FFFCD932 00000000 
FFFCD934 00000000 
FFFCD936 00000000 
FFFCD938 00000000 
FFFCD93A 00000000 
FFFCD93C 00000000 
FFFCD93E 00000000 
FFFCD940 00000000 
FFFCD942 00000000 
FFFCD944 00000000 
FFFCD946 00000000 
FFFCD948 00000000 
FFFCD94A 00000000 
FFFCD94C 00000000 
FFFCD94E 00000000 
FFFCD950 00000000 
FFFCD952 00000000 
FFFCD954 00000000 
FFFCD956 00000000 
FFFCD958 00000000 
FFFCD95A 00000000 
FFFCD95C 00000000 
FFFCD95E 00000000 
FFFCD960 00000000 
FFFCD962 00000000 
FFFCD964 00000000 
FFFCD966 00000000 
FFFCD968 00000000 
FFFCD96A 00000000 
FFFCD96C 00000000 
FFFCD96E 00000000 
FFFCD970 00000000 
FFFCD972 00000000 
FFFCD974 00000000 
FFFCD976 00000000 
FFFCD978 00000000 
FFFCD97A 00000000 
FFFCD97C 00000000 
FFFCD97E 00000000 
FFFCD980 00000000 
FFFCD982 00000000 
FFFCD984 00000000 
FFFCD986 00000000 
FFFCD988 00000000 
FFFCD98A 00000000 
FFFCD98C 00000000 
FFFCD98E 00000000 
FFFCD990 00000000 
FFFCD992 00000000 
FFFCD994 00000000 
FFFCD996 00000000 
FFFCD998 00000000 
FFFCD99A 00000000 
FFFCD99C 00000000 
FFFCD99E 00000000 
FFFCD9A0 00000000 
FFFCD9A2 00000000 
FFFCD9A4 00000000 
FFFCD9A6 00000000 
FFFCD9A8 00000000 
FFFCD9AA 00000000 
FFFCD9AC 00000000 
FFFCD9AE 00000000 
FFFCD9B0 00000000 
FFFCD9B2 00000000 
FFFCD9B4 00000000 
FFFCD9B6 00000000 
FFFCD9B8 00000000 
FFFCD9BA 00000000 
FFFCD9BC 00000000 
FFFCD9BE 00000000 
FFFCD9C0 00000000 
FFFCD9C2 00000000 
FFFCD9C4 00000000 
FFFCD9C6 00000000 
FFFCD9C8 00000000 
FFFCD9CA 00000000 
FFFCD9CC 00000000 
FFFCD9CE 00000000 
FFFCD9D0 00000000 
FFFCD9D2 00000000 
FFFCD9D4 00000000 
FFFCD9D6 00000000 
FFFCD9D8 00000000 
FFFCD9DA 00000000 
FFFCD9DC 00000000 
FFFCD9DE 00000000 
FFFCD9E0 00000000 
FFFCD9E2 00000000 
FFFCD9E4 00000000 
FFFCD9E6 00000000 
FFFCD9E8 00000000 
FFFCD9EA 00000000 
FFFCD9EC 00000000 
FFFCD9EE 00000000 
FFFCD9F0 00000000 
FFFCD9F2 00000000 
FFFCD9F4 00000000 
FFFCD9F6 00000000 
FFFCD9F8 00000000 
FFFCD9FA 00000000 
FFFCD9FC 00000000 
FFFCD9FE 00000000 
FFFCDA00 00000000 
FFFCDA02 00000000 
FFFCDA04 00000000 
FFFCDA06 00000000 
FFFCDA08 00000000 
FFFCDA0A 00000000 
FFFCDA0C 00000000 
FFFCDA0E 00000000 
FFFCDA10 00000000 
FFFCDA12 00000000 
FFFCDA14 00000000 
FFFCDA16 00000000 
FFFCDA18 00000000 
FFFCDA1A 00000000 
FFFCDA1C 00000000 
FFFCDA1E 00000000 
FFFCDA20 00000000 
FFFCDA22 00000000 
FFFCDA24 00000000 
FFFCDA26 00000000 
FFFCDA28 00000000 
FFFCDA2A 00000000 
FFFCDA2C 00000000 
FFFCDA2E 00000000 
FFFCDA30 00000000 
FFFCDA32 00000000 
FFFCDA34 00000000 
FFFCDA36 00000000 
FFFCDA38 00000000 
FFFCDA3A 00000000 
FFFCDA3C 00000000 
FFFCDA3E 00000000 
FFFCDA40 00000000 
FFFCDA42 00000000 
FFFCDA44 00000000 
FFFCDA46 00000000 
FFFCDA48 00000000 
FFFCDA4A 00000000 
FFFCDA4C 00000000 
FFFCDA4E 00000000 
FFFCDA50 00000000 
FFFCDA52 00000000 
FFFCDA54 00000000 
FFFCDA56 00000000 
FFFCDA58 00000000 
FFFCDA5A 00000000 
FFFCDA5C 00000000 
FFFCDA5E 00000000 
FFFCDA60 00000000 
FFFCDA62 00000000 
FFFCDA64 00000000 
FFFCDA66 00000000 
FFFCDA68 00000000 
FFFCDA6A 00000000 
FFFCDA6C 00000000 
FFFCDA6E 00000000 
FFFCDA70 00000000 
FFFCDA72 00000000 
FFFCDA74 00000000 
FFFCDA76 00000000 
FFFCDA78 00000000 
FFFCDA7A 00000000 
FFFCDA7C 00000000 
FFFCDA7E 00000000 
FFFCDA80 00000000 
FFFCDA82 00000000 
FFFCDA84 00000000 
FFFCDA86 00000000 
FFFCDA88 00000000 
FFFCDA8A 00000000 
FFFCDA8C 00000000 
FFFCDA8E 00000000 
FFFCDA90 00000000 
FFFCDA92 00000000 
FFFCDA94 00000000 
FFFCDA96 00000000 
FFFCDA98 00000000 
FFFCDA9A 00000000 
FFFCDA9C 00000000 
FFFCDA9E 00000000 
FFFCDAA0 00000000 
FFFCDAA2 00000000 
FFFCDAA4 00000000 
FFFCDAA6 00000000 
FFFCDAA8 00000000 
FFFCDAAA 00000000 
FFFCDAAC 00000000 
FFFCDAAE 00000000 
FFFCDAB0 00000000 
FFFCDAB2 00000000 
FFFCDAB4 00000000 
FFFCDAB6 00000000 
FFFCDAB8 00000000 
FFFCDABA 00000000 
FFFCDABC 00000000 
FFFCDABE 00000000 
FFFCDAC0 00000000 
FFFCDAC2 00000000 
FFFCDAC4 00000000 
FFFCDAC6 00000000 
FFFCDAC8 00000000 
FFFCDACA 00000000 
FFFCDACC 00000000 
FFFCDACE 00000000 
FFFCDAD0 00000000 
FFFCDAD2 00000000 
FFFCDAD4 00000000 
FFFCDAD6 00000000 
FFFCDAD8 00000000 
FFFCDADA 00000000 
FFFCDADC 00000000 
FFFCDADE 00000000 
FFFCDAE0 00000000 
FFFCDAE2 00000000 
FFFCDAE4 00000000 
FFFCDAE6 00000000 
FFFCDAE8 00000000 
FFFCDAEA 00000000 
FFFCDAEC 00000000 
FFFCDAEE 00000000 
FFFCDAF0 00000000 
FFFCDAF2 00000000 
FFFCDAF4 00000000 
FFFCDAF6 00000000 
                        		align	8                        	
                        		align	8                        	
                        		align	8                        	
                        		align	8                        	
                        		data
                        		align	8                        	
FFFCDEC8 00000000 		fill.b	2,0x00
                        		data
FFFCDECA 00000000 		align	
FFFCDECC 00000000 
                        	
FFFCDED0 00000000 		fill.b	6,0x00
FFFCDED2 00000000 
                        		data
                        		align	2                        	
                        	FMTKc_95:	; _startQNdx
FFFCDED6 00000000 		fill.b	2,0x00
                        		data
                        		align	2                        	
                        	FMTKc_304:	; _ex
FFFCDED8 00000000 		dw	0
FFFCDEDA 00000000 
                        		data
                        		align	8                        	
                        		data
                        		align	8                        	
                        		data
                        		align	8                        	
FFFCDEE0 00000000 		fill.b	8,0x00
FFFCDEE2 00000000 
                        		align	8                        	
FFFCDEE8 00000000 		fill.b	1952,0x00
FFFCDEEA 00000000 
FFFCDEEC 00000000 
FFFCDEEE 00000000 
FFFCDEF0 00000000 
FFFCDEF2 00000000 
FFFCDEF4 00000000 
FFFCDEF6 00000000 
FFFCDEF8 00000000 
FFFCDEFA 00000000 
FFFCDEFC 00000000 
FFFCDEFE 00000000 
FFFCDF00 00000000 
FFFCDF02 00000000 
FFFCDF04 00000000 
FFFCDF06 00000000 
FFFCDF08 00000000 
FFFCDF0A 00000000 
FFFCDF0C 00000000 
FFFCDF0E 00000000 
FFFCDF10 00000000 
FFFCDF12 00000000 
FFFCDF14 00000000 
FFFCDF16 00000000 
FFFCDF18 00000000 
FFFCDF1A 00000000 
FFFCDF1C 00000000 
FFFCDF1E 00000000 
FFFCDF20 00000000 
FFFCDF22 00000000 
FFFCDF24 00000000 
FFFCDF26 00000000 
FFFCDF28 00000000 
FFFCDF2A 00000000 
FFFCDF2C 00000000 
FFFCDF2E 00000000 
FFFCDF30 00000000 
FFFCDF32 00000000 
FFFCDF34 00000000 
FFFCDF36 00000000 
FFFCDF38 00000000 
FFFCDF3A 00000000 
FFFCDF3C 00000000 
FFFCDF3E 00000000 
FFFCDF40 00000000 
FFFCDF42 00000000 
FFFCDF44 00000000 
FFFCDF46 00000000 
FFFCDF48 00000000 
FFFCDF4A 00000000 
FFFCDF4C 00000000 
FFFCDF4E 00000000 
FFFCDF50 00000000 
FFFCDF52 00000000 
FFFCDF54 00000000 
FFFCDF56 00000000 
FFFCDF58 00000000 
FFFCDF5A 00000000 
FFFCDF5C 00000000 
FFFCDF5E 00000000 
FFFCDF60 00000000 
FFFCDF62 00000000 
FFFCDF64 00000000 
FFFCDF66 00000000 
FFFCDF68 00000000 
FFFCDF6A 00000000 
FFFCDF6C 00000000 
FFFCDF6E 00000000 
FFFCDF70 00000000 
FFFCDF72 00000000 
FFFCDF74 00000000 
FFFCDF76 00000000 
FFFCDF78 00000000 
FFFCDF7A 00000000 
FFFCDF7C 00000000 
FFFCDF7E 00000000 
FFFCDF80 00000000 
FFFCDF82 00000000 
FFFCDF84 00000000 
FFFCDF86 00000000 
FFFCDF88 00000000 
FFFCDF8A 00000000 
FFFCDF8C 00000000 
FFFCDF8E 00000000 
FFFCDF90 00000000 
FFFCDF92 00000000 
FFFCDF94 00000000 
FFFCDF96 00000000 
FFFCDF98 00000000 
FFFCDF9A 00000000 
FFFCDF9C 00000000 
FFFCDF9E 00000000 
FFFCDFA0 00000000 
FFFCDFA2 00000000 
FFFCDFA4 00000000 
FFFCDFA6 00000000 
FFFCDFA8 00000000 
FFFCDFAA 00000000 
FFFCDFAC 00000000 
FFFCDFAE 00000000 
FFFCDFB0 00000000 
FFFCDFB2 00000000 
FFFCDFB4 00000000 
FFFCDFB6 00000000 
FFFCDFB8 00000000 
FFFCDFBA 00000000 
FFFCDFBC 00000000 
FFFCDFBE 00000000 
FFFCDFC0 00000000 
FFFCDFC2 00000000 
FFFCDFC4 00000000 
FFFCDFC6 00000000 
FFFCDFC8 00000000 
FFFCDFCA 00000000 
FFFCDFCC 00000000 
FFFCDFCE 00000000 
FFFCDFD0 00000000 
FFFCDFD2 00000000 
FFFCDFD4 00000000 
FFFCDFD6 00000000 
FFFCDFD8 00000000 
FFFCDFDA 00000000 
FFFCDFDC 00000000 
FFFCDFDE 00000000 
FFFCDFE0 00000000 
FFFCDFE2 00000000 
FFFCDFE4 00000000 
FFFCDFE6 00000000 
FFFCDFE8 00000000 
FFFCDFEA 00000000 
FFFCDFEC 00000000 
FFFCDFEE 00000000 
FFFCDFF0 00000000 
FFFCDFF2 00000000 
FFFCDFF4 00000000 
FFFCDFF6 00000000 
FFFCDFF8 00000000 
FFFCDFFA 00000000 
FFFCDFFC 00000000 
FFFCDFFE 00000000 
FFFCE000 00000000 
FFFCE002 00000000 
FFFCE004 00000000 
FFFCE006 00000000 
FFFCE008 00000000 
FFFCE00A 00000000 
FFFCE00C 00000000 
FFFCE00E 00000000 
FFFCE010 00000000 
FFFCE012 00000000 
FFFCE014 00000000 
FFFCE016 00000000 
FFFCE018 00000000 
FFFCE01A 00000000 
FFFCE01C 00000000 
FFFCE01E 00000000 
FFFCE020 00000000 
FFFCE022 00000000 
FFFCE024 00000000 
FFFCE026 00000000 
FFFCE028 00000000 
FFFCE02A 00000000 
FFFCE02C 00000000 
FFFCE02E 00000000 
FFFCE030 00000000 
FFFCE032 00000000 
FFFCE034 00000000 
FFFCE036 00000000 
FFFCE038 00000000 
FFFCE03A 00000000 
FFFCE03C 00000000 
FFFCE03E 00000000 
FFFCE040 00000000 
FFFCE042 00000000 
FFFCE044 00000000 
FFFCE046 00000000 
FFFCE048 00000000 
FFFCE04A 00000000 
FFFCE04C 00000000 
FFFCE04E 00000000 
FFFCE050 00000000 
FFFCE052 00000000 
FFFCE054 00000000 
FFFCE056 00000000 
FFFCE058 00000000 
FFFCE05A 00000000 
FFFCE05C 00000000 
FFFCE05E 00000000 
FFFCE060 00000000 
FFFCE062 00000000 
FFFCE064 00000000 
FFFCE066 00000000 
FFFCE068 00000000 
FFFCE06A 00000000 
FFFCE06C 00000000 
FFFCE06E 00000000 
FFFCE070 00000000 
FFFCE072 00000000 
FFFCE074 00000000 
FFFCE076 00000000 
FFFCE078 00000000 
FFFCE07A 00000000 
FFFCE07C 00000000 
FFFCE07E 00000000 
FFFCE080 00000000 
FFFCE082 00000000 
FFFCE084 00000000 
FFFCE086 00000000 
FFFCE088 00000000 
FFFCE08A 00000000 
FFFCE08C 00000000 
FFFCE08E 00000000 
FFFCE090 00000000 
FFFCE092 00000000 
FFFCE094 00000000 
FFFCE096 00000000 
FFFCE098 00000000 
FFFCE09A 00000000 
FFFCE09C 00000000 
FFFCE09E 00000000 
FFFCE0A0 00000000 
FFFCE0A2 00000000 
FFFCE0A4 00000000 
FFFCE0A6 00000000 
FFFCE0A8 00000000 
FFFCE0AA 00000000 
FFFCE0AC 00000000 
FFFCE0AE 00000000 
FFFCE0B0 00000000 
FFFCE0B2 00000000 
FFFCE0B4 00000000 
FFFCE0B6 00000000 
FFFCE0B8 00000000 
FFFCE0BA 00000000 
FFFCE0BC 00000000 
FFFCE0BE 00000000 
FFFCE0C0 00000000 
FFFCE0C2 00000000 
FFFCE0C4 00000000 
FFFCE0C6 00000000 
FFFCE0C8 00000000 
FFFCE0CA 00000000 
FFFCE0CC 00000000 
FFFCE0CE 00000000 
FFFCE0D0 00000000 
FFFCE0D2 00000000 
FFFCE0D4 00000000 
FFFCE0D6 00000000 
FFFCE0D8 00000000 
FFFCE0DA 00000000 
FFFCE0DC 00000000 
FFFCE0DE 00000000 
FFFCE0E0 00000000 
FFFCE0E2 00000000 
FFFCE0E4 00000000 
FFFCE0E6 00000000 
FFFCE0E8 00000000 
FFFCE0EA 00000000 
FFFCE0EC 00000000 
FFFCE0EE 00000000 
FFFCE0F0 00000000 
FFFCE0F2 00000000 
FFFCE0F4 00000000 
FFFCE0F6 00000000 
FFFCE0F8 00000000 
FFFCE0FA 00000000 
FFFCE0FC 00000000 
FFFCE0FE 00000000 
FFFCE100 00000000 
FFFCE102 00000000 
FFFCE104 00000000 
FFFCE106 00000000 
FFFCE108 00000000 
FFFCE10A 00000000 
FFFCE10C 00000000 
FFFCE10E 00000000 
FFFCE110 00000000 
FFFCE112 00000000 
FFFCE114 00000000 
FFFCE116 00000000 
FFFCE118 00000000 
FFFCE11A 00000000 
FFFCE11C 00000000 
FFFCE11E 00000000 
FFFCE120 00000000 
FFFCE122 00000000 
FFFCE124 00000000 
FFFCE126 00000000 
FFFCE128 00000000 
FFFCE12A 00000000 
FFFCE12C 00000000 
FFFCE12E 00000000 
FFFCE130 00000000 
FFFCE132 00000000 
FFFCE134 00000000 
FFFCE136 00000000 
FFFCE138 00000000 
FFFCE13A 00000000 
FFFCE13C 00000000 
FFFCE13E 00000000 
FFFCE140 00000000 
FFFCE142 00000000 
FFFCE144 00000000 
FFFCE146 00000000 
FFFCE148 00000000 
FFFCE14A 00000000 
FFFCE14C 00000000 
FFFCE14E 00000000 
FFFCE150 00000000 
FFFCE152 00000000 
FFFCE154 00000000 
FFFCE156 00000000 
FFFCE158 00000000 
FFFCE15A 00000000 
FFFCE15C 00000000 
FFFCE15E 00000000 
FFFCE160 00000000 
FFFCE162 00000000 
FFFCE164 00000000 
FFFCE166 00000000 
FFFCE168 00000000 
FFFCE16A 00000000 
FFFCE16C 00000000 
FFFCE16E 00000000 
FFFCE170 00000000 
FFFCE172 00000000 
FFFCE174 00000000 
FFFCE176 00000000 
FFFCE178 00000000 
FFFCE17A 00000000 
FFFCE17C 00000000 
FFFCE17E 00000000 
FFFCE180 00000000 
FFFCE182 00000000 
FFFCE184 00000000 
FFFCE186 00000000 
FFFCE188 00000000 
FFFCE18A 00000000 
FFFCE18C 00000000 
FFFCE18E 00000000 
FFFCE190 00000000 
FFFCE192 00000000 
FFFCE194 00000000 
FFFCE196 00000000 
FFFCE198 00000000 
FFFCE19A 00000000 
FFFCE19C 00000000 
FFFCE19E 00000000 
FFFCE1A0 00000000 
FFFCE1A2 00000000 
FFFCE1A4 00000000 
FFFCE1A6 00000000 
FFFCE1A8 00000000 
FFFCE1AA 00000000 
FFFCE1AC 00000000 
FFFCE1AE 00000000 
FFFCE1B0 00000000 
FFFCE1B2 00000000 
FFFCE1B4 00000000 
FFFCE1B6 00000000 
FFFCE1B8 00000000 
FFFCE1BA 00000000 
FFFCE1BC 00000000 
FFFCE1BE 00000000 
FFFCE1C0 00000000 
FFFCE1C2 00000000 
FFFCE1C4 00000000 
FFFCE1C6 00000000 
FFFCE1C8 00000000 
FFFCE1CA 00000000 
FFFCE1CC 00000000 
FFFCE1CE 00000000 
FFFCE1D0 00000000 
FFFCE1D2 00000000 
FFFCE1D4 00000000 
FFFCE1D6 00000000 
FFFCE1D8 00000000 
FFFCE1DA 00000000 
FFFCE1DC 00000000 
FFFCE1DE 00000000 
FFFCE1E0 00000000 
FFFCE1E2 00000000 
FFFCE1E4 00000000 
FFFCE1E6 00000000 
FFFCE1E8 00000000 
FFFCE1EA 00000000 
FFFCE1EC 00000000 
FFFCE1EE 00000000 
FFFCE1F0 00000000 
FFFCE1F2 00000000 
FFFCE1F4 00000000 
FFFCE1F6 00000000 
FFFCE1F8 00000000 
FFFCE1FA 00000000 
FFFCE1FC 00000000 
FFFCE1FE 00000000 
FFFCE200 00000000 
FFFCE202 00000000 
FFFCE204 00000000 
FFFCE206 00000000 
FFFCE208 00000000 
FFFCE20A 00000000 
FFFCE20C 00000000 
FFFCE20E 00000000 
FFFCE210 00000000 
FFFCE212 00000000 
FFFCE214 00000000 
FFFCE216 00000000 
FFFCE218 00000000 
FFFCE21A 00000000 
FFFCE21C 00000000 
FFFCE21E 00000000 
FFFCE220 00000000 
FFFCE222 00000000 
FFFCE224 00000000 
FFFCE226 00000000 
FFFCE228 00000000 
FFFCE22A 00000000 
FFFCE22C 00000000 
FFFCE22E 00000000 
FFFCE230 00000000 
FFFCE232 00000000 
FFFCE234 00000000 
FFFCE236 00000000 
FFFCE238 00000000 
FFFCE23A 00000000 
FFFCE23C 00000000 
FFFCE23E 00000000 
FFFCE240 00000000 
FFFCE242 00000000 
FFFCE244 00000000 
FFFCE246 00000000 
FFFCE248 00000000 
FFFCE24A 00000000 
FFFCE24C 00000000 
FFFCE24E 00000000 
FFFCE250 00000000 
FFFCE252 00000000 
FFFCE254 00000000 
FFFCE256 00000000 
FFFCE258 00000000 
FFFCE25A 00000000 
FFFCE25C 00000000 
FFFCE25E 00000000 
FFFCE260 00000000 
FFFCE262 00000000 
FFFCE264 00000000 
FFFCE266 00000000 
FFFCE268 00000000 
FFFCE26A 00000000 
FFFCE26C 00000000 
FFFCE26E 00000000 
FFFCE270 00000000 
FFFCE272 00000000 
FFFCE274 00000000 
FFFCE276 00000000 
FFFCE278 00000000 
FFFCE27A 00000000 
FFFCE27C 00000000 
FFFCE27E 00000000 
FFFCE280 00000000 
FFFCE282 00000000 
FFFCE284 00000000 
FFFCE286 00000000 
FFFCE288 00000000 
FFFCE28A 00000000 
FFFCE28C 00000000 
FFFCE28E 00000000 
FFFCE290 00000000 
FFFCE292 00000000 
FFFCE294 00000000 
FFFCE296 00000000 
FFFCE298 00000000 
FFFCE29A 00000000 
FFFCE29C 00000000 
FFFCE29E 00000000 
FFFCE2A0 00000000 
FFFCE2A2 00000000 
FFFCE2A4 00000000 
FFFCE2A6 00000000 
FFFCE2A8 00000000 
FFFCE2AA 00000000 
FFFCE2AC 00000000 
FFFCE2AE 00000000 
FFFCE2B0 00000000 
FFFCE2B2 00000000 
FFFCE2B4 00000000 
FFFCE2B6 00000000 
                        		align	8                        	
                        		align	8                        	
                        		align	8                        	
                        		align	8                        	
                        		data
                        		align	8                        	
                        		data
                        		align	8                        	
FFFCE688 00000000 		fill.b	8,0x00
FFFCE68A 00000000 
                        		align	8                        	
FFFCE690 00000000 		fill.b	1952,0x00
FFFCE692 00000000 
FFFCE694 00000000 
FFFCE696 00000000 
FFFCE698 00000000 
FFFCE69A 00000000 
FFFCE69C 00000000 
FFFCE69E 00000000 
FFFCE6A0 00000000 
FFFCE6A2 00000000 
FFFCE6A4 00000000 
FFFCE6A6 00000000 
FFFCE6A8 00000000 
FFFCE6AA 00000000 
FFFCE6AC 00000000 
FFFCE6AE 00000000 
FFFCE6B0 00000000 
FFFCE6B2 00000000 
FFFCE6B4 00000000 
FFFCE6B6 00000000 
FFFCE6B8 00000000 
FFFCE6BA 00000000 
FFFCE6BC 00000000 
FFFCE6BE 00000000 
FFFCE6C0 00000000 
FFFCE6C2 00000000 
FFFCE6C4 00000000 
FFFCE6C6 00000000 
FFFCE6C8 00000000 
FFFCE6CA 00000000 
FFFCE6CC 00000000 
FFFCE6CE 00000000 
FFFCE6D0 00000000 
FFFCE6D2 00000000 
FFFCE6D4 00000000 
FFFCE6D6 00000000 
FFFCE6D8 00000000 
FFFCE6DA 00000000 
FFFCE6DC 00000000 
FFFCE6DE 00000000 
FFFCE6E0 00000000 
FFFCE6E2 00000000 
FFFCE6E4 00000000 
FFFCE6E6 00000000 
FFFCE6E8 00000000 
FFFCE6EA 00000000 
FFFCE6EC 00000000 
FFFCE6EE 00000000 
FFFCE6F0 00000000 
FFFCE6F2 00000000 
FFFCE6F4 00000000 
FFFCE6F6 00000000 
FFFCE6F8 00000000 
FFFCE6FA 00000000 
FFFCE6FC 00000000 
FFFCE6FE 00000000 
FFFCE700 00000000 
FFFCE702 00000000 
FFFCE704 00000000 
FFFCE706 00000000 
FFFCE708 00000000 
FFFCE70A 00000000 
FFFCE70C 00000000 
FFFCE70E 00000000 
FFFCE710 00000000 
FFFCE712 00000000 
FFFCE714 00000000 
FFFCE716 00000000 
FFFCE718 00000000 
FFFCE71A 00000000 
FFFCE71C 00000000 
FFFCE71E 00000000 
FFFCE720 00000000 
FFFCE722 00000000 
FFFCE724 00000000 
FFFCE726 00000000 
FFFCE728 00000000 
FFFCE72A 00000000 
FFFCE72C 00000000 
FFFCE72E 00000000 
FFFCE730 00000000 
FFFCE732 00000000 
FFFCE734 00000000 
FFFCE736 00000000 
FFFCE738 00000000 
FFFCE73A 00000000 
FFFCE73C 00000000 
FFFCE73E 00000000 
FFFCE740 00000000 
FFFCE742 00000000 
FFFCE744 00000000 
FFFCE746 00000000 
FFFCE748 00000000 
FFFCE74A 00000000 
FFFCE74C 00000000 
FFFCE74E 00000000 
FFFCE750 00000000 
FFFCE752 00000000 
FFFCE754 00000000 
FFFCE756 00000000 
FFFCE758 00000000 
FFFCE75A 00000000 
FFFCE75C 00000000 
FFFCE75E 00000000 
FFFCE760 00000000 
FFFCE762 00000000 
FFFCE764 00000000 
FFFCE766 00000000 
FFFCE768 00000000 
FFFCE76A 00000000 
FFFCE76C 00000000 
FFFCE76E 00000000 
FFFCE770 00000000 
FFFCE772 00000000 
FFFCE774 00000000 
FFFCE776 00000000 
FFFCE778 00000000 
FFFCE77A 00000000 
FFFCE77C 00000000 
FFFCE77E 00000000 
FFFCE780 00000000 
FFFCE782 00000000 
FFFCE784 00000000 
FFFCE786 00000000 
FFFCE788 00000000 
FFFCE78A 00000000 
FFFCE78C 00000000 
FFFCE78E 00000000 
FFFCE790 00000000 
FFFCE792 00000000 
FFFCE794 00000000 
FFFCE796 00000000 
FFFCE798 00000000 
FFFCE79A 00000000 
FFFCE79C 00000000 
FFFCE79E 00000000 
FFFCE7A0 00000000 
FFFCE7A2 00000000 
FFFCE7A4 00000000 
FFFCE7A6 00000000 
FFFCE7A8 00000000 
FFFCE7AA 00000000 
FFFCE7AC 00000000 
FFFCE7AE 00000000 
FFFCE7B0 00000000 
FFFCE7B2 00000000 
FFFCE7B4 00000000 
FFFCE7B6 00000000 
FFFCE7B8 00000000 
FFFCE7BA 00000000 
FFFCE7BC 00000000 
FFFCE7BE 00000000 
FFFCE7C0 00000000 
FFFCE7C2 00000000 
FFFCE7C4 00000000 
FFFCE7C6 00000000 
FFFCE7C8 00000000 
FFFCE7CA 00000000 
FFFCE7CC 00000000 
FFFCE7CE 00000000 
FFFCE7D0 00000000 
FFFCE7D2 00000000 
FFFCE7D4 00000000 
FFFCE7D6 00000000 
FFFCE7D8 00000000 
FFFCE7DA 00000000 
FFFCE7DC 00000000 
FFFCE7DE 00000000 
FFFCE7E0 00000000 
FFFCE7E2 00000000 
FFFCE7E4 00000000 
FFFCE7E6 00000000 
FFFCE7E8 00000000 
FFFCE7EA 00000000 
FFFCE7EC 00000000 
FFFCE7EE 00000000 
FFFCE7F0 00000000 
FFFCE7F2 00000000 
FFFCE7F4 00000000 
FFFCE7F6 00000000 
FFFCE7F8 00000000 
FFFCE7FA 00000000 
FFFCE7FC 00000000 
FFFCE7FE 00000000 
FFFCE800 00000000 
FFFCE802 00000000 
FFFCE804 00000000 
FFFCE806 00000000 
FFFCE808 00000000 
FFFCE80A 00000000 
FFFCE80C 00000000 
FFFCE80E 00000000 
FFFCE810 00000000 
FFFCE812 00000000 
FFFCE814 00000000 
FFFCE816 00000000 
FFFCE818 00000000 
FFFCE81A 00000000 
FFFCE81C 00000000 
FFFCE81E 00000000 
FFFCE820 00000000 
FFFCE822 00000000 
FFFCE824 00000000 
FFFCE826 00000000 
FFFCE828 00000000 
FFFCE82A 00000000 
FFFCE82C 00000000 
FFFCE82E 00000000 
FFFCE830 00000000 
FFFCE832 00000000 
FFFCE834 00000000 
FFFCE836 00000000 
FFFCE838 00000000 
FFFCE83A 00000000 
FFFCE83C 00000000 
FFFCE83E 00000000 
FFFCE840 00000000 
FFFCE842 00000000 
FFFCE844 00000000 
FFFCE846 00000000 
FFFCE848 00000000 
FFFCE84A 00000000 
FFFCE84C 00000000 
FFFCE84E 00000000 
FFFCE850 00000000 
FFFCE852 00000000 
FFFCE854 00000000 
FFFCE856 00000000 
FFFCE858 00000000 
FFFCE85A 00000000 
FFFCE85C 00000000 
FFFCE85E 00000000 
FFFCE860 00000000 
FFFCE862 00000000 
FFFCE864 00000000 
FFFCE866 00000000 
FFFCE868 00000000 
FFFCE86A 00000000 
FFFCE86C 00000000 
FFFCE86E 00000000 
FFFCE870 00000000 
FFFCE872 00000000 
FFFCE874 00000000 
FFFCE876 00000000 
FFFCE878 00000000 
FFFCE87A 00000000 
FFFCE87C 00000000 
FFFCE87E 00000000 
FFFCE880 00000000 
FFFCE882 00000000 
FFFCE884 00000000 
FFFCE886 00000000 
FFFCE888 00000000 
FFFCE88A 00000000 
FFFCE88C 00000000 
FFFCE88E 00000000 
FFFCE890 00000000 
FFFCE892 00000000 
FFFCE894 00000000 
FFFCE896 00000000 
FFFCE898 00000000 
FFFCE89A 00000000 
FFFCE89C 00000000 
FFFCE89E 00000000 
FFFCE8A0 00000000 
FFFCE8A2 00000000 
FFFCE8A4 00000000 
FFFCE8A6 00000000 
FFFCE8A8 00000000 
FFFCE8AA 00000000 
FFFCE8AC 00000000 
FFFCE8AE 00000000 
FFFCE8B0 00000000 
FFFCE8B2 00000000 
FFFCE8B4 00000000 
FFFCE8B6 00000000 
FFFCE8B8 00000000 
FFFCE8BA 00000000 
FFFCE8BC 00000000 
FFFCE8BE 00000000 
FFFCE8C0 00000000 
FFFCE8C2 00000000 
FFFCE8C4 00000000 
FFFCE8C6 00000000 
FFFCE8C8 00000000 
FFFCE8CA 00000000 
FFFCE8CC 00000000 
FFFCE8CE 00000000 
FFFCE8D0 00000000 
FFFCE8D2 00000000 
FFFCE8D4 00000000 
FFFCE8D6 00000000 
FFFCE8D8 00000000 
FFFCE8DA 00000000 
FFFCE8DC 00000000 
FFFCE8DE 00000000 
FFFCE8E0 00000000 
FFFCE8E2 00000000 
FFFCE8E4 00000000 
FFFCE8E6 00000000 
FFFCE8E8 00000000 
FFFCE8EA 00000000 
FFFCE8EC 00000000 
FFFCE8EE 00000000 
FFFCE8F0 00000000 
FFFCE8F2 00000000 
FFFCE8F4 00000000 
FFFCE8F6 00000000 
FFFCE8F8 00000000 
FFFCE8FA 00000000 
FFFCE8FC 00000000 
FFFCE8FE 00000000 
FFFCE900 00000000 
FFFCE902 00000000 
FFFCE904 00000000 
FFFCE906 00000000 
FFFCE908 00000000 
FFFCE90A 00000000 
FFFCE90C 00000000 
FFFCE90E 00000000 
FFFCE910 00000000 
FFFCE912 00000000 
FFFCE914 00000000 
FFFCE916 00000000 
FFFCE918 00000000 
FFFCE91A 00000000 
FFFCE91C 00000000 
FFFCE91E 00000000 
FFFCE920 00000000 
FFFCE922 00000000 
FFFCE924 00000000 
FFFCE926 00000000 
FFFCE928 00000000 
FFFCE92A 00000000 
FFFCE92C 00000000 
FFFCE92E 00000000 
FFFCE930 00000000 
FFFCE932 00000000 
FFFCE934 00000000 
FFFCE936 00000000 
FFFCE938 00000000 
FFFCE93A 00000000 
FFFCE93C 00000000 
FFFCE93E 00000000 
FFFCE940 00000000 
FFFCE942 00000000 
FFFCE944 00000000 
FFFCE946 00000000 
FFFCE948 00000000 
FFFCE94A 00000000 
FFFCE94C 00000000 
FFFCE94E 00000000 
FFFCE950 00000000 
FFFCE952 00000000 
FFFCE954 00000000 
FFFCE956 00000000 
FFFCE958 00000000 
FFFCE95A 00000000 
FFFCE95C 00000000 
FFFCE95E 00000000 
FFFCE960 00000000 
FFFCE962 00000000 
FFFCE964 00000000 
FFFCE966 00000000 
FFFCE968 00000000 
FFFCE96A 00000000 
FFFCE96C 00000000 
FFFCE96E 00000000 
FFFCE970 00000000 
FFFCE972 00000000 
FFFCE974 00000000 
FFFCE976 00000000 
FFFCE978 00000000 
FFFCE97A 00000000 
FFFCE97C 00000000 
FFFCE97E 00000000 
FFFCE980 00000000 
FFFCE982 00000000 
FFFCE984 00000000 
FFFCE986 00000000 
FFFCE988 00000000 
FFFCE98A 00000000 
FFFCE98C 00000000 
FFFCE98E 00000000 
FFFCE990 00000000 
FFFCE992 00000000 
FFFCE994 00000000 
FFFCE996 00000000 
FFFCE998 00000000 
FFFCE99A 00000000 
FFFCE99C 00000000 
FFFCE99E 00000000 
FFFCE9A0 00000000 
FFFCE9A2 00000000 
FFFCE9A4 00000000 
FFFCE9A6 00000000 
FFFCE9A8 00000000 
FFFCE9AA 00000000 
FFFCE9AC 00000000 
FFFCE9AE 00000000 
FFFCE9B0 00000000 
FFFCE9B2 00000000 
FFFCE9B4 00000000 
FFFCE9B6 00000000 
FFFCE9B8 00000000 
FFFCE9BA 00000000 
FFFCE9BC 00000000 
FFFCE9BE 00000000 
FFFCE9C0 00000000 
FFFCE9C2 00000000 
FFFCE9C4 00000000 
FFFCE9C6 00000000 
FFFCE9C8 00000000 
FFFCE9CA 00000000 
FFFCE9CC 00000000 
FFFCE9CE 00000000 
FFFCE9D0 00000000 
FFFCE9D2 00000000 
FFFCE9D4 00000000 
FFFCE9D6 00000000 
FFFCE9D8 00000000 
FFFCE9DA 00000000 
FFFCE9DC 00000000 
FFFCE9DE 00000000 
FFFCE9E0 00000000 
FFFCE9E2 00000000 
FFFCE9E4 00000000 
FFFCE9E6 00000000 
FFFCE9E8 00000000 
FFFCE9EA 00000000 
FFFCE9EC 00000000 
FFFCE9EE 00000000 
FFFCE9F0 00000000 
FFFCE9F2 00000000 
FFFCE9F4 00000000 
FFFCE9F6 00000000 
FFFCE9F8 00000000 
FFFCE9FA 00000000 
FFFCE9FC 00000000 
FFFCE9FE 00000000 
FFFCEA00 00000000 
FFFCEA02 00000000 
FFFCEA04 00000000 
FFFCEA06 00000000 
FFFCEA08 00000000 
FFFCEA0A 00000000 
FFFCEA0C 00000000 
FFFCEA0E 00000000 
FFFCEA10 00000000 
FFFCEA12 00000000 
FFFCEA14 00000000 
FFFCEA16 00000000 
FFFCEA18 00000000 
FFFCEA1A 00000000 
FFFCEA1C 00000000 
FFFCEA1E 00000000 
FFFCEA20 00000000 
FFFCEA22 00000000 
FFFCEA24 00000000 
FFFCEA26 00000000 
FFFCEA28 00000000 
FFFCEA2A 00000000 
FFFCEA2C 00000000 
FFFCEA2E 00000000 
FFFCEA30 00000000 
FFFCEA32 00000000 
FFFCEA34 00000000 
FFFCEA36 00000000 
FFFCEA38 00000000 
FFFCEA3A 00000000 
FFFCEA3C 00000000 
FFFCEA3E 00000000 
FFFCEA40 00000000 
FFFCEA42 00000000 
FFFCEA44 00000000 
FFFCEA46 00000000 
FFFCEA48 00000000 
FFFCEA4A 00000000 
FFFCEA4C 00000000 
FFFCEA4E 00000000 
FFFCEA50 00000000 
FFFCEA52 00000000 
FFFCEA54 00000000 
FFFCEA56 00000000 
FFFCEA58 00000000 
FFFCEA5A 00000000 
FFFCEA5C 00000000 
FFFCEA5E 00000000 
                        		align	8                        	
                        		align	8                        	
                        		align	8                        	
                        		align	8                        	
                        		data
                        		align	8                        	
FFFCEE30 00000000 		fill.b	832,0x00
FFFCEE32 00000000 
FFFCEE34 00000000 
FFFCEE36 00000000 
FFFCEE38 00000000 
FFFCEE3A 00000000 
FFFCEE3C 00000000 
FFFCEE3E 00000000 
FFFCEE40 00000000 
FFFCEE42 00000000 
FFFCEE44 00000000 
FFFCEE46 00000000 
FFFCEE48 00000000 
FFFCEE4A 00000000 
FFFCEE4C 00000000 
FFFCEE4E 00000000 
FFFCEE50 00000000 
FFFCEE52 00000000 
FFFCEE54 00000000 
FFFCEE56 00000000 
FFFCEE58 00000000 
FFFCEE5A 00000000 
FFFCEE5C 00000000 
FFFCEE5E 00000000 
FFFCEE60 00000000 
FFFCEE62 00000000 
FFFCEE64 00000000 
FFFCEE66 00000000 
FFFCEE68 00000000 
FFFCEE6A 00000000 
FFFCEE6C 00000000 
FFFCEE6E 00000000 
FFFCEE70 00000000 
FFFCEE72 00000000 
FFFCEE74 00000000 
FFFCEE76 00000000 
FFFCEE78 00000000 
FFFCEE7A 00000000 
FFFCEE7C 00000000 
FFFCEE7E 00000000 
FFFCEE80 00000000 
FFFCEE82 00000000 
FFFCEE84 00000000 
FFFCEE86 00000000 
FFFCEE88 00000000 
FFFCEE8A 00000000 
FFFCEE8C 00000000 
FFFCEE8E 00000000 
FFFCEE90 00000000 
FFFCEE92 00000000 
FFFCEE94 00000000 
FFFCEE96 00000000 
FFFCEE98 00000000 
FFFCEE9A 00000000 
FFFCEE9C 00000000 
FFFCEE9E 00000000 
FFFCEEA0 00000000 
FFFCEEA2 00000000 
FFFCEEA4 00000000 
FFFCEEA6 00000000 
FFFCEEA8 00000000 
FFFCEEAA 00000000 
FFFCEEAC 00000000 
FFFCEEAE 00000000 
FFFCEEB0 00000000 
FFFCEEB2 00000000 
FFFCEEB4 00000000 
FFFCEEB6 00000000 
FFFCEEB8 00000000 
FFFCEEBA 00000000 
FFFCEEBC 00000000 
FFFCEEBE 00000000 
FFFCEEC0 00000000 
FFFCEEC2 00000000 
FFFCEEC4 00000000 
FFFCEEC6 00000000 
FFFCEEC8 00000000 
FFFCEECA 00000000 
FFFCEECC 00000000 
FFFCEECE 00000000 
FFFCEED0 00000000 
FFFCEED2 00000000 
FFFCEED4 00000000 
FFFCEED6 00000000 
FFFCEED8 00000000 
FFFCEEDA 00000000 
FFFCEEDC 00000000 
FFFCEEDE 00000000 
FFFCEEE0 00000000 
FFFCEEE2 00000000 
FFFCEEE4 00000000 
FFFCEEE6 00000000 
FFFCEEE8 00000000 
FFFCEEEA 00000000 
FFFCEEEC 00000000 
FFFCEEEE 00000000 
FFFCEEF0 00000000 
FFFCEEF2 00000000 
FFFCEEF4 00000000 
FFFCEEF6 00000000 
FFFCEEF8 00000000 
FFFCEEFA 00000000 
FFFCEEFC 00000000 
FFFCEEFE 00000000 
FFFCEF00 00000000 
FFFCEF02 00000000 
FFFCEF04 00000000 
FFFCEF06 00000000 
FFFCEF08 00000000 
FFFCEF0A 00000000 
FFFCEF0C 00000000 
FFFCEF0E 00000000 
FFFCEF10 00000000 
FFFCEF12 00000000 
FFFCEF14 00000000 
FFFCEF16 00000000 
FFFCEF18 00000000 
FFFCEF1A 00000000 
FFFCEF1C 00000000 
FFFCEF1E 00000000 
FFFCEF20 00000000 
FFFCEF22 00000000 
FFFCEF24 00000000 
FFFCEF26 00000000 
FFFCEF28 00000000 
FFFCEF2A 00000000 
FFFCEF2C 00000000 
FFFCEF2E 00000000 
FFFCEF30 00000000 
FFFCEF32 00000000 
FFFCEF34 00000000 
FFFCEF36 00000000 
FFFCEF38 00000000 
FFFCEF3A 00000000 
FFFCEF3C 00000000 
FFFCEF3E 00000000 
FFFCEF40 00000000 
FFFCEF42 00000000 
FFFCEF44 00000000 
FFFCEF46 00000000 
FFFCEF48 00000000 
FFFCEF4A 00000000 
FFFCEF4C 00000000 
FFFCEF4E 00000000 
FFFCEF50 00000000 
FFFCEF52 00000000 
FFFCEF54 00000000 
FFFCEF56 00000000 
FFFCEF58 00000000 
FFFCEF5A 00000000 
FFFCEF5C 00000000 
FFFCEF5E 00000000 
FFFCEF60 00000000 
FFFCEF62 00000000 
FFFCEF64 00000000 
FFFCEF66 00000000 
FFFCEF68 00000000 
FFFCEF6A 00000000 
FFFCEF6C 00000000 
FFFCEF6E 00000000 
FFFCEF70 00000000 
FFFCEF72 00000000 
FFFCEF74 00000000 
FFFCEF76 00000000 
FFFCEF78 00000000 
FFFCEF7A 00000000 
FFFCEF7C 00000000 
FFFCEF7E 00000000 
FFFCEF80 00000000 
FFFCEF82 00000000 
FFFCEF84 00000000 
FFFCEF86 00000000 
FFFCEF88 00000000 
FFFCEF8A 00000000 
FFFCEF8C 00000000 
FFFCEF8E 00000000 
FFFCEF90 00000000 
FFFCEF92 00000000 
FFFCEF94 00000000 
FFFCEF96 00000000 
FFFCEF98 00000000 
FFFCEF9A 00000000 
FFFCEF9C 00000000 
FFFCEF9E 00000000 
FFFCEFA0 00000000 
FFFCEFA2 00000000 
FFFCEFA4 00000000 
FFFCEFA6 00000000 
FFFCEFA8 00000000 
FFFCEFAA 00000000 
FFFCEFAC 00000000 
FFFCEFAE 00000000 
FFFCEFB0 00000000 
FFFCEFB2 00000000 
FFFCEFB4 00000000 
FFFCEFB6 00000000 
FFFCEFB8 00000000 
FFFCEFBA 00000000 
FFFCEFBC 00000000 
FFFCEFBE 00000000 
FFFCEFC0 00000000 
FFFCEFC2 00000000 
FFFCEFC4 00000000 
FFFCEFC6 00000000 
FFFCEFC8 00000000 
FFFCEFCA 00000000 
FFFCEFCC 00000000 
FFFCEFCE 00000000 
                        		data
                        		align	8                        	
                        		data
                        		align	8                        	
FFFCF170 00000000 		fill.b	8,0x00
FFFCF172 00000000 
                        		align	8                        	
FFFCF178 00000000 		fill.b	1952,0x00
FFFCF17A 00000000 
FFFCF17C 00000000 
FFFCF17E 00000000 
FFFCF180 00000000 
FFFCF182 00000000 
FFFCF184 00000000 
FFFCF186 00000000 
FFFCF188 00000000 
FFFCF18A 00000000 
FFFCF18C 00000000 
FFFCF18E 00000000 
FFFCF190 00000000 
FFFCF192 00000000 
FFFCF194 00000000 
FFFCF196 00000000 
FFFCF198 00000000 
FFFCF19A 00000000 
FFFCF19C 00000000 
FFFCF19E 00000000 
FFFCF1A0 00000000 
FFFCF1A2 00000000 
FFFCF1A4 00000000 
FFFCF1A6 00000000 
FFFCF1A8 00000000 
FFFCF1AA 00000000 
FFFCF1AC 00000000 
FFFCF1AE 00000000 
FFFCF1B0 00000000 
FFFCF1B2 00000000 
FFFCF1B4 00000000 
FFFCF1B6 00000000 
FFFCF1B8 00000000 
FFFCF1BA 00000000 
FFFCF1BC 00000000 
FFFCF1BE 00000000 
FFFCF1C0 00000000 
FFFCF1C2 00000000 
FFFCF1C4 00000000 
FFFCF1C6 00000000 
FFFCF1C8 00000000 
FFFCF1CA 00000000 
FFFCF1CC 00000000 
FFFCF1CE 00000000 
FFFCF1D0 00000000 
FFFCF1D2 00000000 
FFFCF1D4 00000000 
FFFCF1D6 00000000 
FFFCF1D8 00000000 
FFFCF1DA 00000000 
FFFCF1DC 00000000 
FFFCF1DE 00000000 
FFFCF1E0 00000000 
FFFCF1E2 00000000 
FFFCF1E4 00000000 
FFFCF1E6 00000000 
FFFCF1E8 00000000 
FFFCF1EA 00000000 
FFFCF1EC 00000000 
FFFCF1EE 00000000 
FFFCF1F0 00000000 
FFFCF1F2 00000000 
FFFCF1F4 00000000 
FFFCF1F6 00000000 
FFFCF1F8 00000000 
FFFCF1FA 00000000 
FFFCF1FC 00000000 
FFFCF1FE 00000000 
FFFCF200 00000000 
FFFCF202 00000000 
FFFCF204 00000000 
FFFCF206 00000000 
FFFCF208 00000000 
FFFCF20A 00000000 
FFFCF20C 00000000 
FFFCF20E 00000000 
FFFCF210 00000000 
FFFCF212 00000000 
FFFCF214 00000000 
FFFCF216 00000000 
FFFCF218 00000000 
FFFCF21A 00000000 
FFFCF21C 00000000 
FFFCF21E 00000000 
FFFCF220 00000000 
FFFCF222 00000000 
FFFCF224 00000000 
FFFCF226 00000000 
FFFCF228 00000000 
FFFCF22A 00000000 
FFFCF22C 00000000 
FFFCF22E 00000000 
FFFCF230 00000000 
FFFCF232 00000000 
FFFCF234 00000000 
FFFCF236 00000000 
FFFCF238 00000000 
FFFCF23A 00000000 
FFFCF23C 00000000 
FFFCF23E 00000000 
FFFCF240 00000000 
FFFCF242 00000000 
FFFCF244 00000000 
FFFCF246 00000000 
FFFCF248 00000000 
FFFCF24A 00000000 
FFFCF24C 00000000 
FFFCF24E 00000000 
FFFCF250 00000000 
FFFCF252 00000000 
FFFCF254 00000000 
FFFCF256 00000000 
FFFCF258 00000000 
FFFCF25A 00000000 
FFFCF25C 00000000 
FFFCF25E 00000000 
FFFCF260 00000000 
FFFCF262 00000000 
FFFCF264 00000000 
FFFCF266 00000000 
FFFCF268 00000000 
FFFCF26A 00000000 
FFFCF26C 00000000 
FFFCF26E 00000000 
FFFCF270 00000000 
FFFCF272 00000000 
FFFCF274 00000000 
FFFCF276 00000000 
FFFCF278 00000000 
FFFCF27A 00000000 
FFFCF27C 00000000 
FFFCF27E 00000000 
FFFCF280 00000000 
FFFCF282 00000000 
FFFCF284 00000000 
FFFCF286 00000000 
FFFCF288 00000000 
FFFCF28A 00000000 
FFFCF28C 00000000 
FFFCF28E 00000000 
FFFCF290 00000000 
FFFCF292 00000000 
FFFCF294 00000000 
FFFCF296 00000000 
FFFCF298 00000000 
FFFCF29A 00000000 
FFFCF29C 00000000 
FFFCF29E 00000000 
FFFCF2A0 00000000 
FFFCF2A2 00000000 
FFFCF2A4 00000000 
FFFCF2A6 00000000 
FFFCF2A8 00000000 
FFFCF2AA 00000000 
FFFCF2AC 00000000 
FFFCF2AE 00000000 
FFFCF2B0 00000000 
FFFCF2B2 00000000 
FFFCF2B4 00000000 
FFFCF2B6 00000000 
FFFCF2B8 00000000 
FFFCF2BA 00000000 
FFFCF2BC 00000000 
FFFCF2BE 00000000 
FFFCF2C0 00000000 
FFFCF2C2 00000000 
FFFCF2C4 00000000 
FFFCF2C6 00000000 
FFFCF2C8 00000000 
FFFCF2CA 00000000 
FFFCF2CC 00000000 
FFFCF2CE 00000000 
FFFCF2D0 00000000 
FFFCF2D2 00000000 
FFFCF2D4 00000000 
FFFCF2D6 00000000 
FFFCF2D8 00000000 
FFFCF2DA 00000000 
FFFCF2DC 00000000 
FFFCF2DE 00000000 
FFFCF2E0 00000000 
FFFCF2E2 00000000 
FFFCF2E4 00000000 
FFFCF2E6 00000000 
FFFCF2E8 00000000 
FFFCF2EA 00000000 
FFFCF2EC 00000000 
FFFCF2EE 00000000 
FFFCF2F0 00000000 
FFFCF2F2 00000000 
FFFCF2F4 00000000 
FFFCF2F6 00000000 
FFFCF2F8 00000000 
FFFCF2FA 00000000 
FFFCF2FC 00000000 
FFFCF2FE 00000000 
FFFCF300 00000000 
FFFCF302 00000000 
FFFCF304 00000000 
FFFCF306 00000000 
FFFCF308 00000000 
FFFCF30A 00000000 
FFFCF30C 00000000 
FFFCF30E 00000000 
FFFCF310 00000000 
FFFCF312 00000000 
FFFCF314 00000000 
FFFCF316 00000000 
FFFCF318 00000000 
FFFCF31A 00000000 
FFFCF31C 00000000 
FFFCF31E 00000000 
FFFCF320 00000000 
FFFCF322 00000000 
FFFCF324 00000000 
FFFCF326 00000000 
FFFCF328 00000000 
FFFCF32A 00000000 
FFFCF32C 00000000 
FFFCF32E 00000000 
FFFCF330 00000000 
FFFCF332 00000000 
FFFCF334 00000000 
FFFCF336 00000000 
FFFCF338 00000000 
FFFCF33A 00000000 
FFFCF33C 00000000 
FFFCF33E 00000000 
FFFCF340 00000000 
FFFCF342 00000000 
FFFCF344 00000000 
FFFCF346 00000000 
FFFCF348 00000000 
FFFCF34A 00000000 
FFFCF34C 00000000 
FFFCF34E 00000000 
FFFCF350 00000000 
FFFCF352 00000000 
FFFCF354 00000000 
FFFCF356 00000000 
FFFCF358 00000000 
FFFCF35A 00000000 
FFFCF35C 00000000 
FFFCF35E 00000000 
FFFCF360 00000000 
FFFCF362 00000000 
FFFCF364 00000000 
FFFCF366 00000000 
FFFCF368 00000000 
FFFCF36A 00000000 
FFFCF36C 00000000 
FFFCF36E 00000000 
FFFCF370 00000000 
FFFCF372 00000000 
FFFCF374 00000000 
FFFCF376 00000000 
FFFCF378 00000000 
FFFCF37A 00000000 
FFFCF37C 00000000 
FFFCF37E 00000000 
FFFCF380 00000000 
FFFCF382 00000000 
FFFCF384 00000000 
FFFCF386 00000000 
FFFCF388 00000000 
FFFCF38A 00000000 
FFFCF38C 00000000 
FFFCF38E 00000000 
FFFCF390 00000000 
FFFCF392 00000000 
FFFCF394 00000000 
FFFCF396 00000000 
FFFCF398 00000000 
FFFCF39A 00000000 
FFFCF39C 00000000 
FFFCF39E 00000000 
FFFCF3A0 00000000 
FFFCF3A2 00000000 
FFFCF3A4 00000000 
FFFCF3A6 00000000 
FFFCF3A8 00000000 
FFFCF3AA 00000000 
FFFCF3AC 00000000 
FFFCF3AE 00000000 
FFFCF3B0 00000000 
FFFCF3B2 00000000 
FFFCF3B4 00000000 
FFFCF3B6 00000000 
FFFCF3B8 00000000 
FFFCF3BA 00000000 
FFFCF3BC 00000000 
FFFCF3BE 00000000 
FFFCF3C0 00000000 
FFFCF3C2 00000000 
FFFCF3C4 00000000 
FFFCF3C6 00000000 
FFFCF3C8 00000000 
FFFCF3CA 00000000 
FFFCF3CC 00000000 
FFFCF3CE 00000000 
FFFCF3D0 00000000 
FFFCF3D2 00000000 
FFFCF3D4 00000000 
FFFCF3D6 00000000 
FFFCF3D8 00000000 
FFFCF3DA 00000000 
FFFCF3DC 00000000 
FFFCF3DE 00000000 
FFFCF3E0 00000000 
FFFCF3E2 00000000 
FFFCF3E4 00000000 
FFFCF3E6 00000000 
FFFCF3E8 00000000 
FFFCF3EA 00000000 
FFFCF3EC 00000000 
FFFCF3EE 00000000 
FFFCF3F0 00000000 
FFFCF3F2 00000000 
FFFCF3F4 00000000 
FFFCF3F6 00000000 
FFFCF3F8 00000000 
FFFCF3FA 00000000 
FFFCF3FC 00000000 
FFFCF3FE 00000000 
FFFCF400 00000000 
FFFCF402 00000000 
FFFCF404 00000000 
FFFCF406 00000000 
FFFCF408 00000000 
FFFCF40A 00000000 
FFFCF40C 00000000 
FFFCF40E 00000000 
FFFCF410 00000000 
FFFCF412 00000000 
FFFCF414 00000000 
FFFCF416 00000000 
FFFCF418 00000000 
FFFCF41A 00000000 
FFFCF41C 00000000 
FFFCF41E 00000000 
FFFCF420 00000000 
FFFCF422 00000000 
FFFCF424 00000000 
FFFCF426 00000000 
FFFCF428 00000000 
FFFCF42A 00000000 
FFFCF42C 00000000 
FFFCF42E 00000000 
FFFCF430 00000000 
FFFCF432 00000000 
FFFCF434 00000000 
FFFCF436 00000000 
FFFCF438 00000000 
FFFCF43A 00000000 
FFFCF43C 00000000 
FFFCF43E 00000000 
FFFCF440 00000000 
FFFCF442 00000000 
FFFCF444 00000000 
FFFCF446 00000000 
FFFCF448 00000000 
FFFCF44A 00000000 
FFFCF44C 00000000 
FFFCF44E 00000000 
FFFCF450 00000000 
FFFCF452 00000000 
FFFCF454 00000000 
FFFCF456 00000000 
FFFCF458 00000000 
FFFCF45A 00000000 
FFFCF45C 00000000 
FFFCF45E 00000000 
FFFCF460 00000000 
FFFCF462 00000000 
FFFCF464 00000000 
FFFCF466 00000000 
FFFCF468 00000000 
FFFCF46A 00000000 
FFFCF46C 00000000 
FFFCF46E 00000000 
FFFCF470 00000000 
FFFCF472 00000000 
FFFCF474 00000000 
FFFCF476 00000000 
FFFCF478 00000000 
FFFCF47A 00000000 
FFFCF47C 00000000 
FFFCF47E 00000000 
FFFCF480 00000000 
FFFCF482 00000000 
FFFCF484 00000000 
FFFCF486 00000000 
FFFCF488 00000000 
FFFCF48A 00000000 
FFFCF48C 00000000 
FFFCF48E 00000000 
FFFCF490 00000000 
FFFCF492 00000000 
FFFCF494 00000000 
FFFCF496 00000000 
FFFCF498 00000000 
FFFCF49A 00000000 
FFFCF49C 00000000 
FFFCF49E 00000000 
FFFCF4A0 00000000 
FFFCF4A2 00000000 
FFFCF4A4 00000000 
FFFCF4A6 00000000 
FFFCF4A8 00000000 
FFFCF4AA 00000000 
FFFCF4AC 00000000 
FFFCF4AE 00000000 
FFFCF4B0 00000000 
FFFCF4B2 00000000 
FFFCF4B4 00000000 
FFFCF4B6 00000000 
FFFCF4B8 00000000 
FFFCF4BA 00000000 
FFFCF4BC 00000000 
FFFCF4BE 00000000 
FFFCF4C0 00000000 
FFFCF4C2 00000000 
FFFCF4C4 00000000 
FFFCF4C6 00000000 
FFFCF4C8 00000000 
FFFCF4CA 00000000 
FFFCF4CC 00000000 
FFFCF4CE 00000000 
FFFCF4D0 00000000 
FFFCF4D2 00000000 
FFFCF4D4 00000000 
FFFCF4D6 00000000 
FFFCF4D8 00000000 
FFFCF4DA 00000000 
FFFCF4DC 00000000 
FFFCF4DE 00000000 
FFFCF4E0 00000000 
FFFCF4E2 00000000 
FFFCF4E4 00000000 
FFFCF4E6 00000000 
FFFCF4E8 00000000 
FFFCF4EA 00000000 
FFFCF4EC 00000000 
FFFCF4EE 00000000 
FFFCF4F0 00000000 
FFFCF4F2 00000000 
FFFCF4F4 00000000 
FFFCF4F6 00000000 
FFFCF4F8 00000000 
FFFCF4FA 00000000 
FFFCF4FC 00000000 
FFFCF4FE 00000000 
FFFCF500 00000000 
FFFCF502 00000000 
FFFCF504 00000000 
FFFCF506 00000000 
FFFCF508 00000000 
FFFCF50A 00000000 
FFFCF50C 00000000 
FFFCF50E 00000000 
FFFCF510 00000000 
FFFCF512 00000000 
FFFCF514 00000000 
FFFCF516 00000000 
FFFCF518 00000000 
FFFCF51A 00000000 
FFFCF51C 00000000 
FFFCF51E 00000000 
FFFCF520 00000000 
FFFCF522 00000000 
FFFCF524 00000000 
FFFCF526 00000000 
FFFCF528 00000000 
FFFCF52A 00000000 
FFFCF52C 00000000 
FFFCF52E 00000000 
FFFCF530 00000000 
FFFCF532 00000000 
FFFCF534 00000000 
FFFCF536 00000000 
FFFCF538 00000000 
FFFCF53A 00000000 
FFFCF53C 00000000 
FFFCF53E 00000000 
FFFCF540 00000000 
FFFCF542 00000000 
FFFCF544 00000000 
FFFCF546 00000000 
                        		align	8                        	
                        		align	8                        	
                        		align	8                        	
                        		align	8                        	
                        		data
                        		align	2                        	
FFFCF918 0001FFFF 	public data _hFocusSwitchMbx:
	dc	65535
                        	endpublic
                        	
                        		data
                        		align	2                        	
                        	IOFocusc_0:
FFFCF91A 00000001 		db	1
1168 symbols
  Symbol Name                              seg     address bits
 AVIC                                      const  ffdcc000 33
  BIOSMain_0                               rodata  fffc9158 32
  BIOSMain_10                                code  fffc16dc 18
  BIOSMain_101                               code  fffc19a8 18
  BIOSMain_102                               code  fffc19bc 18
  BIOSMain_107                               code  fffc19c4 18
  BIOSMain_108                               code  fffc19d8 18
  BIOSMain_113                               code  fffc19e0 18
  BIOSMain_114                               code  fffc19f4 18
  BIOSMain_124                             rodata  fffc905a 32
  BIOSMain_13                                code  fffc16a8 18
  BIOSMain_14                                code  fffc16d8 18
  BIOSMain_140                               code  fffc1b54 18
  BIOSMain_142                               code  fffc1b5c 18
  BIOSMain_143                               code  fffc1b28 18
  BIOSMain_144                               code  fffc1b50 18
  BIOSMain_155                             rodata  fffc9024 32
  BIOSMain_156                             rodata  fffc9008 32
  BIOSMain_16                                code  fffc16d8 18
  BIOSMain_174                               code  fffc1d00 18
  BIOSMain_177                               code  fffc1cd4 18
  BIOSMain_178                               code  fffc1cfc 18
  BIOSMain_188                               code  fffc1cfc 18
  BIOSMain_21                              rodata  fffc9000 32
  BIOSMain_211                               code  fffc1e68 18
  BIOSMain_213                               code  fffc1e70 18
  BIOSMain_22                              rodata  fffc912c 32
  BIOSMain_222                               code  fffc1ee0 18
  BIOSMain_224                               code  fffc1ee8 18
  BIOSMain_225                               code  fffc1ec0 18
  BIOSMain_226                               code  fffc1edc 18
  BIOSMain_23                              rodata  fffc907a 32
  BIOSMain_233                               code  fffc1f98 18
  BIOSMain_235                               code  fffc1fa0 18
  BIOSMain_241                               code  fffc2084 18
  BIOSMain_243                               code  fffc208c 18
  BIOSMain_252                               code  fffc2190 18
  BIOSMain_254                               code  fffc2198 18
  BIOSMain_255                               code  fffc2110 18
  BIOSMain_256                               code  fffc218c 18
  BIOSMain_266                               code  fffc22e4 18
  BIOSMain_268                               code  fffc22ec 18
  BIOSMain_269                               code  fffc2224 18
  BIOSMain_270                               code  fffc22e0 18
  BIOSMain_277                               code  fffc23bc 18
  BIOSMain_279                               code  fffc23c4 18
  BIOSMain_288                               code  fffc250c 18
  BIOSMain_290                               code  fffc2514 18
  BIOSMain_291                               code  fffc2454 18
  BIOSMain_292                               code  fffc2508 18
  BIOSMain_299                               code  fffc25c8 18
  BIOSMain_301                               code  fffc25d0 18
  BIOSMain_310                               code  fffc26ac 18
  BIOSMain_312                               code  fffc26b4 18
  BIOSMain_313                               code  fffc2668 18
  BIOSMain_314                               code  fffc26a8 18
  BIOSMain_327                               code  fffc2710 18
  BIOSMain_328                               code  fffc2728 18
  BIOSMain_340                               code  fffc27d0 18
  BIOSMain_342                               code  fffc27d8 18
  BIOSMain_343                               code  fffc27a0 18
  BIOSMain_344                               code  fffc27cc 18
  BIOSMain_346                               code  fffc27c0 18
  BIOSMain_372                               code  fffc2938 18
  BIOSMain_374                               code  fffc2940 18
  BIOSMain_375                               code  fffc2904 18
  BIOSMain_376                               code  fffc2934 18
  BIOSMain_394                               code  fffc2a9c 18
  BIOSMain_396                               code  fffc2aa4 18
  BIOSMain_397                               code  fffc2a48 18
  BIOSMain_398                               code  fffc2a98 18
  BIOSMain_400                               code  fffc2aa4 18
  BIOSMain_401                               code  fffc2ca0 18
  BIOSMain_468                               code  fffc2eb4 18
  BIOSMain_475                               code  fffc2b88 18
  BIOSMain_476                               code  fffc2bb4 18
  BIOSMain_478                               code  fffc2bc4 18
  BIOSMain_479                               code  fffc2c54 18
  BIOSMain_481                               code  fffc2c4c 18
  BIOSMain_487                               code  fffc2c64 18
  BIOSMain_497                               code  fffc2c9c 18
  BIOSMain_500                               code  fffc2c98 18
  BIOSMain_501                               code  fffc2ca0 18
  BIOSMain_502                               code  fffc2cbc 18
  BIOSMain_507                               code  fffc2cc0 18
  BIOSMain_508                               code  fffc2d18 18
  BIOSMain_510                               code  fffc2d1c 18
  BIOSMain_511                               code  fffc2d48 18
  BIOSMain_513                               code  fffc2d48 18
  BIOSMain_515                               code  fffc2d4c 18
  BIOSMain_516                               code  fffc2d64 18
  BIOSMain_518                               code  fffc2d68 18
  BIOSMain_519                               code  fffc2e90 18
  BIOSMain_525                               code  fffc2dec 18
  BIOSMain_527                               code  fffc2e20 18
  BIOSMain_529                               code  fffc2e54 18
  BIOSMain_531                               code  fffc2e6c 18
  BIOSMain_542                               code  fffc2f64 18
  BIOSMain_544                               code  fffc2f6c 18
  BIOSMain_72                                code  fffc19fc 18
  BIOSMain_79                                code  fffc1968 18
  BIOSMain_85                                code  fffc19f8 18
  BIOSMain_91                                code  fffc198c 18
  BIOSMain_92                                code  fffc19a8 18
  BIOSMain_93                                code  fffc19c4 18
  BIOSMain_94                                code  fffc19e0 18
  BIOSMain_95                                code  fffc198c 18
  BIOSMain_96                                code  fffc19a0 18
* BUTTONS                                    code  fffc39f4 18
 E_BadCallno                               const  fffffffffffffffc 4
 E_Busy                                     code  800000000000032c -858993460
  FMTKc_124                                  code  fffc64e4 18
  FMTKc_127                                  code  fffc637c 18
  FMTKc_128                                  code  fffc64c4 18
  FMTKc_130                                  code  fffc64b4 18
  FMTKc_132                                  code  fffc63e0 18
  FMTKc_133                                  code  fffc63f8 18
  FMTKc_138                                  code  fffc63f8 18
  FMTKc_140                                  code  fffc648c 18
  FMTKc_142                                  code  fffc648c 18
  FMTKc_144                                  code  fffc645c 18
  FMTKc_145                                  code  fffc64b4 18
  FMTKc_226                                  code  fffc6818 18
  FMTKc_228                                  code  fffc6820 18
  FMTKc_237                                  code  fffc67c0 18
  FMTKc_242                                  code  fffc65bc 18
  FMTKc_247                                  code  fffc6770 18
  FMTKc_248                                  code  fffc67c0 18
  FMTKc_249                                  code  fffc65c8 18
  FMTKc_251                                  code  fffc6748 18
  FMTKc_252                                  code  fffc676c 18
  FMTKc_253                                  code  fffc6718 18
  FMTKc_254                                  code  fffc673c 18
  FMTKc_255                                  code  fffc6600 18
  FMTKc_256                                  code  fffc66dc 18
  FMTKc_257                                  code  fffc6664 18
  FMTKc_258                                  code  fffc66d8 18
  FMTKc_259                                  code  fffc6708 18
  FMTKc_26                                   code  fffc5eac 18
  FMTKc_28                                   code  fffc5ea0 18
  FMTKc_285                                  code  fffc67f8 18
  FMTKc_29                                   code  fffc5ea0 18
  FMTKc_291                                  code  fffc6810 18
  FMTKc_294                                  code  fffc686c 18
  FMTKc_299                                  code  fffc6870 18
  FMTKc_304                                  data  fffcded8 32
  FMTKc_305                                rodata  fffc9740 32
  FMTKc_322                                  code  fffc6978 18
  FMTKc_325                                  code  fffc68c4 18
  FMTKc_327                                  code  fffc696c 18
  FMTKc_328                                  code  fffc68f0 18
  FMTKc_329                                  code  fffc68ec 18
  FMTKc_332                                  code  fffc6954 18
  FMTKc_333                                  code  fffc696c 18
  FMTKc_361                                  code  fffc6b8c 18
  FMTKc_363                                  code  fffc6b94 18
  FMTKc_364                                  code  fffc6b88 18
  FMTKc_366                                  code  fffc6a14 18
  FMTKc_367                                  code  fffc6ab4 18
  FMTKc_369                                  code  fffc6aac 18
  FMTKc_371                                  code  fffc6af8 18
  FMTKc_372                                  code  fffc6b48 18
  FMTKc_373                                  code  fffc6af8 18
  FMTKc_374                                  code  fffc6b48 18
  FMTKc_375                                  code  fffc6b44 18
  FMTKc_377                                  code  fffc6b80 18
  FMTKc_384                                  code  fffc6c0c 18
  FMTKc_393                                  code  fffc6c10 18
  FMTKc_432                                  code  fffc6ec0 18
  FMTKc_435                                  code  fffc6d64 18
  FMTKc_436                                  code  fffc6d7c 18
  FMTKc_437                                  code  fffc6d34 18
  FMTKc_439                                  code  fffc6cfc 18
  FMTKc_444                                  code  fffc6d08 18
  FMTKc_457                                  code  fffc6ea0 18
  FMTKc_458                                  code  fffc6ea8 18
  FMTKc_463                                  code  fffc6f68 18
  FMTKc_478                                  code  fffc6f6c 18
  FMTKc_481                                  code  fffc6f4c 18
  FMTKc_482                                  code  fffc6f68 18
  FMTKc_491                                  code  fffc6f50 18
  FMTKc_507                                  code  fffc7028 18
  FMTKc_510                                  code  fffc6fd0 18
  FMTKc_512                                  code  fffc6fb4 18
  FMTKc_513                                  code  fffc6fb8 18
  FMTKc_514                                  code  fffc7020 18
  FMTKc_516                                  code  fffc7010 18
  FMTKc_517                                  code  fffc7018 18
  FMTKc_86                                   code  fffc62d4 18
 FMTKc_88                                   code  8000000000000318 -858993460
  FMTKc_94                                 rodata  fffc9700 32
  FMTKc_95                                   data  fffcded6 32
  FMTKc_97                                 rodata  fffc9778 32
  FMTKmsg_126                                code  fffc7640 18
  FMTKmsg_129                                code  fffc7518 18
  FMTKmsg_131                                code  fffc74f8 18
  FMTKmsg_132                                code  fffc74fc 18
  FMTKmsg_133                                code  fffc75c8 18
  FMTKmsg_135                                code  fffc7548 18
  FMTKmsg_141                                code  fffc75b8 18
  FMTKmsg_142                                code  fffc75c4 18
  FMTKmsg_147                                code  fffc75ec 18
  FMTKmsg_168                                code  fffc77dc 18
  FMTKmsg_171                                code  fffc76a8 18
  FMTKmsg_173                                code  fffc768c 18
  FMTKmsg_174                                code  fffc774c 18
  FMTKmsg_176                                code  fffc76f0 18
  FMTKmsg_178                                code  fffc76e4 18
  FMTKmsg_211                                code  fffc7a4c 18
  FMTKmsg_214                                code  fffc7a44 18
  FMTKmsg_216                                code  fffc789c 18
  FMTKmsg_222                                code  fffc7878 18
  FMTKmsg_223                                code  fffc789c 18
  FMTKmsg_224                                code  fffc793c 18
  FMTKmsg_225                                code  fffc793c 18
  FMTKmsg_226                                code  fffc79dc 18
  FMTKmsg_227                                code  fffc795c 18
  FMTKmsg_229                                code  fffc79ac 18
  FMTKmsg_41                                 code  fffc740c 18
  FMTKmsg_44                                 code  fffc7404 18
  FMTKmsg_46                                 code  fffc7378 18
  FMTKmsg_51                                 code  fffc70d4 18
  FMTKmsg_52                                 code  fffc70d8 18
  FMTKmsg_53                                 code  fffc719c 18
  FMTKmsg_54                                 code  fffc70d8 18
  FMTKmsg_55                                 code  fffc7198 18
  FMTKmsg_56                                 code  fffc7190 18
  FMTKmsg_58                                 code  fffc7230 18
  FMTKmsg_60                                 code  fffc7220 18
  FMTKmsg_62                                 code  fffc7230 18
  FMTKmsg_63                                 code  fffc733c 18
  FMTKmsg_64                                 code  fffc7250 18
  FMTKmsg_65                                 code  fffc7290 18
  FMTKmsg_66                                 code  fffc7328 18
  FMTKmsg_68                                 code  fffc7378 18
  FMTKmsg_74                                 code  fffc734c 18
  FMTKmsg_75                                 code  fffc73b4 18
  FMTKmsg_76                                 code  fffc73d4 18
  FMTKmsg_95                                 code  fffc749c 18
  FMTKmsg_97                                 code  fffc749c 18
  FMTKmsg_99                                 code  fffc7494 18
  FloatTest_110                              code  fffc39fc 18
  FloatTest_112                              code  fffc3a04 18
  FloatTest_113                              code  fffc3458 18
  FloatTest_114                              code  fffc3464 18
  FloatTest_119                              code  fffc37a4 18
  FloatTest_12                               code  fffc31e4 18
  FloatTest_120                              code  fffc37b0 18
  FloatTest_125                              code  fffc37b0 18
  FloatTest_126                              code  fffc37bc 18
  FloatTest_126.d                            code  fffc37f8 18
* FloatTest_131                              code  fffc38cc 18
  FloatTest_131.d                            code  fffc38cc 18
* FloatTest_133                              code  fffc38d4 18
  FloatTest_135                              code  fffc39f0 18
  FloatTest_14                               code  fffc31ec 18
  FloatTest_17                             rodata  fffc94e8 32
  FloatTest_18                             rodata  fffc94e0 32
  FloatTest_19                             rodata  fffc94da 32
  FloatTest_2                              rodata  fffc9514 32
  FloatTest_24                               code  fffc32a8 18
  FloatTest_26                               code  fffc32b0 18
  FloatTest_29                             rodata  fffc9200 32
  FloatTest_3                              rodata  fffc950c 32
  FloatTest_30                             rodata  fffc94d2 32
  FloatTest_31                             rodata  fffc91f8 32
  FloatTest_32                             rodata  fffc91f0 32
  FloatTest_33                             rodata  fffc94c6 32
  FloatTest_34                             rodata  fffc94b6 32
  FloatTest_35                             rodata  fffc945c 32
  FloatTest_36                             rodata  fffc9400 32
  FloatTest_4                              rodata  fffc9506 32
  FloatTest_41                               code  fffc33c4 18
  FloatTest_43                               code  fffc33cc 18
  FloatTest_45                             rodata  fffc91e8 32
  FloatTest_46                             rodata  fffc93e2 32
  FloatTest_47                             rodata  fffc93d0 32
  FloatTest_48                             rodata  fffc93b2 32
  FloatTest_49                             rodata  fffc93a4 32
  FloatTest_5                              rodata  fffc94fe 32
  FloatTest_50                             rodata  fffc91e0 32
  FloatTest_51                             rodata  fffc9394 32
  FloatTest_52                             rodata  fffc91d8 32
  FloatTest_53                             rodata  fffc9370 32
  FloatTest_54                             rodata  fffc934e 32
  FloatTest_55                             rodata  fffc9328 32
  FloatTest_56                             rodata  fffc91d0 32
  FloatTest_57                             rodata  fffc9322 32
  FloatTest_58                             rodata  fffc930e 32
  FloatTest_59                             rodata  fffc91c8 32
  FloatTest_6                              rodata  fffc94f6 32
  FloatTest_60                             rodata  fffc92ea 32
  FloatTest_61                             rodata  fffc91c0 32
  FloatTest_62                             rodata  fffc92bc 32
  FloatTest_63                             rodata  fffc91b8 32
  FloatTest_64                             rodata  fffc91b0 32
  FloatTest_65                             rodata  fffc928c 32
  FloatTest_66                             rodata  fffc91a8 32
  FloatTest_67                             rodata  fffc9286 32
  FloatTest_68                             rodata  fffc926c 32
  FloatTest_69                             rodata  fffc91a0 32
  FloatTest_7                              rodata  fffc94f0 32
  FloatTest_70                             rodata  fffc9252 32
  FloatTest_71                             rodata  fffc9236 32
  FloatTest_72                             rodata  fffc9198 32
  FloatTest_73                             rodata  fffc9190 32
  FloatTest_74                             rodata  fffc9230 32
  FloatTest_75                             rodata  fffc9188 32
  FloatTest_76                             rodata  fffc9180 32
  FloatTest_77                             rodata  fffc9208 32
  IOFocusc_0                                 data  fffcf91a 32
  IOFocusc_13                                code  fffc8388 18
  IOFocusc_14                                code  fffc8388 18
  IOFocusc_9                                 code  fffc83d8 18
 LEDS                                      const  ffdc0600 33
 MEDBLUE                                   const  00000f 5
  PIC_11                                     code  fffc5d28 18
  PIC_13                                     code  fffc5d1c 18
  PIC_14                                     code  fffc5d30 18
  PIC_45                                     code  fffc5dd8 18
  PIC_47                                     code  fffc5de0 18
  PIC_48                                     code  fffc5d78 18
  PIC_49                                     code  fffc5d9c 18
  PIC_59                                     code  fffc5dc8 18
  PIC_60                                     code  fffc5dd4 18
  PIC_8                                      code  fffc5d34 18
 PIC_ESR                                    code  8000000000000093 -858993460
 SCRATCHPAD                                const  ff400000 33
 TC1                                       const  ffd0df00 33
  TCB_103                                    code  fffc808c 18
  TCB_105                                    code  fffc808c 18
  TCB_108                                  rodata  fffc9878 32
  TCB_109                                  rodata  fffc9824 32
  TCB_110                                    code  fffc82dc 18
  TCB_111                                  rodata  fffc9804 32
  TCB_112                                  rodata  fffc97b0 32
  TCB_134                                    code  fffc82e0 18
  TCB_136                                    code  fffc82e8 18
  TCB_137                                    code  fffc811c 18
  TCB_138                                    code  fffc8220 18
  TCB_140                                    code  fffc8218 18
  TCB_142                                    code  fffc8158 18
  TCB_143                                    code  fffc8218 18
  TCB_144                                    code  fffc81e0 18
  TCB_146                                    code  fffc81dc 18
  TCB_147                                    code  fffc8208 18
  TCB_149                                    code  fffc8218 18
  TCB_150                                    code  fffc824c 18
  TCB_151                                    code  fffc82dc 18
  TCB_152                                    code  fffc82d8 18
  TCB_22                                     code  fffc7b04 18
  TCB_24                                     code  fffc7ae8 18
  TCB_25                                     code  fffc7aec 18
  TCB_26                                     code  fffc7b64 18
  TCB_28                                     code  fffc7bbc 18
  TCB_44                                     code  fffc7c68 18
  TCB_46                                     code  fffc7c54 18
  TCB_47                                     code  fffc7c58 18
  TCB_48                                     code  fffc7ca4 18
  TCB_50                                     code  fffc7ce0 18
  TCB_67                                     code  fffc7de4 18
  TCB_69                                     code  fffc7dcc 18
  TCB_70                                     code  fffc7e0c 18
  TCB_71                                     code  fffc7e3c 18
  TCB_72                                     code  fffc7e94 18
  TCB_74                                     code  fffc7ea4 18
  TCB_75                                     code  fffc7eb4 18
  TCB_87                                     code  fffc7f50 18
  TCB_89                                     code  fffc7f74 18
 TinyBasicDSD9                              code  8000000000000090 -858993460
 WHITE                                     const  007fff 16
* _ACBPtrs                                    bss  1ffdd000 32
 _ACBs                                    rodata  000000 32
 _AsciiToScreen                           rodata  000000 32
  _AudioTest                                 code  fffc2eec -858993460
  _BIOS1_sema                                 bss  1003d5266 32
  _BIOSMain                                  code  fffc1774 -858993460
* _BIOS_RespMbx                               bss  1ffdd256 32
  _BTNCIRQHandler                            code  fffc1a44 -858993460
  _BootCopyFont                              code  fffc0508 18
  _BootCopyFont.0001                         code  fffc0588 18
  _CheckMem                                  code  fffc3c00 18
  _ColorBandMemory                           code  fffc2740 -858993460
  _ColorBandMemory2                          code  fffc0484 18
  _ColorBandMemory2.0001                     code  fffc04d8 18
  _ColorBandMemory2.0002                     code  fffc04b4 18
 _CopyScreenToVirtualScreen               rodata  000000 32
 _CopyVirtualScreenToScreen               rodata  000000 32
  _CursorBoxImage                            code  fffc0820 18
  _DBERout                                   code  fffc15c0 -858993460
 _DBGAttr                                 rodata  ff400020 32
  _DBGClearScreen                          rodata  fffc5c3c 32
 _DBGCursorCol                            rodata  ff400018 32
 _DBGCursorRow                            rodata  ff40001c 32
 _DBGDisplayChar                          rodata  000000 32
 _DBGDisplayString                        rodata  000000 32
 _DBGHideCursor                           rodata  000000 32
 _DBGHomeCursor                           rodata  000000 32
  _DequeThreadFromMbx                        code  fffc74b8 18
  _DequeueMsg                                code  fffc7418 18
  _DispChar                                rodata  fffc05b4 32
  _DispChar.0001                             code  fffc05d8 18
  _DisplayIRQLive                            code  fffc5e60 -858993460
 _DisplayTetra                              code  800000000000014d -858993460
  _DumpTaskList                            rodata  fffc80a0 32
  _EnableCursor                              code  fffc06e0 18
  _EnableSprite                              code  fffc27fc -858993460
  _EnableSprites                             code  fffc285c -858993460
 _FMTKInitialize                            code  80000000000002c7 -858993460
  _FMTK_AllocMbx                           rodata  fffc764c 32
 _FMTK_CheckMsg                             code  80000000000002d1 -858993460
  _FMTK_ExitThread                           code  fffc6bbc -858993460
  _FMTK_FreeMbx                            rodata  fffc77e8 32
  _FMTK_FuncTbl                              code  fffc5e00 -858993460
  _FMTK_IRQDispatch                          code  fffc5f38 -858993460
  _FMTK_IRQDispatch2                         code  fffc5f3c -858993460
  _FMTK_Inited                                bss  fffd1018 32
  _FMTK_KillThread                           code  fffc69a0 -858993460
 _FMTK_PostMsg                              code  80000000000002ce -858993460
  _FMTK_SchedulerIRQ                         code  fffc6578 -858993460
  _FMTK_SchedulerIRQ.0002                    code  fffc6588 18
 _FMTK_SendMsg                              code  80000000000002cf -858993460
  _FMTK_SetThreadPriority                    code  fffc6f78 -858993460
  _FMTK_Sleep                                code  fffc6ecc -858993460
 _FMTK_StartApp                           rodata  000000 32
  _FMTK_StartThread                        rodata  fffc6c30 32
  _FMTK_SystemCall                           code  fffc64f0 -858993460
  _FMTK_SystemCall.0002                      code  fffc6524 18
  _FMTK_SystemCall.bad_callno                code  fffc656c 18
 _FMTK_WaitMsg                            rodata  000000 32
  _FMTK_inited                                bss  1ffdd200 32
  _FirstMBLK                                  bss  fffd0008 -858993460
  _FloatTest                               rodata  fffc33f0 32
  _FocusSwitcher                           rodata  fffc8320 32
  _FreeJCB                                    bss  1ffdd250 32
  _FreeMBX                                    bss  1ffdd254 32
  _FreeMSG                                    bss  1ffdd252 32
  _GetACBPtr                               rodata  fffc5ec0 32
 _GetBadAddr                                code  8000000000000071 -858993460
 _GetEPC                                    code  800000000000006e -858993460
 _GetJCBPtr                               rodata  000000 32
  _GetRand                                 rodata  fffc0458 32
 _GetRegx1                                rodata  000000 32
 _GetRegx10                               rodata  000000 32
 _GetRegx11                               rodata  000000 32
 _GetRegx12                               rodata  000000 32
 _GetRegx13                               rodata  000000 32
 _GetRegx14                               rodata  000000 32
 _GetRegx15                               rodata  000000 32
 _GetRegx16                               rodata  000000 32
 _GetRegx17                               rodata  000000 32
 _GetRegx18                               rodata  000000 32
 _GetRegx19                               rodata  000000 32
 _GetRegx2                                rodata  000000 32
 _GetRegx20                               rodata  000000 32
 _GetRegx21                               rodata  000000 32
 _GetRegx22                               rodata  000000 32
 _GetRegx23                               rodata  000000 32
 _GetRegx24                               rodata  000000 32
 _GetRegx25                               rodata  000000 32
 _GetRegx26                               rodata  000000 32
 _GetRegx27                               rodata  000000 32
 _GetRegx28                               rodata  000000 32
 _GetRegx29                               rodata  000000 32
 _GetRegx3                                rodata  000000 32
 _GetRegx30                               rodata  000000 32
 _GetRegx31                               rodata  000000 32
 _GetRegx4                                rodata  000000 32
 _GetRegx5                                rodata  000000 32
 _GetRegx6                                rodata  000000 32
 _GetRegx7                                rodata  000000 32
 _GetRegx8                                rodata  000000 32
 _GetRegx9                                rodata  000000 32
 _GetVecno                                rodata  000000 32
  _GrClearScreen                             code  fffc26d4 -858993460
  _GrDrawChar                                code  fffc2540 -858993460
  _GrDrawLine                                code  fffc1fc4 -858993460
  _GrFillRect                                code  fffc2318 -858993460
  _GrFlushCmdQue                             code  fffc1e84 -858993460
  _GrPlotPoint                               code  fffc1f00 -858993460
  _GrQueCmd                                  code  fffc1dec -858993460
  _GrResetCmdQue                             code  fffc1e34 -858993460
  _GrWaitQue                                 code  fffc1d98 -858993460
  _GrWaitQue.0001                            code  fffc1dcc 18
  _IBERout                                   code  fffc1bec -858993460
* _IOFocusNdx                                 bss  1ffdd210 32
* _IOFocusTbl                                 bss  1ffdd218 32
  _IdleThread                                code  fffc6890 -858993460
  _InitAudio                                 code  fffc2f88 -858993460
  _InitHeap                                  code  fffc5140 -858993460
  _InitPIC                                   code  fffc5d38 -858993460
  _InsertIntoReadyList                     rodata  fffc7a90 32
  _InsertIntoTimeoutList                   rodata  fffc7d44 32
  _IsInf80                                   code  fffc5268 18
  _IsNan80                                   code  fffc51f0 18
 _JCB                                     rodata  000000 32
 _KeybdGetBufferedCharNoWait              rodata  000000 32
 _KillThread                              rodata  000000 32
  _LockGCSemaphore                           code  fffc10e8 -858993460
  _LockIOFSemaphore                          code  fffc5f10 -858993460
  _LockKbdSemaphore                          code  fffc5f24 -858993460
  _LockSemaphore                           rodata  fffc5b70 32
  _LockSemaphore.0001                        code  fffc5b88 18
 _LockSemaphore.0004                        code  80000000000002aa -858993460
  _LockSysSemaphore                          code  fffc5ef0 -858993460
  _LockSysSemaphore.loop                     code  fffc5ef4 18
  _LockSysSemaphore.xit                      code  fffc5f0c 18
  _PopTimeoutList                          rodata  fffc7fa8 32
  _QueueMsg                                  code  fffc7040 18
  _RandomChars                               code  fffc25f0 -858993460
  _RandomLines                               code  fffc21bc -858993460
  _RandomPoints                              code  fffc20b8 -858993460
  _RandomRects                               code  fffc23ec -858993460
  _RandomizeSpriteColors                     code  fffc28b4 -858993460
  _RandomizeSpritePositions                  code  fffc29dc -858993460
  _RandomizeSpritePositions2                 code  fffc0aa0 18
  _RandomizeSpritePositions2.0001            code  fffc0abc 18
 _ReadPCHIST                                code  8000000000000075 -858993460
  _RemoveFromReadyList                     rodata  fffc7c0c 32
  _RemoveFromTimeoutList                   rodata  fffc7ed4 32
 _RequestIOFocus                          rodata  000000 32
  _SafeGetACBPtr                             code  fffc5e80 -858993460
  _SelectTaskToRun                           code  fffc62e0 18
  _Set400x300                                code  fffc0420 18
 _SetBound48                              rodata  000000 32
 _SetBound49                              rodata  000000 32
 _SetBound50                              rodata  000000 32
 _SetBound51                              rodata  000000 32
  _SetCursorImage                            code  fffc0778 18
  _SetCursorImage.0001                       code  fffc07e0 18
  _SetCursorImage.0002                       code  fffc07a0 18
  _SetCursorPalette                          code  fffc0718 18
  _SetCursorPalette.0001                     code  fffc0748 18
  _SetMem                                    code  fffc3b28 18
 _SetPCHNDX                               rodata  000000 32
 _SetRegx1                                rodata  000000 32
 _SetRegx10                               rodata  000000 32
 _SetRegx11                               rodata  000000 32
 _SetRegx12                               rodata  000000 32
 _SetRegx13                               rodata  000000 32
 _SetRegx14                               rodata  000000 32
 _SetRegx15                               rodata  000000 32
 _SetRegx16                               rodata  000000 32
 _SetRegx17                               rodata  000000 32
 _SetRegx18                               rodata  000000 32
 _SetRegx19                               rodata  000000 32
 _SetRegx2                                rodata  000000 32
 _SetRegx20                               rodata  000000 32
 _SetRegx21                               rodata  000000 32
 _SetRegx22                               rodata  000000 32
 _SetRegx23                               rodata  000000 32
 _SetRegx24                               rodata  000000 32
 _SetRegx25                               rodata  000000 32
 _SetRegx26                               rodata  000000 32
 _SetRegx27                               rodata  000000 32
 _SetRegx28                               rodata  000000 32
 _SetRegx29                               rodata  000000 32
 _SetRegx3                                rodata  000000 32
 _SetRegx30                               rodata  000000 32
 _SetRegx31                               rodata  000000 32
 _SetRegx4                                rodata  000000 32
 _SetRegx5                                rodata  000000 32
 _SetRegx6                                rodata  000000 32
 _SetRegx7                                rodata  000000 32
 _SetRegx8                                rodata  000000 32
 _SetRegx9                                rodata  000000 32
  _SetSpritePos                              code  fffc295c -858993460
  _SpriteDemo                                code  fffc2ac8 -858993460
  _StartApp                                  code  fffc0340 18
  _SwapContext                               code  fffc5f5c -858993460
 _SwitchIOFocus                           rodata  000000 32
  _SyncCursorPos                             code  fffc0680 18
  _TestAddsub                              rodata  fffc30d0 32
  _TestAddsub.d                              code  fffc3108 18
  _TestEval                                  code  fffc32c8 18
  _TestEval.d                                code  fffc3350 18
  _TestFunc                                  code  fffc5bf0 -858993460
  _TestMul                                 rodata  fffc3208 32
  _TestMul.d                                 code  fffc3238 18
  _TimeoutList                                bss  100515402 32
  _TwoSpaces                                 code  fffc3a40 18
  _UnlockSemaphore                           code  fffc5bd0 -858993460
  _XImage                                    code  fffc08c0 18
  __AddGarbage                               code  fffc12c0 -858993460
  __BrkHandler                               code  fffc14fc -858993460
  __BrkHandler.gc                            code  fffc1518 18
  __BrkHandler.sc                            code  fffc1520 18
  __BrkHandler.ts                            code  fffc1528 18
  __BrkHandler.ts2                           code  fffc156c 18
  __BrkHandler6                              code  fffc1570 -858993460
  __BrkHandler6.gc                           code  fffc157c 18
  __BrkHandler6.sc                           code  fffc1584 18
  __GarbageCollector                         code  fffc1384 -858993460
  __SystemInit                               code  fffc1588 -858993460
 ___garbage_list                           const  ff400030 33
 __brk_stack                               const  ff400800 33
  __delete                                   code  fffc11f4 -858993460
  __new                                      code  fffc1100 -858993460
* _bios_stacks                                bss  1fe00000 32
  _brk_stack                                  bss  ff407000 32
  _chkTCB                                  rodata  fffc7a60 32
  _deval                                     code  fffc5888 18
  _deval.d                                   code  fffc58b4 18
  _dumpaddr                                  code  fffc3abc -858993460
* _fmtk_irq_stack                             bss  1ffd9000 32
* _fmtk_sys_stack                             bss  1ffd8000 32
  _free                                    rodata  fffc5020 32
  _freeACB                                    bss  1003d5230 -858993460
  _freeMBX                                    bss  1003d5234 32
  _freeMSG                                    bss  1003d5232 32
  _freeTCB                                    bss  100515400 32
  _freelist                                   bss  1ffdd294 32
 _getCPU                                  rodata  000000 32
  _getchar                                   code  fffc42b8 -858993460
  _getcharNoWait                           rodata  fffc4270 32
 _gfx_demo                                rodata  000000 32
  _hFocusSwitchMbx                           data  fffcf918 32
* _hasUltraHighPriorityTasks                  bss  1ffdd258 32
 _interrupt_table                         rodata  000000 32
 _iof_sema                                rodata  000000 32
* _iof_switch                                 bss  1ffdd238 32
  _irq_stack                                  bss  fffd0010 32
  _isalnum                                   code  fffc471c -858993460
  _isalpha                                   code  fffc46c8 -858993460
  _iscntrl                                   code  fffc4a44 -858993460
  _isdigit                                 rodata  fffc468c 32
  _isgraph                                   code  fffc4974 -858993460
  _islower                                   code  fffc48a8 -858993460
  _isprint                                   code  fffc49d8 -858993460
  _ispunct                                   code  fffc48e4 -858993460
  _isspace                                   code  fffc4788 -858993460
  _isupper                                   code  fffc486c -858993460
  _isxdigit                                  code  fffc4620 -858993460
 _jcbs                                    rodata  000000 32
 _kbd_sema                                rodata  000000 32
  _log10q                                  rodata  fffc58e4 32
  _mailbox                                    bss  1ffc0000 32
  _malloc                                  rodata  fffc4eb8 32
  _memchr                                    code  fffc4c54 -858993460
  _memcpy                                    code  fffc4a90 -858993460
  _memcpy.again                              code  fffc4aa4 18
  _memcpy.xit                                code  fffc4ab8 18
  _memcpyC                                   code  fffc4ac0 -858993460
  _memcpyC.again                             code  fffc4ad4 18
  _memcpyC.xit                               code  fffc4ae8 18
  _memcpyW                                   code  fffc4af0 -858993460
  _memcpyW.again                             code  fffc4b04 18
  _memcpyW.xit                               code  fffc4b18 18
  _memmove                                   code  fffc4b74 -858993460
  _memmoveC                                  code  fffc4be0 -858993460
  _memset                                  rodata  fffc4b20 32
  _memset.again                              code  fffc4b2c 18
  _memset.xit                                code  fffc4b34 18
  _memsetC                                   code  fffc4b3c -858993460
  _memsetC.again                             code  fffc4b44 18
  _memsetC.xit                               code  fffc4b50 18
  _memsetH                                 rodata  fffc4b58 32
  _memsetH.again                             code  fffc4b60 18
  _memsetH.xit                               code  fffc4b6c 18
  _message                                    bss  1ff00000 32
 _milliseconds                            rodata  ff400024 32
* _missed_ticks                               bss  1ffdd208 32
 _mmu_FreeMap                             rodata  000000 32
  _mmu_entries                                bss  1ffdd290 32
* _nMailbox                                   bss  1ffdd248 32
* _nMsgBlk                                    bss  1ffdd240 32
  _neval                                     code  fffc5830 18
  _out_fh                                     bss  fffd0000 -858993460
 _outb                                    rodata  000000 32
 _outc                                    rodata  000000 32
 _outh                                    rodata  000000 32
 _outw                                    rodata  000000 32
  _pam                                        bss  1ffe0000 32
  _pam4mb                                     bss  1ffde000 32
  _panic                                   rodata  fffc682c 32
  _printf                                  rodata  fffc431c 32
 _prtdbl                                  rodata  000000 32
  _prtflt                                  rodata  fffc5780 32
  _putch                                   rodata  fffc3de0 32
  _puthex                                  rodata  fffc3a94 32
  _puthexnum                               rodata  fffc3fd8 32
  _putnum                                    code  fffc3e70 -858993460
  _putstr                                  rodata  fffc4148 32
  _putstr2                                   code  fffc4240 -858993460
  _putstrD                                 rodata  fffc41c4 32
  _ramtest                                 rodata  fffc3d24 32
 _randStream                              rodata  ff400010 32
* _readyQ                                     bss  1ffdd268 32
  _readyQ.bss                                 bss  100515414 32
  _round8                                    code  fffc4e80 -858993460
 _rount8                                  rodata  000000 32
  _set_vector                              rodata  fffc5d00 32
 _shell                                   rodata  000000 32
* _sp_tmp                                     bss  1ffdd260 32
  _sprtflt                                   code  fffc52dc -858993460
* _stacks                                     bss  1fb00000 32
  _strchr                                    code  fffc4e2c -858993460
  _strcpy                                    code  fffc4cd4 -858993460
  _strlen                                    code  fffc4ca8 -858993460
  _strlen.j1                                 code  fffc4cb8 18
  _strlen.xit2                               code  fffc4cd0 18
  _strncmp                                   code  fffc4d90 -858993460
  _strncpy                                   code  fffc4d28 -858993460
  _sys_512k_pages_available                   bss  1ffdd288 32
  _sys_pages_available                        bss  1ffdd280 32
 _sys_sema                                rodata  000000 32
* _sys_stacks                                 bss  1fd00000 32
  _syspages                                   bss  1ffdd278 32
* _sysstack                                   bss  1ffda000 32
  _tcbs                                       bss  1004d5400 32
  _test                                      code  fffc10c0 -858993460
  _tolower                                   code  fffc47fc -858993460
  _toupper                                   code  fffc4834 -858993460
  _video_bufs                                 bss  1003d5280 32
  abs                                        code  fffc3ef4 18
 b48                                        code  80000000000003bc -858993460
  begin_init_data                          rodata  fffc98d0 32
 bkcolor                                   const  ff400004 33
  brkrout                                    code  fffc0348 18
  calltest                                   code  fffc03b8 18
  calltest1                                  code  fffc03d8 18
  calltest2                                  code  fffc03f0 18
  calltest3                                  code  fffc0408 18
  cc64rt_108                                 code  fffc14c4 18
  cc64rt_110                                 code  fffc14cc 18
  cc64rt_111                                 code  fffc13f0 18
  cc64rt_112                                 code  fffc14c0 18
  cc64rt_114                                 code  fffc13fc 18
  cc64rt_116                                 code  fffc1400 18
  cc64rt_117                                 code  fffc140c 18
  cc64rt_122                                 code  fffc1494 18
  cc64rt_123                                 code  fffc1498 18
  cc64rt_124                                 code  fffc1440 18
  cc64rt_125                                 code  fffc1484 18
  cc64rt_126                                 code  fffc1480 18
  cc64rt_128                                 code  fffc1490 18
  cc64rt_16                                  data  fffccc8a 32
  cc64rt_21                                  code  fffc11e8 18
  cc64rt_24                                  code  fffc11c0 18
  cc64rt_35                                  code  fffc1294 18
  cc64rt_37                                  code  fffc129c 18
  cc64rt_38                                  code  fffc1250 18
  cc64rt_39                                  code  fffc1278 18
  cc64rt_40                                  code  fffc1258 18
  cc64rt_41                                  code  fffc1278 18
  cc64rt_42                                  code  fffc126c 18
  cc64rt_61                                  code  fffc1358 18
  cc64rt_63                                  code  fffc1360 18
  cc64rt_64                                  code  fffc130c 18
  cc64rt_66                                  code  fffc1310 18
  cc64rt_67                                  code  fffc131c 18
  cc64rt_68                                  code  fffc131c 18
  cc64rt_69                                  code  fffc1348 18
  cc64rt_70                                  code  fffc1344 18
  clearTxtScreen                             code  fffc0afc 18
  clearTxtScreen.cts1                        code  fffc0b24 18
  console_12                                 code  fffc5cd8 18
  console_14                                 code  fffc5ce0 18
  ctype_105                                  code  fffc4824 18
  ctype_117                                  code  fffc485c 18
  ctype_129                                  code  fffc4898 18
  ctype_13                                   code  fffc4654 18
  ctype_130                                  code  fffc489c 18
  ctype_141                                  code  fffc48d4 18
  ctype_142                                  code  fffc48d8 18
  ctype_15                                   code  fffc4648 18
  ctype_16                                   code  fffc466c 18
  ctype_161                                  code  fffc495c 18
  ctype_162                                  code  fffc496c 18
  ctype_163                                  code  fffc4960 18
  ctype_171                                  code  fffc49cc 18
  ctype_174                                  code  fffc49b0 18
  ctype_175                                  code  fffc49b4 18
  ctype_176                                  code  fffc49a8 18
  ctype_177                                  code  fffc49b8 18
  ctype_18                                   code  fffc4684 18
  ctype_187                                  code  fffc4a38 18
  ctype_190                                  code  fffc4a1c 18
  ctype_191                                  code  fffc4a20 18
  ctype_192                                  code  fffc4a14 18
  ctype_195                                  code  fffc4a24 18
  ctype_213                                  code  fffc4a74 18
  ctype_214                                  code  fffc4a84 18
  ctype_215                                  code  fffc4a78 18
  ctype_29                                   code  fffc46c0 18
  ctype_31                                   code  fffc46b4 18
  ctype_43                                   code  fffc46fc 18
  ctype_45                                   code  fffc46f0 18
  ctype_46                                   code  fffc4714 18
  ctype_61                                   code  fffc4750 18
  ctype_63                                   code  fffc4744 18
  ctype_64                                   code  fffc4768 18
  ctype_66                                   code  fffc4780 18
  ctype_85                                   code  fffc47b4 18
  ctype_87                                   code  fffc47a8 18
  ctype_88                                   code  fffc47c4 18
  ctype_90                                   code  fffc47d4 18
  ctype_92                                   code  fffc47e4 18
  ctype_94                                   code  fffc47f4 18
  end_init_data                            rodata  fffca008 32
* fbeq                                       code  fffc38d0 18
* fbeq.d                                     code  fffc38d0 18
* fbge                                       code  fffc5a4c 18
* fbge.d                                     code  fffc5a4c 18
* fblt                                       code  fffc5518 18
* fblt.d                                     code  fffc5518 18
  fbne                                       code  fffc5420 18
  fbne.d                                     code  fffc5420 18
 fgcolor                                   const  ff400000 33
  font8                                      code  fffc0b40 18
 interrupt_table                            code  80000000000002d9 -858993460
* itof                                       code  fffc5b14 18
* itof.d                                     code  fffc5b14 18
* ldwu                                       code  fffc39f4 18
  log10q_0                                   data  fffcce28 32
  log10q_1                                 rodata  fffc96f8 32
  log10q_10                                rodata  fffc96b0 32
  log10q_102                                 code  fffc5a3c 18
  log10q_104                                 code  fffc59a4 18
* log10q_105                                 code  fffc59c4 18
* log10q_105.d                               code  fffc59c4 18
  log10q_106                                 code  fffc59cc 18
  log10q_106.d                               code  fffc59cc 18
* log10q_107                                 code  fffc5a78 18
  log10q_107.d                               code  fffc5a88 18
  log10q_107.t                               code  fffc5a60 18
  log10q_108                                 code  fffc5a8c 18
  log10q_108.d                               code  fffc5a8c 18
  log10q_109                                 code  fffc5b28 18
  log10q_11                                rodata  fffc96a8 32
  log10q_12                                rodata  fffc96a0 32
  log10q_13                                rodata  fffc9698 32
  log10q_14                                  data  fffcce90 32
  log10q_15                                rodata  fffc9690 32
  log10q_16                                rodata  fffc9688 32
  log10q_17                                rodata  fffc9680 32
  log10q_18                                rodata  fffc9678 32
  log10q_19                                rodata  fffc9670 32
  log10q_2                                 rodata  fffc96f0 32
  log10q_20                                rodata  fffc9668 32
  log10q_21                                rodata  fffc9660 32
  log10q_22                                rodata  fffc9658 32
  log10q_23                                rodata  fffc9650 32
  log10q_24                                rodata  fffc9648 32
  log10q_25                                rodata  fffc9640 32
  log10q_26                                rodata  fffc9638 32
  log10q_27                                  data  fffccef0 32
  log10q_28                                rodata  fffc9630 32
  log10q_29                                rodata  fffc9628 32
  log10q_3                                 rodata  fffc96e8 32
  log10q_30                                rodata  fffc9620 32
  log10q_31                                rodata  fffc9618 32
  log10q_32                                rodata  fffc9610 32
  log10q_33                                rodata  fffc9608 32
  log10q_34                                rodata  fffc9600 32
  log10q_35                                rodata  fffc95f8 32
  log10q_36                                rodata  fffc95f0 32
  log10q_37                                  data  fffccf20 32
  log10q_38                                rodata  fffc95e8 32
  log10q_39                                rodata  fffc95e0 32
  log10q_4                                 rodata  fffc96e0 32
  log10q_40                                rodata  fffc95d8 32
  log10q_41                                rodata  fffc95d0 32
  log10q_42                                rodata  fffc95c8 32
  log10q_43                                rodata  fffc95c0 32
  log10q_44                                rodata  fffc95b8 32
  log10q_45                                rodata  fffc95b0 32
  log10q_46                                rodata  fffc95a8 32
  log10q_47                                  data  fffccf50 32
  log10q_48                                rodata  fffc95a0 32
  log10q_49                                  data  fffccf58 32
  log10q_5                                 rodata  fffc96d8 32
  log10q_50                                rodata  fffc9598 32
  log10q_51                                rodata  fffc9590 32
  log10q_52                                  data  fffccf60 32
  log10q_53                                rodata  fffc9588 32
  log10q_54                                  data  fffccf68 32
  log10q_55                                rodata  fffc9580 32
  log10q_56                                rodata  fffc9578 32
  log10q_57                                  data  fffccf70 32
  log10q_58                                rodata  fffc9570 32
  log10q_6                                 rodata  fffc96d0 32
  log10q_69                                  code  fffc5860 18
  log10q_69.d                                code  fffc5860 18
  log10q_7                                 rodata  fffc96c8 32
  log10q_8                                 rodata  fffc96c0 32
  log10q_82                                  code  fffc58bc 18
  log10q_82.d                                code  fffc58bc 18
  log10q_85                                  code  fffc5af0 18
  log10q_85.d                                code  fffc5af4 18
  log10q_86                                rodata  fffc9568 32
  log10q_87                                rodata  fffc9560 32
  log10q_9                                 rodata  fffc96b8 32
  log10q_99                                  code  fffc5b58 18
  lwr                                        code  fffc5b94 18
  malloc_23                                  code  fffc5014 18
  malloc_26                                  code  fffc4f24 18
  malloc_27                                  code  fffc500c 18
  malloc_29                                  code  fffc5004 18
  malloc_31                                  code  fffc5004 18
  malloc_33                                  code  fffc4fbc 18
  malloc_35                                  code  fffc4fbc 18
  malloc_37                                  code  fffc4fe0 18
  malloc_59                                  code  fffc50c8 18
  malloc_61                                  code  fffc50c8 18
  malloc_63                                  code  fffc50ac 18
  malloc_65                                  code  fffc5120 18
  malloc_67                                  code  fffc5120 18
  malloc_69                                  code  fffc50f8 18
  malloc_7                                   code  fffc4ea8 18
  malloc_71                                  code  fffc510c 18
  prtflt_12                                  code  fffc5244 18
  prtflt_120                                 code  fffc5774 18
  prtflt_123                                 code  fffc5378 18
  prtflt_125                                 code  fffc5348 18
  prtflt_126                                 code  fffc5348 18
  prtflt_127                                 code  fffc53a8 18
  prtflt_129                                 code  fffc53f0 18
* prtflt_131                                 code  fffc53cc 18
* prtflt_133                                 code  fffc5410 18
  prtflt_133.d                               code  fffc5400 18
* prtflt_135                                 code  fffc5438 18
* prtflt_137                                 code  fffc5474 18
  prtflt_139                                 code  fffc544c 18
  prtflt_14                                  code  fffc5234 18
* prtflt_140                                 code  fffc5474 18
* prtflt_141                                 code  fffc54ac 18
  prtflt_143                                 code  fffc5488 18
* prtflt_144                                 code  fffc54a4 18
  prtflt_145                                 code  fffc54c4 18
  prtflt_146                                 code  fffc54d8 18
  prtflt_147                                 code  fffc54d4 18
  prtflt_148                                 code  fffc54d8 18
  prtflt_149                                 code  fffc5500 18
  prtflt_15                                  code  fffc525c 18
  prtflt_151                                 code  fffc5504 18
  prtflt_152                                 code  fffc5580 18
  prtflt_154                                 code  fffc5518 18
* prtflt_155                                 code  fffc5520 18
  prtflt_156                                 code  fffc5540 18
  prtflt_158                                 code  fffc5560 18
  prtflt_159                                 code  fffc5568 18
  prtflt_160                                 code  fffc5568 18
  prtflt_162                                 code  fffc5580 18
  prtflt_164                                 code  fffc55b4 18
  prtflt_166                                 code  fffc55c0 18
  prtflt_168                                 code  fffc55f0 18
  prtflt_169                                 code  fffc5600 18
  prtflt_170                                 code  fffc5604 18
  prtflt_171                                 code  fffc5618 18
  prtflt_172                                 code  fffc5638 18
  prtflt_174                                 code  fffc563c 18
  prtflt_175                                 code  fffc5650 18
  prtflt_176                                 code  fffc5664 18
  prtflt_177                                 code  fffc567c 18
  prtflt_178                                 code  fffc5680 18
  prtflt_179                                 code  fffc5694 18
  prtflt_180                                 code  fffc56b0 18
  prtflt_181                                 code  fffc56c8 18
  prtflt_182                                 code  fffc56cc 18
  prtflt_183                                 code  fffc56e0 18
  prtflt_184                                 code  fffc5744 18
  prtflt_186                                 code  fffc5744 18
  prtflt_188                                 code  fffc5708 18
  prtflt_189                                 code  fffc572c 18
  prtflt_191                                 code  fffc572c 18
  prtflt_192                                 code  fffc5744 18
  prtflt_194                                 code  fffc576c 18
  prtflt_196                                 code  fffc5750 18
  prtflt_197                                 code  fffc5768 18
  prtflt_206                                 code  fffc5824 18
  prtflt_209                                 code  fffc57c8 18
  prtflt_211                                 code  fffc57d4 18
  prtflt_213                                 code  fffc5808 18
  prtflt_30                                  code  fffc52bc 18
  prtflt_32                                  code  fffc52a8 18
  prtflt_33                                  code  fffc52ac 18
  prtflt_34                                  code  fffc52d4 18
  prtflt_36                                  code  fffc56fc 18
  prtflt_37                                rodata  fffc9558 32
  prtflt_38                                rodata  fffc9550 32
  prtflt_39                                rodata  fffc9548 32
  prtflt_40                                rodata  fffc9540 32
  prtflt_9                                   code  fffc5264 18
* r0                                         code  fffc7ef4 18
* r1                                         code  fffc3ef4 18
* r11                                        code  fffc6b48 18
* r11.d                                      code  fffc5aec 18
* r12                                        code  fffc6dc8 18
  r12.d                                      code  fffc59d0 18
* r13                                        code  fffc5b14 18
* r13.d                                      code  fffc5b24 18
* r14                                        code  fffc7834 18
  r14.d                                      code  fffc553c 18
* r15                                        code  fffc6b18 18
  r15.d                                      code  fffc59c8 18
  r16                                        code  fffc38d0 18
  r17                                        code  fffc553c 18
* r18                                        code  fffc7a44 18
 r18.0001                                   code  80000000000002ae -858993460
  r18.0002                                   code  fffc5bb8 18
  r18.0003                                   code  fffc5b9c 18
  r18.0004                                   code  fffc5bc0 18
  r18.0005                                   code  fffc5bc4 18
* r19                                        code  fffc5dd4 18
  r3                                         code  fffc5b94 18
  r4                                         code  fffc5bac 18
  ramtest_100                              rodata  fffc9520 32
  ramtest_105                                code  fffc3dbc 18
  ramtest_107                                code  fffc3dc4 18
  ramtest_22                                 code  fffc3b0c 18
  ramtest_24                                 code  fffc3b14 18
  ramtest_42                                 code  fffc3bf4 18
  ramtest_44                                 code  fffc3bfc 18
  ramtest_45                                 code  fffc3b84 18
  ramtest_46                                 code  fffc3bf0 18
  ramtest_48                                 code  fffc3be0 18
  ramtest_50                                 code  fffc3be0 18
  ramtest_56                                 code  fffc3bb8 18
  ramtest_6                                  code  fffc3a78 18
  ramtest_79                                 code  fffc3d18 18
  ramtest_8                                  code  fffc3a80 18
  ramtest_81                                 code  fffc3d20 18
  ramtest_82                                 code  fffc3c68 18
  ramtest_83                                 code  fffc3d04 18
  ramtest_85                                 code  fffc3cc8 18
  ramtest_87                                 code  fffc3cc8 18
  ramtest_93                                 code  fffc3c9c 18
  ramtest_94                                 code  fffc3cdc 18
  ramtest_96                                 code  fffc3cf0 18
  ramtest_98                                 code  fffc3cfc 18
  start                                      code  fffc0208 18
  start.st1                                  code  fffc0224 18
  start.st2                                  code  fffc0210 18
  start1                                     code  fffc02c4 18
  start3                                     code  fffc0344 18
* std                                        code  fffc7a44 18
  stdio_102                                  code  fffc3f60 18
  stdio_103                                  code  fffc3f74 18
  stdio_109                                  code  fffc3f84 18
  stdio_110                                  code  fffc3f98 18
  stdio_142                                  code  fffc411c 18
  stdio_144                                  code  fffc4124 18
  stdio_145                                  code  fffc4040 18
  stdio_147                                  code  fffc403c 18
  stdio_148                                  code  fffc4050 18
  stdio_15                                   code  fffc3e48 18
  stdio_150                                  code  fffc4060 18
  stdio_152                                  code  fffc4060 18
  stdio_154                                  code  fffc4080 18
  stdio_155                                  code  fffc40b8 18
  stdio_156                                  code  fffc40a0 18
  stdio_157                                  code  fffc40b8 18
  stdio_158                                  code  fffc40cc 18
  stdio_159                                  code  fffc40dc 18
  stdio_161                                  code  fffc40dc 18
  stdio_162                                  code  fffc4100 18
  stdio_163                                  code  fffc40f0 18
  stdio_165                                  code  fffc4100 18
  stdio_166                                  code  fffc4118 18
  stdio_17                                   code  fffc3e50 18
  stdio_175                                  code  fffc41b8 18
  stdio_178                                  code  fffc4178 18
  stdio_179                                  code  fffc4198 18
  stdio_18                                   code  fffc3e14 18
  stdio_181                                  code  fffc41a0 18
  stdio_189                                  code  fffc4234 18
  stdio_19                                   code  fffc3e44 18
  stdio_192                                  code  fffc41f4 18
  stdio_193                                  code  fffc4214 18
  stdio_195                                  code  fffc421c 18
  stdio_208                                  code  fffc42ac 18
  stdio_211                                  code  fffc4298 18
  stdio_218                                  code  fffc4310 18
  stdio_221                                  code  fffc42e8 18
  stdio_223                                  code  fffc42f8 18
  stdio_224                                  code  fffc43bc 18
  stdio_264                                  code  fffc45e8 18
  stdio_266                                  code  fffc45f0 18
  stdio_267                                  code  fffc4380 18
  stdio_268                                  code  fffc45e4 18
  stdio_270                                  code  fffc45c8 18
  stdio_271                                  code  fffc45d4 18
  stdio_272                                  code  fffc45c4 18
  stdio_284                                  code  fffc4414 18
  stdio_285                                  code  fffc4420 18
  stdio_286                                  code  fffc4430 18
  stdio_287                                  code  fffc444c 18
  stdio_288                                  code  fffc447c 18
  stdio_289                                  code  fffc4498 18
  stdio_29                                   data  fffccc92 32
  stdio_290                                  code  fffc44b4 18
  stdio_291                                  code  fffc44d8 18
  stdio_292                                  code  fffc44dc 18
  stdio_293                                  code  fffc4540 18
  stdio_294                                  code  fffc44f4 18
  stdio_295                                  code  fffc4530 18
  stdio_296                                  code  fffc4540 18
  stdio_298                                  code  fffc456c 18
  stdio_300                                  code  fffc4584 18
  stdio_301                                  code  fffc45c0 18
  stdio_73                                   code  fffc3fac 18
  stdio_75                                   code  fffc3fb4 18
  stdio_80                                   code  fffc3ee0 18
  stdio_82                                   code  fffc3edc 18
  stdio_83                                   code  fffc3eec 18
  stdio_85                                   code  fffc3ef8 18
  stdio_89                                   code  fffc3ef4 18
  stdio_90                                   code  fffc3ef4 18
  stdio_91                                   code  fffc3efc 18
  stdio_93                                   code  fffc3f18 18
  stdio_95                                   code  fffc3f40 18
  stdio_96                                   code  fffc3f50 18
  string_108                                 code  fffc4c74 18
  string_109                                 code  fffc4ca0 18
  string_111                                 code  fffc4c94 18
  string_113                                 code  fffc4c84 18
  string_132                                 code  fffc4cf4 18
  string_133                                 code  fffc4d10 18
  string_151                                 code  fffc4d48 18
  string_152                                 code  fffc4d6c 18
  string_154                                 code  fffc4d64 18
  string_156                                 code  fffc4d6c 18
  string_157                                 code  fffc4d7c 18
  string_178                                 code  fffc4ddc 18
  string_180                                 code  fffc4dc8 18
  string_181                                 code  fffc4ddc 18
  string_182                                 code  fffc4e24 18
  string_184                                 code  fffc4e04 18
  string_186                                 code  fffc4e00 18
  string_188                                 code  fffc4e14 18
  string_202                                 code  fffc4e4c 18
  string_203                                 code  fffc4e78 18
  string_205                                 code  fffc4e6c 18
  string_207                                 code  fffc4e5c 18
  string_63                                  code  fffc4bb4 18
  string_64                                  code  fffc4bcc 18
  string_65                                  code  fffc4b9c 18
  string_66                                  code  fffc4bb0 18
  string_68                                  code  fffc4bb8 18
  string_69                                  code  fffc4bcc 18
  string_87                                  code  fffc4c24 18
  string_88                                  code  fffc4c40 18
  string_89                                  code  fffc4c08 18
  string_90                                  code  fffc4c20 18
  string_92                                  code  fffc4c28 18
  string_93                                  code  fffc4c40 18
* stt                                        code  fffc5dd4 18
  swc                                        code  fffc5bac 18
* t2                                         code  fffc6a90 18
* t2.d                                       code  fffc5a70 18
  t3                                         code  fffc6694 18
  t4                                         code  fffc6694 18
  tblvect                                    code  fffc0f40 18
  test_icache                                code  fffc0104 18
  test_icache.st2                            code  fffc01c8 18
  test_icache.st3                            code  fffc0190 18
  test_icache.st4                            code  fffc0148 18
  test_icache.st5                            code  fffc01b4 18
* v0                                         code  fffc8070 18
  v0.d                                       code  fffc5ae8 18
* v1                                         code  fffc8070 18
* v2                                         code  fffc7598 18
* v2.d                                       code  fffc5b14 18
* v3                                         code  fffc7598 18
* v3.d                                       code  fffc5afc 18
  vec1data                                   code  fffc0fc0 18
  vec2data                                   code  fffc1040 18
0 compressable instructions
The top 1024 are:
Comp  Opcode  Count

number of bytes: 0
number of instructions: 15626
4.000000 bytes (32 bits) per instruction
